

Microchip MPLAB XC8 Assembler V2.40 build 20220703182018 
                                                                                               Sun Jul 28 12:08:21 2024

Microchip MPLAB XC8 C Compiler v2.40 (Free license) build 20220703182018 Og1 
     1                           	processor	18F4550
     2                           	fnconf	rparam,??,?,0
     3                           	pagewidth 120
     4                           	opt	flic
     5                           	psect	idataCOMRAM,global,class=CODE,delta=1,noexec
     6                           	psect	idataBANK0,global,class=CODE,delta=1,noexec
     7                           	psect	smallconst,global,reloc=2,class=SMALLCONST,delta=1,noexec
     8                           	psect	cinit,global,reloc=2,class=CODE,delta=1
     9                           	psect	dataCOMRAM,global,class=COMRAM,space=1,delta=1,lowdata,noexec
    10                           	psect	bssBANK0,global,class=BANK0,space=1,delta=1,lowdata,noexec
    11                           	psect	dataBANK0,global,class=BANK0,space=1,delta=1,lowdata,noexec
    12                           	psect	bssBANK1,global,class=BANK1,space=1,delta=1,lowdata,noexec
    13                           	psect	cstackBANK0,global,class=BANK0,space=1,delta=1,lowdata,noexec
    14                           	psect	cstackCOMRAM,global,class=COMRAM,space=1,delta=1,lowdata,noexec
    15                           	psect	text0,global,reloc=2,class=CODE,delta=1
    16                           	psect	text1,global,reloc=2,class=CODE,delta=1
    17                           	psect	text2,global,reloc=2,class=CODE,delta=1
    18                           	psect	text3,global,reloc=2,class=CODE,delta=1
    19                           	psect	text4,global,reloc=2,class=CODE,delta=1
    20                           	psect	text5,global,reloc=2,class=CODE,delta=1
    21                           	psect	text6,global,reloc=2,class=CODE,delta=1
    22                           	psect	text7,global,reloc=2,class=CODE,delta=1
    23                           	psect	text8,global,reloc=2,class=CODE,delta=1
    24                           	psect	text9,global,reloc=2,class=CODE,delta=1
    25                           	psect	text10,global,reloc=2,class=CODE,delta=1,group=1
    26                           	psect	text11,global,reloc=2,class=CODE,delta=1,group=1
    27                           	psect	text12,global,reloc=2,class=CODE,delta=1
    28                           	psect	text13,global,reloc=2,class=CODE,delta=1
    29                           	psect	text14,global,reloc=2,class=CODE,delta=1
    30                           	psect	text15,global,reloc=2,class=CODE,delta=1
    31                           	psect	text16,global,reloc=2,class=CODE,delta=1
    32                           	psect	text17,global,reloc=2,class=CODE,delta=1,group=1
    33                           	psect	text18,global,reloc=2,class=CODE,delta=1,group=1
    34                           	psect	text19,global,reloc=2,class=CODE,delta=1,group=1
    35                           	psect	text20,global,reloc=2,class=CODE,delta=1,group=1
    36                           	psect	text21,global,reloc=2,class=CODE,delta=1,group=1
    37                           	psect	text22,global,reloc=2,class=CODE,delta=1,group=1
    38                           	psect	text23,global,reloc=2,class=CODE,delta=1,group=1
    39                           	psect	text24,global,reloc=2,class=CODE,delta=1
    40                           	psect	text25,global,reloc=2,class=CODE,delta=1,group=1
    41                           	psect	intcode,global,reloc=2,class=CODE,delta=1
    42                           	psect	intcode_body,global,reloc=2,class=CODE,delta=1
    43                           	psect	intsave_regs,global,class=BIGRAM,space=1,delta=1,noexec
    44                           	psect	rparam,global,class=COMRAM,space=1,delta=1,noexec
    45                           	psect	temp,global,ovrld,common,class=COMRAM,space=1,delta=1
    46                           	psect	idloc,global,abs,ovrld,class=IDLOC,space=5,delta=1,noexec
    47                           	psect	config,global,abs,ovrld,class=CONFIG,space=4,delta=1,noexec
    48   000000                     
    49                           ; Version 2.40
    50                           ; Generated 17/11/2021 GMT
    51                           ; 
    52                           ; Copyright © 2021, Microchip Technology Inc. and its subsidiaries ("Microchip")
    53                           ; All rights reserved.
    54                           ; 
    55                           ; This software is developed by Microchip Technology Inc. and its subsidiaries ("Microch
      +                          ip").
    56                           ; 
    57                           ; Redistribution and use in source and binary forms, with or without modification, are
    58                           ; permitted provided that the following conditions are met:
    59                           ; 
    60                           ;     1. Redistributions of source code must retain the above copyright notice, this lis
      +                          t of
    61                           ;        conditions and the following disclaimer.
    62                           ; 
    63                           ;     2. Redistributions in binary form must reproduce the above copyright notice, this 
      +                          list
    64                           ;        of conditions and the following disclaimer in the documentation and/or other
    65                           ;        materials provided with the distribution. Publication is not required when
    66                           ;        this file is used in an embedded application.
    67                           ; 
    68                           ;     3. Microchip's name may not be used to endorse or promote products derived from th
      +                          is
    69                           ;        software without specific prior written permission.
    70                           ; 
    71                           ; THIS SOFTWARE IS PROVIDED BY MICROCHIP "AS IS" AND ANY EXPRESS OR IMPLIED WARRANTIES,
    72                           ; INCLUDING, BUT NOT LIMITED TO, THE IMPLIED WARRANTIES OF MERCHANTABILITY AND FITNESS F
      +                          OR
    73                           ; PURPOSE ARE DISCLAIMED.  IN NO EVENT SHALL MICROCHIP BE LIABLE FOR ANY DIRECT, INDIREC
      +                          T,
    74                           ; INCIDENTAL, SPECIAL, EXEMPLARY, OR CONSEQUENTIAL DAMAGES (INCLUDING BUT NOT LIMITED TO
    75                           ; PROCUREMENT OF SUBSTITUTE GOODS OR SERVICES; LOSS OF USE, DATA OR PROFITS; OR BUSINESS
    76                           ; INTERRUPTION) HOWSOEVER CAUSED AND ON ANY THEORY OF LIABILITY, WHETHER IN CONTRACT, ST
      +                          RICT
    77                           ; LIABILITY, OR TORT (INCLUDING NEGLIGENCE OR OTHERWISE) ARISING IN ANY WAY OUT OF THE U
      +                          SE OF
    78                           ; THIS SOFTWARE, EVEN IF ADVISED OF THE POSSIBILITY OF SUCH DAMAGE.
    79                           ; 
    80                           ; 
    81                           ; Code-generator required, PIC18F4550 Definitions
    82                           ; 
    83                           ; SFR Addresses
    84   000000                     
    85                           	psect	idataCOMRAM
    86   002DC4                     __pidataCOMRAM:
    87                           	callstack 0
    88                           
    89                           ;initializer for _ckd
    90                           ;twiddle.c: 7: double kp = 4, kd = 100;
    91   002DC4  CCCD               	dw	52429
    92   002DC6  3DCC               	dw	15820
    93                           
    94                           ;initializer for _es
    95   002DC8  0003               	dw	3
    96   002DCA  0005               	dw	5
    97                           
    98                           	psect	idataBANK0
    99   002D66                     __pidataBANK0:
   100                           	callstack 0
   101                           
   102                           ;initializer for _ls
   103   002D66  0008               	dw	8
   104   002D68  0007               	dw	7
   105   002D6A  0006               	dw	6
   106   002D6C  0004               	dw	4
   107   002D6E  0002               	dw	2
   108                           
   109                           ;initializer for _ckp
   110                           ;twiddle.c: 7: double kp = 4, kd = 100;
   111   002D70  CCCD               	dw	52429
   112   002D72  3DCC               	dw	15820
   113                           
   114                           ;initializer for _kd
   115   002D74  0000               	dw	0
   116   002D76  42C8               	dw	17096
   117                           
   118                           ;initializer for _kp
   119   002D78  0000               	dw	0
   120   002D7A  4080               	dw	16512
   121                           
   122                           ;initializer for _cs
   123   002D7C  0000               	dw	0
   124   002D7E  0001               	dw	1
   125                           
   126                           ;initializer for _status
   127   002D80  0001               	dw	1
   128                           
   129                           	psect	smallconst
   130   000800                     __psmallconst:
   131                           	callstack 0
   132   000800  00                 	db	0
   133   000801                     _kd_val:
   134                           	callstack 0
   135   000801  0046               	dw	70
   136   000803  0064               	dw	100
   137   000805                     __end_of_kd_val:
   138                           	callstack 0
   139   000805                     _kp_val:
   140                           	callstack 0
   141   000805  0003               	dw	3
   142   000807  0003               	dw	3
   143   000809                     __end_of_kp_val:
   144                           	callstack 0
   145   000809                     _speed_vals:
   146                           	callstack 0
   147   000809  01F4               	dw	500
   148   00080B  0258               	dw	600
   149   00080D                     __end_of_speed_vals:
   150                           	callstack 0
   151   000000                     _EECON2	set	4007
   152   000000                     _TMR1L	set	4046
   153   000000                     _TMR1H	set	4047
   154   000000                     _TMR0L	set	4054
   155   000000                     _TMR0H	set	4055
   156   000000                     _ADRESL	set	4035
   157   000000                     _ADRESH	set	4036
   158   000000                     _ADCON0bits	set	4034
   159   000000                     _PORTCbits	set	3970
   160   000000                     _T2CONbits	set	4042
   161   000000                     _TMR0IF	set	32658
   162   000000                     _T2CKPS1	set	32337
   163   000000                     _T2CKPS0	set	32336
   164   000000                     _TMR2ON	set	32338
   165   000000                     _T2OUTPS3	set	32342
   166   000000                     _T2OUTPS2	set	32341
   167   000000                     _T2OUTPS1	set	32340
   168   000000                     _UCONbits	set	3949
   169   000000                     _PORTAbits	set	3968
   170   000000                     _PORTBbits	set	3969
   171   000000                     _PORTDbits	set	3971
   172   000000                     _PORTEbits	set	3972
   173   000000                     _TRISAbits	set	3986
   174   000000                     _TRISBbits	set	3987
   175   000000                     _CMCON	set	4020
   176   000000                     _ADCON2bits	set	4032
   177   000000                     _ADCON1bits	set	4033
   178   000000                     _T1CONbits	set	4045
   179   000000                     _RCONbits	set	4048
   180   000000                     _OSCCONbits	set	4051
   181   000000                     _T2OUTPS0	set	32339
   182   000000                     _T0CONbits	set	4053
   183   000000                     _BAUDCONbits	set	4024
   184   000000                     _CCP2CONbits	set	4026
   185   000000                     _CCP1CONbits	set	4029
   186   000000                     _UCFGbits	set	3951
   187   000000                     _INTCON2bits	set	4081
   188   000000                     _INTCONbits	set	4082
   189   000000                     _PR2	set	4043
   190   000000                     _CCPR1L	set	4030
   191   000000                     _CCPR2L	set	4027
   192   000000                     _RCSTAbits	set	4011
   193   000000                     _TXSTAbits	set	4012
   194   000000                     _SPBRG	set	4015
   195   000000                     _TRISEbits	set	3990
   196   000000                     _TRISDbits	set	3989
   197   000000                     _TRISCbits	set	3988
   198   000000                     _TXIF	set	31988
   199   000000                     _SPBRGH	set	4016
   200   000000                     _TXREG	set	4013
   201   000000                     _EECON1bits	set	4006
   202   000000                     _EEDATA	set	4008
   203   000000                     _EEADR	set	4009
   204   00080D  00                 	db	0	; dummy byte at the end
   205   000000                     
   206                           ; #config settings
   207                           
   208                           	psect	cinit
   209   002BDE                     __pcinit:
   210                           	callstack 0
   211   002BDE                     start_initialization:
   212                           	callstack 0
   213   002BDE                     __initialization:
   214                           	callstack 0
   215                           
   216                           ; Initialize objects allocated to BANK0 (28 bytes)
   217                           ; load TBLPTR registers with __pidataBANK0
   218   002BDE  0E66               	movlw	low __pidataBANK0
   219   002BE0  6EF6               	movwf	tblptrl,c
   220   002BE2  0E2D               	movlw	high __pidataBANK0
   221   002BE4  6EF7               	movwf	tblptrh,c
   222   002BE6  0E00               	movlw	low (__pidataBANK0 shr (0+16))
   223   002BE8  6EF8               	movwf	tblptru,c
   224   002BEA  EE00  F0CA         	lfsr	0,__pdataBANK0
   225   002BEE  EE10 F01C          	lfsr	1,28
   226   002BF2                     copy_data0:
   227   002BF2  0009               	tblrd		*+
   228   002BF4  CFF5 FFEE          	movff	tablat,postinc0
   229   002BF8  50E5               	movf	postdec1,w,c
   230   002BFA  50E1               	movf	fsr1l,w,c
   231   002BFC  E1FA               	bnz	copy_data0
   232                           
   233                           ; Initialize objects allocated to COMRAM (8 bytes)
   234                           ; load TBLPTR registers with __pidataCOMRAM
   235   002BFE  0EC4               	movlw	low __pidataCOMRAM
   236   002C00  6EF6               	movwf	tblptrl,c
   237   002C02  0E2D               	movlw	high __pidataCOMRAM
   238   002C04  6EF7               	movwf	tblptrh,c
   239   002C06  0E00               	movlw	low (__pidataCOMRAM shr (0+16))
   240   002C08  6EF8               	movwf	tblptru,c
   241   002C0A  EE00  F052         	lfsr	0,__pdataCOMRAM
   242   002C0E  EE10 F008          	lfsr	1,8
   243   002C12                     copy_data1:
   244   002C12  0009               	tblrd		*+
   245   002C14  CFF5 FFEE          	movff	tablat,postinc0
   246   002C18  50E5               	movf	postdec1,w,c
   247   002C1A  50E1               	movf	fsr1l,w,c
   248   002C1C  E1FA               	bnz	copy_data1
   249                           
   250                           ; Clear objects allocated to BANK1 (18 bytes)
   251   002C1E  EE01  F000         	lfsr	0,__pbssBANK1
   252   002C22  0E12               	movlw	18
   253   002C24                     clear_0:
   254   002C24  6AEE               	clrf	postinc0,c
   255   002C26  06E8               	decf	wreg,f,c
   256   002C28  E1FD               	bnz	clear_0
   257                           
   258                           ; Clear objects allocated to BANK0 (106 bytes)
   259   002C2A  EE00  F060         	lfsr	0,__pbssBANK0
   260   002C2E  0E6A               	movlw	106
   261   002C30                     clear_1:
   262   002C30  6AEE               	clrf	postinc0,c
   263   002C32  06E8               	decf	wreg,f,c
   264   002C34  E1FD               	bnz	clear_1
   265   002C36                     end_of_initialization:
   266                           	callstack 0
   267   002C36                     __end_of__initialization:
   268                           	callstack 0
   269   002C36  905A               	bcf	int$flags,0,c	;clear compiler interrupt flag (level 1)
   270   002C38  925A               	bcf	int$flags,1,c	;clear compiler interrupt flag (level 2)
   271   002C3A  0E00               	movlw	low (__Lmediumconst shr (0+16))
   272   002C3C  6EF8               	movwf	tblptru,c
   273   002C3E  0100               	movlb	0
   274   002C40  EF07  F004         	goto	_main	;jump to C main() function
   275                           
   276                           	psect	dataCOMRAM
   277   000052                     __pdataCOMRAM:
   278                           	callstack 0
   279   000052                     _ckd:
   280                           	callstack 0
   281   000052                     	ds	4
   282   000056                     _es:
   283                           	callstack 0
   284   000056                     	ds	4
   285                           
   286                           	psect	bssBANK0
   287   000060                     __pbssBANK0:
   288                           	callstack 0
   289   000060                     _time:
   290                           	callstack 0
   291   000060                     	ds	40
   292   000088                     _intern:
   293                           	callstack 0
   294   000088                     	ds	2
   295   00008A                     _best_err:
   296                           	callstack 0
   297   00008A                     	ds	2
   298   00008C                     _i:
   299                           	callstack 0
   300   00008C                     	ds	2
   301   00008E                     _mode:
   302                           	callstack 0
   303   00008E                     	ds	2
   304   000090                     _old_lp:
   305                           	callstack 0
   306   000090                     	ds	2
   307   000092                     _lp:
   308                           	callstack 0
   309   000092                     	ds	2
   310   000094                     _mins:
   311                           	callstack 0
   312   000094                     	ds	18
   313   0000A6                     _maxs:
   314                           	callstack 0
   315   0000A6                     	ds	18
   316   0000B8                     _an:
   317                           	callstack 0
   318   0000B8                     	ds	18
   319                           
   320                           	psect	dataBANK0
   321   0000CA                     __pdataBANK0:
   322                           	callstack 0
   323   0000CA                     _ls:
   324                           	callstack 0
   325   0000CA                     	ds	10
   326   0000D4                     _ckp:
   327                           	callstack 0
   328   0000D4                     	ds	4
   329   0000D8                     _kd:
   330                           	callstack 0
   331   0000D8                     	ds	4
   332   0000DC                     _kp:
   333                           	callstack 0
   334   0000DC                     	ds	4
   335   0000E0                     _cs:
   336                           	callstack 0
   337   0000E0                     	ds	4
   338   0000E4                     _status:
   339                           	callstack 0
   340   0000E4                     	ds	2
   341                           
   342                           	psect	bssBANK1
   343   000100                     __pbssBANK1:
   344                           	callstack 0
   345   000100                     _calval:
   346                           	callstack 0
   347   000100                     	ds	18
   348                           
   349                           	psect	cstackBANK0
   350   0000E6                     __pcstackBANK0:
   351                           	callstack 0
   352   0000E6                     ??_main:
   353                           
   354                           ; 1 bytes @ 0x0
   355   0000E6                     	ds	4
   356   0000EA                     main@der:
   357                           	callstack 0
   358                           
   359                           ; 2 bytes @ 0x4
   360   0000EA                     	ds	2
   361   0000EC                     main@a:
   362                           	callstack 0
   363                           
   364                           ; 2 bytes @ 0x6
   365   0000EC                     	ds	2
   366   0000EE                     main@b:
   367                           	callstack 0
   368                           
   369                           ; 2 bytes @ 0x8
   370   0000EE                     	ds	2
   371   0000F0                     main@i:
   372                           	callstack 0
   373                           
   374                           ; 2 bytes @ 0xA
   375   0000F0                     	ds	2
   376   0000F2                     main@i_346:
   377                           	callstack 0
   378                           
   379                           ; 2 bytes @ 0xC
   380   0000F2                     	ds	2
   381   0000F4                     main@fs:
   382                           	callstack 0
   383                           
   384                           ; 2 bytes @ 0xE
   385   0000F4                     	ds	2
   386   0000F6                     main@faux:
   387                           	callstack 0
   388                           
   389                           ; 2 bytes @ 0x10
   390   0000F6                     	ds	2
   391   0000F8                     main@dif:
   392                           	callstack 0
   393                           
   394                           ; 4 bytes @ 0x12
   395   0000F8                     	ds	4
   396   0000FC                     main@speed:
   397                           	callstack 0
   398                           
   399                           ; 2 bytes @ 0x16
   400   0000FC                     	ds	2
   401                           
   402                           	psect	cstackCOMRAM
   403   000001                     __pcstackCOMRAM:
   404                           	callstack 0
   405   000001                     ??_enc:
   406                           
   407                           ; 1 bytes @ 0x0
   408   000001                     	ds	4
   409   000005                     ??_read_cal:
   410   000005                     ?___awdiv:
   411                           	callstack 0
   412   000005                     ?___lmul:
   413                           	callstack 0
   414   000005                     ?___almod:
   415                           	callstack 0
   416   000005                     ?___xxtofl:
   417                           	callstack 0
   418   000005                     init_cal@i:
   419                           	callstack 0
   420   000005                     ___awdiv@dividend:
   421                           	callstack 0
   422   000005                     ___lmul@multiplier:
   423                           	callstack 0
   424   000005                     ___almod@dividend:
   425                           	callstack 0
   426   000005                     ___flge@ff1:
   427                           	callstack 0
   428   000005                     ___xxtofl@val:
   429                           	callstack 0
   430                           
   431                           ; 4 bytes @ 0x4
   432   000005                     	ds	2
   433   000007                     ___awdiv@divisor:
   434                           	callstack 0
   435                           
   436                           ; 2 bytes @ 0x6
   437   000007                     	ds	2
   438   000009                     ??___xxtofl:
   439   000009                     ___awdiv@counter:
   440                           	callstack 0
   441   000009                     ___lmul@multiplicand:
   442                           	callstack 0
   443   000009                     ___almod@divisor:
   444                           	callstack 0
   445   000009                     ___flge@ff2:
   446                           	callstack 0
   447                           
   448                           ; 4 bytes @ 0x8
   449   000009                     	ds	1
   450   00000A                     ___awdiv@sign:
   451                           	callstack 0
   452                           
   453                           ; 1 bytes @ 0x9
   454   00000A                     	ds	1
   455   00000B                     ___awdiv@quotient:
   456                           	callstack 0
   457                           
   458                           ; 2 bytes @ 0xA
   459   00000B                     	ds	2
   460   00000D                     ??_EnhancedRead:
   461   00000D                     ??___flge:
   462   00000D                     ___almod@counter:
   463                           	callstack 0
   464   00000D                     ___xxtofl@sign:
   465                           	callstack 0
   466   00000D                     MotorASpeed@S:
   467                           	callstack 0
   468   00000D                     MotorBSpeed@S:
   469                           	callstack 0
   470   00000D                     ___lmul@product:
   471                           	callstack 0
   472                           
   473                           ; 4 bytes @ 0xC
   474   00000D                     	ds	1
   475   00000E                     ___almod@sign:
   476                           	callstack 0
   477   00000E                     ___xxtofl@exp:
   478                           	callstack 0
   479   00000E                     EnhancedRead@aux:
   480                           	callstack 0
   481   00000E                     _read_cal$523:
   482                           	callstack 0
   483                           
   484                           ; 2 bytes @ 0xD
   485   00000E                     	ds	1
   486   00000F                     ??_MotorASpeed:
   487   00000F                     ??_MotorBSpeed:
   488   00000F                     ___xxtofl@arg:
   489                           	callstack 0
   490                           
   491                           ; 4 bytes @ 0xE
   492   00000F                     	ds	1
   493   000010                     EnhancedRead@i:
   494                           	callstack 0
   495   000010                     _read_cal$525:
   496                           	callstack 0
   497                           
   498                           ; 2 bytes @ 0xF
   499   000010                     	ds	1
   500   000011                     ?___aldiv:
   501                           	callstack 0
   502   000011                     ___aldiv@dividend:
   503                           	callstack 0
   504                           
   505                           ; 4 bytes @ 0x10
   506   000011                     	ds	1
   507   000012                     _read_cal$527:
   508                           	callstack 0
   509                           
   510                           ; 2 bytes @ 0x11
   511   000012                     	ds	1
   512   000013                     ?___flmul:
   513                           	callstack 0
   514   000013                     ___flmul@b:
   515                           	callstack 0
   516                           
   517                           ; 4 bytes @ 0x12
   518   000013                     	ds	1
   519   000014                     _read_cal$529:
   520                           	callstack 0
   521                           
   522                           ; 2 bytes @ 0x13
   523   000014                     	ds	1
   524   000015                     ___aldiv@divisor:
   525                           	callstack 0
   526                           
   527                           ; 4 bytes @ 0x14
   528   000015                     	ds	1
   529   000016                     read_cal@i:
   530                           	callstack 0
   531                           
   532                           ; 2 bytes @ 0x15
   533   000016                     	ds	1
   534   000017                     ___flmul@a:
   535                           	callstack 0
   536                           
   537                           ; 4 bytes @ 0x16
   538   000017                     	ds	2
   539   000019                     ___aldiv@counter:
   540                           	callstack 0
   541                           
   542                           ; 1 bytes @ 0x18
   543   000019                     	ds	1
   544   00001A                     ___aldiv@sign:
   545                           	callstack 0
   546                           
   547                           ; 1 bytes @ 0x19
   548   00001A                     	ds	1
   549   00001B                     ??___flmul:
   550   00001B                     ___aldiv@quotient:
   551                           	callstack 0
   552                           
   553                           ; 4 bytes @ 0x1A
   554   00001B                     	ds	4
   555   00001F                     ??_line_cal:
   556   00001F                     ___flmul@sign:
   557                           	callstack 0
   558                           
   559                           ; 1 bytes @ 0x1E
   560   00001F                     	ds	1
   561   000020                     ___flmul@grs:
   562                           	callstack 0
   563                           
   564                           ; 4 bytes @ 0x1F
   565   000020                     	ds	4
   566   000024                     ___flmul@aexp:
   567                           	callstack 0
   568                           
   569                           ; 1 bytes @ 0x23
   570   000024                     	ds	1
   571   000025                     ___flmul@bexp:
   572                           	callstack 0
   573   000025                     _line_cal$2432:
   574                           	callstack 0
   575                           
   576                           ; 4 bytes @ 0x24
   577   000025                     	ds	1
   578   000026                     ___flmul@prod:
   579                           	callstack 0
   580                           
   581                           ; 4 bytes @ 0x25
   582   000026                     	ds	3
   583   000029                     line_cal@a:
   584                           	callstack 0
   585                           
   586                           ; 4 bytes @ 0x28
   587   000029                     	ds	1
   588   00002A                     ___flmul@temp:
   589                           	callstack 0
   590                           
   591                           ; 2 bytes @ 0x29
   592   00002A                     	ds	2
   593   00002C                     ?___fladd:
   594                           	callstack 0
   595   00002C                     ___fladd@b:
   596                           	callstack 0
   597                           
   598                           ; 4 bytes @ 0x2B
   599   00002C                     	ds	1
   600   00002D                     line_cal@b:
   601                           	callstack 0
   602                           
   603                           ; 4 bytes @ 0x2C
   604   00002D                     	ds	3
   605   000030                     ___fladd@a:
   606                           	callstack 0
   607                           
   608                           ; 4 bytes @ 0x2F
   609   000030                     	ds	1
   610   000031                     line_cal@ok:
   611                           	callstack 0
   612                           
   613                           ; 2 bytes @ 0x30
   614   000031                     	ds	2
   615   000033                     line_cal@aux:
   616                           	callstack 0
   617                           
   618                           ; 2 bytes @ 0x32
   619   000033                     	ds	1
   620   000034                     ??___fladd:
   621                           
   622                           ; 1 bytes @ 0x33
   623   000034                     	ds	1
   624   000035                     line_cal@value:
   625                           	callstack 0
   626                           
   627                           ; 4 bytes @ 0x34
   628   000035                     	ds	3
   629   000038                     ___fladd@signs:
   630                           	callstack 0
   631                           
   632                           ; 1 bytes @ 0x37
   633   000038                     	ds	1
   634   000039                     ___fladd@aexp:
   635                           	callstack 0
   636   000039                     line_cal@i:
   637                           	callstack 0
   638                           
   639                           ; 2 bytes @ 0x38
   640   000039                     	ds	1
   641   00003A                     ___fladd@bexp:
   642                           	callstack 0
   643                           
   644                           ; 1 bytes @ 0x39
   645   00003A                     	ds	1
   646   00003B                     ___fladd@grs:
   647                           	callstack 0
   648   00003B                     line_cal@j:
   649                           	callstack 0
   650                           
   651                           ; 2 bytes @ 0x3A
   652   00003B                     	ds	1
   653   00003C                     ?___flsub:
   654                           	callstack 0
   655   00003C                     ___flsub@b:
   656                           	callstack 0
   657                           
   658                           ; 4 bytes @ 0x3B
   659   00003C                     	ds	4
   660   000040                     ___flsub@a:
   661                           	callstack 0
   662                           
   663                           ; 4 bytes @ 0x3F
   664   000040                     	ds	4
   665   000044                     ?___fltol:
   666                           	callstack 0
   667   000044                     ___fltol@f1:
   668                           	callstack 0
   669                           
   670                           ; 4 bytes @ 0x43
   671   000044                     	ds	4
   672   000048                     ??___fltol:
   673                           
   674                           ; 1 bytes @ 0x47
   675   000048                     	ds	4
   676   00004C                     ___fltol@sign1:
   677                           	callstack 0
   678                           
   679                           ; 1 bytes @ 0x4B
   680   00004C                     	ds	1
   681   00004D                     ___fltol@exp1:
   682                           	callstack 0
   683                           
   684                           ; 1 bytes @ 0x4C
   685   00004D                     	ds	1
   686   00004E                     mspeed@a:
   687                           	callstack 0
   688                           
   689                           ; 2 bytes @ 0x4D
   690   00004E                     	ds	2
   691   000050                     mspeed@b:
   692                           	callstack 0
   693                           
   694                           ; 2 bytes @ 0x4F
   695   000050                     	ds	2
   696   000052                     
   697                           ; 1 bytes @ 0x51
   698 ;;
   699 ;;Main: autosize = 0, tempsize = 4, incstack = 0, save=0
   700 ;;
   701 ;; *************** function _main *****************
   702 ;; Defined at:
   703 ;;		line 30 in file "main.c"
   704 ;; Parameters:    Size  Location     Type
   705 ;;		None
   706 ;; Auto vars:     Size  Location     Type
   707 ;;  i               2   12[BANK0 ] int 
   708 ;;  i               2   10[BANK0 ] int 
   709 ;;  dif             4   18[BANK0 ] int 
   710 ;;  speed           2   22[BANK0 ] int 
   711 ;;  der             2    4[BANK0 ] int 
   712 ;;  faux            2   16[BANK0 ] int 
   713 ;;  fs              2   14[BANK0 ] int 
   714 ;;  b               2    8[BANK0 ] int 
   715 ;;  a               2    6[BANK0 ] int 
   716 ;; Return value:  Size  Location     Type
   717 ;;                  1    wreg      void 
   718 ;; Registers used:
   719 ;;		wreg, fsr1l, fsr1h, fsr2l, fsr2h, status,2, status,0, tblptrl, tblptrh, tblptru, prodl, prodh, cstack
   720 ;; Tracked objects:
   721 ;;		On entry : 0/0
   722 ;;		On exit  : 0/0
   723 ;;		Unchanged: 0/0
   724 ;; Data sizes:     COMRAM   BANK0   BANK1   BANK2   BANK3   BANK4   BANK5   BANK6   BANK7
   725 ;;      Params:         0       0       0       0       0       0       0       0       0
   726 ;;      Locals:         0      20       0       0       0       0       0       0       0
   727 ;;      Temps:          0       4       0       0       0       0       0       0       0
   728 ;;      Totals:         0      24       0       0       0       0       0       0       0
   729 ;;Total ram usage:       24 bytes
   730 ;; Hardware stack levels required when called: 4
   731 ;; This function calls:
   732 ;;		_EnhancedRead
   733 ;;		___almod
   734 ;;		___fladd
   735 ;;		___flge
   736 ;;		___flmul
   737 ;;		___flsub
   738 ;;		___fltol
   739 ;;		___xxtofl
   740 ;;		_init_cal
   741 ;;		_init_tms
   742 ;;		_line_cal
   743 ;;		_mspeed
   744 ;;		_read_cal
   745 ;;		_setA
   746 ;;		_setB
   747 ;;		_setC
   748 ;;		_setD
   749 ;; This function is called by:
   750 ;;		Startup code after reset
   751 ;; This function uses a non-reentrant model
   752 ;;
   753                           
   754                           	psect	text0
   755   00080E                     __ptext0:
   756                           	callstack 0
   757   00080E                     _main:
   758                           	callstack 27
   759   00080E                     
   760                           ;main.c: 31: init_tms();
   761   00080E  EC22  F016         	call	_init_tms	;wreg free
   762   000812                     
   763                           ;main.c: 35: status = INIT;
   764   000812  0E00               	movlw	0
   765   000814  0100               	movlb	0	; () banked
   766   000816  6FE5               	movwf	(_status+1)& (0+255),b
   767   000818  0E01               	movlw	1
   768   00081A  6FE4               	movwf	_status& (0+255),b
   769   00081C                     
   770                           ; BSR set to: 0
   771                           ;main.c: 36: int fs = 0;
   772   00081C  0E00               	movlw	0
   773   00081E  6FF5               	movwf	(main@fs+1)& (0+255),b
   774   000820  0E00               	movlw	0
   775   000822  6FF4               	movwf	main@fs& (0+255),b
   776   000824                     
   777                           ; BSR set to: 0
   778                           ;main.c: 37: time[1] = 0;
   779   000824  0E00               	movlw	0
   780   000826  6F64               	movwf	(_time+4)& (0+255),b
   781   000828  0E00               	movlw	0
   782   00082A  6F65               	movwf	(_time+5)& (0+255),b
   783   00082C  0E00               	movlw	0
   784   00082E  6F66               	movwf	(_time+6)& (0+255),b
   785   000830  0E00               	movlw	0
   786   000832  6F67               	movwf	(_time+7)& (0+255),b
   787   000834                     
   788                           ; BSR set to: 0
   789                           ;main.c: 38: mspeed(0,0);
   790   000834  0E00               	movlw	0
   791   000836  6E4F               	movwf	(mspeed@a+1)^0,c
   792   000838  0E00               	movlw	0
   793   00083A  6E4E               	movwf	mspeed@a^0,c
   794   00083C  0E00               	movlw	0
   795   00083E  6E51               	movwf	(mspeed@b+1)^0,c
   796   000840  0E00               	movlw	0
   797   000842  6E50               	movwf	mspeed@b^0,c
   798   000844  ECC1  F016         	call	_mspeed	;wreg free
   799   000848                     
   800                           ;main.c: 39: int faux = 0;
   801   000848  0E00               	movlw	0
   802   00084A  0100               	movlb	0	; () banked
   803   00084C  6FF7               	movwf	(main@faux+1)& (0+255),b
   804   00084E  0E00               	movlw	0
   805   000850  6FF6               	movwf	main@faux& (0+255),b
   806   000852                     l3651:
   807                           
   808                           ;main.c: 43: EnhancedRead();
   809   000852  EC7C  F015         	call	_EnhancedRead	;wreg free
   810                           
   811                           ;main.c: 45: switch (status){
   812   000856  EF53  F008         	goto	l3833
   813   00085A                     l3653:
   814                           
   815                           ; BSR set to: 0
   816                           ;main.c: 47: mspeed(0,0);
   817   00085A  0E00               	movlw	0
   818   00085C  6E4F               	movwf	(mspeed@a+1)^0,c
   819   00085E  0E00               	movlw	0
   820   000860  6E4E               	movwf	mspeed@a^0,c
   821   000862  0E00               	movlw	0
   822   000864  6E51               	movwf	(mspeed@b+1)^0,c
   823   000866  0E00               	movlw	0
   824   000868  6E50               	movwf	mspeed@b^0,c
   825   00086A  ECC1  F016         	call	_mspeed	;wreg free
   826   00086E                     
   827                           ;main.c: 48: if (PORTDbits.RD0 == 0){
   828   00086E  B083               	btfsc	131,0,c	;volatile
   829   000870  EF3C  F004         	goto	u3741
   830   000874  EF3E  F004         	goto	u3740
   831   000878                     u3741:
   832   000878  EF47  F004         	goto	l52
   833   00087C                     u3740:
   834   00087C                     
   835                           ;main.c: 49: PORTBbits.RB4 = 1;
   836   00087C  8881               	bsf	129,4,c	;volatile
   837                           
   838                           ;main.c: 50: PORTDbits.RD2 = 1;
   839   00087E  8483               	bsf	131,2,c	;volatile
   840   000880                     
   841                           ;main.c: 51: a = 1000;
   842   000880  0E03               	movlw	3
   843   000882  0100               	movlb	0	; () banked
   844   000884  6FED               	movwf	(main@a+1)& (0+255),b
   845   000886  0EE8               	movlw	232
   846   000888  6FEC               	movwf	main@a& (0+255),b
   847                           
   848                           ;main.c: 52: }else{
   849   00088A  EF4E  F004         	goto	l3663
   850   00088E                     l52:
   851                           
   852                           ;main.c: 53: PORTBbits.RB4 = 0;
   853   00088E  9881               	bcf	129,4,c	;volatile
   854                           
   855                           ;main.c: 54: PORTDbits.RD2 = 0;
   856   000890  9483               	bcf	131,2,c	;volatile
   857   000892                     
   858                           ;main.c: 55: a = 0;
   859   000892  0E00               	movlw	0
   860   000894  0100               	movlb	0	; () banked
   861   000896  6FED               	movwf	(main@a+1)& (0+255),b
   862   000898  0E00               	movlw	0
   863   00089A  6FEC               	movwf	main@a& (0+255),b
   864   00089C                     l3663:
   865                           
   866                           ; BSR set to: 0
   867                           ;main.c: 56: };main.c: 57: if (PORTDbits.RD1 == 0){
   868   00089C  B283               	btfsc	131,1,c	;volatile
   869   00089E  EF53  F004         	goto	u3751
   870   0008A2  EF55  F004         	goto	u3750
   871   0008A6                     u3751:
   872   0008A6  EF5D  F004         	goto	l54
   873   0008AA                     u3750:
   874   0008AA                     
   875                           ; BSR set to: 0
   876                           ;main.c: 58: b = 1000;
   877   0008AA  0E03               	movlw	3
   878   0008AC  6FEF               	movwf	(main@b+1)& (0+255),b
   879   0008AE  0EE8               	movlw	232
   880   0008B0  6FEE               	movwf	main@b& (0+255),b
   881   0008B2                     
   882                           ; BSR set to: 0
   883                           ;main.c: 59: PORTCbits.RC1 = 1;
   884   0008B2  8282               	bsf	130,1,c	;volatile
   885   0008B4                     
   886                           ; BSR set to: 0
   887                           ;main.c: 60: PORTAbits.RA4 = 1;
   888   0008B4  8880               	bsf	128,4,c	;volatile
   889                           
   890                           ;main.c: 61: }else{
   891   0008B6  EF63  F004         	goto	l3673
   892   0008BA                     l54:
   893                           
   894                           ; BSR set to: 0
   895                           ;main.c: 62: PORTCbits.RC1 = 0;
   896   0008BA  9282               	bcf	130,1,c	;volatile
   897                           
   898                           ;main.c: 63: PORTAbits.RA4 = 0;
   899   0008BC  9880               	bcf	128,4,c	;volatile
   900   0008BE                     
   901                           ; BSR set to: 0
   902                           ;main.c: 64: b = 0;
   903   0008BE  0E00               	movlw	0
   904   0008C0  6FEF               	movwf	(main@b+1)& (0+255),b
   905   0008C2  0E00               	movlw	0
   906   0008C4  6FEE               	movwf	main@b& (0+255),b
   907   0008C6                     l3673:
   908                           
   909                           ; BSR set to: 0
   910                           ;main.c: 65: };main.c: 66: mspeed(a,b);
   911   0008C6  C0EC  F04E         	movff	main@a,mspeed@a
   912   0008CA  C0ED  F04F         	movff	main@a+1,mspeed@a+1
   913   0008CE  C0EE  F050         	movff	main@b,mspeed@b
   914   0008D2  C0EF  F051         	movff	main@b+1,mspeed@b+1
   915   0008D6  ECC1  F016         	call	_mspeed	;wreg free
   916   0008DA                     
   917                           ;main.c: 68: if (time[0] > 200 && faux == 0){
   918   0008DA  0100               	movlb	0	; () banked
   919   0008DC  BF63               	btfsc	(_time+3)& (0+255),7,b
   920   0008DE  EF7C  F004         	goto	u3761
   921   0008E2  5163               	movf	(_time+3)& (0+255),w,b
   922   0008E4  1162               	iorwf	(_time+2)& (0+255),w,b
   923   0008E6  1161               	iorwf	(_time+1)& (0+255),w,b
   924   0008E8  E109               	bnz	u3760
   925   0008EA  0EC9               	movlw	201
   926   0008EC  5D60               	subwf	_time& (0+255),w,b
   927   0008EE  A0D8               	btfss	status,0,c
   928   0008F0  EF7C  F004         	goto	u3761
   929   0008F4  EF7E  F004         	goto	u3760
   930   0008F8                     u3761:
   931   0008F8  EF8B  F004         	goto	l3681
   932   0008FC                     u3760:
   933   0008FC                     
   934                           ; BSR set to: 0
   935   0008FC  51F6               	movf	main@faux& (0+255),w,b
   936   0008FE  11F7               	iorwf	(main@faux+1)& (0+255),w,b
   937   000900  A4D8               	btfss	status,2,c
   938   000902  EF85  F004         	goto	u3771
   939   000906  EF87  F004         	goto	u3770
   940   00090A                     u3771:
   941   00090A  EF8B  F004         	goto	l3681
   942   00090E                     u3770:
   943   00090E                     
   944                           ; BSR set to: 0
   945                           ;main.c: 70: faux = 1;
   946   00090E  0E00               	movlw	0
   947   000910  6FF7               	movwf	(main@faux+1)& (0+255),b
   948   000912  0E01               	movlw	1
   949   000914  6FF6               	movwf	main@faux& (0+255),b
   950   000916                     l3681:
   951                           
   952                           ; BSR set to: 0
   953                           ;main.c: 71: };main.c: 72: if (faux == 1 && time[0] > 400){
   954   000916  05F6               	decf	main@faux& (0+255),w,b
   955   000918  11F7               	iorwf	(main@faux+1)& (0+255),w,b
   956   00091A  A4D8               	btfss	status,2,c
   957   00091C  EF92  F004         	goto	u3781
   958   000920  EF94  F004         	goto	u3780
   959   000924                     u3781:
   960   000924  EF29  F004         	goto	l3651
   961   000928                     u3780:
   962   000928                     
   963                           ; BSR set to: 0
   964   000928  BF63               	btfsc	(_time+3)& (0+255),7,b
   965   00092A  EFA3  F004         	goto	u3791
   966   00092E  5163               	movf	(_time+3)& (0+255),w,b
   967   000930  1162               	iorwf	(_time+2)& (0+255),w,b
   968   000932  E10B               	bnz	u3790
   969   000934  0E91               	movlw	145
   970   000936  5D60               	subwf	_time& (0+255),w,b
   971   000938  0E01               	movlw	1
   972   00093A  5961               	subwfb	(_time+1)& (0+255),w,b
   973   00093C  A0D8               	btfss	status,0,c
   974   00093E  EFA3  F004         	goto	u3791
   975   000942  EFA5  F004         	goto	u3790
   976   000946                     u3791:
   977   000946  EF29  F004         	goto	l3651
   978   00094A                     u3790:
   979   00094A                     
   980                           ; BSR set to: 0
   981                           ;main.c: 74: time[0] = 0;
   982   00094A  0E00               	movlw	0
   983   00094C  6F60               	movwf	_time& (0+255),b
   984   00094E  0E00               	movlw	0
   985   000950  6F61               	movwf	(_time+1)& (0+255),b
   986   000952  0E00               	movlw	0
   987   000954  6F62               	movwf	(_time+2)& (0+255),b
   988   000956  0E00               	movlw	0
   989   000958  6F63               	movwf	(_time+3)& (0+255),b
   990                           
   991                           ;main.c: 75: faux = 0;
   992   00095A  0E00               	movlw	0
   993   00095C  6FF7               	movwf	(main@faux+1)& (0+255),b
   994   00095E  0E00               	movlw	0
   995   000960  6FF6               	movwf	main@faux& (0+255),b
   996   000962  EF29  F004         	goto	l3651
   997   000966                     l3687:
   998                           
   999                           ; BSR set to: 0
  1000                           ;main.c: 81: mspeed(0,0);
  1001   000966  0E00               	movlw	0
  1002   000968  6E4F               	movwf	(mspeed@a+1)^0,c
  1003   00096A  0E00               	movlw	0
  1004   00096C  6E4E               	movwf	mspeed@a^0,c
  1005   00096E  0E00               	movlw	0
  1006   000970  6E51               	movwf	(mspeed@b+1)^0,c
  1007   000972  0E00               	movlw	0
  1008   000974  6E50               	movwf	mspeed@b^0,c
  1009   000976  ECC1  F016         	call	_mspeed	;wreg free
  1010   00097A                     
  1011                           ;main.c: 82: if (fs == 0 && time[1] > 2000){
  1012   00097A  0100               	movlb	0	; () banked
  1013   00097C  51F4               	movf	main@fs& (0+255),w,b
  1014   00097E  11F5               	iorwf	(main@fs+1)& (0+255),w,b
  1015   000980  A4D8               	btfss	status,2,c
  1016   000982  EFC5  F004         	goto	u3801
  1017   000986  EFC7  F004         	goto	u3800
  1018   00098A                     u3801:
  1019   00098A  EFDC  F004         	goto	l3695
  1020   00098E                     u3800:
  1021   00098E                     
  1022                           ; BSR set to: 0
  1023   00098E  BF67               	btfsc	(_time+7)& (0+255),7,b
  1024   000990  EFD6  F004         	goto	u3811
  1025   000994  5167               	movf	(_time+7)& (0+255),w,b
  1026   000996  1166               	iorwf	(_time+6)& (0+255),w,b
  1027   000998  E10B               	bnz	u3810
  1028   00099A  0ED1               	movlw	209
  1029   00099C  5D64               	subwf	(_time+4)& (0+255),w,b
  1030   00099E  0E07               	movlw	7
  1031   0009A0  5965               	subwfb	(_time+5)& (0+255),w,b
  1032   0009A2  A0D8               	btfss	status,0,c
  1033   0009A4  EFD6  F004         	goto	u3811
  1034   0009A8  EFD8  F004         	goto	u3810
  1035   0009AC                     u3811:
  1036   0009AC  EFDC  F004         	goto	l3695
  1037   0009B0                     u3810:
  1038   0009B0                     
  1039                           ; BSR set to: 0
  1040                           ;main.c: 84: fs = 1;
  1041   0009B0  0E00               	movlw	0
  1042   0009B2  6FF5               	movwf	(main@fs+1)& (0+255),b
  1043   0009B4  0E01               	movlw	1
  1044   0009B6  6FF4               	movwf	main@fs& (0+255),b
  1045   0009B8                     l3695:
  1046                           
  1047                           ; BSR set to: 0
  1048                           ;main.c: 85: };main.c: 86: if (fs == 1 && time[1] > 4000){
  1049   0009B8  05F4               	decf	main@fs& (0+255),w,b
  1050   0009BA  11F5               	iorwf	(main@fs+1)& (0+255),w,b
  1051   0009BC  A4D8               	btfss	status,2,c
  1052   0009BE  EFE3  F004         	goto	u3821
  1053   0009C2  EFE5  F004         	goto	u3820
  1054   0009C6                     u3821:
  1055   0009C6  EFFA  F004         	goto	l3701
  1056   0009CA                     u3820:
  1057   0009CA                     
  1058                           ; BSR set to: 0
  1059   0009CA  BF67               	btfsc	(_time+7)& (0+255),7,b
  1060   0009CC  EFF4  F004         	goto	u3831
  1061   0009D0  5167               	movf	(_time+7)& (0+255),w,b
  1062   0009D2  1166               	iorwf	(_time+6)& (0+255),w,b
  1063   0009D4  E10B               	bnz	u3830
  1064   0009D6  0EA1               	movlw	161
  1065   0009D8  5D64               	subwf	(_time+4)& (0+255),w,b
  1066   0009DA  0E0F               	movlw	15
  1067   0009DC  5965               	subwfb	(_time+5)& (0+255),w,b
  1068   0009DE  A0D8               	btfss	status,0,c
  1069   0009E0  EFF4  F004         	goto	u3831
  1070   0009E4  EFF6  F004         	goto	u3830
  1071   0009E8                     u3831:
  1072   0009E8  EFFA  F004         	goto	l3701
  1073   0009EC                     u3830:
  1074   0009EC                     
  1075                           ; BSR set to: 0
  1076                           ;main.c: 88: fs = 2;
  1077   0009EC  0E00               	movlw	0
  1078   0009EE  6FF5               	movwf	(main@fs+1)& (0+255),b
  1079   0009F0  0E02               	movlw	2
  1080   0009F2  6FF4               	movwf	main@fs& (0+255),b
  1081   0009F4                     l3701:
  1082                           
  1083                           ; BSR set to: 0
  1084                           ;main.c: 89: };main.c: 90: if (time[0] < 1000) setA();
  1085   0009F4  BF63               	btfsc	(_time+3)& (0+255),7,b
  1086   0009F6  EF0B  F005         	goto	u3840
  1087   0009FA  5163               	movf	(_time+3)& (0+255),w,b
  1088   0009FC  1162               	iorwf	(_time+2)& (0+255),w,b
  1089   0009FE  E109               	bnz	u3841
  1090   000A00  0EE8               	movlw	232
  1091   000A02  5D60               	subwf	_time& (0+255),w,b
  1092   000A04  0E03               	movlw	3
  1093   000A06  5961               	subwfb	(_time+1)& (0+255),w,b
  1094   000A08  B0D8               	btfsc	status,0,c
  1095   000A0A  EF09  F005         	goto	u3841
  1096   000A0E  EF0B  F005         	goto	u3840
  1097   000A12                     u3841:
  1098   000A12  EF0D  F005         	goto	l3705
  1099   000A16                     u3840:
  1100   000A16                     
  1101                           ; BSR set to: 0
  1102   000A16  ECDD  F016         	call	_setA	;wreg free
  1103   000A1A                     l3705:
  1104                           
  1105                           ;main.c: 91: if (time[0] > 1000 && time[0] < 2000) setB();
  1106   000A1A  0100               	movlb	0	; () banked
  1107   000A1C  BF63               	btfsc	(_time+3)& (0+255),7,b
  1108   000A1E  EF1D  F005         	goto	u3851
  1109   000A22  5163               	movf	(_time+3)& (0+255),w,b
  1110   000A24  1162               	iorwf	(_time+2)& (0+255),w,b
  1111   000A26  E10B               	bnz	u3850
  1112   000A28  0EE9               	movlw	233
  1113   000A2A  5D60               	subwf	_time& (0+255),w,b
  1114   000A2C  0E03               	movlw	3
  1115   000A2E  5961               	subwfb	(_time+1)& (0+255),w,b
  1116   000A30  A0D8               	btfss	status,0,c
  1117   000A32  EF1D  F005         	goto	u3851
  1118   000A36  EF1F  F005         	goto	u3850
  1119   000A3A                     u3851:
  1120   000A3A  EF32  F005         	goto	l3711
  1121   000A3E                     u3850:
  1122   000A3E                     
  1123                           ; BSR set to: 0
  1124   000A3E  BF63               	btfsc	(_time+3)& (0+255),7,b
  1125   000A40  EF30  F005         	goto	u3860
  1126   000A44  5163               	movf	(_time+3)& (0+255),w,b
  1127   000A46  1162               	iorwf	(_time+2)& (0+255),w,b
  1128   000A48  E109               	bnz	u3861
  1129   000A4A  0ED0               	movlw	208
  1130   000A4C  5D60               	subwf	_time& (0+255),w,b
  1131   000A4E  0E07               	movlw	7
  1132   000A50  5961               	subwfb	(_time+1)& (0+255),w,b
  1133   000A52  B0D8               	btfsc	status,0,c
  1134   000A54  EF2E  F005         	goto	u3861
  1135   000A58  EF30  F005         	goto	u3860
  1136   000A5C                     u3861:
  1137   000A5C  EF32  F005         	goto	l3711
  1138   000A60                     u3860:
  1139   000A60                     
  1140                           ; BSR set to: 0
  1141   000A60  ECD8  F016         	call	_setB	;wreg free
  1142   000A64                     l3711:
  1143                           
  1144                           ;main.c: 92: if (time[0] > 2000 && time[0] < 3000) setC();
  1145   000A64  0100               	movlb	0	; () banked
  1146   000A66  BF63               	btfsc	(_time+3)& (0+255),7,b
  1147   000A68  EF42  F005         	goto	u3871
  1148   000A6C  5163               	movf	(_time+3)& (0+255),w,b
  1149   000A6E  1162               	iorwf	(_time+2)& (0+255),w,b
  1150   000A70  E10B               	bnz	u3870
  1151   000A72  0ED1               	movlw	209
  1152   000A74  5D60               	subwf	_time& (0+255),w,b
  1153   000A76  0E07               	movlw	7
  1154   000A78  5961               	subwfb	(_time+1)& (0+255),w,b
  1155   000A7A  A0D8               	btfss	status,0,c
  1156   000A7C  EF42  F005         	goto	u3871
  1157   000A80  EF44  F005         	goto	u3870
  1158   000A84                     u3871:
  1159   000A84  EF57  F005         	goto	l3717
  1160   000A88                     u3870:
  1161   000A88                     
  1162                           ; BSR set to: 0
  1163   000A88  BF63               	btfsc	(_time+3)& (0+255),7,b
  1164   000A8A  EF55  F005         	goto	u3880
  1165   000A8E  5163               	movf	(_time+3)& (0+255),w,b
  1166   000A90  1162               	iorwf	(_time+2)& (0+255),w,b
  1167   000A92  E109               	bnz	u3881
  1168   000A94  0EB8               	movlw	184
  1169   000A96  5D60               	subwf	_time& (0+255),w,b
  1170   000A98  0E0B               	movlw	11
  1171   000A9A  5961               	subwfb	(_time+1)& (0+255),w,b
  1172   000A9C  B0D8               	btfsc	status,0,c
  1173   000A9E  EF53  F005         	goto	u3881
  1174   000AA2  EF55  F005         	goto	u3880
  1175   000AA6                     u3881:
  1176   000AA6  EF57  F005         	goto	l3717
  1177   000AAA                     u3880:
  1178   000AAA                     
  1179                           ; BSR set to: 0
  1180   000AAA  ECD3  F016         	call	_setC	;wreg free
  1181   000AAE                     l3717:
  1182                           
  1183                           ;main.c: 93: if (time[0] > 3000 && time[0] < 4000) setD();
  1184   000AAE  0100               	movlb	0	; () banked
  1185   000AB0  BF63               	btfsc	(_time+3)& (0+255),7,b
  1186   000AB2  EF67  F005         	goto	u3891
  1187   000AB6  5163               	movf	(_time+3)& (0+255),w,b
  1188   000AB8  1162               	iorwf	(_time+2)& (0+255),w,b
  1189   000ABA  E10B               	bnz	u3890
  1190   000ABC  0EB9               	movlw	185
  1191   000ABE  5D60               	subwf	_time& (0+255),w,b
  1192   000AC0  0E0B               	movlw	11
  1193   000AC2  5961               	subwfb	(_time+1)& (0+255),w,b
  1194   000AC4  A0D8               	btfss	status,0,c
  1195   000AC6  EF67  F005         	goto	u3891
  1196   000ACA  EF69  F005         	goto	u3890
  1197   000ACE                     u3891:
  1198   000ACE  EF7C  F005         	goto	l3723
  1199   000AD2                     u3890:
  1200   000AD2                     
  1201                           ; BSR set to: 0
  1202   000AD2  BF63               	btfsc	(_time+3)& (0+255),7,b
  1203   000AD4  EF7A  F005         	goto	u3900
  1204   000AD8  5163               	movf	(_time+3)& (0+255),w,b
  1205   000ADA  1162               	iorwf	(_time+2)& (0+255),w,b
  1206   000ADC  E109               	bnz	u3901
  1207   000ADE  0EA0               	movlw	160
  1208   000AE0  5D60               	subwf	_time& (0+255),w,b
  1209   000AE2  0E0F               	movlw	15
  1210   000AE4  5961               	subwfb	(_time+1)& (0+255),w,b
  1211   000AE6  B0D8               	btfsc	status,0,c
  1212   000AE8  EF78  F005         	goto	u3901
  1213   000AEC  EF7A  F005         	goto	u3900
  1214   000AF0                     u3901:
  1215   000AF0  EF7C  F005         	goto	l3723
  1216   000AF4                     u3900:
  1217   000AF4                     
  1218                           ; BSR set to: 0
  1219   000AF4  ECCE  F016         	call	_setD	;wreg free
  1220   000AF8                     l3723:
  1221                           
  1222                           ;main.c: 94: if (time[0] > 4000) time[0] = 0;
  1223   000AF8  0100               	movlb	0	; () banked
  1224   000AFA  BF63               	btfsc	(_time+3)& (0+255),7,b
  1225   000AFC  EF8C  F005         	goto	u3911
  1226   000B00  5163               	movf	(_time+3)& (0+255),w,b
  1227   000B02  1162               	iorwf	(_time+2)& (0+255),w,b
  1228   000B04  E10B               	bnz	u3910
  1229   000B06  0EA1               	movlw	161
  1230   000B08  5D60               	subwf	_time& (0+255),w,b
  1231   000B0A  0E0F               	movlw	15
  1232   000B0C  5961               	subwfb	(_time+1)& (0+255),w,b
  1233   000B0E  A0D8               	btfss	status,0,c
  1234   000B10  EF8C  F005         	goto	u3911
  1235   000B14  EF8E  F005         	goto	u3910
  1236   000B18                     u3911:
  1237   000B18  EF96  F005         	goto	l3727
  1238   000B1C                     u3910:
  1239   000B1C                     
  1240                           ; BSR set to: 0
  1241   000B1C  0E00               	movlw	0
  1242   000B1E  6F60               	movwf	_time& (0+255),b
  1243   000B20  0E00               	movlw	0
  1244   000B22  6F61               	movwf	(_time+1)& (0+255),b
  1245   000B24  0E00               	movlw	0
  1246   000B26  6F62               	movwf	(_time+2)& (0+255),b
  1247   000B28  0E00               	movlw	0
  1248   000B2A  6F63               	movwf	(_time+3)& (0+255),b
  1249   000B2C                     l3727:
  1250                           
  1251                           ; BSR set to: 0
  1252                           ;main.c: 96: if (PORTDbits.RD0 == 0){
  1253   000B2C  B083               	btfsc	131,0,c	;volatile
  1254   000B2E  EF9B  F005         	goto	u3921
  1255   000B32  EF9D  F005         	goto	u3920
  1256   000B36                     u3921:
  1257   000B36  EF29  F004         	goto	l3651
  1258   000B3A                     u3920:
  1259   000B3A                     
  1260                           ; BSR set to: 0
  1261                           ;main.c: 98: status = CAL;
  1262   000B3A  0E00               	movlw	0
  1263   000B3C  6FE5               	movwf	(_status+1)& (0+255),b
  1264   000B3E  0E02               	movlw	2
  1265   000B40  6FE4               	movwf	_status& (0+255),b
  1266                           
  1267                           ;main.c: 99: time[0] = 0;
  1268   000B42  0E00               	movlw	0
  1269   000B44  6F60               	movwf	_time& (0+255),b
  1270   000B46  0E00               	movlw	0
  1271   000B48  6F61               	movwf	(_time+1)& (0+255),b
  1272   000B4A  0E00               	movlw	0
  1273   000B4C  6F62               	movwf	(_time+2)& (0+255),b
  1274   000B4E  0E00               	movlw	0
  1275   000B50  6F63               	movwf	(_time+3)& (0+255),b
  1276   000B52                     
  1277                           ; BSR set to: 0
  1278                           ;main.c: 100: init_cal();
  1279   000B52  EC39  F015         	call	_init_cal	;wreg free
  1280   000B56  EF29  F004         	goto	l3651
  1281   000B5A                     l3733:
  1282                           
  1283                           ; BSR set to: 0
  1284                           ;main.c: 104: mspeed(0,0);
  1285   000B5A  0E00               	movlw	0
  1286   000B5C  6E4F               	movwf	(mspeed@a+1)^0,c
  1287   000B5E  0E00               	movlw	0
  1288   000B60  6E4E               	movwf	mspeed@a^0,c
  1289   000B62  0E00               	movlw	0
  1290   000B64  6E51               	movwf	(mspeed@b+1)^0,c
  1291   000B66  0E00               	movlw	0
  1292   000B68  6E50               	movwf	mspeed@b^0,c
  1293   000B6A  ECC1  F016         	call	_mspeed	;wreg free
  1294                           
  1295                           ;main.c: 105: PORTBbits.RB4 = time[0] % 1000 > 500;
  1296   000B6E  C060  F005         	movff	_time,___almod@dividend
  1297   000B72  C061  F006         	movff	_time+1,___almod@dividend+1
  1298   000B76  C062  F007         	movff	_time+2,___almod@dividend+2
  1299   000B7A  C063  F008         	movff	_time+3,___almod@dividend+3
  1300   000B7E  0EE8               	movlw	232
  1301   000B80  6E09               	movwf	___almod@divisor^0,c
  1302   000B82  0E03               	movlw	3
  1303   000B84  6E0A               	movwf	(___almod@divisor+1)^0,c
  1304   000B86  0E00               	movlw	0
  1305   000B88  6E0B               	movwf	(___almod@divisor+2)^0,c
  1306   000B8A  0E00               	movlw	0
  1307   000B8C  6E0C               	movwf	(___almod@divisor+3)^0,c
  1308   000B8E  EC50  F013         	call	___almod	;wreg free
  1309   000B92  BE08               	btfsc	(?___almod+3)^0,7,c
  1310   000B94  EFDD  F005         	goto	u3930
  1311   000B98  5008               	movf	(?___almod+3)^0,w,c
  1312   000B9A  1007               	iorwf	(?___almod+2)^0,w,c
  1313   000B9C  E109               	bnz	u3931
  1314   000B9E  0EF5               	movlw	245
  1315   000BA0  5C05               	subwf	?___almod^0,w,c
  1316   000BA2  0E01               	movlw	1
  1317   000BA4  5806               	subwfb	(?___almod+1)^0,w,c
  1318   000BA6  B0D8               	btfsc	status,0,c
  1319   000BA8  EFD8  F005         	goto	u3931
  1320   000BAC  EFDD  F005         	goto	u3930
  1321   000BB0                     u3931:
  1322   000BB0  0100               	movlb	0	; () banked
  1323   000BB2  6BE6               	clrf	??_main& (0+255),b
  1324   000BB4  2BE6               	incf	??_main& (0+255),f,b
  1325   000BB6  EFDF  F005         	goto	u3948
  1326   000BBA                     u3930:
  1327   000BBA  0100               	movlb	0	; () banked
  1328   000BBC  6BE6               	clrf	??_main& (0+255),b
  1329   000BBE                     u3948:
  1330   000BBE  3BE6               	swapf	??_main& (0+255),f,b
  1331   000BC0  5081               	movf	129,w,c	;volatile
  1332   000BC2  19E6               	xorwf	??_main& (0+255),w,b
  1333   000BC4  0BEF               	andlw	-17
  1334   000BC6  19E6               	xorwf	??_main& (0+255),w,b
  1335   000BC8  6E81               	movwf	129,c	;volatile
  1336   000BCA                     
  1337                           ; BSR set to: 0
  1338                           ;main.c: 106: PORTCbits.RC1 = 0;
  1339   000BCA  9282               	bcf	130,1,c	;volatile
  1340   000BCC                     
  1341                           ; BSR set to: 0
  1342                           ;main.c: 107: PORTDbits.RD2 = 0;
  1343   000BCC  9483               	bcf	131,2,c	;volatile
  1344   000BCE                     
  1345                           ; BSR set to: 0
  1346                           ;main.c: 108: PORTAbits.RA4 = 0;
  1347   000BCE  9880               	bcf	128,4,c	;volatile
  1348   000BD0                     
  1349                           ; BSR set to: 0
  1350                           ;main.c: 109: read_cal();
  1351   000BD0  EC82  F008         	call	_read_cal	;wreg free
  1352   000BD4                     
  1353                           ;main.c: 111: if (PORTDbits.RD1 == 0){
  1354   000BD4  B283               	btfsc	131,1,c	;volatile
  1355   000BD6  EFEF  F005         	goto	u3951
  1356   000BDA  EFF1  F005         	goto	u3950
  1357   000BDE                     u3951:
  1358   000BDE  EF29  F004         	goto	l3651
  1359   000BE2                     u3950:
  1360   000BE2                     
  1361                           ;main.c: 114: int i;;main.c: 115: time[2] = 0;
  1362   000BE2  0E00               	movlw	0
  1363   000BE4  0100               	movlb	0	; () banked
  1364   000BE6  6F68               	movwf	(_time+8)& (0+255),b
  1365   000BE8  0E00               	movlw	0
  1366   000BEA  6F69               	movwf	(_time+9)& (0+255),b
  1367   000BEC  0E00               	movlw	0
  1368   000BEE  6F6A               	movwf	(_time+10)& (0+255),b
  1369   000BF0  0E00               	movlw	0
  1370   000BF2  6F6B               	movwf	(_time+11)& (0+255),b
  1371                           
  1372                           ;main.c: 116: for (i = 0;i < 5;i++){
  1373   000BF4  0E00               	movlw	0
  1374   000BF6  6FF1               	movwf	(main@i+1)& (0+255),b
  1375   000BF8  0E00               	movlw	0
  1376   000BFA  6FF0               	movwf	main@i& (0+255),b
  1377   000BFC                     l3751:
  1378                           
  1379                           ; BSR set to: 0
  1380   000BFC  BF6B               	btfsc	(_time+11)& (0+255),7,b
  1381   000BFE  EF0C  F006         	goto	u3961
  1382   000C02  516B               	movf	(_time+11)& (0+255),w,b
  1383   000C04  116A               	iorwf	(_time+10)& (0+255),w,b
  1384   000C06  1169               	iorwf	(_time+9)& (0+255),w,b
  1385   000C08  E109               	bnz	u3960
  1386   000C0A  0E64               	movlw	100
  1387   000C0C  5D68               	subwf	(_time+8)& (0+255),w,b
  1388   000C0E  A0D8               	btfss	status,0,c
  1389   000C10  EF0C  F006         	goto	u3961
  1390   000C14  EF0E  F006         	goto	u3960
  1391   000C18                     u3961:
  1392   000C18  EFFE  F005         	goto	l3751
  1393   000C1C                     u3960:
  1394   000C1C                     
  1395                           ; BSR set to: 0
  1396                           ;main.c: 119: time[2] = 0;
  1397   000C1C  0E00               	movlw	0
  1398   000C1E  6F68               	movwf	(_time+8)& (0+255),b
  1399   000C20  0E00               	movlw	0
  1400   000C22  6F69               	movwf	(_time+9)& (0+255),b
  1401   000C24  0E00               	movlw	0
  1402   000C26  6F6A               	movwf	(_time+10)& (0+255),b
  1403   000C28  0E00               	movlw	0
  1404   000C2A  6F6B               	movwf	(_time+11)& (0+255),b
  1405   000C2C                     
  1406                           ; BSR set to: 0
  1407   000C2C  4BF0               	infsnz	main@i& (0+255),f,b
  1408   000C2E  2BF1               	incf	(main@i+1)& (0+255),f,b
  1409   000C30                     
  1410                           ; BSR set to: 0
  1411   000C30  BFF1               	btfsc	(main@i+1)& (0+255),7,b
  1412   000C32  EF24  F006         	goto	u3971
  1413   000C36  51F1               	movf	(main@i+1)& (0+255),w,b
  1414   000C38  E109               	bnz	u3970
  1415   000C3A  0E05               	movlw	5
  1416   000C3C  5DF0               	subwf	main@i& (0+255),w,b
  1417   000C3E  A0D8               	btfss	status,0,c
  1418   000C40  EF24  F006         	goto	u3971
  1419   000C44  EF26  F006         	goto	u3970
  1420   000C48                     u3971:
  1421   000C48  EFFE  F005         	goto	l3751
  1422   000C4C                     u3970:
  1423   000C4C                     
  1424                           ; BSR set to: 0
  1425                           ;main.c: 120: };main.c: 121: status = WAIT_RELEASE_FOR_READY;
  1426   000C4C  0E00               	movlw	0
  1427   000C4E  6FE5               	movwf	(_status+1)& (0+255),b
  1428   000C50  0E06               	movlw	6
  1429   000C52  6FE4               	movwf	_status& (0+255),b
  1430                           
  1431                           ;main.c: 122: time[0] = 0;
  1432   000C54  0E00               	movlw	0
  1433   000C56  6F60               	movwf	_time& (0+255),b
  1434   000C58  0E00               	movlw	0
  1435   000C5A  6F61               	movwf	(_time+1)& (0+255),b
  1436   000C5C  0E00               	movlw	0
  1437   000C5E  6F62               	movwf	(_time+2)& (0+255),b
  1438   000C60  0E00               	movlw	0
  1439   000C62  6F63               	movwf	(_time+3)& (0+255),b
  1440   000C64  EF29  F004         	goto	l3651
  1441   000C68                     l75:
  1442                           
  1443                           ; BSR set to: 0
  1444                           ;main.c: 126: if (PORTDbits.RD1 == 1){
  1445   000C68  A283               	btfss	131,1,c	;volatile
  1446   000C6A  EF39  F006         	goto	u3981
  1447   000C6E  EF3B  F006         	goto	u3980
  1448   000C72                     u3981:
  1449   000C72  EF29  F004         	goto	l3651
  1450   000C76                     u3980:
  1451   000C76                     
  1452                           ; BSR set to: 0
  1453                           ;main.c: 127: status = READY;
  1454   000C76  0E00               	movlw	0
  1455   000C78  6FE5               	movwf	(_status+1)& (0+255),b
  1456   000C7A  0E03               	movlw	3
  1457   000C7C  6FE4               	movwf	_status& (0+255),b
  1458   000C7E  EF29  F004         	goto	l3651
  1459   000C82                     l3763:
  1460                           
  1461                           ; BSR set to: 0
  1462                           ;main.c: 131: mspeed(0,0);
  1463   000C82  0E00               	movlw	0
  1464   000C84  6E4F               	movwf	(mspeed@a+1)^0,c
  1465   000C86  0E00               	movlw	0
  1466   000C88  6E4E               	movwf	mspeed@a^0,c
  1467   000C8A  0E00               	movlw	0
  1468   000C8C  6E51               	movwf	(mspeed@b+1)^0,c
  1469   000C8E  0E00               	movlw	0
  1470   000C90  6E50               	movwf	mspeed@b^0,c
  1471   000C92  ECC1  F016         	call	_mspeed	;wreg free
  1472   000C96                     
  1473                           ;main.c: 132: PORTBbits.RB4 = 0;
  1474   000C96  9881               	bcf	129,4,c	;volatile
  1475   000C98                     
  1476                           ;main.c: 133: PORTCbits.RC1 = 1;
  1477   000C98  8282               	bsf	130,1,c	;volatile
  1478   000C9A                     
  1479                           ;main.c: 134: PORTDbits.RD2 = 0;
  1480   000C9A  9483               	bcf	131,2,c	;volatile
  1481   000C9C                     
  1482                           ;main.c: 135: PORTAbits.RA4 = 0;
  1483   000C9C  9880               	bcf	128,4,c	;volatile
  1484   000C9E                     
  1485                           ;main.c: 136: line_cal();
  1486   000C9E  EC64  F00F         	call	_line_cal	;wreg free
  1487   000CA2                     
  1488                           ;main.c: 137: if (time[0] > 1000){
  1489   000CA2  0100               	movlb	0	; () banked
  1490   000CA4  BF63               	btfsc	(_time+3)& (0+255),7,b
  1491   000CA6  EF61  F006         	goto	u3991
  1492   000CAA  5163               	movf	(_time+3)& (0+255),w,b
  1493   000CAC  1162               	iorwf	(_time+2)& (0+255),w,b
  1494   000CAE  E10B               	bnz	u3990
  1495   000CB0  0EE9               	movlw	233
  1496   000CB2  5D60               	subwf	_time& (0+255),w,b
  1497   000CB4  0E03               	movlw	3
  1498   000CB6  5961               	subwfb	(_time+1)& (0+255),w,b
  1499   000CB8  A0D8               	btfss	status,0,c
  1500   000CBA  EF61  F006         	goto	u3991
  1501   000CBE  EF63  F006         	goto	u3990
  1502   000CC2                     u3991:
  1503   000CC2  EF7F  F006         	goto	l3789
  1504   000CC6                     u3990:
  1505   000CC6                     
  1506                           ; BSR set to: 0
  1507                           ;main.c: 139: int i;;main.c: 140: for (i = 0;i < 5;i++){
  1508   000CC6  0E00               	movlw	0
  1509   000CC8  6FF3               	movwf	(main@i_346+1)& (0+255),b
  1510   000CCA  0E00               	movlw	0
  1511   000CCC  6FF2               	movwf	main@i_346& (0+255),b
  1512   000CCE                     l3783:
  1513                           
  1514                           ; BSR set to: 0
  1515   000CCE  4BF2               	infsnz	main@i_346& (0+255),f,b
  1516   000CD0  2BF3               	incf	(main@i_346+1)& (0+255),f,b
  1517   000CD2                     
  1518                           ; BSR set to: 0
  1519   000CD2  BFF3               	btfsc	(main@i_346+1)& (0+255),7,b
  1520   000CD4  EF75  F006         	goto	u4001
  1521   000CD8  51F3               	movf	(main@i_346+1)& (0+255),w,b
  1522   000CDA  E109               	bnz	u4000
  1523   000CDC  0E05               	movlw	5
  1524   000CDE  5DF2               	subwf	main@i_346& (0+255),w,b
  1525   000CE0  A0D8               	btfss	status,0,c
  1526   000CE2  EF75  F006         	goto	u4001
  1527   000CE6  EF77  F006         	goto	u4000
  1528   000CEA                     u4001:
  1529   000CEA  EF67  F006         	goto	l3783
  1530   000CEE                     u4000:
  1531   000CEE                     
  1532                           ; BSR set to: 0
  1533                           ;main.c: 142: };main.c: 143: time[0] = 0;
  1534   000CEE  0E00               	movlw	0
  1535   000CF0  6F60               	movwf	_time& (0+255),b
  1536   000CF2  0E00               	movlw	0
  1537   000CF4  6F61               	movwf	(_time+1)& (0+255),b
  1538   000CF6  0E00               	movlw	0
  1539   000CF8  6F62               	movwf	(_time+2)& (0+255),b
  1540   000CFA  0E00               	movlw	0
  1541   000CFC  6F63               	movwf	(_time+3)& (0+255),b
  1542   000CFE                     l3789:
  1543                           
  1544                           ; BSR set to: 0
  1545                           ;main.c: 144: };main.c: 145: if (PORTDbits.RD0 == 0){
  1546   000CFE  B083               	btfsc	131,0,c	;volatile
  1547   000D00  EF84  F006         	goto	u4011
  1548   000D04  EF86  F006         	goto	u4010
  1549   000D08                     u4011:
  1550   000D08  EF98  F006         	goto	l81
  1551   000D0C                     u4010:
  1552   000D0C                     
  1553                           ; BSR set to: 0
  1554                           ;main.c: 147: status = WAIT_RELEASE;
  1555   000D0C  0E00               	movlw	0
  1556   000D0E  6FE5               	movwf	(_status+1)& (0+255),b
  1557   000D10  0E05               	movlw	5
  1558   000D12  6FE4               	movwf	_status& (0+255),b
  1559                           
  1560                           ;main.c: 148: time[3] = 0;
  1561   000D14  0E00               	movlw	0
  1562   000D16  6F6C               	movwf	(_time+12)& (0+255),b
  1563   000D18  0E00               	movlw	0
  1564   000D1A  6F6D               	movwf	(_time+13)& (0+255),b
  1565   000D1C  0E00               	movlw	0
  1566   000D1E  6F6E               	movwf	(_time+14)& (0+255),b
  1567   000D20  0E00               	movlw	0
  1568   000D22  6F6F               	movwf	(_time+15)& (0+255),b
  1569                           
  1570                           ;main.c: 149: mode = FAST;
  1571   000D24  0E00               	movlw	0
  1572   000D26  6F8F               	movwf	(_mode+1)& (0+255),b
  1573   000D28  0E01               	movlw	1
  1574   000D2A  6F8E               	movwf	_mode& (0+255),b
  1575                           
  1576                           ;main.c: 150: }else if(PORTDbits.RD1 == 0){
  1577   000D2C  EF29  F004         	goto	l3651
  1578   000D30                     l81:
  1579                           
  1580                           ; BSR set to: 0
  1581   000D30  B283               	btfsc	131,1,c	;volatile
  1582   000D32  EF9D  F006         	goto	u4021
  1583   000D36  EF9F  F006         	goto	u4020
  1584   000D3A                     u4021:
  1585   000D3A  EF7E  F008         	goto	l58
  1586   000D3E                     u4020:
  1587   000D3E                     
  1588                           ; BSR set to: 0
  1589                           ;main.c: 151: status = WAIT_RELEASE;
  1590   000D3E  0E00               	movlw	0
  1591   000D40  6FE5               	movwf	(_status+1)& (0+255),b
  1592   000D42  0E05               	movlw	5
  1593   000D44  6FE4               	movwf	_status& (0+255),b
  1594                           
  1595                           ;main.c: 152: time[3] = 0;
  1596   000D46  0E00               	movlw	0
  1597   000D48  6F6C               	movwf	(_time+12)& (0+255),b
  1598   000D4A  0E00               	movlw	0
  1599   000D4C  6F6D               	movwf	(_time+13)& (0+255),b
  1600   000D4E  0E00               	movlw	0
  1601   000D50  6F6E               	movwf	(_time+14)& (0+255),b
  1602   000D52  0E00               	movlw	0
  1603   000D54  6F6F               	movwf	(_time+15)& (0+255),b
  1604                           
  1605                           ;main.c: 153: mode = SLOW;
  1606   000D56  0E00               	movlw	0
  1607   000D58  6F8F               	movwf	(_mode+1)& (0+255),b
  1608   000D5A  0E00               	movlw	0
  1609   000D5C  6F8E               	movwf	_mode& (0+255),b
  1610   000D5E  EF29  F004         	goto	l3651
  1611   000D62                     l84:
  1612                           
  1613                           ; BSR set to: 0
  1614                           ;main.c: 158: PORTBbits.RB4 = 1;
  1615   000D62  8881               	bsf	129,4,c	;volatile
  1616                           
  1617                           ;main.c: 159: PORTCbits.RC1 = 1;
  1618   000D64  8282               	bsf	130,1,c	;volatile
  1619                           
  1620                           ;main.c: 160: PORTDbits.RD2 = 1;
  1621   000D66  8483               	bsf	131,2,c	;volatile
  1622                           
  1623                           ;main.c: 161: PORTAbits.RA4 = 1;
  1624   000D68  8880               	bsf	128,4,c	;volatile
  1625                           
  1626                           ;main.c: 162: if (PORTDbits.RD0 == 1 && PORTDbits.RD1 == 1){
  1627   000D6A  A083               	btfss	131,0,c	;volatile
  1628   000D6C  EFBA  F006         	goto	u4031
  1629   000D70  EFBC  F006         	goto	u4030
  1630   000D74                     u4031:
  1631   000D74  EF29  F004         	goto	l3651
  1632   000D78                     u4030:
  1633   000D78                     
  1634                           ; BSR set to: 0
  1635   000D78  A283               	btfss	131,1,c	;volatile
  1636   000D7A  EFC1  F006         	goto	u4041
  1637   000D7E  EFC3  F006         	goto	u4040
  1638   000D82                     u4041:
  1639   000D82  EF29  F004         	goto	l3651
  1640   000D86                     u4040:
  1641   000D86                     
  1642                           ; BSR set to: 0
  1643                           ;main.c: 163: status = BASIC_PID;
  1644   000D86  0E00               	movlw	0
  1645   000D88  6FE5               	movwf	(_status+1)& (0+255),b
  1646   000D8A  0E04               	movlw	4
  1647   000D8C  6FE4               	movwf	_status& (0+255),b
  1648                           
  1649                           ;main.c: 164: time[3] = 0;
  1650   000D8E  0E00               	movlw	0
  1651   000D90  6F6C               	movwf	(_time+12)& (0+255),b
  1652   000D92  0E00               	movlw	0
  1653   000D94  6F6D               	movwf	(_time+13)& (0+255),b
  1654   000D96  0E00               	movlw	0
  1655   000D98  6F6E               	movwf	(_time+14)& (0+255),b
  1656   000D9A  0E00               	movlw	0
  1657   000D9C  6F6F               	movwf	(_time+15)& (0+255),b
  1658   000D9E  EF29  F004         	goto	l3651
  1659   000DA2                     l3799:
  1660                           
  1661                           ; BSR set to: 0
  1662                           ;main.c: 170: line_cal();
  1663   000DA2  EC64  F00F         	call	_line_cal	;wreg free
  1664   000DA6                     
  1665                           ;main.c: 171: int speed = speed_vals[mode];
  1666   000DA6  90D8               	bcf	status,0,c
  1667   000DA8  0100               	movlb	0	; () banked
  1668   000DAA  358E               	rlcf	_mode& (0+255),w,b
  1669   000DAC  6EF6               	movwf	tblptrl,c
  1670   000DAE  358F               	rlcf	(_mode+1)& (0+255),w,b
  1671   000DB0  6EF7               	movwf	tblptrh,c
  1672   000DB2  0E09               	movlw	low _speed_vals
  1673   000DB4  26F6               	addwf	tblptrl,f,c
  1674   000DB6  0E08               	movlw	high _speed_vals
  1675   000DB8  22F7               	addwfc	tblptrh,f,c
  1676   000DBA                     	if	0	;There are less than 3 active tblptr bytes
  1677   000DBA                     	endif
  1678   000DBA  0009               	tblrd		*+
  1679   000DBC  CFF5 F0FC          	movff	tablat,main@speed
  1680   000DC0  000A               	tblrd		*-
  1681   000DC2  CFF5 F0FD          	movff	tablat,main@speed+1
  1682   000DC6                     
  1683                           ; BSR set to: 0
  1684                           ;main.c: 173: int der = lp - old_lp;
  1685   000DC6  5190               	movf	_old_lp& (0+255),w,b
  1686   000DC8  5D92               	subwf	_lp& (0+255),w,b
  1687   000DCA  6FEA               	movwf	main@der& (0+255),b
  1688   000DCC  5191               	movf	(_old_lp+1)& (0+255),w,b
  1689   000DCE  5993               	subwfb	(_lp+1)& (0+255),w,b
  1690   000DD0  6FEB               	movwf	(main@der+1)& (0+255),b
  1691   000DD2                     
  1692                           ; BSR set to: 0
  1693                           ;main.c: 174: double dif = (double)lp * kp_val[mode] + (double)der * kd_val[mode];
  1694   000DD2  90D8               	bcf	status,0,c
  1695   000DD4  358E               	rlcf	_mode& (0+255),w,b
  1696   000DD6  6EF6               	movwf	tblptrl,c
  1697   000DD8  358F               	rlcf	(_mode+1)& (0+255),w,b
  1698   000DDA  6EF7               	movwf	tblptrh,c
  1699   000DDC  0E05               	movlw	low _kp_val
  1700   000DDE  26F6               	addwf	tblptrl,f,c
  1701   000DE0  0E08               	movlw	high _kp_val
  1702   000DE2  22F7               	addwfc	tblptrh,f,c
  1703   000DE4                     	if	0	;There are less than 3 active tblptr bytes
  1704   000DE4                     	endif
  1705   000DE4  0009               	tblrd		*+
  1706   000DE6  CFF5 F0E6          	movff	tablat,??_main
  1707   000DEA  0009               	tblrd		*+
  1708   000DEC  CFF5 F0E7          	movff	tablat,??_main+1
  1709   000DF0  C0E6  F005         	movff	??_main,___xxtofl@val
  1710   000DF4  C0E7  F006         	movff	??_main+1,___xxtofl@val+1
  1711   000DF8  0E00               	movlw	0
  1712   000DFA  BE06               	btfsc	(___xxtofl@val+1)^0,7,c
  1713   000DFC  0EFF               	movlw	-1
  1714   000DFE  6E07               	movwf	(___xxtofl@val+2)^0,c
  1715   000E00  6E08               	movwf	(___xxtofl@val+3)^0,c
  1716   000E02  0E01               	movlw	1
  1717   000E04  ECEB  F010         	call	___xxtofl
  1718   000E08  C005  F017         	movff	?___xxtofl,___flmul@a
  1719   000E0C  C006  F018         	movff	?___xxtofl+1,___flmul@a+1
  1720   000E10  C007  F019         	movff	?___xxtofl+2,___flmul@a+2
  1721   000E14  C008  F01A         	movff	?___xxtofl+3,___flmul@a+3
  1722   000E18  C092  F005         	movff	_lp,___xxtofl@val
  1723   000E1C  C093  F006         	movff	_lp+1,___xxtofl@val+1
  1724   000E20  0E00               	movlw	0
  1725   000E22  BE06               	btfsc	(___xxtofl@val+1)^0,7,c
  1726   000E24  0EFF               	movlw	-1
  1727   000E26  6E07               	movwf	(___xxtofl@val+2)^0,c
  1728   000E28  6E08               	movwf	(___xxtofl@val+3)^0,c
  1729   000E2A  0E01               	movlw	1
  1730   000E2C  ECEB  F010         	call	___xxtofl
  1731   000E30  C005  F013         	movff	?___xxtofl,___flmul@b
  1732   000E34  C006  F014         	movff	?___xxtofl+1,___flmul@b+1
  1733   000E38  C007  F015         	movff	?___xxtofl+2,___flmul@b+2
  1734   000E3C  C008  F016         	movff	?___xxtofl+3,___flmul@b+3
  1735   000E40  EC4F  F00D         	call	___flmul	;wreg free
  1736   000E44  C013  F02C         	movff	?___flmul,___fladd@b
  1737   000E48  C014  F02D         	movff	?___flmul+1,___fladd@b+1
  1738   000E4C  C015  F02E         	movff	?___flmul+2,___fladd@b+2
  1739   000E50  C016  F02F         	movff	?___flmul+3,___fladd@b+3
  1740   000E54  90D8               	bcf	status,0,c
  1741   000E56  0100               	movlb	0	; () banked
  1742   000E58  358E               	rlcf	_mode& (0+255),w,b
  1743   000E5A  6EF6               	movwf	tblptrl,c
  1744   000E5C  358F               	rlcf	(_mode+1)& (0+255),w,b
  1745   000E5E  6EF7               	movwf	tblptrh,c
  1746   000E60  0E01               	movlw	low _kd_val
  1747   000E62  26F6               	addwf	tblptrl,f,c
  1748   000E64  0E08               	movlw	high _kd_val
  1749   000E66  22F7               	addwfc	tblptrh,f,c
  1750   000E68                     	if	0	;There are less than 3 active tblptr bytes
  1751   000E68                     	endif
  1752   000E68  0009               	tblrd		*+
  1753   000E6A  CFF5 F0E8          	movff	tablat,??_main+2
  1754   000E6E  0009               	tblrd		*+
  1755   000E70  CFF5 F0E9          	movff	tablat,??_main+3
  1756   000E74  C0E8  F005         	movff	??_main+2,___xxtofl@val
  1757   000E78  C0E9  F006         	movff	??_main+3,___xxtofl@val+1
  1758   000E7C  0E00               	movlw	0
  1759   000E7E  BE06               	btfsc	(___xxtofl@val+1)^0,7,c
  1760   000E80  0EFF               	movlw	-1
  1761   000E82  6E07               	movwf	(___xxtofl@val+2)^0,c
  1762   000E84  6E08               	movwf	(___xxtofl@val+3)^0,c
  1763   000E86  0E01               	movlw	1
  1764   000E88  ECEB  F010         	call	___xxtofl
  1765   000E8C  C005  F017         	movff	?___xxtofl,___flmul@a
  1766   000E90  C006  F018         	movff	?___xxtofl+1,___flmul@a+1
  1767   000E94  C007  F019         	movff	?___xxtofl+2,___flmul@a+2
  1768   000E98  C008  F01A         	movff	?___xxtofl+3,___flmul@a+3
  1769   000E9C  C0EA  F005         	movff	main@der,___xxtofl@val
  1770   000EA0  C0EB  F006         	movff	main@der+1,___xxtofl@val+1
  1771   000EA4  0E00               	movlw	0
  1772   000EA6  BE06               	btfsc	(___xxtofl@val+1)^0,7,c
  1773   000EA8  0EFF               	movlw	-1
  1774   000EAA  6E07               	movwf	(___xxtofl@val+2)^0,c
  1775   000EAC  6E08               	movwf	(___xxtofl@val+3)^0,c
  1776   000EAE  0E01               	movlw	1
  1777   000EB0  ECEB  F010         	call	___xxtofl
  1778   000EB4  C005  F013         	movff	?___xxtofl,___flmul@b
  1779   000EB8  C006  F014         	movff	?___xxtofl+1,___flmul@b+1
  1780   000EBC  C007  F015         	movff	?___xxtofl+2,___flmul@b+2
  1781   000EC0  C008  F016         	movff	?___xxtofl+3,___flmul@b+3
  1782   000EC4  EC4F  F00D         	call	___flmul	;wreg free
  1783   000EC8  C013  F030         	movff	?___flmul,___fladd@a
  1784   000ECC  C014  F031         	movff	?___flmul+1,___fladd@a+1
  1785   000ED0  C015  F032         	movff	?___flmul+2,___fladd@a+2
  1786   000ED4  C016  F033         	movff	?___flmul+3,___fladd@a+3
  1787   000ED8  ECEF  F00A         	call	___fladd	;wreg free
  1788   000EDC  C02C  F0F8         	movff	?___fladd,main@dif
  1789   000EE0  C02D  F0F9         	movff	?___fladd+1,main@dif+1
  1790   000EE4  C02E  F0FA         	movff	?___fladd+2,main@dif+2
  1791   000EE8  C02F  F0FB         	movff	?___fladd+3,main@dif+3
  1792   000EEC                     
  1793                           ;main.c: 175: if (lp > -60 && lp < 60){
  1794   000EEC  0100               	movlb	0	; () banked
  1795   000EEE  AF93               	btfss	(_lp+1)& (0+255),7,b
  1796   000EF0  EF85  F007         	goto	u4050
  1797   000EF4  0EC5               	movlw	197
  1798   000EF6  5D92               	subwf	_lp& (0+255),w,b
  1799   000EF8  0EFF               	movlw	255
  1800   000EFA  5993               	subwfb	(_lp+1)& (0+255),w,b
  1801   000EFC  A0D8               	btfss	status,0,c
  1802   000EFE  EF83  F007         	goto	u4051
  1803   000F02  EF85  F007         	goto	u4050
  1804   000F06                     u4051:
  1805   000F06  EF99  F007         	goto	l87
  1806   000F0A                     u4050:
  1807   000F0A                     
  1808                           ; BSR set to: 0
  1809   000F0A  BF93               	btfsc	(_lp+1)& (0+255),7,b
  1810   000F0C  EF93  F007         	goto	u4060
  1811   000F10  5193               	movf	(_lp+1)& (0+255),w,b
  1812   000F12  E107               	bnz	u4061
  1813   000F14  0E3C               	movlw	60
  1814   000F16  5D92               	subwf	_lp& (0+255),w,b
  1815   000F18  B0D8               	btfsc	status,0,c
  1816   000F1A  EF91  F007         	goto	u4061
  1817   000F1E  EF93  F007         	goto	u4060
  1818   000F22                     u4061:
  1819   000F22  EF99  F007         	goto	l87
  1820   000F26                     u4060:
  1821   000F26                     
  1822                           ; BSR set to: 0
  1823                           ;main.c: 176: PORTBbits.RB4 = 0;
  1824   000F26  9881               	bcf	129,4,c	;volatile
  1825                           
  1826                           ;main.c: 177: PORTCbits.RC1 = 0;
  1827   000F28  9282               	bcf	130,1,c	;volatile
  1828                           
  1829                           ;main.c: 178: PORTDbits.RD2 = 1;
  1830   000F2A  8483               	bsf	131,2,c	;volatile
  1831                           
  1832                           ;main.c: 179: PORTAbits.RA4 = 1;
  1833   000F2C  8880               	bsf	128,4,c	;volatile
  1834                           
  1835                           ;main.c: 180: }else{
  1836   000F2E  EFAE  F007         	goto	l3817
  1837   000F32                     l87:
  1838                           
  1839                           ; BSR set to: 0
  1840                           ;main.c: 181: PORTDbits.RD2 = 0;
  1841   000F32  9483               	bcf	131,2,c	;volatile
  1842                           
  1843                           ;main.c: 182: PORTAbits.RA4 = 0;
  1844   000F34  9880               	bcf	128,4,c	;volatile
  1845   000F36                     
  1846                           ; BSR set to: 0
  1847                           ;main.c: 183: if (lp > 0){
  1848   000F36  BF93               	btfsc	(_lp+1)& (0+255),7,b
  1849   000F38  EFA6  F007         	goto	u4071
  1850   000F3C  5193               	movf	(_lp+1)& (0+255),w,b
  1851   000F3E  E108               	bnz	u4070
  1852   000F40  0592               	decf	_lp& (0+255),w,b
  1853   000F42  A0D8               	btfss	status,0,c
  1854   000F44  EFA6  F007         	goto	u4071
  1855   000F48  EFA8  F007         	goto	u4070
  1856   000F4C                     u4071:
  1857   000F4C  EFAC  F007         	goto	l89
  1858   000F50                     u4070:
  1859   000F50                     
  1860                           ; BSR set to: 0
  1861                           ;main.c: 184: PORTBbits.RB4 = 1;
  1862   000F50  8881               	bsf	129,4,c	;volatile
  1863                           
  1864                           ;main.c: 185: PORTCbits.RC1 = 0;
  1865   000F52  9282               	bcf	130,1,c	;volatile
  1866                           
  1867                           ;main.c: 186: }else{
  1868   000F54  EFAE  F007         	goto	l3817
  1869   000F58                     l89:
  1870                           
  1871                           ; BSR set to: 0
  1872                           ;main.c: 187: PORTBbits.RB4 = 0;
  1873   000F58  9881               	bcf	129,4,c	;volatile
  1874                           
  1875                           ;main.c: 188: PORTCbits.RC1 = 1;
  1876   000F5A  8282               	bsf	130,1,c	;volatile
  1877   000F5C                     l3817:
  1878                           
  1879                           ; BSR set to: 0
  1880                           ;main.c: 189: };main.c: 190: };main.c: 191: if (dif > 0) mspeed(speed - dif, speed );
  1881   000F5C  0E00               	movlw	0
  1882   000F5E  6E05               	movwf	___flge@ff1^0,c
  1883   000F60  0E00               	movlw	0
  1884   000F62  6E06               	movwf	(___flge@ff1+1)^0,c
  1885   000F64  0E00               	movlw	0
  1886   000F66  6E07               	movwf	(___flge@ff1+2)^0,c
  1887   000F68  0E00               	movlw	0
  1888   000F6A  6E08               	movwf	(___flge@ff1+3)^0,c
  1889   000F6C  C0F8  F009         	movff	main@dif,___flge@ff2
  1890   000F70  C0F9  F00A         	movff	main@dif+1,___flge@ff2+1
  1891   000F74  C0FA  F00B         	movff	main@dif+2,___flge@ff2+2
  1892   000F78  C0FB  F00C         	movff	main@dif+3,___flge@ff2+3
  1893   000F7C  ECCE  F012         	call	___flge	;wreg free
  1894   000F80  B0D8               	btfsc	status,0,c
  1895   000F82  EFC5  F007         	goto	u4081
  1896   000F86  EFC7  F007         	goto	u4080
  1897   000F8A                     u4081:
  1898   000F8A  EFF9  F007         	goto	l3821
  1899   000F8E                     u4080:
  1900   000F8E  C0F8  F040         	movff	main@dif,___flsub@a
  1901   000F92  C0F9  F041         	movff	main@dif+1,___flsub@a+1
  1902   000F96  C0FA  F042         	movff	main@dif+2,___flsub@a+2
  1903   000F9A  C0FB  F043         	movff	main@dif+3,___flsub@a+3
  1904   000F9E  C0FC  F005         	movff	main@speed,___xxtofl@val
  1905   000FA2  C0FD  F006         	movff	main@speed+1,___xxtofl@val+1
  1906   000FA6  0E00               	movlw	0
  1907   000FA8  BE06               	btfsc	(___xxtofl@val+1)^0,7,c
  1908   000FAA  0EFF               	movlw	-1
  1909   000FAC  6E07               	movwf	(___xxtofl@val+2)^0,c
  1910   000FAE  6E08               	movwf	(___xxtofl@val+3)^0,c
  1911   000FB0  0E01               	movlw	1
  1912   000FB2  ECEB  F010         	call	___xxtofl
  1913   000FB6  C005  F03C         	movff	?___xxtofl,___flsub@b
  1914   000FBA  C006  F03D         	movff	?___xxtofl+1,___flsub@b+1
  1915   000FBE  C007  F03E         	movff	?___xxtofl+2,___flsub@b+2
  1916   000FC2  C008  F03F         	movff	?___xxtofl+3,___flsub@b+3
  1917   000FC6  EC48  F016         	call	___flsub	;wreg free
  1918   000FCA  C03C  F044         	movff	?___flsub,___fltol@f1
  1919   000FCE  C03D  F045         	movff	?___flsub+1,___fltol@f1+1
  1920   000FD2  C03E  F046         	movff	?___flsub+2,___fltol@f1+2
  1921   000FD6  C03F  F047         	movff	?___flsub+3,___fltol@f1+3
  1922   000FDA  EC4B  F012         	call	___fltol	;wreg free
  1923   000FDE  C044  F04E         	movff	?___fltol,mspeed@a
  1924   000FE2  C045  F04F         	movff	?___fltol+1,mspeed@a+1
  1925   000FE6  C0FC  F050         	movff	main@speed,mspeed@b
  1926   000FEA  C0FD  F051         	movff	main@speed+1,mspeed@b+1
  1927   000FEE  ECC1  F016         	call	_mspeed	;wreg free
  1928   000FF2                     l3821:
  1929                           
  1930                           ;main.c: 192: if (dif < 0) mspeed(speed , speed + dif);
  1931   000FF2  0100               	movlb	0	; () banked
  1932   000FF4  BFFB               	btfsc	(main@dif+3)& (0+255),7,b
  1933   000FF6  EF01  F008         	goto	u4090
  1934   000FFA  EFFF  F007         	goto	u4091
  1935   000FFE                     u4091:
  1936   000FFE  EF33  F008         	goto	l3825
  1937   001002                     u4090:
  1938   001002                     
  1939                           ; BSR set to: 0
  1940   001002  C0FC  F04E         	movff	main@speed,mspeed@a
  1941   001006  C0FD  F04F         	movff	main@speed+1,mspeed@a+1
  1942   00100A  C0F8  F030         	movff	main@dif,___fladd@a
  1943   00100E  C0F9  F031         	movff	main@dif+1,___fladd@a+1
  1944   001012  C0FA  F032         	movff	main@dif+2,___fladd@a+2
  1945   001016  C0FB  F033         	movff	main@dif+3,___fladd@a+3
  1946   00101A  C0FC  F005         	movff	main@speed,___xxtofl@val
  1947   00101E  C0FD  F006         	movff	main@speed+1,___xxtofl@val+1
  1948   001022  0E00               	movlw	0
  1949   001024  BE06               	btfsc	(___xxtofl@val+1)^0,7,c
  1950   001026  0EFF               	movlw	-1
  1951   001028  6E07               	movwf	(___xxtofl@val+2)^0,c
  1952   00102A  6E08               	movwf	(___xxtofl@val+3)^0,c
  1953   00102C  0E01               	movlw	1
  1954   00102E  ECEB  F010         	call	___xxtofl
  1955   001032  C005  F02C         	movff	?___xxtofl,___fladd@b
  1956   001036  C006  F02D         	movff	?___xxtofl+1,___fladd@b+1
  1957   00103A  C007  F02E         	movff	?___xxtofl+2,___fladd@b+2
  1958   00103E  C008  F02F         	movff	?___xxtofl+3,___fladd@b+3
  1959   001042  ECEF  F00A         	call	___fladd	;wreg free
  1960   001046  C02C  F044         	movff	?___fladd,___fltol@f1
  1961   00104A  C02D  F045         	movff	?___fladd+1,___fltol@f1+1
  1962   00104E  C02E  F046         	movff	?___fladd+2,___fltol@f1+2
  1963   001052  C02F  F047         	movff	?___fladd+3,___fltol@f1+3
  1964   001056  EC4B  F012         	call	___fltol	;wreg free
  1965   00105A  C044  F050         	movff	?___fltol,mspeed@b
  1966   00105E  C045  F051         	movff	?___fltol+1,mspeed@b+1
  1967   001062  ECC1  F016         	call	_mspeed	;wreg free
  1968   001066                     l3825:
  1969                           
  1970                           ;main.c: 194: old_lp = lp;
  1971   001066  C092  F090         	movff	_lp,_old_lp
  1972   00106A  C093  F091         	movff	_lp+1,_old_lp+1
  1973   00106E                     
  1974                           ;main.c: 196: if (time[3] > 1000){
  1975   00106E  0100               	movlb	0	; () banked
  1976   001070  BF6F               	btfsc	(_time+15)& (0+255),7,b
  1977   001072  EF47  F008         	goto	u4101
  1978   001076  516F               	movf	(_time+15)& (0+255),w,b
  1979   001078  116E               	iorwf	(_time+14)& (0+255),w,b
  1980   00107A  E10B               	bnz	u4100
  1981   00107C  0EE9               	movlw	233
  1982   00107E  5D6C               	subwf	(_time+12)& (0+255),w,b
  1983   001080  0E03               	movlw	3
  1984   001082  596D               	subwfb	(_time+13)& (0+255),w,b
  1985   001084  A0D8               	btfss	status,0,c
  1986   001086  EF47  F008         	goto	u4101
  1987   00108A  EF49  F008         	goto	u4100
  1988   00108E                     u4101:
  1989   00108E  EF29  F004         	goto	l3651
  1990   001092                     u4100:
  1991   001092                     
  1992                           ; BSR set to: 0
  1993                           ;main.c: 197: time[3] = 0;
  1994   001092  0E00               	movlw	0
  1995   001094  6F6C               	movwf	(_time+12)& (0+255),b
  1996   001096  0E00               	movlw	0
  1997   001098  6F6D               	movwf	(_time+13)& (0+255),b
  1998   00109A  0E00               	movlw	0
  1999   00109C  6F6E               	movwf	(_time+14)& (0+255),b
  2000   00109E  0E00               	movlw	0
  2001   0010A0  6F6F               	movwf	(_time+15)& (0+255),b
  2002   0010A2  EF29  F004         	goto	l3651
  2003   0010A6                     l3833:
  2004   0010A6  C0E4  F0E6         	movff	_status,??_main
  2005   0010AA  C0E5  F0E7         	movff	_status+1,??_main+1
  2006                           
  2007                           ; Switch on 2 bytes has been partitioned into a top level switch of size 1, and 1 sub-sw
      +                          itches
  2008                           ; Switch size 1, requested type "simple"
  2009                           ; Number of cases is 1, Range of values is 0 to 0
  2010                           ; switch strategies available:
  2011                           ; Name         Instructions Cycles
  2012                           ; simple_byte            4     3 (average)
  2013                           ;	Chosen strategy is simple_byte
  2014   0010AE  0100               	movlb	0	; () banked
  2015   0010B0  51E7               	movf	(??_main+1)& (0+255),w,b
  2016   0010B2  0A00               	xorlw	0	; case 0
  2017   0010B4  B4D8               	btfsc	status,2,c
  2018   0010B6  EF5F  F008         	goto	l3871
  2019   0010BA  EF29  F004         	goto	l3651
  2020   0010BE                     l3871:
  2021                           
  2022                           ; BSR set to: 0
  2023                           ; Switch size 1, requested type "simple"
  2024                           ; Number of cases is 7, Range of values is 0 to 6
  2025                           ; switch strategies available:
  2026                           ; Name         Instructions Cycles
  2027                           ; simple_byte           22    12 (average)
  2028                           ;	Chosen strategy is simple_byte
  2029   0010BE  51E6               	movf	??_main& (0+255),w,b
  2030   0010C0  0A00               	xorlw	0	; case 0
  2031   0010C2  B4D8               	btfsc	status,2,c
  2032   0010C4  EF2D  F004         	goto	l3653
  2033   0010C8  0A01               	xorlw	1	; case 1
  2034   0010CA  B4D8               	btfsc	status,2,c
  2035   0010CC  EFB3  F004         	goto	l3687
  2036   0010D0  0A03               	xorlw	3	; case 2
  2037   0010D2  B4D8               	btfsc	status,2,c
  2038   0010D4  EFAD  F005         	goto	l3733
  2039   0010D8  0A01               	xorlw	1	; case 3
  2040   0010DA  B4D8               	btfsc	status,2,c
  2041   0010DC  EF41  F006         	goto	l3763
  2042   0010E0  0A07               	xorlw	7	; case 4
  2043   0010E2  B4D8               	btfsc	status,2,c
  2044   0010E4  EFD1  F006         	goto	l3799
  2045   0010E8  0A01               	xorlw	1	; case 5
  2046   0010EA  B4D8               	btfsc	status,2,c
  2047   0010EC  EFB1  F006         	goto	l84
  2048   0010F0  0A03               	xorlw	3	; case 6
  2049   0010F2  B4D8               	btfsc	status,2,c
  2050   0010F4  EF34  F006         	goto	l75
  2051   0010F8  EF29  F004         	goto	l3651
  2052   0010FC                     l58:
  2053                           
  2054                           ; BSR set to: 0
  2055   0010FC  EF29  F004         	goto	l3651
  2056   001100  EF07  F000         	goto	start
  2057   001104                     __end_of_main:
  2058                           	callstack 0
  2059                           
  2060 ;; *************** function _setD *****************
  2061 ;; Defined at:
  2062 ;;		line 24 in file "utils.c"
  2063 ;; Parameters:    Size  Location     Type
  2064 ;;		None
  2065 ;; Auto vars:     Size  Location     Type
  2066 ;;		None
  2067 ;; Return value:  Size  Location     Type
  2068 ;;                  1    wreg      void 
  2069 ;; Registers used:
  2070 ;;		None
  2071 ;; Tracked objects:
  2072 ;;		On entry : 0/0
  2073 ;;		On exit  : 0/0
  2074 ;;		Unchanged: 0/0
  2075 ;; Data sizes:     COMRAM   BANK0   BANK1   BANK2   BANK3   BANK4   BANK5   BANK6   BANK7
  2076 ;;      Params:         0       0       0       0       0       0       0       0       0
  2077 ;;      Locals:         0       0       0       0       0       0       0       0       0
  2078 ;;      Temps:          0       0       0       0       0       0       0       0       0
  2079 ;;      Totals:         0       0       0       0       0       0       0       0       0
  2080 ;;Total ram usage:        0 bytes
  2081 ;; Hardware stack levels used: 1
  2082 ;; Hardware stack levels required when called: 1
  2083 ;; This function calls:
  2084 ;;		Nothing
  2085 ;; This function is called by:
  2086 ;;		_main
  2087 ;; This function uses a non-reentrant model
  2088 ;;
  2089                           
  2090                           	psect	text1
  2091   002D9C                     __ptext1:
  2092                           	callstack 0
  2093   002D9C                     _setD:
  2094                           	callstack 29
  2095   002D9C                     
  2096                           ;utils.c: 25: PORTBbits.RB4 = 0;
  2097   002D9C  9881               	bcf	129,4,c	;volatile
  2098                           
  2099                           ;utils.c: 26: PORTCbits.RC1 = 0;
  2100   002D9E  9282               	bcf	130,1,c	;volatile
  2101                           
  2102                           ;utils.c: 27: PORTDbits.RD2 = 0;
  2103   002DA0  9483               	bcf	131,2,c	;volatile
  2104                           
  2105                           ;utils.c: 28: PORTAbits.RA4 = 1;
  2106   002DA2  8880               	bsf	128,4,c	;volatile
  2107   002DA4  0012               	return		;funcret
  2108   002DA6                     __end_of_setD:
  2109                           	callstack 0
  2110                           
  2111 ;; *************** function _setC *****************
  2112 ;; Defined at:
  2113 ;;		line 18 in file "utils.c"
  2114 ;; Parameters:    Size  Location     Type
  2115 ;;		None
  2116 ;; Auto vars:     Size  Location     Type
  2117 ;;		None
  2118 ;; Return value:  Size  Location     Type
  2119 ;;                  1    wreg      void 
  2120 ;; Registers used:
  2121 ;;		None
  2122 ;; Tracked objects:
  2123 ;;		On entry : 0/0
  2124 ;;		On exit  : 0/0
  2125 ;;		Unchanged: 0/0
  2126 ;; Data sizes:     COMRAM   BANK0   BANK1   BANK2   BANK3   BANK4   BANK5   BANK6   BANK7
  2127 ;;      Params:         0       0       0       0       0       0       0       0       0
  2128 ;;      Locals:         0       0       0       0       0       0       0       0       0
  2129 ;;      Temps:          0       0       0       0       0       0       0       0       0
  2130 ;;      Totals:         0       0       0       0       0       0       0       0       0
  2131 ;;Total ram usage:        0 bytes
  2132 ;; Hardware stack levels used: 1
  2133 ;; Hardware stack levels required when called: 1
  2134 ;; This function calls:
  2135 ;;		Nothing
  2136 ;; This function is called by:
  2137 ;;		_main
  2138 ;; This function uses a non-reentrant model
  2139 ;;
  2140                           
  2141                           	psect	text2
  2142   002DA6                     __ptext2:
  2143                           	callstack 0
  2144   002DA6                     _setC:
  2145                           	callstack 29
  2146   002DA6                     
  2147                           ;utils.c: 19: PORTBbits.RB4 = 0;
  2148   002DA6  9881               	bcf	129,4,c	;volatile
  2149                           
  2150                           ;utils.c: 20: PORTCbits.RC1 = 0;
  2151   002DA8  9282               	bcf	130,1,c	;volatile
  2152                           
  2153                           ;utils.c: 21: PORTDbits.RD2 = 1;
  2154   002DAA  8483               	bsf	131,2,c	;volatile
  2155                           
  2156                           ;utils.c: 22: PORTAbits.RA4 = 0;
  2157   002DAC  9880               	bcf	128,4,c	;volatile
  2158   002DAE  0012               	return		;funcret
  2159   002DB0                     __end_of_setC:
  2160                           	callstack 0
  2161                           
  2162 ;; *************** function _setB *****************
  2163 ;; Defined at:
  2164 ;;		line 12 in file "utils.c"
  2165 ;; Parameters:    Size  Location     Type
  2166 ;;		None
  2167 ;; Auto vars:     Size  Location     Type
  2168 ;;		None
  2169 ;; Return value:  Size  Location     Type
  2170 ;;                  1    wreg      void 
  2171 ;; Registers used:
  2172 ;;		None
  2173 ;; Tracked objects:
  2174 ;;		On entry : 0/0
  2175 ;;		On exit  : 0/0
  2176 ;;		Unchanged: 0/0
  2177 ;; Data sizes:     COMRAM   BANK0   BANK1   BANK2   BANK3   BANK4   BANK5   BANK6   BANK7
  2178 ;;      Params:         0       0       0       0       0       0       0       0       0
  2179 ;;      Locals:         0       0       0       0       0       0       0       0       0
  2180 ;;      Temps:          0       0       0       0       0       0       0       0       0
  2181 ;;      Totals:         0       0       0       0       0       0       0       0       0
  2182 ;;Total ram usage:        0 bytes
  2183 ;; Hardware stack levels used: 1
  2184 ;; Hardware stack levels required when called: 1
  2185 ;; This function calls:
  2186 ;;		Nothing
  2187 ;; This function is called by:
  2188 ;;		_main
  2189 ;; This function uses a non-reentrant model
  2190 ;;
  2191                           
  2192                           	psect	text3
  2193   002DB0                     __ptext3:
  2194                           	callstack 0
  2195   002DB0                     _setB:
  2196                           	callstack 29
  2197   002DB0                     
  2198                           ;utils.c: 13: PORTBbits.RB4 = 0;
  2199   002DB0  9881               	bcf	129,4,c	;volatile
  2200                           
  2201                           ;utils.c: 14: PORTCbits.RC1 = 1;
  2202   002DB2  8282               	bsf	130,1,c	;volatile
  2203                           
  2204                           ;utils.c: 15: PORTDbits.RD2 = 0;
  2205   002DB4  9483               	bcf	131,2,c	;volatile
  2206                           
  2207                           ;utils.c: 16: PORTAbits.RA4 = 0;
  2208   002DB6  9880               	bcf	128,4,c	;volatile
  2209   002DB8  0012               	return		;funcret
  2210   002DBA                     __end_of_setB:
  2211                           	callstack 0
  2212                           
  2213 ;; *************** function _setA *****************
  2214 ;; Defined at:
  2215 ;;		line 5 in file "utils.c"
  2216 ;; Parameters:    Size  Location     Type
  2217 ;;		None
  2218 ;; Auto vars:     Size  Location     Type
  2219 ;;		None
  2220 ;; Return value:  Size  Location     Type
  2221 ;;                  1    wreg      void 
  2222 ;; Registers used:
  2223 ;;		None
  2224 ;; Tracked objects:
  2225 ;;		On entry : 0/0
  2226 ;;		On exit  : 0/0
  2227 ;;		Unchanged: 0/0
  2228 ;; Data sizes:     COMRAM   BANK0   BANK1   BANK2   BANK3   BANK4   BANK5   BANK6   BANK7
  2229 ;;      Params:         0       0       0       0       0       0       0       0       0
  2230 ;;      Locals:         0       0       0       0       0       0       0       0       0
  2231 ;;      Temps:          0       0       0       0       0       0       0       0       0
  2232 ;;      Totals:         0       0       0       0       0       0       0       0       0
  2233 ;;Total ram usage:        0 bytes
  2234 ;; Hardware stack levels used: 1
  2235 ;; Hardware stack levels required when called: 1
  2236 ;; This function calls:
  2237 ;;		Nothing
  2238 ;; This function is called by:
  2239 ;;		_main
  2240 ;; This function uses a non-reentrant model
  2241 ;;
  2242                           
  2243                           	psect	text4
  2244   002DBA                     __ptext4:
  2245                           	callstack 0
  2246   002DBA                     _setA:
  2247                           	callstack 29
  2248   002DBA                     
  2249                           ;utils.c: 6: PORTBbits.RB4 = 1;
  2250   002DBA  8881               	bsf	129,4,c	;volatile
  2251                           
  2252                           ;utils.c: 7: PORTCbits.RC1 = 0;
  2253   002DBC  9282               	bcf	130,1,c	;volatile
  2254                           
  2255                           ;utils.c: 8: PORTDbits.RD2 = 0;
  2256   002DBE  9483               	bcf	131,2,c	;volatile
  2257                           
  2258                           ;utils.c: 9: PORTAbits.RA4 = 0;
  2259   002DC0  9880               	bcf	128,4,c	;volatile
  2260   002DC2  0012               	return		;funcret
  2261   002DC4                     __end_of_setA:
  2262                           	callstack 0
  2263                           
  2264 ;; *************** function _read_cal *****************
  2265 ;; Defined at:
  2266 ;;		line 48 in file "analog.c"
  2267 ;; Parameters:    Size  Location     Type
  2268 ;;		None
  2269 ;; Auto vars:     Size  Location     Type
  2270 ;;  i               2   21[COMRAM] int 
  2271 ;; Return value:  Size  Location     Type
  2272 ;;                  1    wreg      void 
  2273 ;; Registers used:
  2274 ;;		wreg, fsr1l, fsr1h, fsr2l, fsr2h, status,2, status,0
  2275 ;; Tracked objects:
  2276 ;;		On entry : 0/0
  2277 ;;		On exit  : 0/0
  2278 ;;		Unchanged: 0/0
  2279 ;; Data sizes:     COMRAM   BANK0   BANK1   BANK2   BANK3   BANK4   BANK5   BANK6   BANK7
  2280 ;;      Params:         0       0       0       0       0       0       0       0       0
  2281 ;;      Locals:        10       0       0       0       0       0       0       0       0
  2282 ;;      Temps:          9       0       0       0       0       0       0       0       0
  2283 ;;      Totals:        19       0       0       0       0       0       0       0       0
  2284 ;;Total ram usage:       19 bytes
  2285 ;; Hardware stack levels used: 1
  2286 ;; Hardware stack levels required when called: 1
  2287 ;; This function calls:
  2288 ;;		Nothing
  2289 ;; This function is called by:
  2290 ;;		_main
  2291 ;; This function uses a non-reentrant model
  2292 ;;
  2293                           
  2294                           	psect	text5
  2295   001104                     __ptext5:
  2296                           	callstack 0
  2297   001104                     _read_cal:
  2298                           	callstack 29
  2299   001104                     
  2300                           ;analog.c: 49: int i;;analog.c: 51: for (i = 0;i < 5;i++) maxs[ls[i]] = maxs[ls[i]]>an[l
      +                          s[i]]?maxs[ls[i]]:an[ls[i]];
  2301   001104  0E00               	movlw	0
  2302   001106  6E17               	movwf	(read_cal@i+1)^0,c
  2303   001108  0E00               	movlw	0
  2304   00110A  6E16               	movwf	read_cal@i^0,c
  2305   00110C                     l2885:
  2306   00110C  90D8               	bcf	status,0,c
  2307   00110E  3416               	rlcf	read_cal@i^0,w,c
  2308   001110  6ED9               	movwf	fsr2l,c
  2309   001112  3417               	rlcf	(read_cal@i+1)^0,w,c
  2310   001114  6EDA               	movwf	fsr2h,c
  2311   001116  0ECA               	movlw	low _ls
  2312   001118  26D9               	addwf	fsr2l,f,c
  2313   00111A  0E00               	movlw	high _ls
  2314   00111C  22DA               	addwfc	fsr2h,f,c
  2315   00111E  CFDE F005          	movff	postinc2,??_read_cal
  2316   001122  CFDD F006          	movff	postdec2,??_read_cal+1
  2317   001126  90D8               	bcf	status,0,c
  2318   001128  3605               	rlcf	??_read_cal^0,f,c
  2319   00112A  3606               	rlcf	(??_read_cal+1)^0,f,c
  2320   00112C  0EA6               	movlw	low _maxs
  2321   00112E  2405               	addwf	??_read_cal^0,w,c
  2322   001130  6ED9               	movwf	fsr2l,c
  2323   001132  0E00               	movlw	high _maxs
  2324   001134  2006               	addwfc	(??_read_cal+1)^0,w,c
  2325   001136  6EDA               	movwf	fsr2h,c
  2326   001138  90D8               	bcf	status,0,c
  2327   00113A  3416               	rlcf	read_cal@i^0,w,c
  2328   00113C  6EE1               	movwf	fsr1l,c
  2329   00113E  3417               	rlcf	(read_cal@i+1)^0,w,c
  2330   001140  6EE2               	movwf	fsr1h,c
  2331   001142  0ECA               	movlw	low _ls
  2332   001144  26E1               	addwf	fsr1l,f,c
  2333   001146  0E00               	movlw	high _ls
  2334   001148  22E2               	addwfc	fsr1h,f,c
  2335   00114A  CFE6 F009          	movff	postinc1,??_read_cal+4
  2336   00114E  CFE5 F00A          	movff	postdec1,??_read_cal+5
  2337   001152  90D8               	bcf	status,0,c
  2338   001154  3609               	rlcf	(??_read_cal+4)^0,f,c
  2339   001156  360A               	rlcf	(??_read_cal+5)^0,f,c
  2340   001158  0EB8               	movlw	low _an
  2341   00115A  2409               	addwf	(??_read_cal+4)^0,w,c
  2342   00115C  6EE1               	movwf	fsr1l,c
  2343   00115E  0E00               	movlw	high _an
  2344   001160  200A               	addwfc	(??_read_cal+5)^0,w,c
  2345   001162  6EE2               	movwf	fsr1h,c
  2346   001164  50DE               	movf	postinc2,w,c
  2347   001166  5CE6               	subwf	postinc1,w,c
  2348   001168  50E6               	movf	postinc1,w,c
  2349   00116A  0A80               	xorlw	128
  2350   00116C  6E0D               	movwf	(??_read_cal+8)^0,c
  2351   00116E  50DE               	movf	postinc2,w,c
  2352   001170  0A80               	xorlw	128
  2353   001172  580D               	subwfb	(??_read_cal+8)^0,w,c
  2354   001174  A0D8               	btfss	status,0,c
  2355   001176  EFBF  F008         	goto	u2551
  2356   00117A  EFC1  F008         	goto	u2550
  2357   00117E                     u2551:
  2358   00117E  EFD9  F008         	goto	l2889
  2359   001182                     u2550:
  2360   001182  90D8               	bcf	status,0,c
  2361   001184  3416               	rlcf	read_cal@i^0,w,c
  2362   001186  6ED9               	movwf	fsr2l,c
  2363   001188  3417               	rlcf	(read_cal@i+1)^0,w,c
  2364   00118A  6EDA               	movwf	fsr2h,c
  2365   00118C  0ECA               	movlw	low _ls
  2366   00118E  26D9               	addwf	fsr2l,f,c
  2367   001190  0E00               	movlw	high _ls
  2368   001192  22DA               	addwfc	fsr2h,f,c
  2369   001194  CFDE F005          	movff	postinc2,??_read_cal
  2370   001198  CFDD F006          	movff	postdec2,??_read_cal+1
  2371   00119C  90D8               	bcf	status,0,c
  2372   00119E  3605               	rlcf	??_read_cal^0,f,c
  2373   0011A0  3606               	rlcf	(??_read_cal+1)^0,f,c
  2374   0011A2  0EB8               	movlw	low _an
  2375   0011A4  2405               	addwf	??_read_cal^0,w,c
  2376   0011A6  6E0E               	movwf	_read_cal$523^0,c
  2377   0011A8  0E00               	movlw	high _an
  2378   0011AA  2006               	addwfc	(??_read_cal+1)^0,w,c
  2379   0011AC  6E0F               	movwf	(_read_cal$523+1)^0,c
  2380   0011AE  EFEF  F008         	goto	l2891
  2381   0011B2                     l2889:
  2382   0011B2  90D8               	bcf	status,0,c
  2383   0011B4  3416               	rlcf	read_cal@i^0,w,c
  2384   0011B6  6ED9               	movwf	fsr2l,c
  2385   0011B8  3417               	rlcf	(read_cal@i+1)^0,w,c
  2386   0011BA  6EDA               	movwf	fsr2h,c
  2387   0011BC  0ECA               	movlw	low _ls
  2388   0011BE  26D9               	addwf	fsr2l,f,c
  2389   0011C0  0E00               	movlw	high _ls
  2390   0011C2  22DA               	addwfc	fsr2h,f,c
  2391   0011C4  CFDE F005          	movff	postinc2,??_read_cal
  2392   0011C8  CFDD F006          	movff	postdec2,??_read_cal+1
  2393   0011CC  90D8               	bcf	status,0,c
  2394   0011CE  3605               	rlcf	??_read_cal^0,f,c
  2395   0011D0  3606               	rlcf	(??_read_cal+1)^0,f,c
  2396   0011D2  0EA6               	movlw	low _maxs
  2397   0011D4  2405               	addwf	??_read_cal^0,w,c
  2398   0011D6  6E0E               	movwf	_read_cal$523^0,c
  2399   0011D8  0E00               	movlw	high _maxs
  2400   0011DA  2006               	addwfc	(??_read_cal+1)^0,w,c
  2401   0011DC  6E0F               	movwf	(_read_cal$523+1)^0,c
  2402   0011DE                     l2891:
  2403   0011DE  C00E  FFD9         	movff	_read_cal$523,fsr2l
  2404   0011E2  C00F  FFDA         	movff	_read_cal$523+1,fsr2h
  2405   0011E6  90D8               	bcf	status,0,c
  2406   0011E8  3416               	rlcf	read_cal@i^0,w,c
  2407   0011EA  6EE1               	movwf	fsr1l,c
  2408   0011EC  3417               	rlcf	(read_cal@i+1)^0,w,c
  2409   0011EE  6EE2               	movwf	fsr1h,c
  2410   0011F0  0ECA               	movlw	low _ls
  2411   0011F2  26E1               	addwf	fsr1l,f,c
  2412   0011F4  0E00               	movlw	high _ls
  2413   0011F6  22E2               	addwfc	fsr1h,f,c
  2414   0011F8  CFE6 F005          	movff	postinc1,??_read_cal
  2415   0011FC  CFE5 F006          	movff	postdec1,??_read_cal+1
  2416   001200  90D8               	bcf	status,0,c
  2417   001202  3605               	rlcf	??_read_cal^0,f,c
  2418   001204  3606               	rlcf	(??_read_cal+1)^0,f,c
  2419   001206  0EA6               	movlw	low _maxs
  2420   001208  2405               	addwf	??_read_cal^0,w,c
  2421   00120A  6EE1               	movwf	fsr1l,c
  2422   00120C  0E00               	movlw	high _maxs
  2423   00120E  2006               	addwfc	(??_read_cal+1)^0,w,c
  2424   001210  6EE2               	movwf	fsr1h,c
  2425   001212  CFDE FFE6          	movff	postinc2,postinc1
  2426   001216  CFDD FFE5          	movff	postdec2,postdec1
  2427   00121A  4A16               	infsnz	read_cal@i^0,f,c
  2428   00121C  2A17               	incf	(read_cal@i+1)^0,f,c
  2429   00121E  BE17               	btfsc	(read_cal@i+1)^0,7,c
  2430   001220  EF1B  F009         	goto	u2561
  2431   001224  5017               	movf	(read_cal@i+1)^0,w,c
  2432   001226  E109               	bnz	u2560
  2433   001228  0E05               	movlw	5
  2434   00122A  5C16               	subwf	read_cal@i^0,w,c
  2435   00122C  A0D8               	btfss	status,0,c
  2436   00122E  EF1B  F009         	goto	u2561
  2437   001232  EF1D  F009         	goto	u2560
  2438   001236                     u2561:
  2439   001236  EF86  F008         	goto	l2885
  2440   00123A                     u2560:
  2441   00123A                     
  2442                           ;analog.c: 52: for (i = 0;i < 5;i++) mins[ls[i]] = mins[ls[i]]<an[ls[i]]?mins[ls[i]]:an[
      +                          ls[i]];
  2443   00123A  0E00               	movlw	0
  2444   00123C  6E17               	movwf	(read_cal@i+1)^0,c
  2445   00123E  0E00               	movlw	0
  2446   001240  6E16               	movwf	read_cal@i^0,c
  2447   001242                     l2903:
  2448   001242  90D8               	bcf	status,0,c
  2449   001244  3416               	rlcf	read_cal@i^0,w,c
  2450   001246  6ED9               	movwf	fsr2l,c
  2451   001248  3417               	rlcf	(read_cal@i+1)^0,w,c
  2452   00124A  6EDA               	movwf	fsr2h,c
  2453   00124C  0ECA               	movlw	low _ls
  2454   00124E  26D9               	addwf	fsr2l,f,c
  2455   001250  0E00               	movlw	high _ls
  2456   001252  22DA               	addwfc	fsr2h,f,c
  2457   001254  CFDE F005          	movff	postinc2,??_read_cal
  2458   001258  CFDD F006          	movff	postdec2,??_read_cal+1
  2459   00125C  90D8               	bcf	status,0,c
  2460   00125E  3605               	rlcf	??_read_cal^0,f,c
  2461   001260  3606               	rlcf	(??_read_cal+1)^0,f,c
  2462   001262  0EB8               	movlw	low _an
  2463   001264  2405               	addwf	??_read_cal^0,w,c
  2464   001266  6ED9               	movwf	fsr2l,c
  2465   001268  0E00               	movlw	high _an
  2466   00126A  2006               	addwfc	(??_read_cal+1)^0,w,c
  2467   00126C  6EDA               	movwf	fsr2h,c
  2468   00126E  90D8               	bcf	status,0,c
  2469   001270  3416               	rlcf	read_cal@i^0,w,c
  2470   001272  6EE1               	movwf	fsr1l,c
  2471   001274  3417               	rlcf	(read_cal@i+1)^0,w,c
  2472   001276  6EE2               	movwf	fsr1h,c
  2473   001278  0ECA               	movlw	low _ls
  2474   00127A  26E1               	addwf	fsr1l,f,c
  2475   00127C  0E00               	movlw	high _ls
  2476   00127E  22E2               	addwfc	fsr1h,f,c
  2477   001280  CFE6 F009          	movff	postinc1,??_read_cal+4
  2478   001284  CFE5 F00A          	movff	postdec1,??_read_cal+5
  2479   001288  90D8               	bcf	status,0,c
  2480   00128A  3609               	rlcf	(??_read_cal+4)^0,f,c
  2481   00128C  360A               	rlcf	(??_read_cal+5)^0,f,c
  2482   00128E  0E94               	movlw	low _mins
  2483   001290  2409               	addwf	(??_read_cal+4)^0,w,c
  2484   001292  6EE1               	movwf	fsr1l,c
  2485   001294  0E00               	movlw	high _mins
  2486   001296  200A               	addwfc	(??_read_cal+5)^0,w,c
  2487   001298  6EE2               	movwf	fsr1h,c
  2488   00129A  50DE               	movf	postinc2,w,c
  2489   00129C  5CE6               	subwf	postinc1,w,c
  2490   00129E  50E6               	movf	postinc1,w,c
  2491   0012A0  0A80               	xorlw	128
  2492   0012A2  6E0D               	movwf	(??_read_cal+8)^0,c
  2493   0012A4  50DE               	movf	postinc2,w,c
  2494   0012A6  0A80               	xorlw	128
  2495   0012A8  580D               	subwfb	(??_read_cal+8)^0,w,c
  2496   0012AA  A0D8               	btfss	status,0,c
  2497   0012AC  EF5A  F009         	goto	u2571
  2498   0012B0  EF5C  F009         	goto	u2570
  2499   0012B4                     u2571:
  2500   0012B4  EF74  F009         	goto	l2907
  2501   0012B8                     u2570:
  2502   0012B8  90D8               	bcf	status,0,c
  2503   0012BA  3416               	rlcf	read_cal@i^0,w,c
  2504   0012BC  6ED9               	movwf	fsr2l,c
  2505   0012BE  3417               	rlcf	(read_cal@i+1)^0,w,c
  2506   0012C0  6EDA               	movwf	fsr2h,c
  2507   0012C2  0ECA               	movlw	low _ls
  2508   0012C4  26D9               	addwf	fsr2l,f,c
  2509   0012C6  0E00               	movlw	high _ls
  2510   0012C8  22DA               	addwfc	fsr2h,f,c
  2511   0012CA  CFDE F005          	movff	postinc2,??_read_cal
  2512   0012CE  CFDD F006          	movff	postdec2,??_read_cal+1
  2513   0012D2  90D8               	bcf	status,0,c
  2514   0012D4  3605               	rlcf	??_read_cal^0,f,c
  2515   0012D6  3606               	rlcf	(??_read_cal+1)^0,f,c
  2516   0012D8  0EB8               	movlw	low _an
  2517   0012DA  2405               	addwf	??_read_cal^0,w,c
  2518   0012DC  6E10               	movwf	_read_cal$525^0,c
  2519   0012DE  0E00               	movlw	high _an
  2520   0012E0  2006               	addwfc	(??_read_cal+1)^0,w,c
  2521   0012E2  6E11               	movwf	(_read_cal$525+1)^0,c
  2522   0012E4  EF8A  F009         	goto	l2909
  2523   0012E8                     l2907:
  2524   0012E8  90D8               	bcf	status,0,c
  2525   0012EA  3416               	rlcf	read_cal@i^0,w,c
  2526   0012EC  6ED9               	movwf	fsr2l,c
  2527   0012EE  3417               	rlcf	(read_cal@i+1)^0,w,c
  2528   0012F0  6EDA               	movwf	fsr2h,c
  2529   0012F2  0ECA               	movlw	low _ls
  2530   0012F4  26D9               	addwf	fsr2l,f,c
  2531   0012F6  0E00               	movlw	high _ls
  2532   0012F8  22DA               	addwfc	fsr2h,f,c
  2533   0012FA  CFDE F005          	movff	postinc2,??_read_cal
  2534   0012FE  CFDD F006          	movff	postdec2,??_read_cal+1
  2535   001302  90D8               	bcf	status,0,c
  2536   001304  3605               	rlcf	??_read_cal^0,f,c
  2537   001306  3606               	rlcf	(??_read_cal+1)^0,f,c
  2538   001308  0E94               	movlw	low _mins
  2539   00130A  2405               	addwf	??_read_cal^0,w,c
  2540   00130C  6E10               	movwf	_read_cal$525^0,c
  2541   00130E  0E00               	movlw	high _mins
  2542   001310  2006               	addwfc	(??_read_cal+1)^0,w,c
  2543   001312  6E11               	movwf	(_read_cal$525+1)^0,c
  2544   001314                     l2909:
  2545   001314  C010  FFD9         	movff	_read_cal$525,fsr2l
  2546   001318  C011  FFDA         	movff	_read_cal$525+1,fsr2h
  2547   00131C  90D8               	bcf	status,0,c
  2548   00131E  3416               	rlcf	read_cal@i^0,w,c
  2549   001320  6EE1               	movwf	fsr1l,c
  2550   001322  3417               	rlcf	(read_cal@i+1)^0,w,c
  2551   001324  6EE2               	movwf	fsr1h,c
  2552   001326  0ECA               	movlw	low _ls
  2553   001328  26E1               	addwf	fsr1l,f,c
  2554   00132A  0E00               	movlw	high _ls
  2555   00132C  22E2               	addwfc	fsr1h,f,c
  2556   00132E  CFE6 F005          	movff	postinc1,??_read_cal
  2557   001332  CFE5 F006          	movff	postdec1,??_read_cal+1
  2558   001336  90D8               	bcf	status,0,c
  2559   001338  3605               	rlcf	??_read_cal^0,f,c
  2560   00133A  3606               	rlcf	(??_read_cal+1)^0,f,c
  2561   00133C  0E94               	movlw	low _mins
  2562   00133E  2405               	addwf	??_read_cal^0,w,c
  2563   001340  6EE1               	movwf	fsr1l,c
  2564   001342  0E00               	movlw	high _mins
  2565   001344  2006               	addwfc	(??_read_cal+1)^0,w,c
  2566   001346  6EE2               	movwf	fsr1h,c
  2567   001348  CFDE FFE6          	movff	postinc2,postinc1
  2568   00134C  CFDD FFE5          	movff	postdec2,postdec1
  2569   001350  4A16               	infsnz	read_cal@i^0,f,c
  2570   001352  2A17               	incf	(read_cal@i+1)^0,f,c
  2571   001354  BE17               	btfsc	(read_cal@i+1)^0,7,c
  2572   001356  EFB6  F009         	goto	u2581
  2573   00135A  5017               	movf	(read_cal@i+1)^0,w,c
  2574   00135C  E109               	bnz	u2580
  2575   00135E  0E05               	movlw	5
  2576   001360  5C16               	subwf	read_cal@i^0,w,c
  2577   001362  A0D8               	btfss	status,0,c
  2578   001364  EFB6  F009         	goto	u2581
  2579   001368  EFB8  F009         	goto	u2580
  2580   00136C                     u2581:
  2581   00136C  EF21  F009         	goto	l2903
  2582   001370                     u2580:
  2583   001370                     
  2584                           ;analog.c: 54: for (i = 0;i < 2;i++) maxs[es[i]] = maxs[es[i]]>an[es[i]]?maxs[es[i]]:an[
      +                          es[i]];
  2585   001370  0E00               	movlw	0
  2586   001372  6E17               	movwf	(read_cal@i+1)^0,c
  2587   001374  0E00               	movlw	0
  2588   001376  6E16               	movwf	read_cal@i^0,c
  2589   001378                     l2921:
  2590   001378  90D8               	bcf	status,0,c
  2591   00137A  3416               	rlcf	read_cal@i^0,w,c
  2592   00137C  6ED9               	movwf	fsr2l,c
  2593   00137E  3417               	rlcf	(read_cal@i+1)^0,w,c
  2594   001380  6EDA               	movwf	fsr2h,c
  2595   001382  0E56               	movlw	low _es
  2596   001384  26D9               	addwf	fsr2l,f,c
  2597   001386  0E00               	movlw	high _es
  2598   001388  22DA               	addwfc	fsr2h,f,c
  2599   00138A  CFDE F005          	movff	postinc2,??_read_cal
  2600   00138E  CFDD F006          	movff	postdec2,??_read_cal+1
  2601   001392  90D8               	bcf	status,0,c
  2602   001394  3605               	rlcf	??_read_cal^0,f,c
  2603   001396  3606               	rlcf	(??_read_cal+1)^0,f,c
  2604   001398  0EA6               	movlw	low _maxs
  2605   00139A  2405               	addwf	??_read_cal^0,w,c
  2606   00139C  6ED9               	movwf	fsr2l,c
  2607   00139E  0E00               	movlw	high _maxs
  2608   0013A0  2006               	addwfc	(??_read_cal+1)^0,w,c
  2609   0013A2  6EDA               	movwf	fsr2h,c
  2610   0013A4  90D8               	bcf	status,0,c
  2611   0013A6  3416               	rlcf	read_cal@i^0,w,c
  2612   0013A8  6EE1               	movwf	fsr1l,c
  2613   0013AA  3417               	rlcf	(read_cal@i+1)^0,w,c
  2614   0013AC  6EE2               	movwf	fsr1h,c
  2615   0013AE  0E56               	movlw	low _es
  2616   0013B0  26E1               	addwf	fsr1l,f,c
  2617   0013B2  0E00               	movlw	high _es
  2618   0013B4  22E2               	addwfc	fsr1h,f,c
  2619   0013B6  CFE6 F009          	movff	postinc1,??_read_cal+4
  2620   0013BA  CFE5 F00A          	movff	postdec1,??_read_cal+5
  2621   0013BE  90D8               	bcf	status,0,c
  2622   0013C0  3609               	rlcf	(??_read_cal+4)^0,f,c
  2623   0013C2  360A               	rlcf	(??_read_cal+5)^0,f,c
  2624   0013C4  0EB8               	movlw	low _an
  2625   0013C6  2409               	addwf	(??_read_cal+4)^0,w,c
  2626   0013C8  6EE1               	movwf	fsr1l,c
  2627   0013CA  0E00               	movlw	high _an
  2628   0013CC  200A               	addwfc	(??_read_cal+5)^0,w,c
  2629   0013CE  6EE2               	movwf	fsr1h,c
  2630   0013D0  50DE               	movf	postinc2,w,c
  2631   0013D2  5CE6               	subwf	postinc1,w,c
  2632   0013D4  50E6               	movf	postinc1,w,c
  2633   0013D6  0A80               	xorlw	128
  2634   0013D8  6E0D               	movwf	(??_read_cal+8)^0,c
  2635   0013DA  50DE               	movf	postinc2,w,c
  2636   0013DC  0A80               	xorlw	128
  2637   0013DE  580D               	subwfb	(??_read_cal+8)^0,w,c
  2638   0013E0  A0D8               	btfss	status,0,c
  2639   0013E2  EFF5  F009         	goto	u2591
  2640   0013E6  EFF7  F009         	goto	u2590
  2641   0013EA                     u2591:
  2642   0013EA  EF0F  F00A         	goto	l2925
  2643   0013EE                     u2590:
  2644   0013EE  90D8               	bcf	status,0,c
  2645   0013F0  3416               	rlcf	read_cal@i^0,w,c
  2646   0013F2  6ED9               	movwf	fsr2l,c
  2647   0013F4  3417               	rlcf	(read_cal@i+1)^0,w,c
  2648   0013F6  6EDA               	movwf	fsr2h,c
  2649   0013F8  0E56               	movlw	low _es
  2650   0013FA  26D9               	addwf	fsr2l,f,c
  2651   0013FC  0E00               	movlw	high _es
  2652   0013FE  22DA               	addwfc	fsr2h,f,c
  2653   001400  CFDE F005          	movff	postinc2,??_read_cal
  2654   001404  CFDD F006          	movff	postdec2,??_read_cal+1
  2655   001408  90D8               	bcf	status,0,c
  2656   00140A  3605               	rlcf	??_read_cal^0,f,c
  2657   00140C  3606               	rlcf	(??_read_cal+1)^0,f,c
  2658   00140E  0EB8               	movlw	low _an
  2659   001410  2405               	addwf	??_read_cal^0,w,c
  2660   001412  6E12               	movwf	_read_cal$527^0,c
  2661   001414  0E00               	movlw	high _an
  2662   001416  2006               	addwfc	(??_read_cal+1)^0,w,c
  2663   001418  6E13               	movwf	(_read_cal$527+1)^0,c
  2664   00141A  EF25  F00A         	goto	l2927
  2665   00141E                     l2925:
  2666   00141E  90D8               	bcf	status,0,c
  2667   001420  3416               	rlcf	read_cal@i^0,w,c
  2668   001422  6ED9               	movwf	fsr2l,c
  2669   001424  3417               	rlcf	(read_cal@i+1)^0,w,c
  2670   001426  6EDA               	movwf	fsr2h,c
  2671   001428  0E56               	movlw	low _es
  2672   00142A  26D9               	addwf	fsr2l,f,c
  2673   00142C  0E00               	movlw	high _es
  2674   00142E  22DA               	addwfc	fsr2h,f,c
  2675   001430  CFDE F005          	movff	postinc2,??_read_cal
  2676   001434  CFDD F006          	movff	postdec2,??_read_cal+1
  2677   001438  90D8               	bcf	status,0,c
  2678   00143A  3605               	rlcf	??_read_cal^0,f,c
  2679   00143C  3606               	rlcf	(??_read_cal+1)^0,f,c
  2680   00143E  0EA6               	movlw	low _maxs
  2681   001440  2405               	addwf	??_read_cal^0,w,c
  2682   001442  6E12               	movwf	_read_cal$527^0,c
  2683   001444  0E00               	movlw	high _maxs
  2684   001446  2006               	addwfc	(??_read_cal+1)^0,w,c
  2685   001448  6E13               	movwf	(_read_cal$527+1)^0,c
  2686   00144A                     l2927:
  2687   00144A  C012  FFD9         	movff	_read_cal$527,fsr2l
  2688   00144E  C013  FFDA         	movff	_read_cal$527+1,fsr2h
  2689   001452  90D8               	bcf	status,0,c
  2690   001454  3416               	rlcf	read_cal@i^0,w,c
  2691   001456  6EE1               	movwf	fsr1l,c
  2692   001458  3417               	rlcf	(read_cal@i+1)^0,w,c
  2693   00145A  6EE2               	movwf	fsr1h,c
  2694   00145C  0E56               	movlw	low _es
  2695   00145E  26E1               	addwf	fsr1l,f,c
  2696   001460  0E00               	movlw	high _es
  2697   001462  22E2               	addwfc	fsr1h,f,c
  2698   001464  CFE6 F005          	movff	postinc1,??_read_cal
  2699   001468  CFE5 F006          	movff	postdec1,??_read_cal+1
  2700   00146C  90D8               	bcf	status,0,c
  2701   00146E  3605               	rlcf	??_read_cal^0,f,c
  2702   001470  3606               	rlcf	(??_read_cal+1)^0,f,c
  2703   001472  0EA6               	movlw	low _maxs
  2704   001474  2405               	addwf	??_read_cal^0,w,c
  2705   001476  6EE1               	movwf	fsr1l,c
  2706   001478  0E00               	movlw	high _maxs
  2707   00147A  2006               	addwfc	(??_read_cal+1)^0,w,c
  2708   00147C  6EE2               	movwf	fsr1h,c
  2709   00147E  CFDE FFE6          	movff	postinc2,postinc1
  2710   001482  CFDD FFE5          	movff	postdec2,postdec1
  2711   001486  4A16               	infsnz	read_cal@i^0,f,c
  2712   001488  2A17               	incf	(read_cal@i+1)^0,f,c
  2713   00148A  BE17               	btfsc	(read_cal@i+1)^0,7,c
  2714   00148C  EF51  F00A         	goto	u2601
  2715   001490  5017               	movf	(read_cal@i+1)^0,w,c
  2716   001492  E109               	bnz	u2600
  2717   001494  0E02               	movlw	2
  2718   001496  5C16               	subwf	read_cal@i^0,w,c
  2719   001498  A0D8               	btfss	status,0,c
  2720   00149A  EF51  F00A         	goto	u2601
  2721   00149E  EF53  F00A         	goto	u2600
  2722   0014A2                     u2601:
  2723   0014A2  EFBC  F009         	goto	l2921
  2724   0014A6                     u2600:
  2725   0014A6                     
  2726                           ;analog.c: 55: for (i = 0;i < 2;i++) mins[es[i]] = mins[es[i]]<an[es[i]]?mins[es[i]]:an[
      +                          es[i]];
  2727   0014A6  0E00               	movlw	0
  2728   0014A8  6E17               	movwf	(read_cal@i+1)^0,c
  2729   0014AA  0E00               	movlw	0
  2730   0014AC  6E16               	movwf	read_cal@i^0,c
  2731   0014AE                     l2939:
  2732   0014AE  90D8               	bcf	status,0,c
  2733   0014B0  3416               	rlcf	read_cal@i^0,w,c
  2734   0014B2  6ED9               	movwf	fsr2l,c
  2735   0014B4  3417               	rlcf	(read_cal@i+1)^0,w,c
  2736   0014B6  6EDA               	movwf	fsr2h,c
  2737   0014B8  0E56               	movlw	low _es
  2738   0014BA  26D9               	addwf	fsr2l,f,c
  2739   0014BC  0E00               	movlw	high _es
  2740   0014BE  22DA               	addwfc	fsr2h,f,c
  2741   0014C0  CFDE F005          	movff	postinc2,??_read_cal
  2742   0014C4  CFDD F006          	movff	postdec2,??_read_cal+1
  2743   0014C8  90D8               	bcf	status,0,c
  2744   0014CA  3605               	rlcf	??_read_cal^0,f,c
  2745   0014CC  3606               	rlcf	(??_read_cal+1)^0,f,c
  2746   0014CE  0EB8               	movlw	low _an
  2747   0014D0  2405               	addwf	??_read_cal^0,w,c
  2748   0014D2  6ED9               	movwf	fsr2l,c
  2749   0014D4  0E00               	movlw	high _an
  2750   0014D6  2006               	addwfc	(??_read_cal+1)^0,w,c
  2751   0014D8  6EDA               	movwf	fsr2h,c
  2752   0014DA  90D8               	bcf	status,0,c
  2753   0014DC  3416               	rlcf	read_cal@i^0,w,c
  2754   0014DE  6EE1               	movwf	fsr1l,c
  2755   0014E0  3417               	rlcf	(read_cal@i+1)^0,w,c
  2756   0014E2  6EE2               	movwf	fsr1h,c
  2757   0014E4  0E56               	movlw	low _es
  2758   0014E6  26E1               	addwf	fsr1l,f,c
  2759   0014E8  0E00               	movlw	high _es
  2760   0014EA  22E2               	addwfc	fsr1h,f,c
  2761   0014EC  CFE6 F009          	movff	postinc1,??_read_cal+4
  2762   0014F0  CFE5 F00A          	movff	postdec1,??_read_cal+5
  2763   0014F4  90D8               	bcf	status,0,c
  2764   0014F6  3609               	rlcf	(??_read_cal+4)^0,f,c
  2765   0014F8  360A               	rlcf	(??_read_cal+5)^0,f,c
  2766   0014FA  0E94               	movlw	low _mins
  2767   0014FC  2409               	addwf	(??_read_cal+4)^0,w,c
  2768   0014FE  6EE1               	movwf	fsr1l,c
  2769   001500  0E00               	movlw	high _mins
  2770   001502  200A               	addwfc	(??_read_cal+5)^0,w,c
  2771   001504  6EE2               	movwf	fsr1h,c
  2772   001506  50DE               	movf	postinc2,w,c
  2773   001508  5CE6               	subwf	postinc1,w,c
  2774   00150A  50E6               	movf	postinc1,w,c
  2775   00150C  0A80               	xorlw	128
  2776   00150E  6E0D               	movwf	(??_read_cal+8)^0,c
  2777   001510  50DE               	movf	postinc2,w,c
  2778   001512  0A80               	xorlw	128
  2779   001514  580D               	subwfb	(??_read_cal+8)^0,w,c
  2780   001516  A0D8               	btfss	status,0,c
  2781   001518  EF90  F00A         	goto	u2611
  2782   00151C  EF92  F00A         	goto	u2610
  2783   001520                     u2611:
  2784   001520  EFAA  F00A         	goto	l2943
  2785   001524                     u2610:
  2786   001524  90D8               	bcf	status,0,c
  2787   001526  3416               	rlcf	read_cal@i^0,w,c
  2788   001528  6ED9               	movwf	fsr2l,c
  2789   00152A  3417               	rlcf	(read_cal@i+1)^0,w,c
  2790   00152C  6EDA               	movwf	fsr2h,c
  2791   00152E  0E56               	movlw	low _es
  2792   001530  26D9               	addwf	fsr2l,f,c
  2793   001532  0E00               	movlw	high _es
  2794   001534  22DA               	addwfc	fsr2h,f,c
  2795   001536  CFDE F005          	movff	postinc2,??_read_cal
  2796   00153A  CFDD F006          	movff	postdec2,??_read_cal+1
  2797   00153E  90D8               	bcf	status,0,c
  2798   001540  3605               	rlcf	??_read_cal^0,f,c
  2799   001542  3606               	rlcf	(??_read_cal+1)^0,f,c
  2800   001544  0EB8               	movlw	low _an
  2801   001546  2405               	addwf	??_read_cal^0,w,c
  2802   001548  6E14               	movwf	_read_cal$529^0,c
  2803   00154A  0E00               	movlw	high _an
  2804   00154C  2006               	addwfc	(??_read_cal+1)^0,w,c
  2805   00154E  6E15               	movwf	(_read_cal$529+1)^0,c
  2806   001550  EFC0  F00A         	goto	l2945
  2807   001554                     l2943:
  2808   001554  90D8               	bcf	status,0,c
  2809   001556  3416               	rlcf	read_cal@i^0,w,c
  2810   001558  6ED9               	movwf	fsr2l,c
  2811   00155A  3417               	rlcf	(read_cal@i+1)^0,w,c
  2812   00155C  6EDA               	movwf	fsr2h,c
  2813   00155E  0E56               	movlw	low _es
  2814   001560  26D9               	addwf	fsr2l,f,c
  2815   001562  0E00               	movlw	high _es
  2816   001564  22DA               	addwfc	fsr2h,f,c
  2817   001566  CFDE F005          	movff	postinc2,??_read_cal
  2818   00156A  CFDD F006          	movff	postdec2,??_read_cal+1
  2819   00156E  90D8               	bcf	status,0,c
  2820   001570  3605               	rlcf	??_read_cal^0,f,c
  2821   001572  3606               	rlcf	(??_read_cal+1)^0,f,c
  2822   001574  0E94               	movlw	low _mins
  2823   001576  2405               	addwf	??_read_cal^0,w,c
  2824   001578  6E14               	movwf	_read_cal$529^0,c
  2825   00157A  0E00               	movlw	high _mins
  2826   00157C  2006               	addwfc	(??_read_cal+1)^0,w,c
  2827   00157E  6E15               	movwf	(_read_cal$529+1)^0,c
  2828   001580                     l2945:
  2829   001580  C014  FFD9         	movff	_read_cal$529,fsr2l
  2830   001584  C015  FFDA         	movff	_read_cal$529+1,fsr2h
  2831   001588  90D8               	bcf	status,0,c
  2832   00158A  3416               	rlcf	read_cal@i^0,w,c
  2833   00158C  6EE1               	movwf	fsr1l,c
  2834   00158E  3417               	rlcf	(read_cal@i+1)^0,w,c
  2835   001590  6EE2               	movwf	fsr1h,c
  2836   001592  0E56               	movlw	low _es
  2837   001594  26E1               	addwf	fsr1l,f,c
  2838   001596  0E00               	movlw	high _es
  2839   001598  22E2               	addwfc	fsr1h,f,c
  2840   00159A  CFE6 F005          	movff	postinc1,??_read_cal
  2841   00159E  CFE5 F006          	movff	postdec1,??_read_cal+1
  2842   0015A2  90D8               	bcf	status,0,c
  2843   0015A4  3605               	rlcf	??_read_cal^0,f,c
  2844   0015A6  3606               	rlcf	(??_read_cal+1)^0,f,c
  2845   0015A8  0E94               	movlw	low _mins
  2846   0015AA  2405               	addwf	??_read_cal^0,w,c
  2847   0015AC  6EE1               	movwf	fsr1l,c
  2848   0015AE  0E00               	movlw	high _mins
  2849   0015B0  2006               	addwfc	(??_read_cal+1)^0,w,c
  2850   0015B2  6EE2               	movwf	fsr1h,c
  2851   0015B4  CFDE FFE6          	movff	postinc2,postinc1
  2852   0015B8  CFDD FFE5          	movff	postdec2,postdec1
  2853   0015BC  4A16               	infsnz	read_cal@i^0,f,c
  2854   0015BE  2A17               	incf	(read_cal@i+1)^0,f,c
  2855   0015C0  BE17               	btfsc	(read_cal@i+1)^0,7,c
  2856   0015C2  EFEC  F00A         	goto	u2621
  2857   0015C6  5017               	movf	(read_cal@i+1)^0,w,c
  2858   0015C8  E109               	bnz	u2620
  2859   0015CA  0E02               	movlw	2
  2860   0015CC  5C16               	subwf	read_cal@i^0,w,c
  2861   0015CE  A0D8               	btfss	status,0,c
  2862   0015D0  EFEC  F00A         	goto	u2621
  2863   0015D4  EFEE  F00A         	goto	u2620
  2864   0015D8                     u2621:
  2865   0015D8  EF57  F00A         	goto	l2939
  2866   0015DC                     u2620:
  2867   0015DC  0012               	return		;funcret
  2868   0015DE                     __end_of_read_cal:
  2869                           	callstack 0
  2870                           
  2871 ;; *************** function _mspeed *****************
  2872 ;; Defined at:
  2873 ;;		line 107 in file "config.c"
  2874 ;; Parameters:    Size  Location     Type
  2875 ;;  a               2   77[COMRAM] int 
  2876 ;;  b               2   79[COMRAM] int 
  2877 ;; Auto vars:     Size  Location     Type
  2878 ;;		None
  2879 ;; Return value:  Size  Location     Type
  2880 ;;                  1    wreg      void 
  2881 ;; Registers used:
  2882 ;;		wreg, status,2, status,0, cstack
  2883 ;; Tracked objects:
  2884 ;;		On entry : 0/0
  2885 ;;		On exit  : 0/0
  2886 ;;		Unchanged: 0/0
  2887 ;; Data sizes:     COMRAM   BANK0   BANK1   BANK2   BANK3   BANK4   BANK5   BANK6   BANK7
  2888 ;;      Params:         4       0       0       0       0       0       0       0       0
  2889 ;;      Locals:         0       0       0       0       0       0       0       0       0
  2890 ;;      Temps:          0       0       0       0       0       0       0       0       0
  2891 ;;      Totals:         4       0       0       0       0       0       0       0       0
  2892 ;;Total ram usage:        4 bytes
  2893 ;; Hardware stack levels used: 1
  2894 ;; Hardware stack levels required when called: 3
  2895 ;; This function calls:
  2896 ;;		_MotorASpeed
  2897 ;;		_MotorBSpeed
  2898 ;; This function is called by:
  2899 ;;		_main
  2900 ;; This function uses a non-reentrant model
  2901 ;;
  2902                           
  2903                           	psect	text6
  2904   002D82                     __ptext6:
  2905                           	callstack 0
  2906   002D82                     _mspeed:
  2907                           	callstack 27
  2908   002D82                     
  2909                           ;config.c: 108: MotorASpeed(a);
  2910   002D82  C04E  F00D         	movff	mspeed@a,MotorASpeed@S
  2911   002D86  C04F  F00E         	movff	mspeed@a+1,MotorASpeed@S+1
  2912   002D8A  ECC6  F013         	call	_MotorASpeed	;wreg free
  2913                           
  2914                           ;config.c: 109: MotorBSpeed(b);
  2915   002D8E  C050  F00D         	movff	mspeed@b,MotorBSpeed@S
  2916   002D92  C051  F00E         	movff	mspeed@b+1,MotorBSpeed@S+1
  2917   002D96  EC2E  F014         	call	_MotorBSpeed	;wreg free
  2918   002D9A  0012               	return		;funcret
  2919   002D9C                     __end_of_mspeed:
  2920                           	callstack 0
  2921                           
  2922 ;; *************** function _MotorBSpeed *****************
  2923 ;; Defined at:
  2924 ;;		line 95 in file "config.c"
  2925 ;; Parameters:    Size  Location     Type
  2926 ;;  S               2   12[COMRAM] int 
  2927 ;; Auto vars:     Size  Location     Type
  2928 ;;		None
  2929 ;; Return value:  Size  Location     Type
  2930 ;;                  1    wreg      void 
  2931 ;; Registers used:
  2932 ;;		wreg, status,2, status,0, cstack
  2933 ;; Tracked objects:
  2934 ;;		On entry : 0/0
  2935 ;;		On exit  : 0/0
  2936 ;;		Unchanged: 0/0
  2937 ;; Data sizes:     COMRAM   BANK0   BANK1   BANK2   BANK3   BANK4   BANK5   BANK6   BANK7
  2938 ;;      Params:         2       0       0       0       0       0       0       0       0
  2939 ;;      Locals:         0       0       0       0       0       0       0       0       0
  2940 ;;      Temps:          1       0       0       0       0       0       0       0       0
  2941 ;;      Totals:         3       0       0       0       0       0       0       0       0
  2942 ;;Total ram usage:        3 bytes
  2943 ;; Hardware stack levels used: 1
  2944 ;; Hardware stack levels required when called: 2
  2945 ;; This function calls:
  2946 ;;		___awdiv
  2947 ;; This function is called by:
  2948 ;;		_mspeed
  2949 ;; This function uses a non-reentrant model
  2950 ;;
  2951                           
  2952                           	psect	text7
  2953   00285C                     __ptext7:
  2954                           	callstack 0
  2955   00285C                     _MotorBSpeed:
  2956                           	callstack 27
  2957   00285C                     
  2958                           ;config.c: 97: S = S<1000?S:1000;
  2959   00285C  BE0E               	btfsc	(MotorBSpeed@S+1)^0,7,c
  2960   00285E  EF3A  F014         	goto	u1991
  2961   002862  0EE8               	movlw	232
  2962   002864  5C0D               	subwf	MotorBSpeed@S^0,w,c
  2963   002866  0E03               	movlw	3
  2964   002868  580E               	subwfb	(MotorBSpeed@S+1)^0,w,c
  2965   00286A  A0D8               	btfss	status,0,c
  2966   00286C  EF3A  F014         	goto	u1991
  2967   002870  EF3C  F014         	goto	u1990
  2968   002874                     u1991:
  2969   002874  EF40  F014         	goto	l2519
  2970   002878                     u1990:
  2971   002878  0E03               	movlw	3
  2972   00287A  6E0E               	movwf	(MotorBSpeed@S+1)^0,c
  2973   00287C  0EE8               	movlw	232
  2974   00287E  6E0D               	movwf	MotorBSpeed@S^0,c
  2975   002880                     l2519:
  2976                           
  2977                           ;config.c: 98: S = S>-1000?S:-1000;
  2978   002880  AE0E               	btfss	(MotorBSpeed@S+1)^0,7,c
  2979   002882  EF4C  F014         	goto	u2001
  2980   002886  0E19               	movlw	25
  2981   002888  5C0D               	subwf	MotorBSpeed@S^0,w,c
  2982   00288A  0EFC               	movlw	252
  2983   00288C  580E               	subwfb	(MotorBSpeed@S+1)^0,w,c
  2984   00288E  B0D8               	btfsc	status,0,c
  2985   002890  EF4C  F014         	goto	u2001
  2986   002894  EF4E  F014         	goto	u2000
  2987   002898                     u2001:
  2988   002898  EF52  F014         	goto	l2523
  2989   00289C                     u2000:
  2990   00289C  0EFC               	movlw	252
  2991   00289E  6E0E               	movwf	(MotorBSpeed@S+1)^0,c
  2992   0028A0  0E18               	movlw	24
  2993   0028A2  6E0D               	movwf	MotorBSpeed@S^0,c
  2994   0028A4                     l2523:
  2995                           
  2996                           ;config.c: 100: PORTBbits.RB1 = S > 0 ? 0 : 1;
  2997   0028A4  BE0E               	btfsc	(MotorBSpeed@S+1)^0,7,c
  2998   0028A6  EF5D  F014         	goto	u2011
  2999   0028AA  500E               	movf	(MotorBSpeed@S+1)^0,w,c
  3000   0028AC  E10A               	bnz	u2010
  3001   0028AE  040D               	decf	MotorBSpeed@S^0,w,c
  3002   0028B0  A0D8               	btfss	status,0,c
  3003   0028B2  EF5D  F014         	goto	u2011
  3004   0028B6  EF61  F014         	goto	u2010
  3005   0028BA                     u2011:
  3006   0028BA  6A0F               	clrf	??_MotorBSpeed^0,c
  3007   0028BC  2A0F               	incf	??_MotorBSpeed^0,f,c
  3008   0028BE  EF62  F014         	goto	u2028
  3009   0028C2                     u2010:
  3010   0028C2  6A0F               	clrf	??_MotorBSpeed^0,c
  3011   0028C4                     u2028:
  3012   0028C4  460F               	rlncf	??_MotorBSpeed^0,f,c
  3013   0028C6  5081               	movf	129,w,c	;volatile
  3014   0028C8  180F               	xorwf	??_MotorBSpeed^0,w,c
  3015   0028CA  0BFD               	andlw	-3
  3016   0028CC  180F               	xorwf	??_MotorBSpeed^0,w,c
  3017   0028CE  6E81               	movwf	129,c	;volatile
  3018                           
  3019                           ;config.c: 101: S = S > 0 ? S : 1000 + S;
  3020   0028D0  BE0E               	btfsc	(MotorBSpeed@S+1)^0,7,c
  3021   0028D2  EF75  F014         	goto	u2030
  3022   0028D6  500E               	movf	(MotorBSpeed@S+1)^0,w,c
  3023   0028D8  E106               	bnz	u2031
  3024   0028DA  040D               	decf	MotorBSpeed@S^0,w,c
  3025   0028DC  B0D8               	btfsc	status,0,c
  3026   0028DE  EF73  F014         	goto	u2031
  3027   0028E2  EF75  F014         	goto	u2030
  3028   0028E6                     u2031:
  3029   0028E6  EF7B  F014         	goto	l2527
  3030   0028EA                     u2030:
  3031   0028EA  0EE8               	movlw	232
  3032   0028EC  240D               	addwf	MotorBSpeed@S^0,w,c
  3033   0028EE  6E0D               	movwf	MotorBSpeed@S^0,c
  3034   0028F0  0E03               	movlw	3
  3035   0028F2  200E               	addwfc	(MotorBSpeed@S+1)^0,w,c
  3036   0028F4  6E0E               	movwf	(MotorBSpeed@S+1)^0,c
  3037   0028F6                     l2527:
  3038                           
  3039                           ;config.c: 103: CCP2CONbits.DC2B = S % 4;
  3040   0028F6  C00D  F00F         	movff	MotorBSpeed@S,??_MotorBSpeed
  3041   0028FA  0E03               	movlw	3
  3042   0028FC  160F               	andwf	??_MotorBSpeed^0,f,c
  3043   0028FE  3A0F               	swapf	??_MotorBSpeed^0,f,c
  3044   002900  50BA               	movf	186,w,c	;volatile
  3045   002902  180F               	xorwf	??_MotorBSpeed^0,w,c
  3046   002904  0BCF               	andlw	-49
  3047   002906  180F               	xorwf	??_MotorBSpeed^0,w,c
  3048   002908  6EBA               	movwf	186,c	;volatile
  3049   00290A                     
  3050                           ;config.c: 104: CCPR2L = S / 4;
  3051   00290A  C00D  F005         	movff	MotorBSpeed@S,___awdiv@dividend
  3052   00290E  C00E  F006         	movff	MotorBSpeed@S+1,___awdiv@dividend+1
  3053   002912  0E00               	movlw	0
  3054   002914  6E08               	movwf	(___awdiv@divisor+1)^0,c
  3055   002916  0E04               	movlw	4
  3056   002918  6E07               	movwf	___awdiv@divisor^0,c
  3057   00291A  EC92  F014         	call	___awdiv	;wreg free
  3058   00291E  5005               	movf	?___awdiv^0,w,c
  3059   002920  6EBB               	movwf	187,c	;volatile
  3060   002922  0012               	return		;funcret
  3061   002924                     __end_of_MotorBSpeed:
  3062                           	callstack 0
  3063                           
  3064 ;; *************** function _MotorASpeed *****************
  3065 ;; Defined at:
  3066 ;;		line 84 in file "config.c"
  3067 ;; Parameters:    Size  Location     Type
  3068 ;;  S               2   12[COMRAM] int 
  3069 ;; Auto vars:     Size  Location     Type
  3070 ;;		None
  3071 ;; Return value:  Size  Location     Type
  3072 ;;                  1    wreg      void 
  3073 ;; Registers used:
  3074 ;;		wreg, status,2, status,0, cstack
  3075 ;; Tracked objects:
  3076 ;;		On entry : 0/0
  3077 ;;		On exit  : 0/0
  3078 ;;		Unchanged: 0/0
  3079 ;; Data sizes:     COMRAM   BANK0   BANK1   BANK2   BANK3   BANK4   BANK5   BANK6   BANK7
  3080 ;;      Params:         2       0       0       0       0       0       0       0       0
  3081 ;;      Locals:         0       0       0       0       0       0       0       0       0
  3082 ;;      Temps:          1       0       0       0       0       0       0       0       0
  3083 ;;      Totals:         3       0       0       0       0       0       0       0       0
  3084 ;;Total ram usage:        3 bytes
  3085 ;; Hardware stack levels used: 1
  3086 ;; Hardware stack levels required when called: 2
  3087 ;; This function calls:
  3088 ;;		___awdiv
  3089 ;; This function is called by:
  3090 ;;		_mspeed
  3091 ;; This function uses a non-reentrant model
  3092 ;;
  3093                           
  3094                           	psect	text8
  3095   00278C                     __ptext8:
  3096                           	callstack 0
  3097   00278C                     _MotorASpeed:
  3098                           	callstack 27
  3099   00278C                     
  3100                           ;config.c: 85: S = -S;
  3101   00278C  6C0D               	negf	MotorASpeed@S^0,c
  3102   00278E  1E0E               	comf	(MotorASpeed@S+1)^0,f,c
  3103   002790  B0D8               	btfsc	status,0,c
  3104   002792  2A0E               	incf	(MotorASpeed@S+1)^0,f,c
  3105   002794                     
  3106                           ;config.c: 86: S = S<1000?S:1000;
  3107   002794  BE0E               	btfsc	(MotorASpeed@S+1)^0,7,c
  3108   002796  EFD6  F013         	goto	u1941
  3109   00279A  0EE8               	movlw	232
  3110   00279C  5C0D               	subwf	MotorASpeed@S^0,w,c
  3111   00279E  0E03               	movlw	3
  3112   0027A0  580E               	subwfb	(MotorASpeed@S+1)^0,w,c
  3113   0027A2  A0D8               	btfss	status,0,c
  3114   0027A4  EFD6  F013         	goto	u1941
  3115   0027A8  EFD8  F013         	goto	u1940
  3116   0027AC                     u1941:
  3117   0027AC  EFDC  F013         	goto	l2503
  3118   0027B0                     u1940:
  3119   0027B0  0E03               	movlw	3
  3120   0027B2  6E0E               	movwf	(MotorASpeed@S+1)^0,c
  3121   0027B4  0EE8               	movlw	232
  3122   0027B6  6E0D               	movwf	MotorASpeed@S^0,c
  3123   0027B8                     l2503:
  3124                           
  3125                           ;config.c: 87: S = S>-1000?S:-1000;
  3126   0027B8  AE0E               	btfss	(MotorASpeed@S+1)^0,7,c
  3127   0027BA  EFE8  F013         	goto	u1951
  3128   0027BE  0E19               	movlw	25
  3129   0027C0  5C0D               	subwf	MotorASpeed@S^0,w,c
  3130   0027C2  0EFC               	movlw	252
  3131   0027C4  580E               	subwfb	(MotorASpeed@S+1)^0,w,c
  3132   0027C6  B0D8               	btfsc	status,0,c
  3133   0027C8  EFE8  F013         	goto	u1951
  3134   0027CC  EFEA  F013         	goto	u1950
  3135   0027D0                     u1951:
  3136   0027D0  EFEE  F013         	goto	l2507
  3137   0027D4                     u1950:
  3138   0027D4  0EFC               	movlw	252
  3139   0027D6  6E0E               	movwf	(MotorASpeed@S+1)^0,c
  3140   0027D8  0E18               	movlw	24
  3141   0027DA  6E0D               	movwf	MotorASpeed@S^0,c
  3142   0027DC                     l2507:
  3143                           
  3144                           ;config.c: 89: PORTBbits.RB0 = S > 0 ? 0 : 1;
  3145   0027DC  BE0E               	btfsc	(MotorASpeed@S+1)^0,7,c
  3146   0027DE  EFF9  F013         	goto	u1961
  3147   0027E2  500E               	movf	(MotorASpeed@S+1)^0,w,c
  3148   0027E4  E10A               	bnz	u1960
  3149   0027E6  040D               	decf	MotorASpeed@S^0,w,c
  3150   0027E8  A0D8               	btfss	status,0,c
  3151   0027EA  EFF9  F013         	goto	u1961
  3152   0027EE  EFFD  F013         	goto	u1960
  3153   0027F2                     u1961:
  3154   0027F2  6A0F               	clrf	??_MotorASpeed^0,c
  3155   0027F4  2A0F               	incf	??_MotorASpeed^0,f,c
  3156   0027F6  EFFE  F013         	goto	u1978
  3157   0027FA                     u1960:
  3158   0027FA  6A0F               	clrf	??_MotorASpeed^0,c
  3159   0027FC                     u1978:
  3160   0027FC  5081               	movf	129,w,c	;volatile
  3161   0027FE  180F               	xorwf	??_MotorASpeed^0,w,c
  3162   002800  0BFE               	andlw	-2
  3163   002802  180F               	xorwf	??_MotorASpeed^0,w,c
  3164   002804  6E81               	movwf	129,c	;volatile
  3165                           
  3166                           ;config.c: 90: S = S > 0 ? S : 1000 + S;
  3167   002806  BE0E               	btfsc	(MotorASpeed@S+1)^0,7,c
  3168   002808  EF10  F014         	goto	u1980
  3169   00280C  500E               	movf	(MotorASpeed@S+1)^0,w,c
  3170   00280E  E106               	bnz	u1981
  3171   002810  040D               	decf	MotorASpeed@S^0,w,c
  3172   002812  B0D8               	btfsc	status,0,c
  3173   002814  EF0E  F014         	goto	u1981
  3174   002818  EF10  F014         	goto	u1980
  3175   00281C                     u1981:
  3176   00281C  EF16  F014         	goto	l2511
  3177   002820                     u1980:
  3178   002820  0EE8               	movlw	232
  3179   002822  240D               	addwf	MotorASpeed@S^0,w,c
  3180   002824  6E0D               	movwf	MotorASpeed@S^0,c
  3181   002826  0E03               	movlw	3
  3182   002828  200E               	addwfc	(MotorASpeed@S+1)^0,w,c
  3183   00282A  6E0E               	movwf	(MotorASpeed@S+1)^0,c
  3184   00282C                     l2511:
  3185                           
  3186                           ;config.c: 92: CCP1CONbits.DC1B1 = S % 4;
  3187   00282C  C00D  F00F         	movff	MotorASpeed@S,??_MotorASpeed
  3188   002830  0E03               	movlw	3
  3189   002832  160F               	andwf	??_MotorASpeed^0,f,c
  3190   002834  3A0F               	swapf	??_MotorASpeed^0,f,c
  3191   002836  460F               	rlncf	??_MotorASpeed^0,f,c
  3192   002838  50BD               	movf	189,w,c	;volatile
  3193   00283A  180F               	xorwf	??_MotorASpeed^0,w,c
  3194   00283C  0BDF               	andlw	-33
  3195   00283E  180F               	xorwf	??_MotorASpeed^0,w,c
  3196   002840  6EBD               	movwf	189,c	;volatile
  3197   002842                     
  3198                           ;config.c: 93: CCPR1L = S / 4;
  3199   002842  C00D  F005         	movff	MotorASpeed@S,___awdiv@dividend
  3200   002846  C00E  F006         	movff	MotorASpeed@S+1,___awdiv@dividend+1
  3201   00284A  0E00               	movlw	0
  3202   00284C  6E08               	movwf	(___awdiv@divisor+1)^0,c
  3203   00284E  0E04               	movlw	4
  3204   002850  6E07               	movwf	___awdiv@divisor^0,c
  3205   002852  EC92  F014         	call	___awdiv	;wreg free
  3206   002856  5005               	movf	?___awdiv^0,w,c
  3207   002858  6EBE               	movwf	190,c	;volatile
  3208   00285A  0012               	return		;funcret
  3209   00285C                     __end_of_MotorASpeed:
  3210                           	callstack 0
  3211                           
  3212 ;; *************** function _line_cal *****************
  3213 ;; Defined at:
  3214 ;;		line 84 in file "analog.c"
  3215 ;; Parameters:    Size  Location     Type
  3216 ;;		None
  3217 ;; Auto vars:     Size  Location     Type
  3218 ;;  value           4   52[COMRAM] long 
  3219 ;;  b               4   44[COMRAM] long 
  3220 ;;  a               4   40[COMRAM] long 
  3221 ;;  j               2   58[COMRAM] int 
  3222 ;;  i               2   56[COMRAM] int 
  3223 ;;  aux             2   50[COMRAM] int 
  3224 ;;  ok              2   48[COMRAM] int 
  3225 ;; Return value:  Size  Location     Type
  3226 ;;                  1    wreg      void 
  3227 ;; Registers used:
  3228 ;;		wreg, fsr2l, fsr2h, status,2, status,0, cstack
  3229 ;; Tracked objects:
  3230 ;;		On entry : 0/0
  3231 ;;		On exit  : 0/0
  3232 ;;		Unchanged: 0/0
  3233 ;; Data sizes:     COMRAM   BANK0   BANK1   BANK2   BANK3   BANK4   BANK5   BANK6   BANK7
  3234 ;;      Params:         0       0       0       0       0       0       0       0       0
  3235 ;;      Locals:        24       0       0       0       0       0       0       0       0
  3236 ;;      Temps:          6       0       0       0       0       0       0       0       0
  3237 ;;      Totals:        30       0       0       0       0       0       0       0       0
  3238 ;;Total ram usage:       30 bytes
  3239 ;; Hardware stack levels used: 1
  3240 ;; Hardware stack levels required when called: 2
  3241 ;; This function calls:
  3242 ;;		___aldiv
  3243 ;;		___lmul
  3244 ;; This function is called by:
  3245 ;;		_main
  3246 ;; This function uses a non-reentrant model
  3247 ;;
  3248                           
  3249                           	psect	text9
  3250   001EC8                     __ptext9:
  3251                           	callstack 0
  3252   001EC8                     _line_cal:
  3253                           	callstack 28
  3254   001EC8                     
  3255                           ;analog.c: 85: ll a = 0;
  3256   001EC8  0E00               	movlw	0
  3257   001ECA  6E29               	movwf	line_cal@a^0,c
  3258   001ECC  0E00               	movlw	0
  3259   001ECE  6E2A               	movwf	(line_cal@a+1)^0,c
  3260   001ED0  0E00               	movlw	0
  3261   001ED2  6E2B               	movwf	(line_cal@a+2)^0,c
  3262   001ED4  0E00               	movlw	0
  3263   001ED6  6E2C               	movwf	(line_cal@a+3)^0,c
  3264                           
  3265                           ;analog.c: 86: ll b = 0;
  3266   001ED8  0E00               	movlw	0
  3267   001EDA  6E2D               	movwf	line_cal@b^0,c
  3268   001EDC  0E00               	movlw	0
  3269   001EDE  6E2E               	movwf	(line_cal@b+1)^0,c
  3270   001EE0  0E00               	movlw	0
  3271   001EE2  6E2F               	movwf	(line_cal@b+2)^0,c
  3272   001EE4  0E00               	movlw	0
  3273   001EE6  6E30               	movwf	(line_cal@b+3)^0,c
  3274                           
  3275                           ;analog.c: 88: int i , j , aux;;analog.c: 89: ll value;;analog.c: 90: int ok = 0;
  3276   001EE8  0E00               	movlw	0
  3277   001EEA  6E32               	movwf	(line_cal@ok+1)^0,c
  3278   001EEC  0E00               	movlw	0
  3279   001EEE  6E31               	movwf	line_cal@ok^0,c
  3280                           
  3281                           ;analog.c: 92: for (i = 0;i < 5;i++){
  3282   001EF0  0E00               	movlw	0
  3283   001EF2  6E3A               	movwf	(line_cal@i+1)^0,c
  3284   001EF4  0E00               	movlw	0
  3285   001EF6  6E39               	movwf	line_cal@i^0,c
  3286   001EF8                     l2957:
  3287                           
  3288                           ;analog.c: 94: j = ls[i];
  3289   001EF8  90D8               	bcf	status,0,c
  3290   001EFA  3439               	rlcf	line_cal@i^0,w,c
  3291   001EFC  6ED9               	movwf	fsr2l,c
  3292   001EFE  343A               	rlcf	(line_cal@i+1)^0,w,c
  3293   001F00  6EDA               	movwf	fsr2h,c
  3294   001F02  0ECA               	movlw	low _ls
  3295   001F04  26D9               	addwf	fsr2l,f,c
  3296   001F06  0E00               	movlw	high _ls
  3297   001F08  22DA               	addwfc	fsr2h,f,c
  3298   001F0A  CFDE F03B          	movff	postinc2,line_cal@j
  3299   001F0E  CFDD F03C          	movff	postdec2,line_cal@j+1
  3300                           
  3301                           ;analog.c: 95: aux = an[j];
  3302   001F12  90D8               	bcf	status,0,c
  3303   001F14  343B               	rlcf	line_cal@j^0,w,c
  3304   001F16  6ED9               	movwf	fsr2l,c
  3305   001F18  343C               	rlcf	(line_cal@j+1)^0,w,c
  3306   001F1A  6EDA               	movwf	fsr2h,c
  3307   001F1C  0EB8               	movlw	low _an
  3308   001F1E  26D9               	addwf	fsr2l,f,c
  3309   001F20  0E00               	movlw	high _an
  3310   001F22  22DA               	addwfc	fsr2h,f,c
  3311   001F24  CFDE F033          	movff	postinc2,line_cal@aux
  3312   001F28  CFDD F034          	movff	postdec2,line_cal@aux+1
  3313                           
  3314                           ;analog.c: 96: aux = aux>mins[j]?aux:mins[j];
  3315   001F2C  90D8               	bcf	status,0,c
  3316   001F2E  343B               	rlcf	line_cal@j^0,w,c
  3317   001F30  6ED9               	movwf	fsr2l,c
  3318   001F32  343C               	rlcf	(line_cal@j+1)^0,w,c
  3319   001F34  6EDA               	movwf	fsr2h,c
  3320   001F36  0E94               	movlw	low _mins
  3321   001F38  26D9               	addwf	fsr2l,f,c
  3322   001F3A  0E00               	movlw	high _mins
  3323   001F3C  22DA               	addwfc	fsr2h,f,c
  3324   001F3E  5033               	movf	line_cal@aux^0,w,c
  3325   001F40  5CDE               	subwf	postinc2,w,c
  3326   001F42  50DE               	movf	postinc2,w,c
  3327   001F44  0A80               	xorlw	128
  3328   001F46  6E21               	movwf	(??_line_cal+2)^0,c
  3329   001F48  5034               	movf	(line_cal@aux+1)^0,w,c
  3330   001F4A  0A80               	xorlw	128
  3331   001F4C  5821               	subwfb	(??_line_cal+2)^0,w,c
  3332   001F4E  A0D8               	btfss	status,0,c
  3333   001F50  EFAC  F00F         	goto	u2631
  3334   001F54  EFAE  F00F         	goto	u2630
  3335   001F58                     u2631:
  3336   001F58  EFBB  F00F         	goto	l2961
  3337   001F5C                     u2630:
  3338   001F5C  90D8               	bcf	status,0,c
  3339   001F5E  343B               	rlcf	line_cal@j^0,w,c
  3340   001F60  6ED9               	movwf	fsr2l,c
  3341   001F62  343C               	rlcf	(line_cal@j+1)^0,w,c
  3342   001F64  6EDA               	movwf	fsr2h,c
  3343   001F66  0E94               	movlw	low _mins
  3344   001F68  26D9               	addwf	fsr2l,f,c
  3345   001F6A  0E00               	movlw	high _mins
  3346   001F6C  22DA               	addwfc	fsr2h,f,c
  3347   001F6E  CFDE F033          	movff	postinc2,line_cal@aux
  3348   001F72  CFDD F034          	movff	postdec2,line_cal@aux+1
  3349   001F76                     l2961:
  3350                           
  3351                           ;analog.c: 97: aux = aux<maxs[j]?aux:maxs[j];
  3352   001F76  90D8               	bcf	status,0,c
  3353   001F78  343B               	rlcf	line_cal@j^0,w,c
  3354   001F7A  6ED9               	movwf	fsr2l,c
  3355   001F7C  343C               	rlcf	(line_cal@j+1)^0,w,c
  3356   001F7E  6EDA               	movwf	fsr2h,c
  3357   001F80  0EA6               	movlw	low _maxs
  3358   001F82  26D9               	addwf	fsr2l,f,c
  3359   001F84  0E00               	movlw	high _maxs
  3360   001F86  22DA               	addwfc	fsr2h,f,c
  3361   001F88  50DE               	movf	postinc2,w,c
  3362   001F8A  5C33               	subwf	line_cal@aux^0,w,c
  3363   001F8C  5034               	movf	(line_cal@aux+1)^0,w,c
  3364   001F8E  0A80               	xorlw	128
  3365   001F90  6E21               	movwf	(??_line_cal+2)^0,c
  3366   001F92  50DE               	movf	postinc2,w,c
  3367   001F94  0A80               	xorlw	128
  3368   001F96  5821               	subwfb	(??_line_cal+2)^0,w,c
  3369   001F98  A0D8               	btfss	status,0,c
  3370   001F9A  EFD1  F00F         	goto	u2641
  3371   001F9E  EFD3  F00F         	goto	u2640
  3372   001FA2                     u2641:
  3373   001FA2  EFE0  F00F         	goto	l2965
  3374   001FA6                     u2640:
  3375   001FA6  90D8               	bcf	status,0,c
  3376   001FA8  343B               	rlcf	line_cal@j^0,w,c
  3377   001FAA  6ED9               	movwf	fsr2l,c
  3378   001FAC  343C               	rlcf	(line_cal@j+1)^0,w,c
  3379   001FAE  6EDA               	movwf	fsr2h,c
  3380   001FB0  0EA6               	movlw	low _maxs
  3381   001FB2  26D9               	addwf	fsr2l,f,c
  3382   001FB4  0E00               	movlw	high _maxs
  3383   001FB6  22DA               	addwfc	fsr2h,f,c
  3384   001FB8  CFDE F033          	movff	postinc2,line_cal@aux
  3385   001FBC  CFDD F034          	movff	postdec2,line_cal@aux+1
  3386   001FC0                     l2965:
  3387                           
  3388                           ;analog.c: 99: aux -= mins[j];
  3389   001FC0  90D8               	bcf	status,0,c
  3390   001FC2  343B               	rlcf	line_cal@j^0,w,c
  3391   001FC4  6ED9               	movwf	fsr2l,c
  3392   001FC6  343C               	rlcf	(line_cal@j+1)^0,w,c
  3393   001FC8  6EDA               	movwf	fsr2h,c
  3394   001FCA  0E94               	movlw	low _mins
  3395   001FCC  26D9               	addwf	fsr2l,f,c
  3396   001FCE  0E00               	movlw	high _mins
  3397   001FD0  22DA               	addwfc	fsr2h,f,c
  3398   001FD2  50DE               	movf	postinc2,w,c
  3399   001FD4  5E33               	subwf	line_cal@aux^0,f,c
  3400   001FD6  50DD               	movf	postdec2,w,c
  3401   001FD8  5A34               	subwfb	(line_cal@aux+1)^0,f,c
  3402   001FDA                     
  3403                           ;analog.c: 101: value = 1000 - (ll)(aux) * (ll)1000 / (ll)(maxs[j] - mins[j]);
  3404   001FDA  C033  F005         	movff	line_cal@aux,___lmul@multiplier
  3405   001FDE  C034  F006         	movff	line_cal@aux+1,___lmul@multiplier+1
  3406   001FE2  0E00               	movlw	0
  3407   001FE4  BE06               	btfsc	(___lmul@multiplier+1)^0,7,c
  3408   001FE6  0EFF               	movlw	-1
  3409   001FE8  6E07               	movwf	(___lmul@multiplier+2)^0,c
  3410   001FEA  6E08               	movwf	(___lmul@multiplier+3)^0,c
  3411   001FEC  0EE8               	movlw	232
  3412   001FEE  6E09               	movwf	___lmul@multiplicand^0,c
  3413   001FF0  0E03               	movlw	3
  3414   001FF2  6E0A               	movwf	(___lmul@multiplicand+1)^0,c
  3415   001FF4  0E00               	movlw	0
  3416   001FF6  6E0B               	movwf	(___lmul@multiplicand+2)^0,c
  3417   001FF8  0E00               	movlw	0
  3418   001FFA  6E0C               	movwf	(___lmul@multiplicand+3)^0,c
  3419   001FFC  ECBA  F015         	call	___lmul	;wreg free
  3420   002000  C005  F011         	movff	?___lmul,___aldiv@dividend
  3421   002004  C006  F012         	movff	?___lmul+1,___aldiv@dividend+1
  3422   002008  C007  F013         	movff	?___lmul+2,___aldiv@dividend+2
  3423   00200C  C008  F014         	movff	?___lmul+3,___aldiv@dividend+3
  3424   002010  90D8               	bcf	status,0,c
  3425   002012  343B               	rlcf	line_cal@j^0,w,c
  3426   002014  6ED9               	movwf	fsr2l,c
  3427   002016  343C               	rlcf	(line_cal@j+1)^0,w,c
  3428   002018  6EDA               	movwf	fsr2h,c
  3429   00201A  0E94               	movlw	low _mins
  3430   00201C  26D9               	addwf	fsr2l,f,c
  3431   00201E  0E00               	movlw	high _mins
  3432   002020  22DA               	addwfc	fsr2h,f,c
  3433   002022  CFDE F01F          	movff	postinc2,??_line_cal
  3434   002026  CFDD F020          	movff	postdec2,??_line_cal+1
  3435   00202A  90D8               	bcf	status,0,c
  3436   00202C  343B               	rlcf	line_cal@j^0,w,c
  3437   00202E  6ED9               	movwf	fsr2l,c
  3438   002030  343C               	rlcf	(line_cal@j+1)^0,w,c
  3439   002032  6EDA               	movwf	fsr2h,c
  3440   002034  0EA6               	movlw	low _maxs
  3441   002036  26D9               	addwf	fsr2l,f,c
  3442   002038  0E00               	movlw	high _maxs
  3443   00203A  22DA               	addwfc	fsr2h,f,c
  3444   00203C  CFDE F021          	movff	postinc2,??_line_cal+2
  3445   002040  CFDD F022          	movff	postdec2,??_line_cal+3
  3446   002044  501F               	movf	??_line_cal^0,w,c
  3447   002046  5C21               	subwf	(??_line_cal+2)^0,w,c
  3448   002048  6E23               	movwf	(??_line_cal+4)^0,c
  3449   00204A  5020               	movf	(??_line_cal+1)^0,w,c
  3450   00204C  5822               	subwfb	(??_line_cal+3)^0,w,c
  3451   00204E  6E24               	movwf	(??_line_cal+5)^0,c
  3452   002050  C023  F015         	movff	??_line_cal+4,___aldiv@divisor
  3453   002054  C024  F016         	movff	??_line_cal+5,___aldiv@divisor+1
  3454   002058  0E00               	movlw	0
  3455   00205A  BE16               	btfsc	(___aldiv@divisor+1)^0,7,c
  3456   00205C  0EFF               	movlw	-1
  3457   00205E  6E17               	movwf	(___aldiv@divisor+2)^0,c
  3458   002060  6E18               	movwf	(___aldiv@divisor+3)^0,c
  3459   002062  ECC5  F011         	call	___aldiv	;wreg free
  3460   002066  5011               	movf	?___aldiv^0,w,c
  3461   002068  08E8               	sublw	232
  3462   00206A  6E35               	movwf	line_cal@value^0,c
  3463   00206C  0E03               	movlw	3
  3464   00206E  5412               	subfwb	(?___aldiv+1)^0,w,c
  3465   002070  6E36               	movwf	(line_cal@value+1)^0,c
  3466   002072  0E00               	movlw	0
  3467   002074  5413               	subfwb	(?___aldiv+2)^0,w,c
  3468   002076  6E37               	movwf	(line_cal@value+2)^0,c
  3469   002078  0E00               	movlw	0
  3470   00207A  5414               	subfwb	(?___aldiv+3)^0,w,c
  3471   00207C  6E38               	movwf	(line_cal@value+3)^0,c
  3472   00207E                     
  3473                           ;analog.c: 103: calval[j] = value;
  3474   00207E  90D8               	bcf	status,0,c
  3475   002080  343B               	rlcf	line_cal@j^0,w,c
  3476   002082  6ED9               	movwf	fsr2l,c
  3477   002084  343C               	rlcf	(line_cal@j+1)^0,w,c
  3478   002086  6EDA               	movwf	fsr2h,c
  3479   002088  0E00               	movlw	low _calval
  3480   00208A  26D9               	addwf	fsr2l,f,c
  3481   00208C  0E01               	movlw	high _calval
  3482   00208E  22DA               	addwfc	fsr2h,f,c
  3483   002090  C035  FFDE         	movff	line_cal@value,postinc2
  3484   002094  C036  FFDD         	movff	line_cal@value+1,postdec2
  3485   002098                     
  3486                           ;analog.c: 105: if (value >= 300) ok = 1;
  3487   002098  BE38               	btfsc	(line_cal@value+3)^0,7,c
  3488   00209A  EF5B  F010         	goto	u2651
  3489   00209E  5038               	movf	(line_cal@value+3)^0,w,c
  3490   0020A0  1037               	iorwf	(line_cal@value+2)^0,w,c
  3491   0020A2  E10B               	bnz	u2650
  3492   0020A4  0E2C               	movlw	44
  3493   0020A6  5C35               	subwf	line_cal@value^0,w,c
  3494   0020A8  0E01               	movlw	1
  3495   0020AA  5836               	subwfb	(line_cal@value+1)^0,w,c
  3496   0020AC  A0D8               	btfss	status,0,c
  3497   0020AE  EF5B  F010         	goto	u2651
  3498   0020B2  EF5D  F010         	goto	u2650
  3499   0020B6                     u2651:
  3500   0020B6  EF61  F010         	goto	l2975
  3501   0020BA                     u2650:
  3502   0020BA  0E00               	movlw	0
  3503   0020BC  6E32               	movwf	(line_cal@ok+1)^0,c
  3504   0020BE  0E01               	movlw	1
  3505   0020C0  6E31               	movwf	line_cal@ok^0,c
  3506   0020C2                     l2975:
  3507                           
  3508                           ;analog.c: 107: a += value * (ll)i * 100;
  3509   0020C2  C039  F005         	movff	line_cal@i,___lmul@multiplier
  3510   0020C6  C03A  F006         	movff	line_cal@i+1,___lmul@multiplier+1
  3511   0020CA  0E00               	movlw	0
  3512   0020CC  BE06               	btfsc	(___lmul@multiplier+1)^0,7,c
  3513   0020CE  0EFF               	movlw	-1
  3514   0020D0  6E07               	movwf	(___lmul@multiplier+2)^0,c
  3515   0020D2  6E08               	movwf	(___lmul@multiplier+3)^0,c
  3516   0020D4  C035  F009         	movff	line_cal@value,___lmul@multiplicand
  3517   0020D8  C036  F00A         	movff	line_cal@value+1,___lmul@multiplicand+1
  3518   0020DC  C037  F00B         	movff	line_cal@value+2,___lmul@multiplicand+2
  3519   0020E0  C038  F00C         	movff	line_cal@value+3,___lmul@multiplicand+3
  3520   0020E4  ECBA  F015         	call	___lmul	;wreg free
  3521   0020E8  C005  F025         	movff	?___lmul,_line_cal$2432
  3522   0020EC  C006  F026         	movff	?___lmul+1,_line_cal$2432+1
  3523   0020F0  C007  F027         	movff	?___lmul+2,_line_cal$2432+2
  3524   0020F4  C008  F028         	movff	?___lmul+3,_line_cal$2432+3
  3525   0020F8                     
  3526                           ;analog.c: 107: a += value * (ll)i * 100;
  3527   0020F8  C025  F005         	movff	_line_cal$2432,___lmul@multiplier
  3528   0020FC  C026  F006         	movff	_line_cal$2432+1,___lmul@multiplier+1
  3529   002100  C027  F007         	movff	_line_cal$2432+2,___lmul@multiplier+2
  3530   002104  C028  F008         	movff	_line_cal$2432+3,___lmul@multiplier+3
  3531   002108  0E64               	movlw	100
  3532   00210A  6E09               	movwf	___lmul@multiplicand^0,c
  3533   00210C  0E00               	movlw	0
  3534   00210E  6E0A               	movwf	(___lmul@multiplicand+1)^0,c
  3535   002110  0E00               	movlw	0
  3536   002112  6E0B               	movwf	(___lmul@multiplicand+2)^0,c
  3537   002114  0E00               	movlw	0
  3538   002116  6E0C               	movwf	(___lmul@multiplicand+3)^0,c
  3539   002118  ECBA  F015         	call	___lmul	;wreg free
  3540   00211C  5005               	movf	?___lmul^0,w,c
  3541   00211E  2629               	addwf	line_cal@a^0,f,c
  3542   002120  5006               	movf	(?___lmul+1)^0,w,c
  3543   002122  222A               	addwfc	(line_cal@a+1)^0,f,c
  3544   002124  5007               	movf	(?___lmul+2)^0,w,c
  3545   002126  222B               	addwfc	(line_cal@a+2)^0,f,c
  3546   002128  5008               	movf	(?___lmul+3)^0,w,c
  3547   00212A  222C               	addwfc	(line_cal@a+3)^0,f,c
  3548   00212C                     
  3549                           ;analog.c: 108: b += value;
  3550   00212C  5035               	movf	line_cal@value^0,w,c
  3551   00212E  262D               	addwf	line_cal@b^0,f,c
  3552   002130  5036               	movf	(line_cal@value+1)^0,w,c
  3553   002132  222E               	addwfc	(line_cal@b+1)^0,f,c
  3554   002134  5037               	movf	(line_cal@value+2)^0,w,c
  3555   002136  222F               	addwfc	(line_cal@b+2)^0,f,c
  3556   002138  5038               	movf	(line_cal@value+3)^0,w,c
  3557   00213A  2230               	addwfc	(line_cal@b+3)^0,f,c
  3558   00213C  4A39               	infsnz	line_cal@i^0,f,c
  3559   00213E  2A3A               	incf	(line_cal@i+1)^0,f,c
  3560   002140  BE3A               	btfsc	(line_cal@i+1)^0,7,c
  3561   002142  EFAC  F010         	goto	u2661
  3562   002146  503A               	movf	(line_cal@i+1)^0,w,c
  3563   002148  E109               	bnz	u2660
  3564   00214A  0E05               	movlw	5
  3565   00214C  5C39               	subwf	line_cal@i^0,w,c
  3566   00214E  A0D8               	btfss	status,0,c
  3567   002150  EFAC  F010         	goto	u2661
  3568   002154  EFAE  F010         	goto	u2660
  3569   002158                     u2661:
  3570   002158  EF7C  F00F         	goto	l2957
  3571   00215C                     u2660:
  3572   00215C                     
  3573                           ;analog.c: 110: };analog.c: 111: if (ok == 1){
  3574   00215C  0431               	decf	line_cal@ok^0,w,c
  3575   00215E  1032               	iorwf	(line_cal@ok+1)^0,w,c
  3576   002160  A4D8               	btfss	status,2,c
  3577   002162  EFB5  F010         	goto	u2671
  3578   002166  EFB7  F010         	goto	u2670
  3579   00216A                     u2671:
  3580   00216A  EFD2  F010         	goto	l2989
  3581   00216E                     u2670:
  3582   00216E                     
  3583                           ;analog.c: 112: lp = a / b - 200;
  3584   00216E  C029  F011         	movff	line_cal@a,___aldiv@dividend
  3585   002172  C02A  F012         	movff	line_cal@a+1,___aldiv@dividend+1
  3586   002176  C02B  F013         	movff	line_cal@a+2,___aldiv@dividend+2
  3587   00217A  C02C  F014         	movff	line_cal@a+3,___aldiv@dividend+3
  3588   00217E  C02D  F015         	movff	line_cal@b,___aldiv@divisor
  3589   002182  C02E  F016         	movff	line_cal@b+1,___aldiv@divisor+1
  3590   002186  C02F  F017         	movff	line_cal@b+2,___aldiv@divisor+2
  3591   00218A  C030  F018         	movff	line_cal@b+3,___aldiv@divisor+3
  3592   00218E  ECC5  F011         	call	___aldiv	;wreg free
  3593   002192  0E38               	movlw	56
  3594   002194  2411               	addwf	?___aldiv^0,w,c
  3595   002196  0100               	movlb	0	; () banked
  3596   002198  6F92               	movwf	_lp& (0+255),b
  3597   00219A  0EFF               	movlw	255
  3598   00219C  2012               	addwfc	(?___aldiv+1)^0,w,c
  3599   00219E  6F93               	movwf	(_lp+1)& (0+255),b
  3600                           
  3601                           ;analog.c: 113: }else{
  3602   0021A0  EFEA  F010         	goto	l201
  3603   0021A4                     l2989:
  3604                           
  3605                           ;analog.c: 114: lp = lp > 0 ? 190 : -190;
  3606   0021A4  0100               	movlb	0	; () banked
  3607   0021A6  BF93               	btfsc	(_lp+1)& (0+255),7,b
  3608   0021A8  EFE0  F010         	goto	u2680
  3609   0021AC  5193               	movf	(_lp+1)& (0+255),w,b
  3610   0021AE  E106               	bnz	u2681
  3611   0021B0  0592               	decf	_lp& (0+255),w,b
  3612   0021B2  B0D8               	btfsc	status,0,c
  3613   0021B4  EFDE  F010         	goto	u2681
  3614   0021B8  EFE0  F010         	goto	u2680
  3615   0021BC                     u2681:
  3616   0021BC  EFE6  F010         	goto	l2993
  3617   0021C0                     u2680:
  3618   0021C0                     
  3619                           ; BSR set to: 0
  3620   0021C0  0EFF               	movlw	255
  3621   0021C2  6F93               	movwf	(_lp+1)& (0+255),b
  3622   0021C4  0E42               	movlw	66
  3623   0021C6  6F92               	movwf	_lp& (0+255),b
  3624   0021C8  EFEA  F010         	goto	l201
  3625   0021CC                     l2993:
  3626                           
  3627                           ; BSR set to: 0
  3628   0021CC  0E00               	movlw	0
  3629   0021CE  6F93               	movwf	(_lp+1)& (0+255),b
  3630   0021D0  0EBE               	movlw	190
  3631   0021D2  6F92               	movwf	_lp& (0+255),b
  3632   0021D4                     l201:
  3633                           
  3634                           ; BSR set to: 0
  3635   0021D4  0012               	return		;funcret
  3636   0021D6                     __end_of_line_cal:
  3637                           	callstack 0
  3638                           
  3639 ;; *************** function ___lmul *****************
  3640 ;; Defined at:
  3641 ;;		line 15 in file "C:\Program Files\Microchip\xc8\v2.40\pic\sources\c90\common\Umul32.c"
  3642 ;; Parameters:    Size  Location     Type
  3643 ;;  multiplier      4    4[COMRAM] unsigned long 
  3644 ;;  multiplicand    4    8[COMRAM] unsigned long 
  3645 ;; Auto vars:     Size  Location     Type
  3646 ;;  product         4   12[COMRAM] unsigned long 
  3647 ;; Return value:  Size  Location     Type
  3648 ;;                  4    4[COMRAM] unsigned long 
  3649 ;; Registers used:
  3650 ;;		wreg, status,2, status,0
  3651 ;; Tracked objects:
  3652 ;;		On entry : 0/0
  3653 ;;		On exit  : 0/0
  3654 ;;		Unchanged: 0/0
  3655 ;; Data sizes:     COMRAM   BANK0   BANK1   BANK2   BANK3   BANK4   BANK5   BANK6   BANK7
  3656 ;;      Params:         8       0       0       0       0       0       0       0       0
  3657 ;;      Locals:         4       0       0       0       0       0       0       0       0
  3658 ;;      Temps:          0       0       0       0       0       0       0       0       0
  3659 ;;      Totals:        12       0       0       0       0       0       0       0       0
  3660 ;;Total ram usage:       12 bytes
  3661 ;; Hardware stack levels used: 1
  3662 ;; Hardware stack levels required when called: 1
  3663 ;; This function calls:
  3664 ;;		Nothing
  3665 ;; This function is called by:
  3666 ;;		_line_cal
  3667 ;; This function uses a non-reentrant model
  3668 ;;
  3669                           
  3670                           	psect	text10
  3671   002B74                     __ptext10:
  3672                           	callstack 0
  3673   002B74                     ___lmul:
  3674                           	callstack 28
  3675   002B74  0E00               	movlw	0
  3676   002B76  6E0D               	movwf	___lmul@product^0,c
  3677   002B78  0E00               	movlw	0
  3678   002B7A  6E0E               	movwf	(___lmul@product+1)^0,c
  3679   002B7C  0E00               	movlw	0
  3680   002B7E  6E0F               	movwf	(___lmul@product+2)^0,c
  3681   002B80  0E00               	movlw	0
  3682   002B82  6E10               	movwf	(___lmul@product+3)^0,c
  3683   002B84                     l2533:
  3684   002B84  A005               	btfss	___lmul@multiplier^0,0,c
  3685   002B86  EFC7  F015         	goto	u2041
  3686   002B8A  EFC9  F015         	goto	u2040
  3687   002B8E                     u2041:
  3688   002B8E  EFD1  F015         	goto	l2537
  3689   002B92                     u2040:
  3690   002B92  5009               	movf	___lmul@multiplicand^0,w,c
  3691   002B94  260D               	addwf	___lmul@product^0,f,c
  3692   002B96  500A               	movf	(___lmul@multiplicand+1)^0,w,c
  3693   002B98  220E               	addwfc	(___lmul@product+1)^0,f,c
  3694   002B9A  500B               	movf	(___lmul@multiplicand+2)^0,w,c
  3695   002B9C  220F               	addwfc	(___lmul@product+2)^0,f,c
  3696   002B9E  500C               	movf	(___lmul@multiplicand+3)^0,w,c
  3697   002BA0  2210               	addwfc	(___lmul@product+3)^0,f,c
  3698   002BA2                     l2537:
  3699   002BA2  90D8               	bcf	status,0,c
  3700   002BA4  3609               	rlcf	___lmul@multiplicand^0,f,c
  3701   002BA6  360A               	rlcf	(___lmul@multiplicand+1)^0,f,c
  3702   002BA8  360B               	rlcf	(___lmul@multiplicand+2)^0,f,c
  3703   002BAA  360C               	rlcf	(___lmul@multiplicand+3)^0,f,c
  3704   002BAC  90D8               	bcf	status,0,c
  3705   002BAE  3208               	rrcf	(___lmul@multiplier+3)^0,f,c
  3706   002BB0  3207               	rrcf	(___lmul@multiplier+2)^0,f,c
  3707   002BB2  3206               	rrcf	(___lmul@multiplier+1)^0,f,c
  3708   002BB4  3205               	rrcf	___lmul@multiplier^0,f,c
  3709   002BB6  5005               	movf	___lmul@multiplier^0,w,c
  3710   002BB8  1006               	iorwf	(___lmul@multiplier+1)^0,w,c
  3711   002BBA  1007               	iorwf	(___lmul@multiplier+2)^0,w,c
  3712   002BBC  1008               	iorwf	(___lmul@multiplier+3)^0,w,c
  3713   002BBE  A4D8               	btfss	status,2,c
  3714   002BC0  EFE4  F015         	goto	u2051
  3715   002BC4  EFE6  F015         	goto	u2050
  3716   002BC8                     u2051:
  3717   002BC8  EFC2  F015         	goto	l2533
  3718   002BCC                     u2050:
  3719   002BCC  C00D  F005         	movff	___lmul@product,?___lmul
  3720   002BD0  C00E  F006         	movff	___lmul@product+1,?___lmul+1
  3721   002BD4  C00F  F007         	movff	___lmul@product+2,?___lmul+2
  3722   002BD8  C010  F008         	movff	___lmul@product+3,?___lmul+3
  3723   002BDC  0012               	return		;funcret
  3724   002BDE                     __end_of___lmul:
  3725                           	callstack 0
  3726                           
  3727 ;; *************** function ___aldiv *****************
  3728 ;; Defined at:
  3729 ;;		line 7 in file "C:\Program Files\Microchip\xc8\v2.40\pic\sources\c90\common\aldiv.c"
  3730 ;; Parameters:    Size  Location     Type
  3731 ;;  dividend        4   16[COMRAM] long 
  3732 ;;  divisor         4   20[COMRAM] long 
  3733 ;; Auto vars:     Size  Location     Type
  3734 ;;  quotient        4   26[COMRAM] long 
  3735 ;;  sign            1   25[COMRAM] unsigned char 
  3736 ;;  counter         1   24[COMRAM] unsigned char 
  3737 ;; Return value:  Size  Location     Type
  3738 ;;                  4   16[COMRAM] long 
  3739 ;; Registers used:
  3740 ;;		wreg, status,2, status,0
  3741 ;; Tracked objects:
  3742 ;;		On entry : 0/0
  3743 ;;		On exit  : 0/0
  3744 ;;		Unchanged: 0/0
  3745 ;; Data sizes:     COMRAM   BANK0   BANK1   BANK2   BANK3   BANK4   BANK5   BANK6   BANK7
  3746 ;;      Params:         8       0       0       0       0       0       0       0       0
  3747 ;;      Locals:         6       0       0       0       0       0       0       0       0
  3748 ;;      Temps:          0       0       0       0       0       0       0       0       0
  3749 ;;      Totals:        14       0       0       0       0       0       0       0       0
  3750 ;;Total ram usage:       14 bytes
  3751 ;; Hardware stack levels used: 1
  3752 ;; Hardware stack levels required when called: 1
  3753 ;; This function calls:
  3754 ;;		Nothing
  3755 ;; This function is called by:
  3756 ;;		_line_cal
  3757 ;; This function uses a non-reentrant model
  3758 ;;
  3759                           
  3760                           	psect	text11
  3761   00238A                     __ptext11:
  3762                           	callstack 0
  3763   00238A                     ___aldiv:
  3764                           	callstack 28
  3765   00238A  0E00               	movlw	0
  3766   00238C  6E1A               	movwf	___aldiv@sign^0,c
  3767   00238E  BE18               	btfsc	(___aldiv@divisor+3)^0,7,c
  3768   002390  EFCE  F011         	goto	u2060
  3769   002394  EFCC  F011         	goto	u2061
  3770   002398                     u2061:
  3771   002398  EFD8  F011         	goto	l2549
  3772   00239C                     u2060:
  3773   00239C  1E18               	comf	(___aldiv@divisor+3)^0,f,c
  3774   00239E  1E17               	comf	(___aldiv@divisor+2)^0,f,c
  3775   0023A0  1E16               	comf	(___aldiv@divisor+1)^0,f,c
  3776   0023A2  6C15               	negf	___aldiv@divisor^0,c
  3777   0023A4  0E00               	movlw	0
  3778   0023A6  2216               	addwfc	(___aldiv@divisor+1)^0,f,c
  3779   0023A8  2217               	addwfc	(___aldiv@divisor+2)^0,f,c
  3780   0023AA  2218               	addwfc	(___aldiv@divisor+3)^0,f,c
  3781   0023AC  0E01               	movlw	1
  3782   0023AE  6E1A               	movwf	___aldiv@sign^0,c
  3783   0023B0                     l2549:
  3784   0023B0  BE14               	btfsc	(___aldiv@dividend+3)^0,7,c
  3785   0023B2  EFDF  F011         	goto	u2070
  3786   0023B6  EFDD  F011         	goto	u2071
  3787   0023BA                     u2071:
  3788   0023BA  EFE9  F011         	goto	l2555
  3789   0023BE                     u2070:
  3790   0023BE  1E14               	comf	(___aldiv@dividend+3)^0,f,c
  3791   0023C0  1E13               	comf	(___aldiv@dividend+2)^0,f,c
  3792   0023C2  1E12               	comf	(___aldiv@dividend+1)^0,f,c
  3793   0023C4  6C11               	negf	___aldiv@dividend^0,c
  3794   0023C6  0E00               	movlw	0
  3795   0023C8  2212               	addwfc	(___aldiv@dividend+1)^0,f,c
  3796   0023CA  2213               	addwfc	(___aldiv@dividend+2)^0,f,c
  3797   0023CC  2214               	addwfc	(___aldiv@dividend+3)^0,f,c
  3798   0023CE  0E01               	movlw	1
  3799   0023D0  1A1A               	xorwf	___aldiv@sign^0,f,c
  3800   0023D2                     l2555:
  3801   0023D2  0E00               	movlw	0
  3802   0023D4  6E1B               	movwf	___aldiv@quotient^0,c
  3803   0023D6  0E00               	movlw	0
  3804   0023D8  6E1C               	movwf	(___aldiv@quotient+1)^0,c
  3805   0023DA  0E00               	movlw	0
  3806   0023DC  6E1D               	movwf	(___aldiv@quotient+2)^0,c
  3807   0023DE  0E00               	movlw	0
  3808   0023E0  6E1E               	movwf	(___aldiv@quotient+3)^0,c
  3809   0023E2  5015               	movf	___aldiv@divisor^0,w,c
  3810   0023E4  1016               	iorwf	(___aldiv@divisor+1)^0,w,c
  3811   0023E6  1017               	iorwf	(___aldiv@divisor+2)^0,w,c
  3812   0023E8  1018               	iorwf	(___aldiv@divisor+3)^0,w,c
  3813   0023EA  B4D8               	btfsc	status,2,c
  3814   0023EC  EFFA  F011         	goto	u2081
  3815   0023F0  EFFC  F011         	goto	u2080
  3816   0023F4                     u2081:
  3817   0023F4  EF32  F012         	goto	l2577
  3818   0023F8                     u2080:
  3819   0023F8  0E01               	movlw	1
  3820   0023FA  6E19               	movwf	___aldiv@counter^0,c
  3821   0023FC  EF06  F012         	goto	l2563
  3822   002400                     l2561:
  3823   002400  90D8               	bcf	status,0,c
  3824   002402  3615               	rlcf	___aldiv@divisor^0,f,c
  3825   002404  3616               	rlcf	(___aldiv@divisor+1)^0,f,c
  3826   002406  3617               	rlcf	(___aldiv@divisor+2)^0,f,c
  3827   002408  3618               	rlcf	(___aldiv@divisor+3)^0,f,c
  3828   00240A  2A19               	incf	___aldiv@counter^0,f,c
  3829   00240C                     l2563:
  3830   00240C  AE18               	btfss	(___aldiv@divisor+3)^0,7,c
  3831   00240E  EF0B  F012         	goto	u2091
  3832   002412  EF0D  F012         	goto	u2090
  3833   002416                     u2091:
  3834   002416  EF00  F012         	goto	l2561
  3835   00241A                     u2090:
  3836   00241A                     l2565:
  3837   00241A  90D8               	bcf	status,0,c
  3838   00241C  361B               	rlcf	___aldiv@quotient^0,f,c
  3839   00241E  361C               	rlcf	(___aldiv@quotient+1)^0,f,c
  3840   002420  361D               	rlcf	(___aldiv@quotient+2)^0,f,c
  3841   002422  361E               	rlcf	(___aldiv@quotient+3)^0,f,c
  3842   002424  5015               	movf	___aldiv@divisor^0,w,c
  3843   002426  5C11               	subwf	___aldiv@dividend^0,w,c
  3844   002428  5016               	movf	(___aldiv@divisor+1)^0,w,c
  3845   00242A  5812               	subwfb	(___aldiv@dividend+1)^0,w,c
  3846   00242C  5017               	movf	(___aldiv@divisor+2)^0,w,c
  3847   00242E  5813               	subwfb	(___aldiv@dividend+2)^0,w,c
  3848   002430  5018               	movf	(___aldiv@divisor+3)^0,w,c
  3849   002432  5814               	subwfb	(___aldiv@dividend+3)^0,w,c
  3850   002434  A0D8               	btfss	status,0,c
  3851   002436  EF1F  F012         	goto	u2101
  3852   00243A  EF21  F012         	goto	u2100
  3853   00243E                     u2101:
  3854   00243E  EF2A  F012         	goto	l2573
  3855   002442                     u2100:
  3856   002442  5015               	movf	___aldiv@divisor^0,w,c
  3857   002444  5E11               	subwf	___aldiv@dividend^0,f,c
  3858   002446  5016               	movf	(___aldiv@divisor+1)^0,w,c
  3859   002448  5A12               	subwfb	(___aldiv@dividend+1)^0,f,c
  3860   00244A  5017               	movf	(___aldiv@divisor+2)^0,w,c
  3861   00244C  5A13               	subwfb	(___aldiv@dividend+2)^0,f,c
  3862   00244E  5018               	movf	(___aldiv@divisor+3)^0,w,c
  3863   002450  5A14               	subwfb	(___aldiv@dividend+3)^0,f,c
  3864   002452  801B               	bsf	___aldiv@quotient^0,0,c
  3865   002454                     l2573:
  3866   002454  90D8               	bcf	status,0,c
  3867   002456  3218               	rrcf	(___aldiv@divisor+3)^0,f,c
  3868   002458  3217               	rrcf	(___aldiv@divisor+2)^0,f,c
  3869   00245A  3216               	rrcf	(___aldiv@divisor+1)^0,f,c
  3870   00245C  3215               	rrcf	___aldiv@divisor^0,f,c
  3871   00245E  2E19               	decfsz	___aldiv@counter^0,f,c
  3872   002460  EF0D  F012         	goto	l2565
  3873   002464                     l2577:
  3874   002464  501A               	movf	___aldiv@sign^0,w,c
  3875   002466  B4D8               	btfsc	status,2,c
  3876   002468  EF38  F012         	goto	u2111
  3877   00246C  EF3A  F012         	goto	u2110
  3878   002470                     u2111:
  3879   002470  EF42  F012         	goto	l2581
  3880   002474                     u2110:
  3881   002474  1E1E               	comf	(___aldiv@quotient+3)^0,f,c
  3882   002476  1E1D               	comf	(___aldiv@quotient+2)^0,f,c
  3883   002478  1E1C               	comf	(___aldiv@quotient+1)^0,f,c
  3884   00247A  6C1B               	negf	___aldiv@quotient^0,c
  3885   00247C  0E00               	movlw	0
  3886   00247E  221C               	addwfc	(___aldiv@quotient+1)^0,f,c
  3887   002480  221D               	addwfc	(___aldiv@quotient+2)^0,f,c
  3888   002482  221E               	addwfc	(___aldiv@quotient+3)^0,f,c
  3889   002484                     l2581:
  3890   002484  C01B  F011         	movff	___aldiv@quotient,?___aldiv
  3891   002488  C01C  F012         	movff	___aldiv@quotient+1,?___aldiv+1
  3892   00248C  C01D  F013         	movff	___aldiv@quotient+2,?___aldiv+2
  3893   002490  C01E  F014         	movff	___aldiv@quotient+3,?___aldiv+3
  3894   002494  0012               	return		;funcret
  3895   002496                     __end_of___aldiv:
  3896                           	callstack 0
  3897                           
  3898 ;; *************** function _init_tms *****************
  3899 ;; Defined at:
  3900 ;;		line 7 in file "config.c"
  3901 ;; Parameters:    Size  Location     Type
  3902 ;;		None
  3903 ;; Auto vars:     Size  Location     Type
  3904 ;;		None
  3905 ;; Return value:  Size  Location     Type
  3906 ;;                  1    wreg      void 
  3907 ;; Registers used:
  3908 ;;		wreg, status,2, cstack
  3909 ;; Tracked objects:
  3910 ;;		On entry : 0/0
  3911 ;;		On exit  : 0/0
  3912 ;;		Unchanged: 0/0
  3913 ;; Data sizes:     COMRAM   BANK0   BANK1   BANK2   BANK3   BANK4   BANK5   BANK6   BANK7
  3914 ;;      Params:         0       0       0       0       0       0       0       0       0
  3915 ;;      Locals:         0       0       0       0       0       0       0       0       0
  3916 ;;      Temps:          0       0       0       0       0       0       0       0       0
  3917 ;;      Totals:         0       0       0       0       0       0       0       0       0
  3918 ;;Total ram usage:        0 bytes
  3919 ;; Hardware stack levels used: 1
  3920 ;; Hardware stack levels required when called: 2
  3921 ;; This function calls:
  3922 ;;		_MotorsPWM
  3923 ;;		_an_init
  3924 ;;		_init_io
  3925 ;; This function is called by:
  3926 ;;		_main
  3927 ;; This function uses a non-reentrant model
  3928 ;;
  3929                           
  3930                           	psect	text12
  3931   002C44                     __ptext12:
  3932                           	callstack 0
  3933   002C44                     _init_tms:
  3934                           	callstack 28
  3935   002C44                     
  3936                           ;config.c: 8: OSCCONbits.IRCF = 7;
  3937   002C44  0E70               	movlw	112
  3938   002C46  12D3               	iorwf	211,f,c	;volatile
  3939                           
  3940                           ;config.c: 11: CMCON=0x07;
  3941   002C48  0E07               	movlw	7
  3942   002C4A  6EB4               	movwf	180,c	;volatile
  3943   002C4C                     
  3944                           ;config.c: 14: UCONbits.USBEN = 0;
  3945   002C4C  966D               	bcf	109,3,c	;volatile
  3946   002C4E                     
  3947                           ;config.c: 15: UCFGbits.UTRDIS = 1;
  3948   002C4E  866F               	bsf	111,3,c	;volatile
  3949   002C50                     
  3950                           ;config.c: 18: T0CONbits.TMR0ON = 0;
  3951   002C50  9ED5               	bcf	213,7,c	;volatile
  3952   002C52                     
  3953                           ;config.c: 19: T0CONbits.T08BIT = 0;
  3954   002C52  9CD5               	bcf	213,6,c	;volatile
  3955   002C54                     
  3956                           ;config.c: 20: T0CONbits.T0CS = 0;
  3957   002C54  9AD5               	bcf	213,5,c	;volatile
  3958   002C56                     
  3959                           ;config.c: 22: T0CONbits.PSA = 1;
  3960   002C56  86D5               	bsf	213,3,c	;volatile
  3961                           
  3962                           ;config.c: 23: TMR0H = 0xF8;
  3963   002C58  0EF8               	movlw	248
  3964   002C5A  6ED7               	movwf	215,c	;volatile
  3965                           
  3966                           ;config.c: 24: TMR0L = 0x2F;
  3967   002C5C  0E2F               	movlw	47
  3968   002C5E  6ED6               	movwf	214,c	;volatile
  3969   002C60                     
  3970                           ;config.c: 27: INTCON2bits.TMR0IP = 1;
  3971   002C60  84F1               	bsf	241,2,c	;volatile
  3972   002C62                     
  3973                           ;config.c: 28: RCONbits.IPEN = 0;
  3974   002C62  9ED0               	bcf	208,7,c	;volatile
  3975   002C64                     
  3976                           ;config.c: 29: INTCONbits.TMR0IE = 1;
  3977   002C64  8AF2               	bsf	242,5,c	;volatile
  3978   002C66                     
  3979                           ;config.c: 33: INTCONbits.GIE = 1;
  3980   002C66  8EF2               	bsf	242,7,c	;volatile
  3981   002C68                     
  3982                           ;config.c: 35: T0CONbits.TMR0ON = 1;
  3983   002C68  8ED5               	bsf	213,7,c	;volatile
  3984   002C6A                     
  3985                           ;config.c: 37: T1CONbits.TMR1ON = 0;
  3986   002C6A  90CD               	bcf	205,0,c	;volatile
  3987   002C6C                     
  3988                           ;config.c: 38: T1CONbits.T1RD16 = 0;
  3989   002C6C  9ECD               	bcf	205,7,c	;volatile
  3990   002C6E                     
  3991                           ;config.c: 39: T1CONbits.T1RUN = 0;
  3992   002C6E  9CCD               	bcf	205,6,c	;volatile
  3993                           
  3994                           ;config.c: 40: T1CONbits.T1CKPS = 0;
  3995   002C70  0ECF               	movlw	-49
  3996   002C72  16CD               	andwf	205,f,c	;volatile
  3997   002C74                     
  3998                           ;config.c: 41: T1CONbits.T1OSCEN = 0;
  3999   002C74  96CD               	bcf	205,3,c	;volatile
  4000   002C76                     
  4001                           ;config.c: 42: T1CONbits.TMR1CS = 0;
  4002   002C76  92CD               	bcf	205,1,c	;volatile
  4003   002C78                     
  4004                           ;config.c: 43: T1CONbits.TMR1ON = 1;
  4005   002C78  80CD               	bsf	205,0,c	;volatile
  4006                           
  4007                           ;config.c: 45: TMR1H = 0xF8;
  4008   002C7A  0EF8               	movlw	248
  4009   002C7C  6ECF               	movwf	207,c	;volatile
  4010                           
  4011                           ;config.c: 46: TMR1L = 0x2F;
  4012   002C7E  0E2F               	movlw	47
  4013   002C80  6ECE               	movwf	206,c	;volatile
  4014   002C82                     
  4015                           ;config.c: 48: init_io();
  4016   002C82  EC8A  F016         	call	_init_io	;wreg free
  4017                           
  4018                           ;config.c: 49: an_init();
  4019   002C86  ECA1  F016         	call	_an_init	;wreg free
  4020                           
  4021                           ;config.c: 50: MotorsPWM();
  4022   002C8A  EC6B  F016         	call	_MotorsPWM	;wreg free
  4023   002C8E  0012               	return		;funcret
  4024   002C90                     __end_of_init_tms:
  4025                           	callstack 0
  4026                           
  4027 ;; *************** function _init_io *****************
  4028 ;; Defined at:
  4029 ;;		line 6 in file "io.c"
  4030 ;; Parameters:    Size  Location     Type
  4031 ;;		None
  4032 ;; Auto vars:     Size  Location     Type
  4033 ;;		None
  4034 ;; Return value:  Size  Location     Type
  4035 ;;                  1    wreg      void 
  4036 ;; Registers used:
  4037 ;;		None
  4038 ;; Tracked objects:
  4039 ;;		On entry : 0/0
  4040 ;;		On exit  : 0/0
  4041 ;;		Unchanged: 0/0
  4042 ;; Data sizes:     COMRAM   BANK0   BANK1   BANK2   BANK3   BANK4   BANK5   BANK6   BANK7
  4043 ;;      Params:         0       0       0       0       0       0       0       0       0
  4044 ;;      Locals:         0       0       0       0       0       0       0       0       0
  4045 ;;      Temps:          0       0       0       0       0       0       0       0       0
  4046 ;;      Totals:         0       0       0       0       0       0       0       0       0
  4047 ;;Total ram usage:        0 bytes
  4048 ;; Hardware stack levels used: 1
  4049 ;; Hardware stack levels required when called: 1
  4050 ;; This function calls:
  4051 ;;		Nothing
  4052 ;; This function is called by:
  4053 ;;		_init_tms
  4054 ;; This function uses a non-reentrant model
  4055 ;;
  4056                           
  4057                           	psect	text13
  4058   002D14                     __ptext13:
  4059                           	callstack 0
  4060   002D14                     _init_io:
  4061                           	callstack 28
  4062   002D14                     
  4063                           ;io.c: 8: TRISBbits.RB4 = OUTPUT;
  4064   002D14  9893               	bcf	147,4,c	;volatile
  4065                           
  4066                           ;io.c: 9: TRISCbits.RC1 = OUTPUT;
  4067   002D16  9294               	bcf	148,1,c	;volatile
  4068                           
  4069                           ;io.c: 10: TRISDbits.RD2 = OUTPUT;
  4070   002D18  9495               	bcf	149,2,c	;volatile
  4071                           
  4072                           ;io.c: 11: TRISAbits.RA4 = OUTPUT;
  4073   002D1A  9892               	bcf	146,4,c	;volatile
  4074                           
  4075                           ;io.c: 14: TRISBbits.RB0 = OUTPUT;
  4076   002D1C  9093               	bcf	147,0,c	;volatile
  4077                           
  4078                           ;io.c: 15: TRISBbits.RB1 = OUTPUT;
  4079   002D1E  9293               	bcf	147,1,c	;volatile
  4080                           
  4081                           ;io.c: 18: TRISDbits.RD0 = INPUT;
  4082   002D20  8095               	bsf	149,0,c	;volatile
  4083                           
  4084                           ;io.c: 19: TRISDbits.RD1 = INPUT;
  4085   002D22  8295               	bsf	149,1,c	;volatile
  4086                           
  4087                           ;io.c: 22: TRISAbits.RA0 = INPUT;
  4088   002D24  8092               	bsf	146,0,c	;volatile
  4089                           
  4090                           ;io.c: 23: TRISAbits.RA1 = INPUT;
  4091   002D26  8292               	bsf	146,1,c	;volatile
  4092                           
  4093                           ;io.c: 26: TRISAbits.RA2 = INPUT;
  4094   002D28  8492               	bsf	146,2,c	;volatile
  4095                           
  4096                           ;io.c: 27: TRISAbits.RA3 = INPUT;
  4097   002D2A  8692               	bsf	146,3,c	;volatile
  4098                           
  4099                           ;io.c: 28: TRISAbits.RA5 = INPUT;
  4100   002D2C  8A92               	bsf	146,5,c	;volatile
  4101                           
  4102                           ;io.c: 29: TRISEbits.RE0 = INPUT;
  4103   002D2E  8096               	bsf	150,0,c	;volatile
  4104                           
  4105                           ;io.c: 30: TRISEbits.RE1 = INPUT;
  4106   002D30  8296               	bsf	150,1,c	;volatile
  4107                           
  4108                           ;io.c: 31: TRISEbits.RE2 = INPUT;
  4109   002D32  8496               	bsf	150,2,c	;volatile
  4110                           
  4111                           ;io.c: 32: TRISBbits.RB2 = INPUT;
  4112   002D34  8493               	bsf	147,2,c	;volatile
  4113                           
  4114                           ;io.c: 35: TRISCbits.RC2 = OUTPUT;
  4115   002D36  9494               	bcf	148,2,c	;volatile
  4116                           
  4117                           ;io.c: 36: TRISBbits.RB3 = OUTPUT;
  4118   002D38  9693               	bcf	147,3,c	;volatile
  4119                           
  4120                           ;io.c: 39: PORTEbits.RDPU = 1;
  4121   002D3A  8E84               	bsf	132,7,c	;volatile
  4122                           
  4123                           ;io.c: 42: TRISCbits.RC6 = OUTPUT;
  4124   002D3C  9C94               	bcf	148,6,c	;volatile
  4125                           
  4126                           ;io.c: 43: TRISCbits.RC7 = OUTPUT;
  4127   002D3E  9E94               	bcf	148,7,c	;volatile
  4128   002D40  0012               	return		;funcret
  4129   002D42                     __end_of_init_io:
  4130                           	callstack 0
  4131                           
  4132 ;; *************** function _an_init *****************
  4133 ;; Defined at:
  4134 ;;		line 17 in file "analog.c"
  4135 ;; Parameters:    Size  Location     Type
  4136 ;;		None
  4137 ;; Auto vars:     Size  Location     Type
  4138 ;;		None
  4139 ;; Return value:  Size  Location     Type
  4140 ;;                  1    wreg      void 
  4141 ;; Registers used:
  4142 ;;		wreg, status,2
  4143 ;; Tracked objects:
  4144 ;;		On entry : 0/0
  4145 ;;		On exit  : 0/0
  4146 ;;		Unchanged: 0/0
  4147 ;; Data sizes:     COMRAM   BANK0   BANK1   BANK2   BANK3   BANK4   BANK5   BANK6   BANK7
  4148 ;;      Params:         0       0       0       0       0       0       0       0       0
  4149 ;;      Locals:         0       0       0       0       0       0       0       0       0
  4150 ;;      Temps:          0       0       0       0       0       0       0       0       0
  4151 ;;      Totals:         0       0       0       0       0       0       0       0       0
  4152 ;;Total ram usage:        0 bytes
  4153 ;; Hardware stack levels used: 1
  4154 ;; Hardware stack levels required when called: 1
  4155 ;; This function calls:
  4156 ;;		Nothing
  4157 ;; This function is called by:
  4158 ;;		_init_tms
  4159 ;; This function uses a non-reentrant model
  4160 ;;
  4161                           
  4162                           	psect	text14
  4163   002D42                     __ptext14:
  4164                           	callstack 0
  4165   002D42                     _an_init:
  4166                           	callstack 28
  4167   002D42                     
  4168                           ;analog.c: 18: ADCON1bits.VCFG = 0;
  4169   002D42  0ECF               	movlw	-49
  4170   002D44  16C1               	andwf	193,f,c	;volatile
  4171                           
  4172                           ;analog.c: 19: ADCON1bits.PCFG = 0x06;
  4173   002D46  50C1               	movf	193,w,c	;volatile
  4174   002D48  0BF0               	andlw	-16
  4175   002D4A  0906               	iorlw	6
  4176   002D4C  6EC1               	movwf	193,c	;volatile
  4177   002D4E                     
  4178                           ;analog.c: 21: ADCON2bits.ADFM=0;
  4179   002D4E  9EC0               	bcf	192,7,c	;volatile
  4180                           
  4181                           ;analog.c: 22: ADCON2bits.ACQT=7;
  4182   002D50  0E38               	movlw	56
  4183   002D52  12C0               	iorwf	192,f,c	;volatile
  4184                           
  4185                           ;analog.c: 23: ADCON2bits.ADCS=6;
  4186   002D54  50C0               	movf	192,w,c	;volatile
  4187   002D56  0BF8               	andlw	-8
  4188   002D58  0906               	iorlw	6
  4189   002D5A  6EC0               	movwf	192,c	;volatile
  4190                           
  4191                           ;analog.c: 24: ADCON0bits.CHS=0;
  4192   002D5C  0EC3               	movlw	-61
  4193   002D5E  16C2               	andwf	194,f,c	;volatile
  4194   002D60                     
  4195                           ;analog.c: 25: ADCON0bits.GODONE=0;
  4196   002D60  92C2               	bcf	194,1,c	;volatile
  4197   002D62                     
  4198                           ;analog.c: 26: ADCON0bits.ADON=1;
  4199   002D62  80C2               	bsf	194,0,c	;volatile
  4200   002D64  0012               	return		;funcret
  4201   002D66                     __end_of_an_init:
  4202                           	callstack 0
  4203                           
  4204 ;; *************** function _MotorsPWM *****************
  4205 ;; Defined at:
  4206 ;;		line 55 in file "config.c"
  4207 ;; Parameters:    Size  Location     Type
  4208 ;;		None
  4209 ;; Auto vars:     Size  Location     Type
  4210 ;;		None
  4211 ;; Return value:  Size  Location     Type
  4212 ;;                  1    wreg      void 
  4213 ;; Registers used:
  4214 ;;		wreg, status,2
  4215 ;; Tracked objects:
  4216 ;;		On entry : 0/0
  4217 ;;		On exit  : 0/0
  4218 ;;		Unchanged: 0/0
  4219 ;; Data sizes:     COMRAM   BANK0   BANK1   BANK2   BANK3   BANK4   BANK5   BANK6   BANK7
  4220 ;;      Params:         0       0       0       0       0       0       0       0       0
  4221 ;;      Locals:         0       0       0       0       0       0       0       0       0
  4222 ;;      Temps:          0       0       0       0       0       0       0       0       0
  4223 ;;      Totals:         0       0       0       0       0       0       0       0       0
  4224 ;;Total ram usage:        0 bytes
  4225 ;; Hardware stack levels used: 1
  4226 ;; Hardware stack levels required when called: 1
  4227 ;; This function calls:
  4228 ;;		Nothing
  4229 ;; This function is called by:
  4230 ;;		_init_tms
  4231 ;; This function uses a non-reentrant model
  4232 ;;
  4233                           
  4234                           	psect	text15
  4235   002CD6                     __ptext15:
  4236                           	callstack 0
  4237   002CD6                     _MotorsPWM:
  4238                           	callstack 28
  4239   002CD6                     
  4240                           ;config.c: 57: T2OUTPS0 = 0;
  4241   002CD6  96CA               	bcf	4042,3,c	;volatile
  4242                           
  4243                           ;config.c: 58: T2OUTPS1 = 0;
  4244   002CD8  98CA               	bcf	4042,4,c	;volatile
  4245                           
  4246                           ;config.c: 59: T2OUTPS2 = 0;
  4247   002CDA  9ACA               	bcf	4042,5,c	;volatile
  4248                           
  4249                           ;config.c: 60: T2OUTPS3 = 0;
  4250   002CDC  9CCA               	bcf	4042,6,c	;volatile
  4251                           
  4252                           ;config.c: 62: TMR2ON = 1;
  4253   002CDE  84CA               	bsf	4042,2,c	;volatile
  4254                           
  4255                           ;config.c: 63: T2CKPS0 = 0;
  4256   002CE0  90CA               	bcf	4042,0,c	;volatile
  4257                           
  4258                           ;config.c: 64: T2CKPS1 = 0;
  4259   002CE2  92CA               	bcf	4042,1,c	;volatile
  4260                           
  4261                           ;config.c: 66: TMR2ON = 1;
  4262   002CE4  84CA               	bsf	4042,2,c	;volatile
  4263   002CE6                     
  4264                           ;config.c: 69: T2CONbits.TOUTPS=11;
  4265   002CE6  50CA               	movf	202,w,c	;volatile
  4266   002CE8  0B87               	andlw	-121
  4267   002CEA  0958               	iorlw	88
  4268   002CEC  6ECA               	movwf	202,c	;volatile
  4269                           
  4270                           ;config.c: 70: T2CONbits.T2CKPS=1;
  4271   002CEE  50CA               	movf	202,w,c	;volatile
  4272   002CF0  0BFC               	andlw	-4
  4273   002CF2  0901               	iorlw	1
  4274   002CF4  6ECA               	movwf	202,c	;volatile
  4275   002CF6                     
  4276                           ;config.c: 71: T2CONbits.TMR2ON=0;
  4277   002CF6  94CA               	bcf	202,2,c	;volatile
  4278                           
  4279                           ;config.c: 72: PR2=249;
  4280   002CF8  0EF9               	movlw	249
  4281   002CFA  6ECB               	movwf	203,c	;volatile
  4282   002CFC                     
  4283                           ;config.c: 73: T2CONbits.TMR2ON=1;
  4284   002CFC  84CA               	bsf	202,2,c	;volatile
  4285                           
  4286                           ;config.c: 76: CCP1CONbits.CCP1M = 1100;
  4287   002CFE  50BD               	movf	189,w,c	;volatile
  4288   002D00  0BF0               	andlw	-16
  4289   002D02  090C               	iorlw	12
  4290   002D04  6EBD               	movwf	189,c	;volatile
  4291                           
  4292                           ;config.c: 77: CCP2CONbits.CCP2M = 1100;
  4293   002D06  50BA               	movf	186,w,c	;volatile
  4294   002D08  0BF0               	andlw	-16
  4295   002D0A  090C               	iorlw	12
  4296   002D0C  6EBA               	movwf	186,c	;volatile
  4297                           
  4298                           ;config.c: 80: PR2 = 249;
  4299   002D0E  0EF9               	movlw	249
  4300   002D10  6ECB               	movwf	203,c	;volatile
  4301   002D12  0012               	return		;funcret
  4302   002D14                     __end_of_MotorsPWM:
  4303                           	callstack 0
  4304                           
  4305 ;; *************** function _init_cal *****************
  4306 ;; Defined at:
  4307 ;;		line 42 in file "analog.c"
  4308 ;; Parameters:    Size  Location     Type
  4309 ;;		None
  4310 ;; Auto vars:     Size  Location     Type
  4311 ;;  i               2    4[COMRAM] int 
  4312 ;; Return value:  Size  Location     Type
  4313 ;;                  1    wreg      void 
  4314 ;; Registers used:
  4315 ;;		wreg, fsr2l, fsr2h, status,2, status,0
  4316 ;; Tracked objects:
  4317 ;;		On entry : 0/0
  4318 ;;		On exit  : 0/0
  4319 ;;		Unchanged: 0/0
  4320 ;; Data sizes:     COMRAM   BANK0   BANK1   BANK2   BANK3   BANK4   BANK5   BANK6   BANK7
  4321 ;;      Params:         0       0       0       0       0       0       0       0       0
  4322 ;;      Locals:         2       0       0       0       0       0       0       0       0
  4323 ;;      Temps:          0       0       0       0       0       0       0       0       0
  4324 ;;      Totals:         2       0       0       0       0       0       0       0       0
  4325 ;;Total ram usage:        2 bytes
  4326 ;; Hardware stack levels used: 1
  4327 ;; Hardware stack levels required when called: 1
  4328 ;; This function calls:
  4329 ;;		Nothing
  4330 ;; This function is called by:
  4331 ;;		_main
  4332 ;; This function uses a non-reentrant model
  4333 ;;
  4334                           
  4335                           	psect	text16
  4336   002A72                     __ptext16:
  4337                           	callstack 0
  4338   002A72                     _init_cal:
  4339                           	callstack 29
  4340   002A72                     
  4341                           ;analog.c: 43: int i;;analog.c: 45: for (i = 0;i < 9;i++) maxs[i] = 0;
  4342   002A72  0E00               	movlw	0
  4343   002A74  6E06               	movwf	(init_cal@i+1)^0,c
  4344   002A76  0E00               	movlw	0
  4345   002A78  6E05               	movwf	init_cal@i^0,c
  4346   002A7A                     l2861:
  4347   002A7A  90D8               	bcf	status,0,c
  4348   002A7C  3405               	rlcf	init_cal@i^0,w,c
  4349   002A7E  6ED9               	movwf	fsr2l,c
  4350   002A80  3406               	rlcf	(init_cal@i+1)^0,w,c
  4351   002A82  6EDA               	movwf	fsr2h,c
  4352   002A84  0EA6               	movlw	low _maxs
  4353   002A86  26D9               	addwf	fsr2l,f,c
  4354   002A88  0E00               	movlw	high _maxs
  4355   002A8A  22DA               	addwfc	fsr2h,f,c
  4356   002A8C  0E00               	movlw	0
  4357   002A8E  6EDE               	movwf	postinc2,c
  4358   002A90  0E00               	movlw	0
  4359   002A92  6EDD               	movwf	postdec2,c
  4360   002A94  4A05               	infsnz	init_cal@i^0,f,c
  4361   002A96  2A06               	incf	(init_cal@i+1)^0,f,c
  4362   002A98  BE06               	btfsc	(init_cal@i+1)^0,7,c
  4363   002A9A  EF58  F015         	goto	u2531
  4364   002A9E  5006               	movf	(init_cal@i+1)^0,w,c
  4365   002AA0  E109               	bnz	u2530
  4366   002AA2  0E09               	movlw	9
  4367   002AA4  5C05               	subwf	init_cal@i^0,w,c
  4368   002AA6  A0D8               	btfss	status,0,c
  4369   002AA8  EF58  F015         	goto	u2531
  4370   002AAC  EF5A  F015         	goto	u2530
  4371   002AB0                     u2531:
  4372   002AB0  EF3D  F015         	goto	l2861
  4373   002AB4                     u2530:
  4374   002AB4                     
  4375                           ;analog.c: 46: for (i = 0;i < 9;i++) mins[i] = 1024;
  4376   002AB4  0E00               	movlw	0
  4377   002AB6  6E06               	movwf	(init_cal@i+1)^0,c
  4378   002AB8  0E00               	movlw	0
  4379   002ABA  6E05               	movwf	init_cal@i^0,c
  4380   002ABC                     l2873:
  4381   002ABC  90D8               	bcf	status,0,c
  4382   002ABE  3405               	rlcf	init_cal@i^0,w,c
  4383   002AC0  6ED9               	movwf	fsr2l,c
  4384   002AC2  3406               	rlcf	(init_cal@i+1)^0,w,c
  4385   002AC4  6EDA               	movwf	fsr2h,c
  4386   002AC6  0E94               	movlw	low _mins
  4387   002AC8  26D9               	addwf	fsr2l,f,c
  4388   002ACA  0E00               	movlw	high _mins
  4389   002ACC  22DA               	addwfc	fsr2h,f,c
  4390   002ACE  0E00               	movlw	0
  4391   002AD0  6EDE               	movwf	postinc2,c
  4392   002AD2  0E04               	movlw	4
  4393   002AD4  6EDD               	movwf	postdec2,c
  4394   002AD6  4A05               	infsnz	init_cal@i^0,f,c
  4395   002AD8  2A06               	incf	(init_cal@i+1)^0,f,c
  4396   002ADA  BE06               	btfsc	(init_cal@i+1)^0,7,c
  4397   002ADC  EF79  F015         	goto	u2541
  4398   002AE0  5006               	movf	(init_cal@i+1)^0,w,c
  4399   002AE2  E109               	bnz	u2540
  4400   002AE4  0E09               	movlw	9
  4401   002AE6  5C05               	subwf	init_cal@i^0,w,c
  4402   002AE8  A0D8               	btfss	status,0,c
  4403   002AEA  EF79  F015         	goto	u2541
  4404   002AEE  EF7B  F015         	goto	u2540
  4405   002AF2                     u2541:
  4406   002AF2  EF5E  F015         	goto	l2873
  4407   002AF6                     u2540:
  4408   002AF6  0012               	return		;funcret
  4409   002AF8                     __end_of_init_cal:
  4410                           	callstack 0
  4411                           
  4412 ;; *************** function ___xxtofl *****************
  4413 ;; Defined at:
  4414 ;;		line 10 in file "C:\Program Files\Microchip\xc8\v2.40\pic\sources\c90\common\xxtofl.c"
  4415 ;; Parameters:    Size  Location     Type
  4416 ;;  sign            1    wreg     unsigned char 
  4417 ;;  val             4    4[COMRAM] long 
  4418 ;; Auto vars:     Size  Location     Type
  4419 ;;  sign            1   12[COMRAM] unsigned char 
  4420 ;;  arg             4   14[COMRAM] unsigned long 
  4421 ;;  exp             1   13[COMRAM] unsigned char 
  4422 ;; Return value:  Size  Location     Type
  4423 ;;                  4    4[COMRAM] unsigned char 
  4424 ;; Registers used:
  4425 ;;		wreg, status,2, status,0
  4426 ;; Tracked objects:
  4427 ;;		On entry : 0/0
  4428 ;;		On exit  : 0/0
  4429 ;;		Unchanged: 0/0
  4430 ;; Data sizes:     COMRAM   BANK0   BANK1   BANK2   BANK3   BANK4   BANK5   BANK6   BANK7
  4431 ;;      Params:         4       0       0       0       0       0       0       0       0
  4432 ;;      Locals:         6       0       0       0       0       0       0       0       0
  4433 ;;      Temps:          4       0       0       0       0       0       0       0       0
  4434 ;;      Totals:        14       0       0       0       0       0       0       0       0
  4435 ;;Total ram usage:       14 bytes
  4436 ;; Hardware stack levels used: 1
  4437 ;; Hardware stack levels required when called: 1
  4438 ;; This function calls:
  4439 ;;		Nothing
  4440 ;; This function is called by:
  4441 ;;		_main
  4442 ;; This function uses a non-reentrant model
  4443 ;;
  4444                           
  4445                           	psect	text17
  4446   0021D6                     __ptext17:
  4447                           	callstack 0
  4448   0021D6                     ___xxtofl:
  4449                           	callstack 29
  4450                           
  4451                           ;incstack = 0
  4452                           ;___xxtofl@sign stored from wreg
  4453   0021D6  6E0D               	movwf	___xxtofl@sign^0,c
  4454   0021D8  500D               	movf	___xxtofl@sign^0,w,c
  4455   0021DA  B4D8               	btfsc	status,2,c
  4456   0021DC  EFF2  F010         	goto	u3061
  4457   0021E0  EFF4  F010         	goto	u3060
  4458   0021E4                     u3061:
  4459   0021E4  EF16  F011         	goto	l1095
  4460   0021E8                     u3060:
  4461   0021E8  BE08               	btfsc	(___xxtofl@val+3)^0,7,c
  4462   0021EA  EFFB  F010         	goto	u3070
  4463   0021EE  EFF9  F010         	goto	u3071
  4464   0021F2                     u3071:
  4465   0021F2  EF16  F011         	goto	l1095
  4466   0021F6                     u3070:
  4467   0021F6  C005  F009         	movff	___xxtofl@val,??___xxtofl
  4468   0021FA  C006  F00A         	movff	___xxtofl@val+1,??___xxtofl+1
  4469   0021FE  C007  F00B         	movff	___xxtofl@val+2,??___xxtofl+2
  4470   002202  C008  F00C         	movff	___xxtofl@val+3,??___xxtofl+3
  4471   002206  1E09               	comf	??___xxtofl^0,f,c
  4472   002208  1E0A               	comf	(??___xxtofl+1)^0,f,c
  4473   00220A  1E0B               	comf	(??___xxtofl+2)^0,f,c
  4474   00220C  1E0C               	comf	(??___xxtofl+3)^0,f,c
  4475   00220E  2A09               	incf	??___xxtofl^0,f,c
  4476   002210  0E00               	movlw	0
  4477   002212  220A               	addwfc	(??___xxtofl+1)^0,f,c
  4478   002214  220B               	addwfc	(??___xxtofl+2)^0,f,c
  4479   002216  220C               	addwfc	(??___xxtofl+3)^0,f,c
  4480   002218  C009  F00F         	movff	??___xxtofl,___xxtofl@arg
  4481   00221C  C00A  F010         	movff	??___xxtofl+1,___xxtofl@arg+1
  4482   002220  C00B  F011         	movff	??___xxtofl+2,___xxtofl@arg+2
  4483   002224  C00C  F012         	movff	??___xxtofl+3,___xxtofl@arg+3
  4484   002228  EF1E  F011         	goto	l3239
  4485   00222C                     l1095:
  4486   00222C  C005  F00F         	movff	___xxtofl@val,___xxtofl@arg
  4487   002230  C006  F010         	movff	___xxtofl@val+1,___xxtofl@arg+1
  4488   002234  C007  F011         	movff	___xxtofl@val+2,___xxtofl@arg+2
  4489   002238  C008  F012         	movff	___xxtofl@val+3,___xxtofl@arg+3
  4490   00223C                     l3239:
  4491   00223C  5005               	movf	___xxtofl@val^0,w,c
  4492   00223E  1006               	iorwf	(___xxtofl@val+1)^0,w,c
  4493   002240  1007               	iorwf	(___xxtofl@val+2)^0,w,c
  4494   002242  1008               	iorwf	(___xxtofl@val+3)^0,w,c
  4495   002244  A4D8               	btfss	status,2,c
  4496   002246  EF27  F011         	goto	u3081
  4497   00224A  EF29  F011         	goto	u3080
  4498   00224E                     u3081:
  4499   00224E  EF33  F011         	goto	l3245
  4500   002252                     u3080:
  4501   002252  0E00               	movlw	0
  4502   002254  6E05               	movwf	?___xxtofl^0,c
  4503   002256  0E00               	movlw	0
  4504   002258  6E06               	movwf	(?___xxtofl+1)^0,c
  4505   00225A  0E00               	movlw	0
  4506   00225C  6E07               	movwf	(?___xxtofl+2)^0,c
  4507   00225E  0E00               	movlw	0
  4508   002260  6E08               	movwf	(?___xxtofl+3)^0,c
  4509   002262  EFC4  F011         	goto	l1098
  4510   002266                     l3245:
  4511   002266  0E96               	movlw	150
  4512   002268  6E0E               	movwf	___xxtofl@exp^0,c
  4513   00226A  EF3D  F011         	goto	l3249
  4514   00226E                     l3247:
  4515   00226E  2A0E               	incf	___xxtofl@exp^0,f,c
  4516   002270  90D8               	bcf	status,0,c
  4517   002272  3212               	rrcf	(___xxtofl@arg+3)^0,f,c
  4518   002274  3211               	rrcf	(___xxtofl@arg+2)^0,f,c
  4519   002276  3210               	rrcf	(___xxtofl@arg+1)^0,f,c
  4520   002278  320F               	rrcf	___xxtofl@arg^0,f,c
  4521   00227A                     l3249:
  4522   00227A  0E00               	movlw	0
  4523   00227C  140F               	andwf	___xxtofl@arg^0,w,c
  4524   00227E  6E09               	movwf	??___xxtofl^0,c
  4525   002280  0E00               	movlw	0
  4526   002282  1410               	andwf	(___xxtofl@arg+1)^0,w,c
  4527   002284  6E0A               	movwf	(??___xxtofl+1)^0,c
  4528   002286  0E00               	movlw	0
  4529   002288  1411               	andwf	(___xxtofl@arg+2)^0,w,c
  4530   00228A  6E0B               	movwf	(??___xxtofl+2)^0,c
  4531   00228C  0EFE               	movlw	254
  4532   00228E  1412               	andwf	(___xxtofl@arg+3)^0,w,c
  4533   002290  6E0C               	movwf	(??___xxtofl+3)^0,c
  4534   002292  5009               	movf	??___xxtofl^0,w,c
  4535   002294  100A               	iorwf	(??___xxtofl+1)^0,w,c
  4536   002296  100B               	iorwf	(??___xxtofl+2)^0,w,c
  4537   002298  100C               	iorwf	(??___xxtofl+3)^0,w,c
  4538   00229A  A4D8               	btfss	status,2,c
  4539   00229C  EF52  F011         	goto	u3091
  4540   0022A0  EF54  F011         	goto	u3090
  4541   0022A4                     u3091:
  4542   0022A4  EF37  F011         	goto	l3247
  4543   0022A8                     u3090:
  4544   0022A8  EF62  F011         	goto	l1102
  4545   0022AC                     l3251:
  4546   0022AC  2A0E               	incf	___xxtofl@exp^0,f,c
  4547   0022AE  0E01               	movlw	1
  4548   0022B0  260F               	addwf	___xxtofl@arg^0,f,c
  4549   0022B2  0E00               	movlw	0
  4550   0022B4  2210               	addwfc	(___xxtofl@arg+1)^0,f,c
  4551   0022B6  2211               	addwfc	(___xxtofl@arg+2)^0,f,c
  4552   0022B8  2212               	addwfc	(___xxtofl@arg+3)^0,f,c
  4553   0022BA  90D8               	bcf	status,0,c
  4554   0022BC  3212               	rrcf	(___xxtofl@arg+3)^0,f,c
  4555   0022BE  3211               	rrcf	(___xxtofl@arg+2)^0,f,c
  4556   0022C0  3210               	rrcf	(___xxtofl@arg+1)^0,f,c
  4557   0022C2  320F               	rrcf	___xxtofl@arg^0,f,c
  4558   0022C4                     l1102:
  4559   0022C4  0E00               	movlw	0
  4560   0022C6  140F               	andwf	___xxtofl@arg^0,w,c
  4561   0022C8  6E09               	movwf	??___xxtofl^0,c
  4562   0022CA  0E00               	movlw	0
  4563   0022CC  1410               	andwf	(___xxtofl@arg+1)^0,w,c
  4564   0022CE  6E0A               	movwf	(??___xxtofl+1)^0,c
  4565   0022D0  0E00               	movlw	0
  4566   0022D2  1411               	andwf	(___xxtofl@arg+2)^0,w,c
  4567   0022D4  6E0B               	movwf	(??___xxtofl+2)^0,c
  4568   0022D6  0EFF               	movlw	255
  4569   0022D8  1412               	andwf	(___xxtofl@arg+3)^0,w,c
  4570   0022DA  6E0C               	movwf	(??___xxtofl+3)^0,c
  4571   0022DC  5009               	movf	??___xxtofl^0,w,c
  4572   0022DE  100A               	iorwf	(??___xxtofl+1)^0,w,c
  4573   0022E0  100B               	iorwf	(??___xxtofl+2)^0,w,c
  4574   0022E2  100C               	iorwf	(??___xxtofl+3)^0,w,c
  4575   0022E4  A4D8               	btfss	status,2,c
  4576   0022E6  EF77  F011         	goto	u3101
  4577   0022EA  EF79  F011         	goto	u3100
  4578   0022EE                     u3101:
  4579   0022EE  EF56  F011         	goto	l3251
  4580   0022F2                     u3100:
  4581   0022F2  EF81  F011         	goto	l3259
  4582   0022F6                     l3257:
  4583   0022F6  060E               	decf	___xxtofl@exp^0,f,c
  4584   0022F8  90D8               	bcf	status,0,c
  4585   0022FA  360F               	rlcf	___xxtofl@arg^0,f,c
  4586   0022FC  3610               	rlcf	(___xxtofl@arg+1)^0,f,c
  4587   0022FE  3611               	rlcf	(___xxtofl@arg+2)^0,f,c
  4588   002300  3612               	rlcf	(___xxtofl@arg+3)^0,f,c
  4589   002302                     l3259:
  4590   002302  BE11               	btfsc	(___xxtofl@arg+2)^0,7,c
  4591   002304  EF86  F011         	goto	u3111
  4592   002308  EF88  F011         	goto	u3110
  4593   00230C                     u3111:
  4594   00230C  EF90  F011         	goto	l1109
  4595   002310                     u3110:
  4596   002310  0E02               	movlw	2
  4597   002312  600E               	cpfslt	___xxtofl@exp^0,c
  4598   002314  EF8E  F011         	goto	u3121
  4599   002318  EF90  F011         	goto	u3120
  4600   00231C                     u3121:
  4601   00231C  EF7B  F011         	goto	l3257
  4602   002320                     u3120:
  4603   002320                     l1109:
  4604   002320  B00E               	btfsc	___xxtofl@exp^0,0,c
  4605   002322  EF95  F011         	goto	u3131
  4606   002326  EF97  F011         	goto	u3130
  4607   00232A                     u3131:
  4608   00232A  EF98  F011         	goto	l3265
  4609   00232E                     u3130:
  4610   00232E  9E11               	bcf	(___xxtofl@arg+2)^0,7,c
  4611   002330                     l3265:
  4612   002330  90D8               	bcf	status,0,c
  4613   002332  320E               	rrcf	___xxtofl@exp^0,f,c
  4614   002334  C00E  F009         	movff	___xxtofl@exp,??___xxtofl
  4615   002338  6A0A               	clrf	(??___xxtofl+1)^0,c
  4616   00233A  6A0B               	clrf	(??___xxtofl+2)^0,c
  4617   00233C  6A0C               	clrf	(??___xxtofl+3)^0,c
  4618   00233E  C009  F00C         	movff	??___xxtofl,??___xxtofl+3
  4619   002342  6A0B               	clrf	(??___xxtofl+2)^0,c
  4620   002344  6A0A               	clrf	(??___xxtofl+1)^0,c
  4621   002346  6A09               	clrf	??___xxtofl^0,c
  4622   002348  5009               	movf	??___xxtofl^0,w,c
  4623   00234A  120F               	iorwf	___xxtofl@arg^0,f,c
  4624   00234C  500A               	movf	(??___xxtofl+1)^0,w,c
  4625   00234E  1210               	iorwf	(___xxtofl@arg+1)^0,f,c
  4626   002350  500B               	movf	(??___xxtofl+2)^0,w,c
  4627   002352  1211               	iorwf	(___xxtofl@arg+2)^0,f,c
  4628   002354  500C               	movf	(??___xxtofl+3)^0,w,c
  4629   002356  1212               	iorwf	(___xxtofl@arg+3)^0,f,c
  4630   002358  500D               	movf	___xxtofl@sign^0,w,c
  4631   00235A  B4D8               	btfsc	status,2,c
  4632   00235C  EFB2  F011         	goto	u3141
  4633   002360  EFB4  F011         	goto	u3140
  4634   002364                     u3141:
  4635   002364  EFBC  F011         	goto	l3275
  4636   002368                     u3140:
  4637   002368  BE08               	btfsc	(___xxtofl@val+3)^0,7,c
  4638   00236A  EFBB  F011         	goto	u3150
  4639   00236E  EFB9  F011         	goto	u3151
  4640   002372                     u3151:
  4641   002372  EFBC  F011         	goto	l3275
  4642   002376                     u3150:
  4643   002376  8E12               	bsf	(___xxtofl@arg+3)^0,7,c
  4644   002378                     l3275:
  4645   002378  C00F  F005         	movff	___xxtofl@arg,?___xxtofl
  4646   00237C  C010  F006         	movff	___xxtofl@arg+1,?___xxtofl+1
  4647   002380  C011  F007         	movff	___xxtofl@arg+2,?___xxtofl+2
  4648   002384  C012  F008         	movff	___xxtofl@arg+3,?___xxtofl+3
  4649   002388                     l1098:
  4650   002388  0012               	return		;funcret
  4651   00238A                     __end_of___xxtofl:
  4652                           	callstack 0
  4653                           
  4654 ;; *************** function ___fltol *****************
  4655 ;; Defined at:
  4656 ;;		line 43 in file "C:\Program Files\Microchip\xc8\v2.40\pic\sources\c90\common\fltol.c"
  4657 ;; Parameters:    Size  Location     Type
  4658 ;;  f1              4   67[COMRAM] unsigned char 
  4659 ;; Auto vars:     Size  Location     Type
  4660 ;;  exp1            1   76[COMRAM] unsigned char 
  4661 ;;  sign1           1   75[COMRAM] unsigned char 
  4662 ;; Return value:  Size  Location     Type
  4663 ;;                  4   67[COMRAM] long 
  4664 ;; Registers used:
  4665 ;;		wreg, status,2, status,0
  4666 ;; Tracked objects:
  4667 ;;		On entry : 0/0
  4668 ;;		On exit  : 0/0
  4669 ;;		Unchanged: 0/0
  4670 ;; Data sizes:     COMRAM   BANK0   BANK1   BANK2   BANK3   BANK4   BANK5   BANK6   BANK7
  4671 ;;      Params:         4       0       0       0       0       0       0       0       0
  4672 ;;      Locals:         2       0       0       0       0       0       0       0       0
  4673 ;;      Temps:          4       0       0       0       0       0       0       0       0
  4674 ;;      Totals:        10       0       0       0       0       0       0       0       0
  4675 ;;Total ram usage:       10 bytes
  4676 ;; Hardware stack levels used: 1
  4677 ;; Hardware stack levels required when called: 1
  4678 ;; This function calls:
  4679 ;;		Nothing
  4680 ;; This function is called by:
  4681 ;;		_main
  4682 ;; This function uses a non-reentrant model
  4683 ;;
  4684                           
  4685                           	psect	text18
  4686   002496                     __ptext18:
  4687                           	callstack 0
  4688   002496                     ___fltol:
  4689                           	callstack 29
  4690   002496  3446               	rlcf	(___fltol@f1+2)^0,w,c
  4691   002498  3447               	rlcf	(___fltol@f1+3)^0,w,c
  4692   00249A  6E4D               	movwf	___fltol@exp1^0,c
  4693   00249C  504D               	movf	___fltol@exp1^0,w,c
  4694   00249E  A4D8               	btfss	status,2,c
  4695   0024A0  EF54  F012         	goto	u2991
  4696   0024A4  EF56  F012         	goto	u2990
  4697   0024A8                     u2991:
  4698   0024A8  EF60  F012         	goto	l3195
  4699   0024AC                     u2990:
  4700   0024AC                     l3191:
  4701   0024AC  0E00               	movlw	0
  4702   0024AE  6E44               	movwf	?___fltol^0,c
  4703   0024B0  0E00               	movlw	0
  4704   0024B2  6E45               	movwf	(?___fltol+1)^0,c
  4705   0024B4  0E00               	movlw	0
  4706   0024B6  6E46               	movwf	(?___fltol+2)^0,c
  4707   0024B8  0E00               	movlw	0
  4708   0024BA  6E47               	movwf	(?___fltol+3)^0,c
  4709   0024BC  EFCD  F012         	goto	l741
  4710   0024C0                     l3195:
  4711   0024C0  C044  F048         	movff	___fltol@f1,??___fltol
  4712   0024C4  C045  F049         	movff	___fltol@f1+1,??___fltol+1
  4713   0024C8  C046  F04A         	movff	___fltol@f1+2,??___fltol+2
  4714   0024CC  C047  F04B         	movff	___fltol@f1+3,??___fltol+3
  4715   0024D0  0E20               	movlw	32
  4716   0024D2  EF70  F012         	goto	u3000
  4717   0024D6                     u3005:
  4718   0024D6  90D8               	bcf	status,0,c
  4719   0024D8  324B               	rrcf	(??___fltol+3)^0,f,c
  4720   0024DA  324A               	rrcf	(??___fltol+2)^0,f,c
  4721   0024DC  3249               	rrcf	(??___fltol+1)^0,f,c
  4722   0024DE  3248               	rrcf	??___fltol^0,f,c
  4723   0024E0                     u3000:
  4724   0024E0  2EE8               	decfsz	wreg,f,c
  4725   0024E2  EF6B  F012         	goto	u3005
  4726   0024E6  5048               	movf	??___fltol^0,w,c
  4727   0024E8  6E4C               	movwf	___fltol@sign1^0,c
  4728   0024EA  8E46               	bsf	(___fltol@f1+2)^0,7,c
  4729   0024EC  0EFF               	movlw	255
  4730   0024EE  1644               	andwf	___fltol@f1^0,f,c
  4731   0024F0  0EFF               	movlw	255
  4732   0024F2  1645               	andwf	(___fltol@f1+1)^0,f,c
  4733   0024F4  0EFF               	movlw	255
  4734   0024F6  1646               	andwf	(___fltol@f1+2)^0,f,c
  4735   0024F8  0E00               	movlw	0
  4736   0024FA  1647               	andwf	(___fltol@f1+3)^0,f,c
  4737   0024FC  0E96               	movlw	150
  4738   0024FE  5E4D               	subwf	___fltol@exp1^0,f,c
  4739   002500  BE4D               	btfsc	___fltol@exp1^0,7,c
  4740   002502  EF87  F012         	goto	u3010
  4741   002506  EF85  F012         	goto	u3011
  4742   00250A                     u3011:
  4743   00250A  EF9D  F012         	goto	l3215
  4744   00250E                     u3010:
  4745   00250E  504D               	movf	___fltol@exp1^0,w,c
  4746   002510  0A80               	xorlw	128
  4747   002512  0F97               	addlw	151
  4748   002514  B0D8               	btfsc	status,0,c
  4749   002516  EF8F  F012         	goto	u3021
  4750   00251A  EF91  F012         	goto	u3020
  4751   00251E                     u3021:
  4752   00251E  EF93  F012         	goto	l3211
  4753   002522                     u3020:
  4754   002522  EF56  F012         	goto	l3191
  4755   002526                     l3211:
  4756   002526  90D8               	bcf	status,0,c
  4757   002528  3247               	rrcf	(___fltol@f1+3)^0,f,c
  4758   00252A  3246               	rrcf	(___fltol@f1+2)^0,f,c
  4759   00252C  3245               	rrcf	(___fltol@f1+1)^0,f,c
  4760   00252E  3244               	rrcf	___fltol@f1^0,f,c
  4761   002530  3E4D               	incfsz	___fltol@exp1^0,f,c
  4762   002532  EF93  F012         	goto	l3211
  4763   002536  EFB5  F012         	goto	l3225
  4764   00253A                     l3215:
  4765   00253A  0E1F               	movlw	31
  4766   00253C  644D               	cpfsgt	___fltol@exp1^0,c
  4767   00253E  EFA3  F012         	goto	u3031
  4768   002542  EFA5  F012         	goto	u3030
  4769   002546                     u3031:
  4770   002546  EFAD  F012         	goto	l3223
  4771   00254A                     u3030:
  4772   00254A  EF56  F012         	goto	l3191
  4773   00254E                     l3221:
  4774   00254E  90D8               	bcf	status,0,c
  4775   002550  3644               	rlcf	___fltol@f1^0,f,c
  4776   002552  3645               	rlcf	(___fltol@f1+1)^0,f,c
  4777   002554  3646               	rlcf	(___fltol@f1+2)^0,f,c
  4778   002556  3647               	rlcf	(___fltol@f1+3)^0,f,c
  4779   002558  064D               	decf	___fltol@exp1^0,f,c
  4780   00255A                     l3223:
  4781   00255A  504D               	movf	___fltol@exp1^0,w,c
  4782   00255C  A4D8               	btfss	status,2,c
  4783   00255E  EFB3  F012         	goto	u3041
  4784   002562  EFB5  F012         	goto	u3040
  4785   002566                     u3041:
  4786   002566  EFA7  F012         	goto	l3221
  4787   00256A                     u3040:
  4788   00256A                     l3225:
  4789   00256A  504C               	movf	___fltol@sign1^0,w,c
  4790   00256C  B4D8               	btfsc	status,2,c
  4791   00256E  EFBB  F012         	goto	u3051
  4792   002572  EFBD  F012         	goto	u3050
  4793   002576                     u3051:
  4794   002576  EFC5  F012         	goto	l3229
  4795   00257A                     u3050:
  4796   00257A  1E47               	comf	(___fltol@f1+3)^0,f,c
  4797   00257C  1E46               	comf	(___fltol@f1+2)^0,f,c
  4798   00257E  1E45               	comf	(___fltol@f1+1)^0,f,c
  4799   002580  6C44               	negf	___fltol@f1^0,c
  4800   002582  0E00               	movlw	0
  4801   002584  2245               	addwfc	(___fltol@f1+1)^0,f,c
  4802   002586  2246               	addwfc	(___fltol@f1+2)^0,f,c
  4803   002588  2247               	addwfc	(___fltol@f1+3)^0,f,c
  4804   00258A                     l3229:
  4805   00258A  C044  F044         	movff	___fltol@f1,?___fltol
  4806   00258E  C045  F045         	movff	___fltol@f1+1,?___fltol+1
  4807   002592  C046  F046         	movff	___fltol@f1+2,?___fltol+2
  4808   002596  C047  F047         	movff	___fltol@f1+3,?___fltol+3
  4809   00259A                     l741:
  4810   00259A  0012               	return		;funcret
  4811   00259C                     __end_of___fltol:
  4812                           	callstack 0
  4813                           
  4814 ;; *************** function ___flsub *****************
  4815 ;; Defined at:
  4816 ;;		line 245 in file "C:\Program Files\Microchip\xc8\v2.40\pic\sources\c90\common\sprcadd.c"
  4817 ;; Parameters:    Size  Location     Type
  4818 ;;  b               4   59[COMRAM] long 
  4819 ;;  a               4   63[COMRAM] long 
  4820 ;; Auto vars:     Size  Location     Type
  4821 ;;		None
  4822 ;; Return value:  Size  Location     Type
  4823 ;;                  4   59[COMRAM] long 
  4824 ;; Registers used:
  4825 ;;		wreg, status,2, status,0, cstack
  4826 ;; Tracked objects:
  4827 ;;		On entry : 0/0
  4828 ;;		On exit  : 0/0
  4829 ;;		Unchanged: 0/0
  4830 ;; Data sizes:     COMRAM   BANK0   BANK1   BANK2   BANK3   BANK4   BANK5   BANK6   BANK7
  4831 ;;      Params:         8       0       0       0       0       0       0       0       0
  4832 ;;      Locals:         0       0       0       0       0       0       0       0       0
  4833 ;;      Temps:          0       0       0       0       0       0       0       0       0
  4834 ;;      Totals:         8       0       0       0       0       0       0       0       0
  4835 ;;Total ram usage:        8 bytes
  4836 ;; Hardware stack levels used: 1
  4837 ;; Hardware stack levels required when called: 2
  4838 ;; This function calls:
  4839 ;;		___fladd
  4840 ;; This function is called by:
  4841 ;;		_main
  4842 ;;		_twiddle_update
  4843 ;; This function uses a non-reentrant model
  4844 ;;
  4845                           
  4846                           	psect	text19
  4847   002C90                     __ptext19:
  4848                           	callstack 0
  4849   002C90                     ___flsub:
  4850                           	callstack 28
  4851   002C90  0E00               	movlw	0
  4852   002C92  1A40               	xorwf	___flsub@a^0,f,c
  4853   002C94  0E00               	movlw	0
  4854   002C96  1A41               	xorwf	(___flsub@a+1)^0,f,c
  4855   002C98  0E00               	movlw	0
  4856   002C9A  1A42               	xorwf	(___flsub@a+2)^0,f,c
  4857   002C9C  0E80               	movlw	128
  4858   002C9E  1A43               	xorwf	(___flsub@a+3)^0,f,c
  4859   002CA0  C03C  F02C         	movff	___flsub@b,___fladd@b
  4860   002CA4  C03D  F02D         	movff	___flsub@b+1,___fladd@b+1
  4861   002CA8  C03E  F02E         	movff	___flsub@b+2,___fladd@b+2
  4862   002CAC  C03F  F02F         	movff	___flsub@b+3,___fladd@b+3
  4863   002CB0  C040  F030         	movff	___flsub@a,___fladd@a
  4864   002CB4  C041  F031         	movff	___flsub@a+1,___fladd@a+1
  4865   002CB8  C042  F032         	movff	___flsub@a+2,___fladd@a+2
  4866   002CBC  C043  F033         	movff	___flsub@a+3,___fladd@a+3
  4867   002CC0  ECEF  F00A         	call	___fladd	;wreg free
  4868   002CC4  C02C  F03C         	movff	?___fladd,?___flsub
  4869   002CC8  C02D  F03D         	movff	?___fladd+1,?___flsub+1
  4870   002CCC  C02E  F03E         	movff	?___fladd+2,?___flsub+2
  4871   002CD0  C02F  F03F         	movff	?___fladd+3,?___flsub+3
  4872   002CD4  0012               	return		;funcret
  4873   002CD6                     __end_of___flsub:
  4874                           	callstack 0
  4875                           
  4876 ;; *************** function ___fladd *****************
  4877 ;; Defined at:
  4878 ;;		line 10 in file "C:\Program Files\Microchip\xc8\v2.40\pic\sources\c90\common\sprcadd.c"
  4879 ;; Parameters:    Size  Location     Type
  4880 ;;  b               4   43[COMRAM] long 
  4881 ;;  a               4   47[COMRAM] long 
  4882 ;; Auto vars:     Size  Location     Type
  4883 ;;  grs             1   58[COMRAM] unsigned char 
  4884 ;;  bexp            1   57[COMRAM] unsigned char 
  4885 ;;  aexp            1   56[COMRAM] unsigned char 
  4886 ;;  signs           1   55[COMRAM] unsigned char 
  4887 ;; Return value:  Size  Location     Type
  4888 ;;                  4   43[COMRAM] unsigned char 
  4889 ;; Registers used:
  4890 ;;		wreg, status,2, status,0
  4891 ;; Tracked objects:
  4892 ;;		On entry : 0/0
  4893 ;;		On exit  : 0/0
  4894 ;;		Unchanged: 0/0
  4895 ;; Data sizes:     COMRAM   BANK0   BANK1   BANK2   BANK3   BANK4   BANK5   BANK6   BANK7
  4896 ;;      Params:         8       0       0       0       0       0       0       0       0
  4897 ;;      Locals:         4       0       0       0       0       0       0       0       0
  4898 ;;      Temps:          4       0       0       0       0       0       0       0       0
  4899 ;;      Totals:        16       0       0       0       0       0       0       0       0
  4900 ;;Total ram usage:       16 bytes
  4901 ;; Hardware stack levels used: 1
  4902 ;; Hardware stack levels required when called: 1
  4903 ;; This function calls:
  4904 ;;		Nothing
  4905 ;; This function is called by:
  4906 ;;		_main
  4907 ;;		___flsub
  4908 ;;		_twiddle_update
  4909 ;; This function uses a non-reentrant model
  4910 ;;
  4911                           
  4912                           	psect	text20
  4913   0015DE                     __ptext20:
  4914                           	callstack 0
  4915   0015DE                     ___fladd:
  4916                           	callstack 28
  4917   0015DE  502F               	movf	(___fladd@b+3)^0,w,c
  4918   0015E0  0B80               	andlw	128
  4919   0015E2  6E38               	movwf	___fladd@signs^0,c
  4920   0015E4  502F               	movf	(___fladd@b+3)^0,w,c
  4921   0015E6  242F               	addwf	(___fladd@b+3)^0,w,c
  4922   0015E8  6E3A               	movwf	___fladd@bexp^0,c
  4923   0015EA  AE2E               	btfss	(___fladd@b+2)^0,7,c
  4924   0015EC  EFFA  F00A         	goto	u2121
  4925   0015F0  EFFC  F00A         	goto	u2120
  4926   0015F4                     u2121:
  4927   0015F4  EFFD  F00A         	goto	l2591
  4928   0015F8                     u2120:
  4929   0015F8  803A               	bsf	___fladd@bexp^0,0,c
  4930   0015FA                     l2591:
  4931   0015FA  503A               	movf	___fladd@bexp^0,w,c
  4932   0015FC  B4D8               	btfsc	status,2,c
  4933   0015FE  EF03  F00B         	goto	u2131
  4934   001602  EF05  F00B         	goto	u2130
  4935   001606                     u2131:
  4936   001606  EF1A  F00B         	goto	l2601
  4937   00160A                     u2130:
  4938   00160A  283A               	incf	___fladd@bexp^0,w,c
  4939   00160C  A4D8               	btfss	status,2,c
  4940   00160E  EF0B  F00B         	goto	u2141
  4941   001612  EF0D  F00B         	goto	u2140
  4942   001616                     u2141:
  4943   001616  EF15  F00B         	goto	l2597
  4944   00161A                     u2140:
  4945   00161A  0E00               	movlw	0
  4946   00161C  6E2C               	movwf	___fladd@b^0,c
  4947   00161E  0E00               	movlw	0
  4948   001620  6E2D               	movwf	(___fladd@b+1)^0,c
  4949   001622  0E00               	movlw	0
  4950   001624  6E2E               	movwf	(___fladd@b+2)^0,c
  4951   001626  0E00               	movlw	0
  4952   001628  6E2F               	movwf	(___fladd@b+3)^0,c
  4953   00162A                     l2597:
  4954   00162A  8E2E               	bsf	(___fladd@b+2)^0,7,c
  4955   00162C  0E00               	movlw	0
  4956   00162E  6E2F               	movwf	(___fladd@b+3)^0,c
  4957   001630  EF22  F00B         	goto	l2603
  4958   001634                     l2601:
  4959   001634  0E00               	movlw	0
  4960   001636  6E2C               	movwf	___fladd@b^0,c
  4961   001638  0E00               	movlw	0
  4962   00163A  6E2D               	movwf	(___fladd@b+1)^0,c
  4963   00163C  0E00               	movlw	0
  4964   00163E  6E2E               	movwf	(___fladd@b+2)^0,c
  4965   001640  0E00               	movlw	0
  4966   001642  6E2F               	movwf	(___fladd@b+3)^0,c
  4967   001644                     l2603:
  4968   001644  5033               	movf	(___fladd@a+3)^0,w,c
  4969   001646  0B80               	andlw	128
  4970   001648  6E39               	movwf	___fladd@aexp^0,c
  4971   00164A  5038               	movf	___fladd@signs^0,w,c
  4972   00164C  1839               	xorwf	___fladd@aexp^0,w,c
  4973   00164E  B4D8               	btfsc	status,2,c
  4974   001650  EF2C  F00B         	goto	u2151
  4975   001654  EF2E  F00B         	goto	u2150
  4976   001658                     u2151:
  4977   001658  EF2F  F00B         	goto	l2609
  4978   00165C                     u2150:
  4979   00165C  8C38               	bsf	___fladd@signs^0,6,c
  4980   00165E                     l2609:
  4981   00165E  5033               	movf	(___fladd@a+3)^0,w,c
  4982   001660  2433               	addwf	(___fladd@a+3)^0,w,c
  4983   001662  6E39               	movwf	___fladd@aexp^0,c
  4984   001664  AE32               	btfss	(___fladd@a+2)^0,7,c
  4985   001666  EF37  F00B         	goto	u2161
  4986   00166A  EF39  F00B         	goto	u2160
  4987   00166E                     u2161:
  4988   00166E  EF3A  F00B         	goto	l2615
  4989   001672                     u2160:
  4990   001672  8039               	bsf	___fladd@aexp^0,0,c
  4991   001674                     l2615:
  4992   001674  5039               	movf	___fladd@aexp^0,w,c
  4993   001676  B4D8               	btfsc	status,2,c
  4994   001678  EF40  F00B         	goto	u2171
  4995   00167C  EF42  F00B         	goto	u2170
  4996   001680                     u2171:
  4997   001680  EF57  F00B         	goto	l2625
  4998   001684                     u2170:
  4999   001684  2839               	incf	___fladd@aexp^0,w,c
  5000   001686  A4D8               	btfss	status,2,c
  5001   001688  EF48  F00B         	goto	u2181
  5002   00168C  EF4A  F00B         	goto	u2180
  5003   001690                     u2181:
  5004   001690  EF52  F00B         	goto	l2621
  5005   001694                     u2180:
  5006   001694  0E00               	movlw	0
  5007   001696  6E30               	movwf	___fladd@a^0,c
  5008   001698  0E00               	movlw	0
  5009   00169A  6E31               	movwf	(___fladd@a+1)^0,c
  5010   00169C  0E00               	movlw	0
  5011   00169E  6E32               	movwf	(___fladd@a+2)^0,c
  5012   0016A0  0E00               	movlw	0
  5013   0016A2  6E33               	movwf	(___fladd@a+3)^0,c
  5014   0016A4                     l2621:
  5015   0016A4  8E32               	bsf	(___fladd@a+2)^0,7,c
  5016   0016A6  0E00               	movlw	0
  5017   0016A8  6E33               	movwf	(___fladd@a+3)^0,c
  5018   0016AA  EF5F  F00B         	goto	l2627
  5019   0016AE                     l2625:
  5020   0016AE  0E00               	movlw	0
  5021   0016B0  6E30               	movwf	___fladd@a^0,c
  5022   0016B2  0E00               	movlw	0
  5023   0016B4  6E31               	movwf	(___fladd@a+1)^0,c
  5024   0016B6  0E00               	movlw	0
  5025   0016B8  6E32               	movwf	(___fladd@a+2)^0,c
  5026   0016BA  0E00               	movlw	0
  5027   0016BC  6E33               	movwf	(___fladd@a+3)^0,c
  5028   0016BE                     l2627:
  5029   0016BE  503A               	movf	___fladd@bexp^0,w,c
  5030   0016C0  5C39               	subwf	___fladd@aexp^0,w,c
  5031   0016C2  B0D8               	btfsc	status,0,c
  5032   0016C4  EF66  F00B         	goto	u2191
  5033   0016C8  EF68  F00B         	goto	u2190
  5034   0016CC                     u2191:
  5035   0016CC  EF8F  F00B         	goto	l2663
  5036   0016D0                     u2190:
  5037   0016D0  AC38               	btfss	___fladd@signs^0,6,c
  5038   0016D2  EF6D  F00B         	goto	u2201
  5039   0016D6  EF6F  F00B         	goto	u2200
  5040   0016DA                     u2201:
  5041   0016DA  EF71  F00B         	goto	l2633
  5042   0016DE                     u2200:
  5043   0016DE  0E80               	movlw	128
  5044   0016E0  1A38               	xorwf	___fladd@signs^0,f,c
  5045   0016E2                     l2633:
  5046   0016E2  C03A  F03B         	movff	___fladd@bexp,___fladd@grs
  5047   0016E6  C039  F03A         	movff	___fladd@aexp,___fladd@bexp
  5048   0016EA  C03B  F039         	movff	___fladd@grs,___fladd@aexp
  5049   0016EE  C02C  F03B         	movff	___fladd@b,___fladd@grs
  5050   0016F2  C030  F02C         	movff	___fladd@a,___fladd@b
  5051   0016F6  C03B  F030         	movff	___fladd@grs,___fladd@a
  5052   0016FA  C02D  F03B         	movff	___fladd@b+1,___fladd@grs
  5053   0016FE  C031  F02D         	movff	___fladd@a+1,___fladd@b+1
  5054   001702  C03B  F031         	movff	___fladd@grs,___fladd@a+1
  5055   001706  C02E  F03B         	movff	___fladd@b+2,___fladd@grs
  5056   00170A  C032  F02E         	movff	___fladd@a+2,___fladd@b+2
  5057   00170E  C03B  F032         	movff	___fladd@grs,___fladd@a+2
  5058   001712  C02F  F03B         	movff	___fladd@b+3,___fladd@grs
  5059   001716  C033  F02F         	movff	___fladd@a+3,___fladd@b+3
  5060   00171A  C03B  F033         	movff	___fladd@grs,___fladd@a+3
  5061   00171E                     l2663:
  5062   00171E  0E00               	movlw	0
  5063   001720  6E3B               	movwf	___fladd@grs^0,c
  5064   001722  503A               	movf	___fladd@bexp^0,w,c
  5065   001724  C039  F034         	movff	___fladd@aexp,??___fladd
  5066   001728  6A35               	clrf	(??___fladd+1)^0,c
  5067   00172A  5E34               	subwf	??___fladd^0,f,c
  5068   00172C  0E00               	movlw	0
  5069   00172E  5A35               	subwfb	(??___fladd+1)^0,f,c
  5070   001730  BE35               	btfsc	(??___fladd+1)^0,7,c
  5071   001732  EFA4  F00B         	goto	u2211
  5072   001736  5035               	movf	(??___fladd+1)^0,w,c
  5073   001738  E109               	bnz	u2210
  5074   00173A  0E1A               	movlw	26
  5075   00173C  5C34               	subwf	??___fladd^0,w,c
  5076   00173E  A0D8               	btfss	status,0,c
  5077   001740  EFA4  F00B         	goto	u2211
  5078   001744  EFA6  F00B         	goto	u2210
  5079   001748                     u2211:
  5080   001748  EFDD  F00B         	goto	l969
  5081   00174C                     u2210:
  5082   00174C  502C               	movf	___fladd@b^0,w,c
  5083   00174E  102D               	iorwf	(___fladd@b+1)^0,w,c
  5084   001750  102E               	iorwf	(___fladd@b+2)^0,w,c
  5085   001752  102F               	iorwf	(___fladd@b+3)^0,w,c
  5086   001754  A4D8               	btfss	status,2,c
  5087   001756  EFAF  F00B         	goto	u2221
  5088   00175A  EFB2  F00B         	goto	u2220
  5089   00175E                     u2221:
  5090   00175E  0E01               	movlw	1
  5091   001760  EFB3  F00B         	goto	u2230
  5092   001764                     u2220:
  5093   001764  0E00               	movlw	0
  5094   001766                     u2230:
  5095   001766  6E3B               	movwf	___fladd@grs^0,c
  5096   001768  0E00               	movlw	0
  5097   00176A  6E2C               	movwf	___fladd@b^0,c
  5098   00176C  0E00               	movlw	0
  5099   00176E  6E2D               	movwf	(___fladd@b+1)^0,c
  5100   001770  0E00               	movlw	0
  5101   001772  6E2E               	movwf	(___fladd@b+2)^0,c
  5102   001774  0E00               	movlw	0
  5103   001776  6E2F               	movwf	(___fladd@b+3)^0,c
  5104   001778  C039  F03A         	movff	___fladd@aexp,___fladd@bexp
  5105   00177C  EFE6  F00B         	goto	l968
  5106   001780                     l970:
  5107   001780  A03B               	btfss	___fladd@grs^0,0,c
  5108   001782  EFC5  F00B         	goto	u2241
  5109   001786  EFC7  F00B         	goto	u2240
  5110   00178A                     u2241:
  5111   00178A  EFCD  F00B         	goto	l2675
  5112   00178E                     u2240:
  5113   00178E  90D8               	bcf	status,0,c
  5114   001790  303B               	rrcf	___fladd@grs^0,w,c
  5115   001792  0901               	iorlw	1
  5116   001794  6E3B               	movwf	___fladd@grs^0,c
  5117   001796  EFCF  F00B         	goto	l2677
  5118   00179A                     l2675:
  5119   00179A  90D8               	bcf	status,0,c
  5120   00179C  323B               	rrcf	___fladd@grs^0,f,c
  5121   00179E                     l2677:
  5122   00179E  A02C               	btfss	___fladd@b^0,0,c
  5123   0017A0  EFD4  F00B         	goto	u2251
  5124   0017A4  EFD6  F00B         	goto	u2250
  5125   0017A8                     u2251:
  5126   0017A8  EFD7  F00B         	goto	l2681
  5127   0017AC                     u2250:
  5128   0017AC  8E3B               	bsf	___fladd@grs^0,7,c
  5129   0017AE                     l2681:
  5130   0017AE  342F               	rlcf	(___fladd@b+3)^0,w,c
  5131   0017B0  322F               	rrcf	(___fladd@b+3)^0,f,c
  5132   0017B2  322E               	rrcf	(___fladd@b+2)^0,f,c
  5133   0017B4  322D               	rrcf	(___fladd@b+1)^0,f,c
  5134   0017B6  322C               	rrcf	___fladd@b^0,f,c
  5135   0017B8  2A3A               	incf	___fladd@bexp^0,f,c
  5136   0017BA                     l969:
  5137   0017BA  5039               	movf	___fladd@aexp^0,w,c
  5138   0017BC  5C3A               	subwf	___fladd@bexp^0,w,c
  5139   0017BE  A0D8               	btfss	status,0,c
  5140   0017C0  EFE4  F00B         	goto	u2261
  5141   0017C4  EFE6  F00B         	goto	u2260
  5142   0017C8                     u2261:
  5143   0017C8  EFC0  F00B         	goto	l970
  5144   0017CC                     u2260:
  5145   0017CC                     l968:
  5146   0017CC  BC38               	btfsc	___fladd@signs^0,6,c
  5147   0017CE  EFEB  F00B         	goto	u2271
  5148   0017D2  EFED  F00B         	goto	u2270
  5149   0017D6                     u2271:
  5150   0017D6  EF2D  F00C         	goto	l2709
  5151   0017DA                     u2270:
  5152   0017DA  503A               	movf	___fladd@bexp^0,w,c
  5153   0017DC  A4D8               	btfss	status,2,c
  5154   0017DE  EFF3  F00B         	goto	u2281
  5155   0017E2  EFF5  F00B         	goto	u2280
  5156   0017E6                     u2281:
  5157   0017E6  EFFF  F00B         	goto	l2691
  5158   0017EA                     u2280:
  5159   0017EA  0E00               	movlw	0
  5160   0017EC  6E2C               	movwf	?___fladd^0,c
  5161   0017EE  0E00               	movlw	0
  5162   0017F0  6E2D               	movwf	(?___fladd+1)^0,c
  5163   0017F2  0E00               	movlw	0
  5164   0017F4  6E2E               	movwf	(?___fladd+2)^0,c
  5165   0017F6  0E00               	movlw	0
  5166   0017F8  6E2F               	movwf	(?___fladd+3)^0,c
  5167   0017FA  EF4E  F00D         	goto	l977
  5168   0017FE                     l2691:
  5169   0017FE  5030               	movf	___fladd@a^0,w,c
  5170   001800  262C               	addwf	___fladd@b^0,f,c
  5171   001802  5031               	movf	(___fladd@a+1)^0,w,c
  5172   001804  222D               	addwfc	(___fladd@b+1)^0,f,c
  5173   001806  5032               	movf	(___fladd@a+2)^0,w,c
  5174   001808  222E               	addwfc	(___fladd@b+2)^0,f,c
  5175   00180A  5033               	movf	(___fladd@a+3)^0,w,c
  5176   00180C  222F               	addwfc	(___fladd@b+3)^0,f,c
  5177   00180E  A02F               	btfss	(___fladd@b+3)^0,0,c
  5178   001810  EF0C  F00C         	goto	u2291
  5179   001814  EF0E  F00C         	goto	u2290
  5180   001818                     u2291:
  5181   001818  EFBA  F00C         	goto	l2745
  5182   00181C                     u2290:
  5183   00181C  A03B               	btfss	___fladd@grs^0,0,c
  5184   00181E  EF13  F00C         	goto	u2301
  5185   001822  EF15  F00C         	goto	u2300
  5186   001826                     u2301:
  5187   001826  EF1B  F00C         	goto	l2699
  5188   00182A                     u2300:
  5189   00182A  90D8               	bcf	status,0,c
  5190   00182C  303B               	rrcf	___fladd@grs^0,w,c
  5191   00182E  0901               	iorlw	1
  5192   001830  6E3B               	movwf	___fladd@grs^0,c
  5193   001832  EF1D  F00C         	goto	l2701
  5194   001836                     l2699:
  5195   001836  90D8               	bcf	status,0,c
  5196   001838  323B               	rrcf	___fladd@grs^0,f,c
  5197   00183A                     l2701:
  5198   00183A  A02C               	btfss	___fladd@b^0,0,c
  5199   00183C  EF22  F00C         	goto	u2311
  5200   001840  EF24  F00C         	goto	u2310
  5201   001844                     u2311:
  5202   001844  EF25  F00C         	goto	l2705
  5203   001848                     u2310:
  5204   001848  8E3B               	bsf	___fladd@grs^0,7,c
  5205   00184A                     l2705:
  5206   00184A  342F               	rlcf	(___fladd@b+3)^0,w,c
  5207   00184C  322F               	rrcf	(___fladd@b+3)^0,f,c
  5208   00184E  322E               	rrcf	(___fladd@b+2)^0,f,c
  5209   001850  322D               	rrcf	(___fladd@b+1)^0,f,c
  5210   001852  322C               	rrcf	___fladd@b^0,f,c
  5211   001854  2A3A               	incf	___fladd@bexp^0,f,c
  5212   001856  EFBA  F00C         	goto	l2745
  5213   00185A                     l2709:
  5214   00185A  5030               	movf	___fladd@a^0,w,c
  5215   00185C  5C2C               	subwf	___fladd@b^0,w,c
  5216   00185E  5031               	movf	(___fladd@a+1)^0,w,c
  5217   001860  582D               	subwfb	(___fladd@b+1)^0,w,c
  5218   001862  5032               	movf	(___fladd@a+2)^0,w,c
  5219   001864  582E               	subwfb	(___fladd@b+2)^0,w,c
  5220   001866  502F               	movf	(___fladd@b+3)^0,w,c
  5221   001868  0A80               	xorlw	128
  5222   00186A  6E34               	movwf	??___fladd^0,c
  5223   00186C  5033               	movf	(___fladd@a+3)^0,w,c
  5224   00186E  0A80               	xorlw	128
  5225   001870  5834               	subwfb	??___fladd^0,w,c
  5226   001872  B0D8               	btfsc	status,0,c
  5227   001874  EF3E  F00C         	goto	u2321
  5228   001878  EF40  F00C         	goto	u2320
  5229   00187C                     u2321:
  5230   00187C  EF6B  F00C         	goto	l2719
  5231   001880                     u2320:
  5232   001880  502C               	movf	___fladd@b^0,w,c
  5233   001882  5C30               	subwf	___fladd@a^0,w,c
  5234   001884  6E34               	movwf	??___fladd^0,c
  5235   001886  502D               	movf	(___fladd@b+1)^0,w,c
  5236   001888  5831               	subwfb	(___fladd@a+1)^0,w,c
  5237   00188A  6E35               	movwf	(??___fladd+1)^0,c
  5238   00188C  502E               	movf	(___fladd@b+2)^0,w,c
  5239   00188E  5832               	subwfb	(___fladd@a+2)^0,w,c
  5240   001890  6E36               	movwf	(??___fladd+2)^0,c
  5241   001892  502F               	movf	(___fladd@b+3)^0,w,c
  5242   001894  5833               	subwfb	(___fladd@a+3)^0,w,c
  5243   001896  6E37               	movwf	(??___fladd+3)^0,c
  5244   001898  0EFF               	movlw	255
  5245   00189A  2434               	addwf	??___fladd^0,w,c
  5246   00189C  6E2C               	movwf	___fladd@b^0,c
  5247   00189E  0EFF               	movlw	255
  5248   0018A0  2035               	addwfc	(??___fladd+1)^0,w,c
  5249   0018A2  6E2D               	movwf	(___fladd@b+1)^0,c
  5250   0018A4  0EFF               	movlw	255
  5251   0018A6  2036               	addwfc	(??___fladd+2)^0,w,c
  5252   0018A8  6E2E               	movwf	(___fladd@b+2)^0,c
  5253   0018AA  0EFF               	movlw	255
  5254   0018AC  2037               	addwfc	(??___fladd+3)^0,w,c
  5255   0018AE  6E2F               	movwf	(___fladd@b+3)^0,c
  5256   0018B0  0E80               	movlw	128
  5257   0018B2  1A38               	xorwf	___fladd@signs^0,f,c
  5258   0018B4  6C3B               	negf	___fladd@grs^0,c
  5259   0018B6  503B               	movf	___fladd@grs^0,w,c
  5260   0018B8  A4D8               	btfss	status,2,c
  5261   0018BA  EF61  F00C         	goto	u2331
  5262   0018BE  EF63  F00C         	goto	u2330
  5263   0018C2                     u2331:
  5264   0018C2  EF73  F00C         	goto	l985
  5265   0018C6                     u2330:
  5266   0018C6  0E01               	movlw	1
  5267   0018C8  262C               	addwf	___fladd@b^0,f,c
  5268   0018CA  0E00               	movlw	0
  5269   0018CC  222D               	addwfc	(___fladd@b+1)^0,f,c
  5270   0018CE  222E               	addwfc	(___fladd@b+2)^0,f,c
  5271   0018D0  222F               	addwfc	(___fladd@b+3)^0,f,c
  5272   0018D2  EF73  F00C         	goto	l985
  5273   0018D6                     l2719:
  5274   0018D6  5030               	movf	___fladd@a^0,w,c
  5275   0018D8  5E2C               	subwf	___fladd@b^0,f,c
  5276   0018DA  5031               	movf	(___fladd@a+1)^0,w,c
  5277   0018DC  5A2D               	subwfb	(___fladd@b+1)^0,f,c
  5278   0018DE  5032               	movf	(___fladd@a+2)^0,w,c
  5279   0018E0  5A2E               	subwfb	(___fladd@b+2)^0,f,c
  5280   0018E2  5033               	movf	(___fladd@a+3)^0,w,c
  5281   0018E4  5A2F               	subwfb	(___fladd@b+3)^0,f,c
  5282   0018E6                     l985:
  5283   0018E6  502C               	movf	___fladd@b^0,w,c
  5284   0018E8  102D               	iorwf	(___fladd@b+1)^0,w,c
  5285   0018EA  102E               	iorwf	(___fladd@b+2)^0,w,c
  5286   0018EC  102F               	iorwf	(___fladd@b+3)^0,w,c
  5287   0018EE  A4D8               	btfss	status,2,c
  5288   0018F0  EF7C  F00C         	goto	u2341
  5289   0018F4  EF7E  F00C         	goto	u2340
  5290   0018F8                     u2341:
  5291   0018F8  EFB3  F00C         	goto	l2743
  5292   0018FC                     u2340:
  5293   0018FC  503B               	movf	___fladd@grs^0,w,c
  5294   0018FE  A4D8               	btfss	status,2,c
  5295   001900  EF84  F00C         	goto	u2351
  5296   001904  EF86  F00C         	goto	u2350
  5297   001908                     u2351:
  5298   001908  EFB3  F00C         	goto	l2743
  5299   00190C                     u2350:
  5300   00190C  0E00               	movlw	0
  5301   00190E  6E2C               	movwf	?___fladd^0,c
  5302   001910  0E00               	movlw	0
  5303   001912  6E2D               	movwf	(?___fladd+1)^0,c
  5304   001914  0E00               	movlw	0
  5305   001916  6E2E               	movwf	(?___fladd+2)^0,c
  5306   001918  0E00               	movlw	0
  5307   00191A  6E2F               	movwf	(?___fladd+3)^0,c
  5308   00191C  EF4E  F00D         	goto	l977
  5309   001920                     l2727:
  5310   001920  90D8               	bcf	status,0,c
  5311   001922  362C               	rlcf	___fladd@b^0,f,c
  5312   001924  362D               	rlcf	(___fladd@b+1)^0,f,c
  5313   001926  362E               	rlcf	(___fladd@b+2)^0,f,c
  5314   001928  362F               	rlcf	(___fladd@b+3)^0,f,c
  5315   00192A  AE3B               	btfss	___fladd@grs^0,7,c
  5316   00192C  EF9A  F00C         	goto	u2361
  5317   001930  EF9C  F00C         	goto	u2360
  5318   001934                     u2361:
  5319   001934  EF9D  F00C         	goto	l2733
  5320   001938                     u2360:
  5321   001938  802C               	bsf	___fladd@b^0,0,c
  5322   00193A                     l2733:
  5323   00193A  A03B               	btfss	___fladd@grs^0,0,c
  5324   00193C  EFA2  F00C         	goto	u2371
  5325   001940  EFA4  F00C         	goto	u2370
  5326   001944                     u2371:
  5327   001944  EFA8  F00C         	goto	l2737
  5328   001948                     u2370:
  5329   001948  80D8               	bsf	status,0,c
  5330   00194A  363B               	rlcf	___fladd@grs^0,f,c
  5331   00194C  EFAA  F00C         	goto	l2739
  5332   001950                     l2737:
  5333   001950  90D8               	bcf	status,0,c
  5334   001952  363B               	rlcf	___fladd@grs^0,f,c
  5335   001954                     l2739:
  5336   001954  503A               	movf	___fladd@bexp^0,w,c
  5337   001956  B4D8               	btfsc	status,2,c
  5338   001958  EFB0  F00C         	goto	u2381
  5339   00195C  EFB2  F00C         	goto	u2380
  5340   001960                     u2381:
  5341   001960  EFB3  F00C         	goto	l2743
  5342   001964                     u2380:
  5343   001964  063A               	decf	___fladd@bexp^0,f,c
  5344   001966                     l2743:
  5345   001966  AE2E               	btfss	(___fladd@b+2)^0,7,c
  5346   001968  EFB8  F00C         	goto	u2391
  5347   00196C  EFBA  F00C         	goto	u2390
  5348   001970                     u2391:
  5349   001970  EF90  F00C         	goto	l2727
  5350   001974                     u2390:
  5351   001974                     l2745:
  5352   001974  0E00               	movlw	0
  5353   001976  6E39               	movwf	___fladd@aexp^0,c
  5354   001978  AE3B               	btfss	___fladd@grs^0,7,c
  5355   00197A  EFC1  F00C         	goto	u2401
  5356   00197E  EFC3  F00C         	goto	u2400
  5357   001982                     u2401:
  5358   001982  EFDB  F00C         	goto	l994
  5359   001986                     u2400:
  5360   001986  C03B  F034         	movff	___fladd@grs,??___fladd
  5361   00198A  0E7F               	movlw	127
  5362   00198C  1634               	andwf	??___fladd^0,f,c
  5363   00198E  B4D8               	btfsc	status,2,c
  5364   001990  EFCC  F00C         	goto	u2411
  5365   001994  EFCE  F00C         	goto	u2410
  5366   001998                     u2411:
  5367   001998  EFD2  F00C         	goto	l995
  5368   00199C                     u2410:
  5369   00199C                     l2751:
  5370   00199C  0E01               	movlw	1
  5371   00199E  6E39               	movwf	___fladd@aexp^0,c
  5372   0019A0  EFDB  F00C         	goto	l994
  5373   0019A4                     l995:
  5374   0019A4  A02C               	btfss	___fladd@b^0,0,c
  5375   0019A6  EFD7  F00C         	goto	u2421
  5376   0019AA  EFD9  F00C         	goto	u2420
  5377   0019AE                     u2421:
  5378   0019AE  EFDB  F00C         	goto	l994
  5379   0019B2                     u2420:
  5380   0019B2  EFCE  F00C         	goto	l2751
  5381   0019B6                     l994:
  5382   0019B6  5039               	movf	___fladd@aexp^0,w,c
  5383   0019B8  B4D8               	btfsc	status,2,c
  5384   0019BA  EFE1  F00C         	goto	u2431
  5385   0019BE  EFE3  F00C         	goto	u2430
  5386   0019C2                     u2431:
  5387   0019C2  EF0E  F00D         	goto	l2763
  5388   0019C6                     u2430:
  5389   0019C6  0E01               	movlw	1
  5390   0019C8  262C               	addwf	___fladd@b^0,f,c
  5391   0019CA  0E00               	movlw	0
  5392   0019CC  222D               	addwfc	(___fladd@b+1)^0,f,c
  5393   0019CE  222E               	addwfc	(___fladd@b+2)^0,f,c
  5394   0019D0  222F               	addwfc	(___fladd@b+3)^0,f,c
  5395   0019D2  A02F               	btfss	(___fladd@b+3)^0,0,c
  5396   0019D4  EFEE  F00C         	goto	u2441
  5397   0019D8  EFF0  F00C         	goto	u2440
  5398   0019DC                     u2441:
  5399   0019DC  EF0E  F00D         	goto	l2763
  5400   0019E0                     u2440:
  5401   0019E0  C02C  F034         	movff	___fladd@b,??___fladd
  5402   0019E4  C02D  F035         	movff	___fladd@b+1,??___fladd+1
  5403   0019E8  C02E  F036         	movff	___fladd@b+2,??___fladd+2
  5404   0019EC  C02F  F037         	movff	___fladd@b+3,??___fladd+3
  5405   0019F0  3437               	rlcf	(??___fladd+3)^0,w,c
  5406   0019F2  3237               	rrcf	(??___fladd+3)^0,f,c
  5407   0019F4  3236               	rrcf	(??___fladd+2)^0,f,c
  5408   0019F6  3235               	rrcf	(??___fladd+1)^0,f,c
  5409   0019F8  3234               	rrcf	??___fladd^0,f,c
  5410   0019FA  C034  F02C         	movff	??___fladd,___fladd@b
  5411   0019FE  C035  F02D         	movff	??___fladd+1,___fladd@b+1
  5412   001A02  C036  F02E         	movff	??___fladd+2,___fladd@b+2
  5413   001A06  C037  F02F         	movff	??___fladd+3,___fladd@b+3
  5414   001A0A  283A               	incf	___fladd@bexp^0,w,c
  5415   001A0C  B4D8               	btfsc	status,2,c
  5416   001A0E  EF0B  F00D         	goto	u2451
  5417   001A12  EF0D  F00D         	goto	u2450
  5418   001A16                     u2451:
  5419   001A16  EF0E  F00D         	goto	l2763
  5420   001A1A                     u2450:
  5421   001A1A  2A3A               	incf	___fladd@bexp^0,f,c
  5422   001A1C                     l2763:
  5423   001A1C  283A               	incf	___fladd@bexp^0,w,c
  5424   001A1E  B4D8               	btfsc	status,2,c
  5425   001A20  EF14  F00D         	goto	u2461
  5426   001A24  EF16  F00D         	goto	u2460
  5427   001A28                     u2461:
  5428   001A28  EF1E  F00D         	goto	l2767
  5429   001A2C                     u2460:
  5430   001A2C  503A               	movf	___fladd@bexp^0,w,c
  5431   001A2E  A4D8               	btfss	status,2,c
  5432   001A30  EF1C  F00D         	goto	u2471
  5433   001A34  EF1E  F00D         	goto	u2470
  5434   001A38                     u2471:
  5435   001A38  EF30  F00D         	goto	l2771
  5436   001A3C                     u2470:
  5437   001A3C                     l2767:
  5438   001A3C  0E00               	movlw	0
  5439   001A3E  6E2C               	movwf	___fladd@b^0,c
  5440   001A40  0E00               	movlw	0
  5441   001A42  6E2D               	movwf	(___fladd@b+1)^0,c
  5442   001A44  0E00               	movlw	0
  5443   001A46  6E2E               	movwf	(___fladd@b+2)^0,c
  5444   001A48  0E00               	movlw	0
  5445   001A4A  6E2F               	movwf	(___fladd@b+3)^0,c
  5446   001A4C  503A               	movf	___fladd@bexp^0,w,c
  5447   001A4E  A4D8               	btfss	status,2,c
  5448   001A50  EF2C  F00D         	goto	u2481
  5449   001A54  EF2E  F00D         	goto	u2480
  5450   001A58                     u2481:
  5451   001A58  EF30  F00D         	goto	l2771
  5452   001A5C                     u2480:
  5453   001A5C  0E00               	movlw	0
  5454   001A5E  6E38               	movwf	___fladd@signs^0,c
  5455   001A60                     l2771:
  5456   001A60  A03A               	btfss	___fladd@bexp^0,0,c
  5457   001A62  EF35  F00D         	goto	u2491
  5458   001A66  EF37  F00D         	goto	u2490
  5459   001A6A                     u2491:
  5460   001A6A  EF3A  F00D         	goto	l2775
  5461   001A6E                     u2490:
  5462   001A6E  8E2E               	bsf	(___fladd@b+2)^0,7,c
  5463   001A70  EF3B  F00D         	goto	l2777
  5464   001A74                     l2775:
  5465   001A74  9E2E               	bcf	(___fladd@b+2)^0,7,c
  5466   001A76                     l2777:
  5467   001A76  90D8               	bcf	status,0,c
  5468   001A78  303A               	rrcf	___fladd@bexp^0,w,c
  5469   001A7A  6E2F               	movwf	(___fladd@b+3)^0,c
  5470   001A7C  AE38               	btfss	___fladd@signs^0,7,c
  5471   001A7E  EF43  F00D         	goto	u2501
  5472   001A82  EF45  F00D         	goto	u2500
  5473   001A86                     u2501:
  5474   001A86  EF46  F00D         	goto	l2783
  5475   001A8A                     u2500:
  5476   001A8A  8E2F               	bsf	(___fladd@b+3)^0,7,c
  5477   001A8C                     l2783:
  5478   001A8C  C02C  F02C         	movff	___fladd@b,?___fladd
  5479   001A90  C02D  F02D         	movff	___fladd@b+1,?___fladd+1
  5480   001A94  C02E  F02E         	movff	___fladd@b+2,?___fladd+2
  5481   001A98  C02F  F02F         	movff	___fladd@b+3,?___fladd+3
  5482   001A9C                     l977:
  5483   001A9C  0012               	return		;funcret
  5484   001A9E                     __end_of___fladd:
  5485                           	callstack 0
  5486                           
  5487 ;; *************** function ___flmul *****************
  5488 ;; Defined at:
  5489 ;;		line 8 in file "C:\Program Files\Microchip\xc8\v2.40\pic\sources\c90\common\sprcmul.c"
  5490 ;; Parameters:    Size  Location     Type
  5491 ;;  b               4   18[COMRAM] unsigned char 
  5492 ;;  a               4   22[COMRAM] unsigned char 
  5493 ;; Auto vars:     Size  Location     Type
  5494 ;;  prod            4   37[COMRAM] struct .
  5495 ;;  grs             4   31[COMRAM] unsigned long 
  5496 ;;  temp            2   41[COMRAM] struct .
  5497 ;;  bexp            1   36[COMRAM] unsigned char 
  5498 ;;  aexp            1   35[COMRAM] unsigned char 
  5499 ;;  sign            1   30[COMRAM] unsigned char 
  5500 ;; Return value:  Size  Location     Type
  5501 ;;                  4   18[COMRAM] unsigned char 
  5502 ;; Registers used:
  5503 ;;		wreg, status,2, status,0, prodl, prodh
  5504 ;; Tracked objects:
  5505 ;;		On entry : 0/0
  5506 ;;		On exit  : 0/0
  5507 ;;		Unchanged: 0/0
  5508 ;; Data sizes:     COMRAM   BANK0   BANK1   BANK2   BANK3   BANK4   BANK5   BANK6   BANK7
  5509 ;;      Params:         8       0       0       0       0       0       0       0       0
  5510 ;;      Locals:        13       0       0       0       0       0       0       0       0
  5511 ;;      Temps:          4       0       0       0       0       0       0       0       0
  5512 ;;      Totals:        25       0       0       0       0       0       0       0       0
  5513 ;;Total ram usage:       25 bytes
  5514 ;; Hardware stack levels used: 1
  5515 ;; Hardware stack levels required when called: 1
  5516 ;; This function calls:
  5517 ;;		Nothing
  5518 ;; This function is called by:
  5519 ;;		_main
  5520 ;;		_twiddle_update
  5521 ;; This function uses a non-reentrant model
  5522 ;;
  5523                           
  5524                           	psect	text21
  5525   001A9E                     __ptext21:
  5526                           	callstack 0
  5527   001A9E                     ___flmul:
  5528                           	callstack 29
  5529   001A9E  5016               	movf	(___flmul@b+3)^0,w,c
  5530   001AA0  0B80               	andlw	128
  5531   001AA2  6E1F               	movwf	___flmul@sign^0,c
  5532   001AA4  5016               	movf	(___flmul@b+3)^0,w,c
  5533   001AA6  2416               	addwf	(___flmul@b+3)^0,w,c
  5534   001AA8  6E25               	movwf	___flmul@bexp^0,c
  5535   001AAA  AE15               	btfss	(___flmul@b+2)^0,7,c
  5536   001AAC  EF5A  F00D         	goto	u2751
  5537   001AB0  EF5C  F00D         	goto	u2750
  5538   001AB4                     u2751:
  5539   001AB4  EF5D  F00D         	goto	l3037
  5540   001AB8                     u2750:
  5541   001AB8  8025               	bsf	___flmul@bexp^0,0,c
  5542   001ABA                     l3037:
  5543   001ABA  5025               	movf	___flmul@bexp^0,w,c
  5544   001ABC  B4D8               	btfsc	status,2,c
  5545   001ABE  EF63  F00D         	goto	u2761
  5546   001AC2  EF65  F00D         	goto	u2760
  5547   001AC6                     u2761:
  5548   001AC6  EF78  F00D         	goto	l3045
  5549   001ACA                     u2760:
  5550   001ACA  2825               	incf	___flmul@bexp^0,w,c
  5551   001ACC  A4D8               	btfss	status,2,c
  5552   001ACE  EF6B  F00D         	goto	u2771
  5553   001AD2  EF6D  F00D         	goto	u2770
  5554   001AD6                     u2771:
  5555   001AD6  EF75  F00D         	goto	l3043
  5556   001ADA                     u2770:
  5557   001ADA  0E00               	movlw	0
  5558   001ADC  6E13               	movwf	___flmul@b^0,c
  5559   001ADE  0E00               	movlw	0
  5560   001AE0  6E14               	movwf	(___flmul@b+1)^0,c
  5561   001AE2  0E00               	movlw	0
  5562   001AE4  6E15               	movwf	(___flmul@b+2)^0,c
  5563   001AE6  0E00               	movlw	0
  5564   001AE8  6E16               	movwf	(___flmul@b+3)^0,c
  5565   001AEA                     l3043:
  5566   001AEA  8E15               	bsf	(___flmul@b+2)^0,7,c
  5567   001AEC  EF80  F00D         	goto	l3047
  5568   001AF0                     l3045:
  5569   001AF0  0E00               	movlw	0
  5570   001AF2  6E13               	movwf	___flmul@b^0,c
  5571   001AF4  0E00               	movlw	0
  5572   001AF6  6E14               	movwf	(___flmul@b+1)^0,c
  5573   001AF8  0E00               	movlw	0
  5574   001AFA  6E15               	movwf	(___flmul@b+2)^0,c
  5575   001AFC  0E00               	movlw	0
  5576   001AFE  6E16               	movwf	(___flmul@b+3)^0,c
  5577   001B00                     l3047:
  5578   001B00  501A               	movf	(___flmul@a+3)^0,w,c
  5579   001B02  0B80               	andlw	128
  5580   001B04  1A1F               	xorwf	___flmul@sign^0,f,c
  5581   001B06  501A               	movf	(___flmul@a+3)^0,w,c
  5582   001B08  241A               	addwf	(___flmul@a+3)^0,w,c
  5583   001B0A  6E24               	movwf	___flmul@aexp^0,c
  5584   001B0C  AE19               	btfss	(___flmul@a+2)^0,7,c
  5585   001B0E  EF8B  F00D         	goto	u2781
  5586   001B12  EF8D  F00D         	goto	u2780
  5587   001B16                     u2781:
  5588   001B16  EF8E  F00D         	goto	l3055
  5589   001B1A                     u2780:
  5590   001B1A  8024               	bsf	___flmul@aexp^0,0,c
  5591   001B1C                     l3055:
  5592   001B1C  5024               	movf	___flmul@aexp^0,w,c
  5593   001B1E  B4D8               	btfsc	status,2,c
  5594   001B20  EF94  F00D         	goto	u2791
  5595   001B24  EF96  F00D         	goto	u2790
  5596   001B28                     u2791:
  5597   001B28  EFA9  F00D         	goto	l3063
  5598   001B2C                     u2790:
  5599   001B2C  2824               	incf	___flmul@aexp^0,w,c
  5600   001B2E  A4D8               	btfss	status,2,c
  5601   001B30  EF9C  F00D         	goto	u2801
  5602   001B34  EF9E  F00D         	goto	u2800
  5603   001B38                     u2801:
  5604   001B38  EFA6  F00D         	goto	l3061
  5605   001B3C                     u2800:
  5606   001B3C  0E00               	movlw	0
  5607   001B3E  6E17               	movwf	___flmul@a^0,c
  5608   001B40  0E00               	movlw	0
  5609   001B42  6E18               	movwf	(___flmul@a+1)^0,c
  5610   001B44  0E00               	movlw	0
  5611   001B46  6E19               	movwf	(___flmul@a+2)^0,c
  5612   001B48  0E00               	movlw	0
  5613   001B4A  6E1A               	movwf	(___flmul@a+3)^0,c
  5614   001B4C                     l3061:
  5615   001B4C  8E19               	bsf	(___flmul@a+2)^0,7,c
  5616   001B4E  EFB1  F00D         	goto	l1054
  5617   001B52                     l3063:
  5618   001B52  0E00               	movlw	0
  5619   001B54  6E17               	movwf	___flmul@a^0,c
  5620   001B56  0E00               	movlw	0
  5621   001B58  6E18               	movwf	(___flmul@a+1)^0,c
  5622   001B5A  0E00               	movlw	0
  5623   001B5C  6E19               	movwf	(___flmul@a+2)^0,c
  5624   001B5E  0E00               	movlw	0
  5625   001B60  6E1A               	movwf	(___flmul@a+3)^0,c
  5626   001B62                     l1054:
  5627   001B62  5024               	movf	___flmul@aexp^0,w,c
  5628   001B64  B4D8               	btfsc	status,2,c
  5629   001B66  EFB7  F00D         	goto	u2811
  5630   001B6A  EFB9  F00D         	goto	u2810
  5631   001B6E                     u2811:
  5632   001B6E  EFC1  F00D         	goto	l3067
  5633   001B72                     u2810:
  5634   001B72  5025               	movf	___flmul@bexp^0,w,c
  5635   001B74  A4D8               	btfss	status,2,c
  5636   001B76  EFBF  F00D         	goto	u2821
  5637   001B7A  EFC1  F00D         	goto	u2820
  5638   001B7E                     u2821:
  5639   001B7E  EFCB  F00D         	goto	l3071
  5640   001B82                     u2820:
  5641   001B82                     l3067:
  5642   001B82  0E00               	movlw	0
  5643   001B84  6E13               	movwf	?___flmul^0,c
  5644   001B86  0E00               	movlw	0
  5645   001B88  6E14               	movwf	(?___flmul+1)^0,c
  5646   001B8A  0E00               	movlw	0
  5647   001B8C  6E15               	movwf	(?___flmul+2)^0,c
  5648   001B8E  0E00               	movlw	0
  5649   001B90  6E16               	movwf	(?___flmul+3)^0,c
  5650   001B92  EF63  F00F         	goto	l1058
  5651   001B96                     l3071:
  5652   001B96  5019               	movf	(___flmul@a+2)^0,w,c
  5653   001B98  0213               	mulwf	___flmul@b^0,c
  5654   001B9A  CFF3 F02A          	movff	prodl,___flmul@temp
  5655   001B9E  CFF4 F02B          	movff	prodh,___flmul@temp+1
  5656   001BA2  502A               	movf	___flmul@temp^0,w,c
  5657   001BA4  6E20               	movwf	___flmul@grs^0,c
  5658   001BA6  6A21               	clrf	(___flmul@grs+1)^0,c
  5659   001BA8  6A22               	clrf	(___flmul@grs+2)^0,c
  5660   001BAA  6A23               	clrf	(___flmul@grs+3)^0,c
  5661   001BAC  502B               	movf	(___flmul@temp+1)^0,w,c
  5662   001BAE  6E26               	movwf	___flmul@prod^0,c
  5663   001BB0  6A27               	clrf	(___flmul@prod+1)^0,c
  5664   001BB2  6A28               	clrf	(___flmul@prod+2)^0,c
  5665   001BB4  6A29               	clrf	(___flmul@prod+3)^0,c
  5666   001BB6  5018               	movf	(___flmul@a+1)^0,w,c
  5667   001BB8  0214               	mulwf	(___flmul@b+1)^0,c
  5668   001BBA  CFF3 F02A          	movff	prodl,___flmul@temp
  5669   001BBE  CFF4 F02B          	movff	prodh,___flmul@temp+1
  5670   001BC2  502A               	movf	___flmul@temp^0,w,c
  5671   001BC4  2620               	addwf	___flmul@grs^0,f,c
  5672   001BC6  0E00               	movlw	0
  5673   001BC8  2221               	addwfc	(___flmul@grs+1)^0,f,c
  5674   001BCA  2222               	addwfc	(___flmul@grs+2)^0,f,c
  5675   001BCC  2223               	addwfc	(___flmul@grs+3)^0,f,c
  5676   001BCE  502B               	movf	(___flmul@temp+1)^0,w,c
  5677   001BD0  2626               	addwf	___flmul@prod^0,f,c
  5678   001BD2  0E00               	movlw	0
  5679   001BD4  2227               	addwfc	(___flmul@prod+1)^0,f,c
  5680   001BD6  2228               	addwfc	(___flmul@prod+2)^0,f,c
  5681   001BD8  2229               	addwfc	(___flmul@prod+3)^0,f,c
  5682   001BDA  5017               	movf	___flmul@a^0,w,c
  5683   001BDC  0215               	mulwf	(___flmul@b+2)^0,c
  5684   001BDE  CFF3 F02A          	movff	prodl,___flmul@temp
  5685   001BE2  CFF4 F02B          	movff	prodh,___flmul@temp+1
  5686   001BE6  502A               	movf	___flmul@temp^0,w,c
  5687   001BE8  2620               	addwf	___flmul@grs^0,f,c
  5688   001BEA  0E00               	movlw	0
  5689   001BEC  2221               	addwfc	(___flmul@grs+1)^0,f,c
  5690   001BEE  2222               	addwfc	(___flmul@grs+2)^0,f,c
  5691   001BF0  2223               	addwfc	(___flmul@grs+3)^0,f,c
  5692   001BF2  502B               	movf	(___flmul@temp+1)^0,w,c
  5693   001BF4  2626               	addwf	___flmul@prod^0,f,c
  5694   001BF6  0E00               	movlw	0
  5695   001BF8  2227               	addwfc	(___flmul@prod+1)^0,f,c
  5696   001BFA  2228               	addwfc	(___flmul@prod+2)^0,f,c
  5697   001BFC  2229               	addwfc	(___flmul@prod+3)^0,f,c
  5698   001BFE  C022  F023         	movff	___flmul@grs+2,___flmul@grs+3
  5699   001C02  C021  F022         	movff	___flmul@grs+1,___flmul@grs+2
  5700   001C06  C020  F021         	movff	___flmul@grs,___flmul@grs+1
  5701   001C0A  6A20               	clrf	___flmul@grs^0,c
  5702   001C0C  5017               	movf	___flmul@a^0,w,c
  5703   001C0E  0214               	mulwf	(___flmul@b+1)^0,c
  5704   001C10  CFF3 F02A          	movff	prodl,___flmul@temp
  5705   001C14  CFF4 F02B          	movff	prodh,___flmul@temp+1
  5706   001C18  502A               	movf	___flmul@temp^0,w,c
  5707   001C1A  2620               	addwf	___flmul@grs^0,f,c
  5708   001C1C  502B               	movf	(___flmul@temp+1)^0,w,c
  5709   001C1E  2221               	addwfc	(___flmul@grs+1)^0,f,c
  5710   001C20  0E00               	movlw	0
  5711   001C22  2222               	addwfc	(___flmul@grs+2)^0,f,c
  5712   001C24  0E00               	movlw	0
  5713   001C26  2223               	addwfc	(___flmul@grs+3)^0,f,c
  5714   001C28  5018               	movf	(___flmul@a+1)^0,w,c
  5715   001C2A  0213               	mulwf	___flmul@b^0,c
  5716   001C2C  CFF3 F02A          	movff	prodl,___flmul@temp
  5717   001C30  CFF4 F02B          	movff	prodh,___flmul@temp+1
  5718   001C34  502A               	movf	___flmul@temp^0,w,c
  5719   001C36  2620               	addwf	___flmul@grs^0,f,c
  5720   001C38  502B               	movf	(___flmul@temp+1)^0,w,c
  5721   001C3A  2221               	addwfc	(___flmul@grs+1)^0,f,c
  5722   001C3C  0E00               	movlw	0
  5723   001C3E  2222               	addwfc	(___flmul@grs+2)^0,f,c
  5724   001C40  0E00               	movlw	0
  5725   001C42  2223               	addwfc	(___flmul@grs+3)^0,f,c
  5726   001C44  C022  F023         	movff	___flmul@grs+2,___flmul@grs+3
  5727   001C48  C021  F022         	movff	___flmul@grs+1,___flmul@grs+2
  5728   001C4C  C020  F021         	movff	___flmul@grs,___flmul@grs+1
  5729   001C50  6A20               	clrf	___flmul@grs^0,c
  5730   001C52  5017               	movf	___flmul@a^0,w,c
  5731   001C54  0213               	mulwf	___flmul@b^0,c
  5732   001C56  CFF3 F02A          	movff	prodl,___flmul@temp
  5733   001C5A  CFF4 F02B          	movff	prodh,___flmul@temp+1
  5734   001C5E  502A               	movf	___flmul@temp^0,w,c
  5735   001C60  2620               	addwf	___flmul@grs^0,f,c
  5736   001C62  502B               	movf	(___flmul@temp+1)^0,w,c
  5737   001C64  2221               	addwfc	(___flmul@grs+1)^0,f,c
  5738   001C66  0E00               	movlw	0
  5739   001C68  2222               	addwfc	(___flmul@grs+2)^0,f,c
  5740   001C6A  0E00               	movlw	0
  5741   001C6C  2223               	addwfc	(___flmul@grs+3)^0,f,c
  5742   001C6E  5019               	movf	(___flmul@a+2)^0,w,c
  5743   001C70  0214               	mulwf	(___flmul@b+1)^0,c
  5744   001C72  CFF3 F02A          	movff	prodl,___flmul@temp
  5745   001C76  CFF4 F02B          	movff	prodh,___flmul@temp+1
  5746   001C7A  502A               	movf	___flmul@temp^0,w,c
  5747   001C7C  2626               	addwf	___flmul@prod^0,f,c
  5748   001C7E  502B               	movf	(___flmul@temp+1)^0,w,c
  5749   001C80  2227               	addwfc	(___flmul@prod+1)^0,f,c
  5750   001C82  0E00               	movlw	0
  5751   001C84  2228               	addwfc	(___flmul@prod+2)^0,f,c
  5752   001C86  0E00               	movlw	0
  5753   001C88  2229               	addwfc	(___flmul@prod+3)^0,f,c
  5754   001C8A  5018               	movf	(___flmul@a+1)^0,w,c
  5755   001C8C  0215               	mulwf	(___flmul@b+2)^0,c
  5756   001C8E  CFF3 F02A          	movff	prodl,___flmul@temp
  5757   001C92  CFF4 F02B          	movff	prodh,___flmul@temp+1
  5758   001C96  502A               	movf	___flmul@temp^0,w,c
  5759   001C98  2626               	addwf	___flmul@prod^0,f,c
  5760   001C9A  502B               	movf	(___flmul@temp+1)^0,w,c
  5761   001C9C  2227               	addwfc	(___flmul@prod+1)^0,f,c
  5762   001C9E  0E00               	movlw	0
  5763   001CA0  2228               	addwfc	(___flmul@prod+2)^0,f,c
  5764   001CA2  0E00               	movlw	0
  5765   001CA4  2229               	addwfc	(___flmul@prod+3)^0,f,c
  5766   001CA6  5019               	movf	(___flmul@a+2)^0,w,c
  5767   001CA8  0215               	mulwf	(___flmul@b+2)^0,c
  5768   001CAA  CFF3 F02A          	movff	prodl,___flmul@temp
  5769   001CAE  CFF4 F02B          	movff	prodh,___flmul@temp+1
  5770   001CB2  502A               	movf	___flmul@temp^0,w,c
  5771   001CB4  6E1B               	movwf	??___flmul^0,c
  5772   001CB6  502B               	movf	(___flmul@temp+1)^0,w,c
  5773   001CB8  6E1C               	movwf	(??___flmul+1)^0,c
  5774   001CBA  6A1D               	clrf	(??___flmul+2)^0,c
  5775   001CBC  6A1E               	clrf	(??___flmul+3)^0,c
  5776   001CBE  C01D  F01E         	movff	??___flmul+2,??___flmul+3
  5777   001CC2  C01C  F01D         	movff	??___flmul+1,??___flmul+2
  5778   001CC6  C01B  F01C         	movff	??___flmul,??___flmul+1
  5779   001CCA  6A1B               	clrf	??___flmul^0,c
  5780   001CCC  501B               	movf	??___flmul^0,w,c
  5781   001CCE  2626               	addwf	___flmul@prod^0,f,c
  5782   001CD0  501C               	movf	(??___flmul+1)^0,w,c
  5783   001CD2  2227               	addwfc	(___flmul@prod+1)^0,f,c
  5784   001CD4  501D               	movf	(??___flmul+2)^0,w,c
  5785   001CD6  2228               	addwfc	(___flmul@prod+2)^0,f,c
  5786   001CD8  501E               	movf	(??___flmul+3)^0,w,c
  5787   001CDA  2229               	addwfc	(___flmul@prod+3)^0,f,c
  5788   001CDC  C020  F01B         	movff	___flmul@grs,??___flmul
  5789   001CE0  C021  F01C         	movff	___flmul@grs+1,??___flmul+1
  5790   001CE4  C022  F01D         	movff	___flmul@grs+2,??___flmul+2
  5791   001CE8  C023  F01E         	movff	___flmul@grs+3,??___flmul+3
  5792   001CEC  0E19               	movlw	25
  5793   001CEE  EF7E  F00E         	goto	u2830
  5794   001CF2                     u2835:
  5795   001CF2  90D8               	bcf	status,0,c
  5796   001CF4  321E               	rrcf	(??___flmul+3)^0,f,c
  5797   001CF6  321D               	rrcf	(??___flmul+2)^0,f,c
  5798   001CF8  321C               	rrcf	(??___flmul+1)^0,f,c
  5799   001CFA  321B               	rrcf	??___flmul^0,f,c
  5800   001CFC                     u2830:
  5801   001CFC  2EE8               	decfsz	wreg,f,c
  5802   001CFE  EF79  F00E         	goto	u2835
  5803   001D02  501B               	movf	??___flmul^0,w,c
  5804   001D04  2626               	addwf	___flmul@prod^0,f,c
  5805   001D06  501C               	movf	(??___flmul+1)^0,w,c
  5806   001D08  2227               	addwfc	(___flmul@prod+1)^0,f,c
  5807   001D0A  501D               	movf	(??___flmul+2)^0,w,c
  5808   001D0C  2228               	addwfc	(___flmul@prod+2)^0,f,c
  5809   001D0E  501E               	movf	(??___flmul+3)^0,w,c
  5810   001D10  2229               	addwfc	(___flmul@prod+3)^0,f,c
  5811   001D12  C022  F023         	movff	___flmul@grs+2,___flmul@grs+3
  5812   001D16  C021  F022         	movff	___flmul@grs+1,___flmul@grs+2
  5813   001D1A  C020  F021         	movff	___flmul@grs,___flmul@grs+1
  5814   001D1E  6A20               	clrf	___flmul@grs^0,c
  5815   001D20  5024               	movf	___flmul@aexp^0,w,c
  5816   001D22  C025  F01B         	movff	___flmul@bexp,??___flmul
  5817   001D26  6A1C               	clrf	(??___flmul+1)^0,c
  5818   001D28  261B               	addwf	??___flmul^0,f,c
  5819   001D2A  0E00               	movlw	0
  5820   001D2C  221C               	addwfc	(??___flmul+1)^0,f,c
  5821   001D2E  0E82               	movlw	130
  5822   001D30  241B               	addwf	??___flmul^0,w,c
  5823   001D32  6E2A               	movwf	___flmul@temp^0,c
  5824   001D34  0EFF               	movlw	255
  5825   001D36  201C               	addwfc	(??___flmul+1)^0,w,c
  5826   001D38  6E2B               	movwf	(___flmul@temp+1)^0,c
  5827   001D3A  EFB4  F00E         	goto	l3119
  5828   001D3E                     l3113:
  5829   001D3E  90D8               	bcf	status,0,c
  5830   001D40  3626               	rlcf	___flmul@prod^0,f,c
  5831   001D42  3627               	rlcf	(___flmul@prod+1)^0,f,c
  5832   001D44  3628               	rlcf	(___flmul@prod+2)^0,f,c
  5833   001D46  3629               	rlcf	(___flmul@prod+3)^0,f,c
  5834   001D48  AE23               	btfss	(___flmul@grs+3)^0,7,c
  5835   001D4A  EFA9  F00E         	goto	u2841
  5836   001D4E  EFAB  F00E         	goto	u2840
  5837   001D52                     u2841:
  5838   001D52  EFAC  F00E         	goto	l1061
  5839   001D56                     u2840:
  5840   001D56  8026               	bsf	___flmul@prod^0,0,c
  5841   001D58                     l1061:
  5842   001D58  90D8               	bcf	status,0,c
  5843   001D5A  3620               	rlcf	___flmul@grs^0,f,c
  5844   001D5C  3621               	rlcf	(___flmul@grs+1)^0,f,c
  5845   001D5E  3622               	rlcf	(___flmul@grs+2)^0,f,c
  5846   001D60  3623               	rlcf	(___flmul@grs+3)^0,f,c
  5847   001D62  062A               	decf	___flmul@temp^0,f,c
  5848   001D64  A0D8               	btfss	status,0,c
  5849   001D66  062B               	decf	(___flmul@temp+1)^0,f,c
  5850   001D68                     l3119:
  5851   001D68  AE28               	btfss	(___flmul@prod+2)^0,7,c
  5852   001D6A  EFB9  F00E         	goto	u2851
  5853   001D6E  EFBB  F00E         	goto	u2850
  5854   001D72                     u2851:
  5855   001D72  EF9F  F00E         	goto	l3113
  5856   001D76                     u2850:
  5857   001D76  0E00               	movlw	0
  5858   001D78  6E24               	movwf	___flmul@aexp^0,c
  5859   001D7A  AE23               	btfss	(___flmul@grs+3)^0,7,c
  5860   001D7C  EFC2  F00E         	goto	u2861
  5861   001D80  EFC4  F00E         	goto	u2860
  5862   001D84                     u2861:
  5863   001D84  EFE8  F00E         	goto	l1063
  5864   001D88                     u2860:
  5865   001D88  0EFF               	movlw	255
  5866   001D8A  1420               	andwf	___flmul@grs^0,w,c
  5867   001D8C  6E1B               	movwf	??___flmul^0,c
  5868   001D8E  0EFF               	movlw	255
  5869   001D90  1421               	andwf	(___flmul@grs+1)^0,w,c
  5870   001D92  6E1C               	movwf	(??___flmul+1)^0,c
  5871   001D94  0EFF               	movlw	255
  5872   001D96  1422               	andwf	(___flmul@grs+2)^0,w,c
  5873   001D98  6E1D               	movwf	(??___flmul+2)^0,c
  5874   001D9A  0E7F               	movlw	127
  5875   001D9C  1423               	andwf	(___flmul@grs+3)^0,w,c
  5876   001D9E  6E1E               	movwf	(??___flmul+3)^0,c
  5877   001DA0  501B               	movf	??___flmul^0,w,c
  5878   001DA2  101C               	iorwf	(??___flmul+1)^0,w,c
  5879   001DA4  101D               	iorwf	(??___flmul+2)^0,w,c
  5880   001DA6  101E               	iorwf	(??___flmul+3)^0,w,c
  5881   001DA8  B4D8               	btfsc	status,2,c
  5882   001DAA  EFD9  F00E         	goto	u2871
  5883   001DAE  EFDB  F00E         	goto	u2870
  5884   001DB2                     u2871:
  5885   001DB2  EFDF  F00E         	goto	l1064
  5886   001DB6                     u2870:
  5887   001DB6                     l3127:
  5888   001DB6  0E01               	movlw	1
  5889   001DB8  6E24               	movwf	___flmul@aexp^0,c
  5890   001DBA  EFE8  F00E         	goto	l1063
  5891   001DBE                     l1064:
  5892   001DBE  A026               	btfss	___flmul@prod^0,0,c
  5893   001DC0  EFE4  F00E         	goto	u2881
  5894   001DC4  EFE6  F00E         	goto	u2880
  5895   001DC8                     u2881:
  5896   001DC8  EFE8  F00E         	goto	l1063
  5897   001DCC                     u2880:
  5898   001DCC  EFDB  F00E         	goto	l3127
  5899   001DD0                     l1063:
  5900   001DD0  5024               	movf	___flmul@aexp^0,w,c
  5901   001DD2  B4D8               	btfsc	status,2,c
  5902   001DD4  EFEE  F00E         	goto	u2891
  5903   001DD8  EFF0  F00E         	goto	u2890
  5904   001DDC                     u2891:
  5905   001DDC  EF14  F00F         	goto	l3139
  5906   001DE0                     u2890:
  5907   001DE0  0E01               	movlw	1
  5908   001DE2  2626               	addwf	___flmul@prod^0,f,c
  5909   001DE4  0E00               	movlw	0
  5910   001DE6  2227               	addwfc	(___flmul@prod+1)^0,f,c
  5911   001DE8  2228               	addwfc	(___flmul@prod+2)^0,f,c
  5912   001DEA  2229               	addwfc	(___flmul@prod+3)^0,f,c
  5913   001DEC  A029               	btfss	(___flmul@prod+3)^0,0,c
  5914   001DEE  EFFB  F00E         	goto	u2901
  5915   001DF2  EFFD  F00E         	goto	u2900
  5916   001DF6                     u2901:
  5917   001DF6  EF14  F00F         	goto	l3139
  5918   001DFA                     u2900:
  5919   001DFA  C026  F01B         	movff	___flmul@prod,??___flmul
  5920   001DFE  C027  F01C         	movff	___flmul@prod+1,??___flmul+1
  5921   001E02  C028  F01D         	movff	___flmul@prod+2,??___flmul+2
  5922   001E06  C029  F01E         	movff	___flmul@prod+3,??___flmul+3
  5923   001E0A  341E               	rlcf	(??___flmul+3)^0,w,c
  5924   001E0C  321E               	rrcf	(??___flmul+3)^0,f,c
  5925   001E0E  321D               	rrcf	(??___flmul+2)^0,f,c
  5926   001E10  321C               	rrcf	(??___flmul+1)^0,f,c
  5927   001E12  321B               	rrcf	??___flmul^0,f,c
  5928   001E14  C01B  F026         	movff	??___flmul,___flmul@prod
  5929   001E18  C01C  F027         	movff	??___flmul+1,___flmul@prod+1
  5930   001E1C  C01D  F028         	movff	??___flmul+2,___flmul@prod+2
  5931   001E20  C01E  F029         	movff	??___flmul+3,___flmul@prod+3
  5932   001E24  4A2A               	infsnz	___flmul@temp^0,f,c
  5933   001E26  2A2B               	incf	(___flmul@temp+1)^0,f,c
  5934   001E28                     l3139:
  5935   001E28  BE2B               	btfsc	(___flmul@temp+1)^0,7,c
  5936   001E2A  EF1F  F00F         	goto	u2911
  5937   001E2E  502B               	movf	(___flmul@temp+1)^0,w,c
  5938   001E30  E108               	bnz	u2910
  5939   001E32  282A               	incf	___flmul@temp^0,w,c
  5940   001E34  A0D8               	btfss	status,0,c
  5941   001E36  EF1F  F00F         	goto	u2911
  5942   001E3A  EF21  F00F         	goto	u2910
  5943   001E3E                     u2911:
  5944   001E3E  EF2B  F00F         	goto	l3143
  5945   001E42                     u2910:
  5946   001E42  0E00               	movlw	0
  5947   001E44  6E26               	movwf	___flmul@prod^0,c
  5948   001E46  0E00               	movlw	0
  5949   001E48  6E27               	movwf	(___flmul@prod+1)^0,c
  5950   001E4A  0E80               	movlw	128
  5951   001E4C  6E28               	movwf	(___flmul@prod+2)^0,c
  5952   001E4E  0E7F               	movlw	127
  5953   001E50  6E29               	movwf	(___flmul@prod+3)^0,c
  5954   001E52  EF59  F00F         	goto	l3155
  5955   001E56                     l3143:
  5956   001E56  BE2B               	btfsc	(___flmul@temp+1)^0,7,c
  5957   001E58  EF38  F00F         	goto	u2920
  5958   001E5C  502B               	movf	(___flmul@temp+1)^0,w,c
  5959   001E5E  E106               	bnz	u2921
  5960   001E60  042A               	decf	___flmul@temp^0,w,c
  5961   001E62  B0D8               	btfsc	status,0,c
  5962   001E64  EF36  F00F         	goto	u2921
  5963   001E68  EF38  F00F         	goto	u2920
  5964   001E6C                     u2921:
  5965   001E6C  EF44  F00F         	goto	l1071
  5966   001E70                     u2920:
  5967   001E70  0E00               	movlw	0
  5968   001E72  6E26               	movwf	___flmul@prod^0,c
  5969   001E74  0E00               	movlw	0
  5970   001E76  6E27               	movwf	(___flmul@prod+1)^0,c
  5971   001E78  0E00               	movlw	0
  5972   001E7A  6E28               	movwf	(___flmul@prod+2)^0,c
  5973   001E7C  0E00               	movlw	0
  5974   001E7E  6E29               	movwf	(___flmul@prod+3)^0,c
  5975   001E80  0E00               	movlw	0
  5976   001E82  6E1F               	movwf	___flmul@sign^0,c
  5977   001E84  EF59  F00F         	goto	l3155
  5978   001E88                     l1071:
  5979   001E88  C02A  F025         	movff	___flmul@temp,___flmul@bexp
  5980   001E8C  0EFF               	movlw	255
  5981   001E8E  1626               	andwf	___flmul@prod^0,f,c
  5982   001E90  0EFF               	movlw	255
  5983   001E92  1627               	andwf	(___flmul@prod+1)^0,f,c
  5984   001E94  0E7F               	movlw	127
  5985   001E96  1628               	andwf	(___flmul@prod+2)^0,f,c
  5986   001E98  0E00               	movlw	0
  5987   001E9A  1629               	andwf	(___flmul@prod+3)^0,f,c
  5988   001E9C  A025               	btfss	___flmul@bexp^0,0,c
  5989   001E9E  EF53  F00F         	goto	u2931
  5990   001EA2  EF55  F00F         	goto	u2930
  5991   001EA6                     u2931:
  5992   001EA6  EF56  F00F         	goto	l3153
  5993   001EAA                     u2930:
  5994   001EAA  8E28               	bsf	(___flmul@prod+2)^0,7,c
  5995   001EAC                     l3153:
  5996   001EAC  90D8               	bcf	status,0,c
  5997   001EAE  3025               	rrcf	___flmul@bexp^0,w,c
  5998   001EB0  6E29               	movwf	(___flmul@prod+3)^0,c
  5999   001EB2                     l3155:
  6000   001EB2  501F               	movf	___flmul@sign^0,w,c
  6001   001EB4  1229               	iorwf	(___flmul@prod+3)^0,f,c
  6002   001EB6  C026  F013         	movff	___flmul@prod,?___flmul
  6003   001EBA  C027  F014         	movff	___flmul@prod+1,?___flmul+1
  6004   001EBE  C028  F015         	movff	___flmul@prod+2,?___flmul+2
  6005   001EC2  C029  F016         	movff	___flmul@prod+3,?___flmul+3
  6006   001EC6                     l1058:
  6007   001EC6  0012               	return		;funcret
  6008   001EC8                     __end_of___flmul:
  6009                           	callstack 0
  6010                           
  6011 ;; *************** function ___flge *****************
  6012 ;; Defined at:
  6013 ;;		line 4 in file "C:\Program Files\Microchip\xc8\v2.40\pic\sources\c90\common\flge.c"
  6014 ;; Parameters:    Size  Location     Type
  6015 ;;  ff1             4    4[COMRAM] unsigned char 
  6016 ;;  ff2             4    8[COMRAM] unsigned char 
  6017 ;; Auto vars:     Size  Location     Type
  6018 ;;		None
  6019 ;; Return value:  Size  Location     Type
  6020 ;;		None               void
  6021 ;; Registers used:
  6022 ;;		wreg, status,2, status,0
  6023 ;; Tracked objects:
  6024 ;;		On entry : 0/0
  6025 ;;		On exit  : 0/0
  6026 ;;		Unchanged: 0/0
  6027 ;; Data sizes:     COMRAM   BANK0   BANK1   BANK2   BANK3   BANK4   BANK5   BANK6   BANK7
  6028 ;;      Params:         8       0       0       0       0       0       0       0       0
  6029 ;;      Locals:         0       0       0       0       0       0       0       0       0
  6030 ;;      Temps:          4       0       0       0       0       0       0       0       0
  6031 ;;      Totals:        12       0       0       0       0       0       0       0       0
  6032 ;;Total ram usage:       12 bytes
  6033 ;; Hardware stack levels used: 1
  6034 ;; Hardware stack levels required when called: 1
  6035 ;; This function calls:
  6036 ;;		Nothing
  6037 ;; This function is called by:
  6038 ;;		_main
  6039 ;; This function uses a non-reentrant model
  6040 ;;
  6041                           
  6042                           	psect	text22
  6043   00259C                     __ptext22:
  6044                           	callstack 0
  6045   00259C                     ___flge:
  6046                           	callstack 29
  6047   00259C  0E00               	movlw	0
  6048   00259E  1405               	andwf	___flge@ff1^0,w,c
  6049   0025A0  6E0D               	movwf	??___flge^0,c
  6050   0025A2  0E00               	movlw	0
  6051   0025A4  1406               	andwf	(___flge@ff1+1)^0,w,c
  6052   0025A6  6E0E               	movwf	(??___flge+1)^0,c
  6053   0025A8  0E80               	movlw	128
  6054   0025AA  1407               	andwf	(___flge@ff1+2)^0,w,c
  6055   0025AC  6E0F               	movwf	(??___flge+2)^0,c
  6056   0025AE  0E7F               	movlw	127
  6057   0025B0  1408               	andwf	(___flge@ff1+3)^0,w,c
  6058   0025B2  6E10               	movwf	(??___flge+3)^0,c
  6059   0025B4  500D               	movf	??___flge^0,w,c
  6060   0025B6  100E               	iorwf	(??___flge+1)^0,w,c
  6061   0025B8  100F               	iorwf	(??___flge+2)^0,w,c
  6062   0025BA  1010               	iorwf	(??___flge+3)^0,w,c
  6063   0025BC  A4D8               	btfss	status,2,c
  6064   0025BE  EFE3  F012         	goto	u2941
  6065   0025C2  EFE5  F012         	goto	u2940
  6066   0025C6                     u2941:
  6067   0025C6  EFED  F012         	goto	l3171
  6068   0025CA                     u2940:
  6069   0025CA  0E00               	movlw	0
  6070   0025CC  6E05               	movwf	___flge@ff1^0,c
  6071   0025CE  0E00               	movlw	0
  6072   0025D0  6E06               	movwf	(___flge@ff1+1)^0,c
  6073   0025D2  0E00               	movlw	0
  6074   0025D4  6E07               	movwf	(___flge@ff1+2)^0,c
  6075   0025D6  0E00               	movlw	0
  6076   0025D8  6E08               	movwf	(___flge@ff1+3)^0,c
  6077   0025DA                     l3171:
  6078   0025DA  0E00               	movlw	0
  6079   0025DC  1409               	andwf	___flge@ff2^0,w,c
  6080   0025DE  6E0D               	movwf	??___flge^0,c
  6081   0025E0  0E00               	movlw	0
  6082   0025E2  140A               	andwf	(___flge@ff2+1)^0,w,c
  6083   0025E4  6E0E               	movwf	(??___flge+1)^0,c
  6084   0025E6  0E80               	movlw	128
  6085   0025E8  140B               	andwf	(___flge@ff2+2)^0,w,c
  6086   0025EA  6E0F               	movwf	(??___flge+2)^0,c
  6087   0025EC  0E7F               	movlw	127
  6088   0025EE  140C               	andwf	(___flge@ff2+3)^0,w,c
  6089   0025F0  6E10               	movwf	(??___flge+3)^0,c
  6090   0025F2  500D               	movf	??___flge^0,w,c
  6091   0025F4  100E               	iorwf	(??___flge+1)^0,w,c
  6092   0025F6  100F               	iorwf	(??___flge+2)^0,w,c
  6093   0025F8  1010               	iorwf	(??___flge+3)^0,w,c
  6094   0025FA  A4D8               	btfss	status,2,c
  6095   0025FC  EF02  F013         	goto	u2951
  6096   002600  EF04  F013         	goto	u2950
  6097   002604                     u2951:
  6098   002604  EF0C  F013         	goto	l3175
  6099   002608                     u2950:
  6100   002608  0E00               	movlw	0
  6101   00260A  6E09               	movwf	___flge@ff2^0,c
  6102   00260C  0E00               	movlw	0
  6103   00260E  6E0A               	movwf	(___flge@ff2+1)^0,c
  6104   002610  0E00               	movlw	0
  6105   002612  6E0B               	movwf	(___flge@ff2+2)^0,c
  6106   002614  0E00               	movlw	0
  6107   002616  6E0C               	movwf	(___flge@ff2+3)^0,c
  6108   002618                     l3175:
  6109   002618  AE08               	btfss	(___flge@ff1+3)^0,7,c
  6110   00261A  EF11  F013         	goto	u2961
  6111   00261E  EF13  F013         	goto	u2960
  6112   002622                     u2961:
  6113   002622  EF1C  F013         	goto	l3179
  6114   002626                     u2960:
  6115   002626  6C05               	negf	___flge@ff1^0,c
  6116   002628  1E06               	comf	(___flge@ff1+1)^0,f,c
  6117   00262A  B0D8               	btfsc	status,0,c
  6118   00262C  2A06               	incf	(___flge@ff1+1)^0,f,c
  6119   00262E  1E07               	comf	(___flge@ff1+2)^0,f,c
  6120   002630  B0D8               	btfsc	status,0,c
  6121   002632  2A07               	incf	(___flge@ff1+2)^0,f,c
  6122   002634  0E80               	movlw	128
  6123   002636  5608               	subfwb	(___flge@ff1+3)^0,f,c
  6124   002638                     l3179:
  6125   002638  AE0C               	btfss	(___flge@ff2+3)^0,7,c
  6126   00263A  EF21  F013         	goto	u2971
  6127   00263E  EF23  F013         	goto	u2970
  6128   002642                     u2971:
  6129   002642  EF2C  F013         	goto	l713
  6130   002646                     u2970:
  6131   002646  6C09               	negf	___flge@ff2^0,c
  6132   002648  1E0A               	comf	(___flge@ff2+1)^0,f,c
  6133   00264A  B0D8               	btfsc	status,0,c
  6134   00264C  2A0A               	incf	(___flge@ff2+1)^0,f,c
  6135   00264E  1E0B               	comf	(___flge@ff2+2)^0,f,c
  6136   002650  B0D8               	btfsc	status,0,c
  6137   002652  2A0B               	incf	(___flge@ff2+2)^0,f,c
  6138   002654  0E80               	movlw	128
  6139   002656  560C               	subfwb	(___flge@ff2+3)^0,f,c
  6140   002658                     l713:
  6141   002658  0E00               	movlw	0
  6142   00265A  1A05               	xorwf	___flge@ff1^0,f,c
  6143   00265C  0E00               	movlw	0
  6144   00265E  1A06               	xorwf	(___flge@ff1+1)^0,f,c
  6145   002660  0E00               	movlw	0
  6146   002662  1A07               	xorwf	(___flge@ff1+2)^0,f,c
  6147   002664  0E80               	movlw	128
  6148   002666  1A08               	xorwf	(___flge@ff1+3)^0,f,c
  6149   002668  0E00               	movlw	0
  6150   00266A  1A09               	xorwf	___flge@ff2^0,f,c
  6151   00266C  0E00               	movlw	0
  6152   00266E  1A0A               	xorwf	(___flge@ff2+1)^0,f,c
  6153   002670  0E00               	movlw	0
  6154   002672  1A0B               	xorwf	(___flge@ff2+2)^0,f,c
  6155   002674  0E80               	movlw	128
  6156   002676  1A0C               	xorwf	(___flge@ff2+3)^0,f,c
  6157   002678  5009               	movf	___flge@ff2^0,w,c
  6158   00267A  5C05               	subwf	___flge@ff1^0,w,c
  6159   00267C  500A               	movf	(___flge@ff2+1)^0,w,c
  6160   00267E  5806               	subwfb	(___flge@ff1+1)^0,w,c
  6161   002680  500B               	movf	(___flge@ff2+2)^0,w,c
  6162   002682  5807               	subwfb	(___flge@ff1+2)^0,w,c
  6163   002684  500C               	movf	(___flge@ff2+3)^0,w,c
  6164   002686  5808               	subwfb	(___flge@ff1+3)^0,w,c
  6165   002688  B0D8               	btfsc	status,0,c
  6166   00268A  EF49  F013         	goto	u2981
  6167   00268E  EF4B  F013         	goto	u2980
  6168   002692                     u2981:
  6169   002692  EF4E  F013         	goto	l3185
  6170   002696                     u2980:
  6171   002696  90D8               	bcf	status,0,c
  6172   002698  EF4F  F013         	goto	l714
  6173   00269C                     l3185:
  6174   00269C  80D8               	bsf	status,0,c
  6175   00269E                     l714:
  6176   00269E  0012               	return		;funcret
  6177   0026A0                     __end_of___flge:
  6178                           	callstack 0
  6179                           
  6180 ;; *************** function ___almod *****************
  6181 ;; Defined at:
  6182 ;;		line 7 in file "C:\Program Files\Microchip\xc8\v2.40\pic\sources\c90\common\almod.c"
  6183 ;; Parameters:    Size  Location     Type
  6184 ;;  dividend        4    4[COMRAM] long 
  6185 ;;  divisor         4    8[COMRAM] long 
  6186 ;; Auto vars:     Size  Location     Type
  6187 ;;  sign            1   13[COMRAM] unsigned char 
  6188 ;;  counter         1   12[COMRAM] unsigned char 
  6189 ;; Return value:  Size  Location     Type
  6190 ;;                  4    4[COMRAM] long 
  6191 ;; Registers used:
  6192 ;;		wreg, status,2, status,0
  6193 ;; Tracked objects:
  6194 ;;		On entry : 0/0
  6195 ;;		On exit  : 0/0
  6196 ;;		Unchanged: 0/0
  6197 ;; Data sizes:     COMRAM   BANK0   BANK1   BANK2   BANK3   BANK4   BANK5   BANK6   BANK7
  6198 ;;      Params:         8       0       0       0       0       0       0       0       0
  6199 ;;      Locals:         2       0       0       0       0       0       0       0       0
  6200 ;;      Temps:          0       0       0       0       0       0       0       0       0
  6201 ;;      Totals:        10       0       0       0       0       0       0       0       0
  6202 ;;Total ram usage:       10 bytes
  6203 ;; Hardware stack levels used: 1
  6204 ;; Hardware stack levels required when called: 1
  6205 ;; This function calls:
  6206 ;;		Nothing
  6207 ;; This function is called by:
  6208 ;;		_main
  6209 ;; This function uses a non-reentrant model
  6210 ;;
  6211                           
  6212                           	psect	text23
  6213   0026A0                     __ptext23:
  6214                           	callstack 0
  6215   0026A0                     ___almod:
  6216                           	callstack 29
  6217   0026A0  0E00               	movlw	0
  6218   0026A2  6E0E               	movwf	___almod@sign^0,c
  6219   0026A4  BE08               	btfsc	(___almod@dividend+3)^0,7,c
  6220   0026A6  EF59  F013         	goto	u2690
  6221   0026AA  EF57  F013         	goto	u2691
  6222   0026AE                     u2691:
  6223   0026AE  EF63  F013         	goto	l3003
  6224   0026B2                     u2690:
  6225   0026B2  1E08               	comf	(___almod@dividend+3)^0,f,c
  6226   0026B4  1E07               	comf	(___almod@dividend+2)^0,f,c
  6227   0026B6  1E06               	comf	(___almod@dividend+1)^0,f,c
  6228   0026B8  6C05               	negf	___almod@dividend^0,c
  6229   0026BA  0E00               	movlw	0
  6230   0026BC  2206               	addwfc	(___almod@dividend+1)^0,f,c
  6231   0026BE  2207               	addwfc	(___almod@dividend+2)^0,f,c
  6232   0026C0  2208               	addwfc	(___almod@dividend+3)^0,f,c
  6233   0026C2  0E01               	movlw	1
  6234   0026C4  6E0E               	movwf	___almod@sign^0,c
  6235   0026C6                     l3003:
  6236   0026C6  BE0C               	btfsc	(___almod@divisor+3)^0,7,c
  6237   0026C8  EF6A  F013         	goto	u2700
  6238   0026CC  EF68  F013         	goto	u2701
  6239   0026D0                     u2701:
  6240   0026D0  EF72  F013         	goto	l3007
  6241   0026D4                     u2700:
  6242   0026D4  1E0C               	comf	(___almod@divisor+3)^0,f,c
  6243   0026D6  1E0B               	comf	(___almod@divisor+2)^0,f,c
  6244   0026D8  1E0A               	comf	(___almod@divisor+1)^0,f,c
  6245   0026DA  6C09               	negf	___almod@divisor^0,c
  6246   0026DC  0E00               	movlw	0
  6247   0026DE  220A               	addwfc	(___almod@divisor+1)^0,f,c
  6248   0026E0  220B               	addwfc	(___almod@divisor+2)^0,f,c
  6249   0026E2  220C               	addwfc	(___almod@divisor+3)^0,f,c
  6250   0026E4                     l3007:
  6251   0026E4  5009               	movf	___almod@divisor^0,w,c
  6252   0026E6  100A               	iorwf	(___almod@divisor+1)^0,w,c
  6253   0026E8  100B               	iorwf	(___almod@divisor+2)^0,w,c
  6254   0026EA  100C               	iorwf	(___almod@divisor+3)^0,w,c
  6255   0026EC  B4D8               	btfsc	status,2,c
  6256   0026EE  EF7B  F013         	goto	u2711
  6257   0026F2  EF7D  F013         	goto	u2710
  6258   0026F6                     u2711:
  6259   0026F6  EFAD  F013         	goto	l3023
  6260   0026FA                     u2710:
  6261   0026FA  0E01               	movlw	1
  6262   0026FC  6E0D               	movwf	___almod@counter^0,c
  6263   0026FE  EF87  F013         	goto	l3013
  6264   002702                     l3011:
  6265   002702  90D8               	bcf	status,0,c
  6266   002704  3609               	rlcf	___almod@divisor^0,f,c
  6267   002706  360A               	rlcf	(___almod@divisor+1)^0,f,c
  6268   002708  360B               	rlcf	(___almod@divisor+2)^0,f,c
  6269   00270A  360C               	rlcf	(___almod@divisor+3)^0,f,c
  6270   00270C  2A0D               	incf	___almod@counter^0,f,c
  6271   00270E                     l3013:
  6272   00270E  AE0C               	btfss	(___almod@divisor+3)^0,7,c
  6273   002710  EF8C  F013         	goto	u2721
  6274   002714  EF8E  F013         	goto	u2720
  6275   002718                     u2721:
  6276   002718  EF81  F013         	goto	l3011
  6277   00271C                     u2720:
  6278   00271C                     l3015:
  6279   00271C  5009               	movf	___almod@divisor^0,w,c
  6280   00271E  5C05               	subwf	___almod@dividend^0,w,c
  6281   002720  500A               	movf	(___almod@divisor+1)^0,w,c
  6282   002722  5806               	subwfb	(___almod@dividend+1)^0,w,c
  6283   002724  500B               	movf	(___almod@divisor+2)^0,w,c
  6284   002726  5807               	subwfb	(___almod@dividend+2)^0,w,c
  6285   002728  500C               	movf	(___almod@divisor+3)^0,w,c
  6286   00272A  5808               	subwfb	(___almod@dividend+3)^0,w,c
  6287   00272C  A0D8               	btfss	status,0,c
  6288   00272E  EF9B  F013         	goto	u2731
  6289   002732  EF9D  F013         	goto	u2730
  6290   002736                     u2731:
  6291   002736  EFA5  F013         	goto	l3019
  6292   00273A                     u2730:
  6293   00273A  5009               	movf	___almod@divisor^0,w,c
  6294   00273C  5E05               	subwf	___almod@dividend^0,f,c
  6295   00273E  500A               	movf	(___almod@divisor+1)^0,w,c
  6296   002740  5A06               	subwfb	(___almod@dividend+1)^0,f,c
  6297   002742  500B               	movf	(___almod@divisor+2)^0,w,c
  6298   002744  5A07               	subwfb	(___almod@dividend+2)^0,f,c
  6299   002746  500C               	movf	(___almod@divisor+3)^0,w,c
  6300   002748  5A08               	subwfb	(___almod@dividend+3)^0,f,c
  6301   00274A                     l3019:
  6302   00274A  90D8               	bcf	status,0,c
  6303   00274C  320C               	rrcf	(___almod@divisor+3)^0,f,c
  6304   00274E  320B               	rrcf	(___almod@divisor+2)^0,f,c
  6305   002750  320A               	rrcf	(___almod@divisor+1)^0,f,c
  6306   002752  3209               	rrcf	___almod@divisor^0,f,c
  6307   002754  2E0D               	decfsz	___almod@counter^0,f,c
  6308   002756  EF8E  F013         	goto	l3015
  6309   00275A                     l3023:
  6310   00275A  500E               	movf	___almod@sign^0,w,c
  6311   00275C  B4D8               	btfsc	status,2,c
  6312   00275E  EFB3  F013         	goto	u2741
  6313   002762  EFB5  F013         	goto	u2740
  6314   002766                     u2741:
  6315   002766  EFBD  F013         	goto	l3027
  6316   00276A                     u2740:
  6317   00276A  1E08               	comf	(___almod@dividend+3)^0,f,c
  6318   00276C  1E07               	comf	(___almod@dividend+2)^0,f,c
  6319   00276E  1E06               	comf	(___almod@dividend+1)^0,f,c
  6320   002770  6C05               	negf	___almod@dividend^0,c
  6321   002772  0E00               	movlw	0
  6322   002774  2206               	addwfc	(___almod@dividend+1)^0,f,c
  6323   002776  2207               	addwfc	(___almod@dividend+2)^0,f,c
  6324   002778  2208               	addwfc	(___almod@dividend+3)^0,f,c
  6325   00277A                     l3027:
  6326   00277A  C005  F005         	movff	___almod@dividend,?___almod
  6327   00277E  C006  F006         	movff	___almod@dividend+1,?___almod+1
  6328   002782  C007  F007         	movff	___almod@dividend+2,?___almod+2
  6329   002786  C008  F008         	movff	___almod@dividend+3,?___almod+3
  6330   00278A  0012               	return		;funcret
  6331   00278C                     __end_of___almod:
  6332                           	callstack 0
  6333                           
  6334 ;; *************** function _EnhancedRead *****************
  6335 ;; Defined at:
  6336 ;;		line 30 in file "analog.c"
  6337 ;; Parameters:    Size  Location     Type
  6338 ;;		None
  6339 ;; Auto vars:     Size  Location     Type
  6340 ;;  aux             2   13[COMRAM] unsigned int 
  6341 ;;  i               1   15[COMRAM] unsigned char 
  6342 ;; Return value:  Size  Location     Type
  6343 ;;                  1    wreg      void 
  6344 ;; Registers used:
  6345 ;;		wreg, fsr2l, fsr2h, status,2, status,0, prodl, prodh, cstack
  6346 ;; Tracked objects:
  6347 ;;		On entry : 0/0
  6348 ;;		On exit  : 0/0
  6349 ;;		Unchanged: 0/0
  6350 ;; Data sizes:     COMRAM   BANK0   BANK1   BANK2   BANK3   BANK4   BANK5   BANK6   BANK7
  6351 ;;      Params:         0       0       0       0       0       0       0       0       0
  6352 ;;      Locals:         3       0       0       0       0       0       0       0       0
  6353 ;;      Temps:          1       0       0       0       0       0       0       0       0
  6354 ;;      Totals:         4       0       0       0       0       0       0       0       0
  6355 ;;Total ram usage:        4 bytes
  6356 ;; Hardware stack levels used: 1
  6357 ;; Hardware stack levels required when called: 2
  6358 ;; This function calls:
  6359 ;;		___awdiv
  6360 ;; This function is called by:
  6361 ;;		_main
  6362 ;; This function uses a non-reentrant model
  6363 ;;
  6364                           
  6365                           	psect	text24
  6366   002AF8                     __ptext24:
  6367                           	callstack 0
  6368   002AF8                     _EnhancedRead:
  6369                           	callstack 28
  6370   002AF8                     
  6371                           ;analog.c: 31: unsigned char i;;analog.c: 32: unsigned int aux;;analog.c: 33: for (i=0;i
      +                          <9;i++){
  6372   002AF8  0E00               	movlw	0
  6373   002AFA  6E10               	movwf	EnhancedRead@i^0,c
  6374   002AFC                     l2833:
  6375                           
  6376                           ;analog.c: 34: ADCON0bits.CHS=i;
  6377   002AFC  C010  F00D         	movff	EnhancedRead@i,??_EnhancedRead
  6378   002B00  460D               	rlncf	??_EnhancedRead^0,f,c
  6379   002B02  460D               	rlncf	??_EnhancedRead^0,f,c
  6380   002B04  50C2               	movf	194,w,c	;volatile
  6381   002B06  180D               	xorwf	??_EnhancedRead^0,w,c
  6382   002B08  0BC3               	andlw	-61
  6383   002B0A  180D               	xorwf	??_EnhancedRead^0,w,c
  6384   002B0C  6EC2               	movwf	194,c	;volatile
  6385   002B0E                     
  6386                           ;analog.c: 35: ADCON0bits.GODONE=1;
  6387   002B0E  82C2               	bsf	194,1,c	;volatile
  6388   002B10                     l134:
  6389   002B10  B2C2               	btfsc	194,1,c	;volatile
  6390   002B12  EF8D  F015         	goto	u2511
  6391   002B16  EF8F  F015         	goto	u2510
  6392   002B1A                     u2511:
  6393   002B1A  EF88  F015         	goto	l134
  6394   002B1E                     u2510:
  6395   002B1E                     
  6396                           ;analog.c: 37: aux=ADRESH*4;
  6397   002B1E  50C4               	movf	196,w,c	;volatile
  6398   002B20  0D04               	mullw	4
  6399   002B22  CFF3 F00E          	movff	prodl,EnhancedRead@aux
  6400   002B26  CFF4 F00F          	movff	prodh,EnhancedRead@aux+1
  6401   002B2A                     
  6402                           ;analog.c: 38: aux=aux+ADRESL/64;
  6403   002B2A  CFC3 F005          	movff	4035,___awdiv@dividend	;volatile
  6404   002B2E  6A06               	clrf	(___awdiv@dividend+1)^0,c
  6405   002B30  0E00               	movlw	0
  6406   002B32  6E08               	movwf	(___awdiv@divisor+1)^0,c
  6407   002B34  0E40               	movlw	64
  6408   002B36  6E07               	movwf	___awdiv@divisor^0,c
  6409   002B38  EC92  F014         	call	___awdiv	;wreg free
  6410   002B3C  500E               	movf	EnhancedRead@aux^0,w,c
  6411   002B3E  2405               	addwf	?___awdiv^0,w,c
  6412   002B40  6E0E               	movwf	EnhancedRead@aux^0,c
  6413   002B42  500F               	movf	(EnhancedRead@aux+1)^0,w,c
  6414   002B44  2006               	addwfc	(?___awdiv+1)^0,w,c
  6415   002B46  6E0F               	movwf	(EnhancedRead@aux+1)^0,c
  6416   002B48                     
  6417                           ;analog.c: 39: an[i]=aux;
  6418   002B48  5010               	movf	EnhancedRead@i^0,w,c
  6419   002B4A  0D02               	mullw	2
  6420   002B4C  0EB8               	movlw	low _an
  6421   002B4E  24F3               	addwf	243,w,c
  6422   002B50  6ED9               	movwf	fsr2l,c
  6423   002B52  0E00               	movlw	high _an
  6424   002B54  20F4               	addwfc	prodh,w,c
  6425   002B56  6EDA               	movwf	fsr2h,c
  6426   002B58  C00E  FFDE         	movff	EnhancedRead@aux,postinc2
  6427   002B5C  C00F  FFDD         	movff	EnhancedRead@aux+1,postdec2
  6428   002B60  2A10               	incf	EnhancedRead@i^0,f,c
  6429   002B62  0E08               	movlw	8
  6430   002B64  6410               	cpfsgt	EnhancedRead@i^0,c
  6431   002B66  EFB7  F015         	goto	u2521
  6432   002B6A  EFB9  F015         	goto	u2520
  6433   002B6E                     u2521:
  6434   002B6E  EF7E  F015         	goto	l2833
  6435   002B72                     u2520:
  6436   002B72  0012               	return		;funcret
  6437   002B74                     __end_of_EnhancedRead:
  6438                           	callstack 0
  6439                           
  6440 ;; *************** function ___awdiv *****************
  6441 ;; Defined at:
  6442 ;;		line 7 in file "C:\Program Files\Microchip\xc8\v2.40\pic\sources\c90\common\awdiv.c"
  6443 ;; Parameters:    Size  Location     Type
  6444 ;;  dividend        2    4[COMRAM] int 
  6445 ;;  divisor         2    6[COMRAM] int 
  6446 ;; Auto vars:     Size  Location     Type
  6447 ;;  quotient        2   10[COMRAM] int 
  6448 ;;  sign            1    9[COMRAM] unsigned char 
  6449 ;;  counter         1    8[COMRAM] unsigned char 
  6450 ;; Return value:  Size  Location     Type
  6451 ;;                  2    4[COMRAM] int 
  6452 ;; Registers used:
  6453 ;;		wreg, status,2, status,0
  6454 ;; Tracked objects:
  6455 ;;		On entry : 0/0
  6456 ;;		On exit  : 0/0
  6457 ;;		Unchanged: 0/0
  6458 ;; Data sizes:     COMRAM   BANK0   BANK1   BANK2   BANK3   BANK4   BANK5   BANK6   BANK7
  6459 ;;      Params:         4       0       0       0       0       0       0       0       0
  6460 ;;      Locals:         4       0       0       0       0       0       0       0       0
  6461 ;;      Temps:          0       0       0       0       0       0       0       0       0
  6462 ;;      Totals:         8       0       0       0       0       0       0       0       0
  6463 ;;Total ram usage:        8 bytes
  6464 ;; Hardware stack levels used: 1
  6465 ;; Hardware stack levels required when called: 1
  6466 ;; This function calls:
  6467 ;;		Nothing
  6468 ;; This function is called by:
  6469 ;;		_EnhancedRead
  6470 ;;		_MotorASpeed
  6471 ;;		_MotorBSpeed
  6472 ;; This function uses a non-reentrant model
  6473 ;;
  6474                           
  6475                           	psect	text25
  6476   002924                     __ptext25:
  6477                           	callstack 0
  6478   002924                     ___awdiv:
  6479                           	callstack 27
  6480   002924  0E00               	movlw	0
  6481   002926  6E0A               	movwf	___awdiv@sign^0,c
  6482   002928  BE08               	btfsc	(___awdiv@divisor+1)^0,7,c
  6483   00292A  EF9B  F014         	goto	u1880
  6484   00292E  EF99  F014         	goto	u1881
  6485   002932                     u1881:
  6486   002932  EFA1  F014         	goto	l2443
  6487   002936                     u1880:
  6488   002936  6C07               	negf	___awdiv@divisor^0,c
  6489   002938  1E08               	comf	(___awdiv@divisor+1)^0,f,c
  6490   00293A  B0D8               	btfsc	status,0,c
  6491   00293C  2A08               	incf	(___awdiv@divisor+1)^0,f,c
  6492   00293E  0E01               	movlw	1
  6493   002940  6E0A               	movwf	___awdiv@sign^0,c
  6494   002942                     l2443:
  6495   002942  BE06               	btfsc	(___awdiv@dividend+1)^0,7,c
  6496   002944  EFA8  F014         	goto	u1890
  6497   002948  EFA6  F014         	goto	u1891
  6498   00294C                     u1891:
  6499   00294C  EFAE  F014         	goto	l2449
  6500   002950                     u1890:
  6501   002950  6C05               	negf	___awdiv@dividend^0,c
  6502   002952  1E06               	comf	(___awdiv@dividend+1)^0,f,c
  6503   002954  B0D8               	btfsc	status,0,c
  6504   002956  2A06               	incf	(___awdiv@dividend+1)^0,f,c
  6505   002958  0E01               	movlw	1
  6506   00295A  1A0A               	xorwf	___awdiv@sign^0,f,c
  6507   00295C                     l2449:
  6508   00295C  0E00               	movlw	0
  6509   00295E  6E0C               	movwf	(___awdiv@quotient+1)^0,c
  6510   002960  0E00               	movlw	0
  6511   002962  6E0B               	movwf	___awdiv@quotient^0,c
  6512   002964  5007               	movf	___awdiv@divisor^0,w,c
  6513   002966  1008               	iorwf	(___awdiv@divisor+1)^0,w,c
  6514   002968  B4D8               	btfsc	status,2,c
  6515   00296A  EFB9  F014         	goto	u1901
  6516   00296E  EFBB  F014         	goto	u1900
  6517   002972                     u1901:
  6518   002972  EFE3  F014         	goto	l2471
  6519   002976                     u1900:
  6520   002976  0E01               	movlw	1
  6521   002978  6E09               	movwf	___awdiv@counter^0,c
  6522   00297A  EFC3  F014         	goto	l2457
  6523   00297E                     l2455:
  6524   00297E  90D8               	bcf	status,0,c
  6525   002980  3607               	rlcf	___awdiv@divisor^0,f,c
  6526   002982  3608               	rlcf	(___awdiv@divisor+1)^0,f,c
  6527   002984  2A09               	incf	___awdiv@counter^0,f,c
  6528   002986                     l2457:
  6529   002986  AE08               	btfss	(___awdiv@divisor+1)^0,7,c
  6530   002988  EFC8  F014         	goto	u1911
  6531   00298C  EFCA  F014         	goto	u1910
  6532   002990                     u1911:
  6533   002990  EFBF  F014         	goto	l2455
  6534   002994                     u1910:
  6535   002994                     l2459:
  6536   002994  90D8               	bcf	status,0,c
  6537   002996  360B               	rlcf	___awdiv@quotient^0,f,c
  6538   002998  360C               	rlcf	(___awdiv@quotient+1)^0,f,c
  6539   00299A  5007               	movf	___awdiv@divisor^0,w,c
  6540   00299C  5C05               	subwf	___awdiv@dividend^0,w,c
  6541   00299E  5008               	movf	(___awdiv@divisor+1)^0,w,c
  6542   0029A0  5806               	subwfb	(___awdiv@dividend+1)^0,w,c
  6543   0029A2  A0D8               	btfss	status,0,c
  6544   0029A4  EFD6  F014         	goto	u1921
  6545   0029A8  EFD8  F014         	goto	u1920
  6546   0029AC                     u1921:
  6547   0029AC  EFDD  F014         	goto	l2467
  6548   0029B0                     u1920:
  6549   0029B0  5007               	movf	___awdiv@divisor^0,w,c
  6550   0029B2  5E05               	subwf	___awdiv@dividend^0,f,c
  6551   0029B4  5008               	movf	(___awdiv@divisor+1)^0,w,c
  6552   0029B6  5A06               	subwfb	(___awdiv@dividend+1)^0,f,c
  6553   0029B8  800B               	bsf	___awdiv@quotient^0,0,c
  6554   0029BA                     l2467:
  6555   0029BA  90D8               	bcf	status,0,c
  6556   0029BC  3208               	rrcf	(___awdiv@divisor+1)^0,f,c
  6557   0029BE  3207               	rrcf	___awdiv@divisor^0,f,c
  6558   0029C0  2E09               	decfsz	___awdiv@counter^0,f,c
  6559   0029C2  EFCA  F014         	goto	l2459
  6560   0029C6                     l2471:
  6561   0029C6  500A               	movf	___awdiv@sign^0,w,c
  6562   0029C8  B4D8               	btfsc	status,2,c
  6563   0029CA  EFE9  F014         	goto	u1931
  6564   0029CE  EFEB  F014         	goto	u1930
  6565   0029D2                     u1931:
  6566   0029D2  EFEF  F014         	goto	l2475
  6567   0029D6                     u1930:
  6568   0029D6  6C0B               	negf	___awdiv@quotient^0,c
  6569   0029D8  1E0C               	comf	(___awdiv@quotient+1)^0,f,c
  6570   0029DA  B0D8               	btfsc	status,0,c
  6571   0029DC  2A0C               	incf	(___awdiv@quotient+1)^0,f,c
  6572   0029DE                     l2475:
  6573   0029DE  C00B  F005         	movff	___awdiv@quotient,?___awdiv
  6574   0029E2  C00C  F006         	movff	___awdiv@quotient+1,?___awdiv+1
  6575   0029E6  0012               	return		;funcret
  6576   0029E8                     __end_of___awdiv:
  6577                           	callstack 0
  6578                           
  6579 ;; *************** function _enc *****************
  6580 ;; Defined at:
  6581 ;;		line 7 in file "timer.c"
  6582 ;; Parameters:    Size  Location     Type
  6583 ;;		None
  6584 ;; Auto vars:     Size  Location     Type
  6585 ;;		None
  6586 ;; Return value:  Size  Location     Type
  6587 ;;                  1    wreg      void 
  6588 ;; Registers used:
  6589 ;;		wreg, fsr2l, fsr2h, status,2, status,0
  6590 ;; Tracked objects:
  6591 ;;		On entry : 0/0
  6592 ;;		On exit  : 0/0
  6593 ;;		Unchanged: 0/0
  6594 ;; Data sizes:     COMRAM   BANK0   BANK1   BANK2   BANK3   BANK4   BANK5   BANK6   BANK7
  6595 ;;      Params:         0       0       0       0       0       0       0       0       0
  6596 ;;      Locals:         0       0       0       0       0       0       0       0       0
  6597 ;;      Temps:          4       0       0       0       0       0       0       0       0
  6598 ;;      Totals:         4       0       0       0       0       0       0       0       0
  6599 ;;Total ram usage:        4 bytes
  6600 ;; Hardware stack levels used: 1
  6601 ;; This function calls:
  6602 ;;		Nothing
  6603 ;; This function is called by:
  6604 ;;		Interrupt level 2
  6605 ;; This function uses a non-reentrant model
  6606 ;;
  6607                           
  6608                           	psect	intcode
  6609   000008                     __pintcode:
  6610                           	callstack 0
  6611   000008                     _enc:
  6612                           	callstack 27
  6613                           
  6614                           ;incstack = 0
  6615   000008  825A               	bsf	int$flags,1,c	;set compiler interrupt flag (level 2)
  6616   00000A  EDF4  F014         	call	int_func,f	;refresh shadow registers
  6617                           
  6618                           	psect	intcode_body
  6619   0029E8                     __pintcode_body:
  6620                           	callstack 27
  6621   0029E8                     int_func:
  6622                           	callstack 27
  6623   0029E8  0006               	pop		; remove dummy address from shadow register refresh
  6624   0029EA  CFD9 F003          	movff	fsr2l,??_enc+2
  6625   0029EE  CFDA F004          	movff	fsr2h,??_enc+3
  6626   0029F2                     
  6627                           ;timer.c: 8: if (TMR0IF){
  6628   0029F2  A4F2               	btfss	4082,2,c	;volatile
  6629   0029F4  EFFE  F014         	goto	i2u357_41
  6630   0029F8  EF00  F015         	goto	i2u357_40
  6631   0029FC                     i2u357_41:
  6632   0029FC  EF33  F015         	goto	i2l333
  6633   002A00                     i2u357_40:
  6634   002A00                     
  6635                           ;timer.c: 9: for (i = 0;i < 10;i++) time[i]++;
  6636   002A00  0E00               	movlw	0
  6637   002A02  0100               	movlb	0	; () banked
  6638   002A04  6F8D               	movwf	(_i+1)& (0+255),b
  6639   002A06  0E00               	movlw	0
  6640   002A08  6F8C               	movwf	_i& (0+255),b
  6641   002A0A                     i2l3553:
  6642                           
  6643                           ; BSR set to: 0
  6644   002A0A  BF8D               	btfsc	(_i+1)& (0+255),7,b
  6645   002A0C  EF11  F015         	goto	i2u358_41
  6646   002A10  518D               	movf	(_i+1)& (0+255),w,b
  6647   002A12  E109               	bnz	i2u358_40
  6648   002A14  0E0A               	movlw	10
  6649   002A16  5D8C               	subwf	_i& (0+255),w,b
  6650   002A18  A0D8               	btfss	status,0,c
  6651   002A1A  EF11  F015         	goto	i2u358_41
  6652   002A1E  EF13  F015         	goto	i2u358_40
  6653   002A22                     i2u358_41:
  6654   002A22  EF15  F015         	goto	i2l3557
  6655   002A26                     i2u358_40:
  6656   002A26  EF2E  F015         	goto	i2l3563
  6657   002A2A                     i2l3557:
  6658                           
  6659                           ; BSR set to: 0
  6660   002A2A  0E60               	movlw	low _time
  6661   002A2C  6E01               	movwf	??_enc^0,c
  6662   002A2E  0E00               	movlw	high _time
  6663   002A30  6E02               	movwf	(??_enc+1)^0,c
  6664   002A32  90D8               	bcf	status,0,c
  6665   002A34  358C               	rlcf	_i& (0+255),w,b
  6666   002A36  6ED9               	movwf	fsr2l,c
  6667   002A38  358D               	rlcf	(_i+1)& (0+255),w,b
  6668   002A3A  6EDA               	movwf	fsr2h,c
  6669   002A3C  90D8               	bcf	status,0,c
  6670   002A3E  36D9               	rlcf	fsr2l,f,c
  6671   002A40  36DA               	rlcf	fsr2h,f,c
  6672   002A42  5001               	movf	??_enc^0,w,c
  6673   002A44  26D9               	addwf	fsr2l,f,c
  6674   002A46  5002               	movf	(??_enc+1)^0,w,c
  6675   002A48  22DA               	addwfc	fsr2h,f,c
  6676   002A4A  2ADE               	incf	postinc2,f,c
  6677   002A4C  0E00               	movlw	0
  6678   002A4E  22DE               	addwfc	postinc2,f,c
  6679   002A50  22DE               	addwfc	postinc2,f,c
  6680   002A52  22DE               	addwfc	postinc2,f,c
  6681   002A54                     
  6682                           ; BSR set to: 0
  6683   002A54  4B8C               	infsnz	_i& (0+255),f,b
  6684   002A56  2B8D               	incf	(_i+1)& (0+255),f,b
  6685   002A58  EF05  F015         	goto	i2l3553
  6686   002A5C                     i2l3563:
  6687                           
  6688                           ; BSR set to: 0
  6689                           ;timer.c: 10: TMR0H = 0xF8;
  6690   002A5C  0EF8               	movlw	248
  6691   002A5E  6ED7               	movwf	215,c	;volatile
  6692                           
  6693                           ;timer.c: 11: TMR0L = 0x2F;
  6694   002A60  0E2F               	movlw	47
  6695   002A62  6ED6               	movwf	214,c	;volatile
  6696   002A64                     
  6697                           ; BSR set to: 0
  6698                           ;timer.c: 12: TMR0IF = 0;
  6699   002A64  94F2               	bcf	4082,2,c	;volatile
  6700   002A66                     i2l333:
  6701   002A66  C004  FFDA         	movff	??_enc+3,fsr2h
  6702   002A6A  C003  FFD9         	movff	??_enc+2,fsr2l
  6703   002A6E  925A               	bcf	int$flags,1,c	;clear compiler interrupt flag (level 2)
  6704   002A70  0011               	retfie		f
  6705   002A72                     __end_of_enc:
  6706                           	callstack 0
  6707                           
  6708                           	psect	rparam
  6709   000000                     
  6710                           	psect	temp
  6711   00005A                     btemp:
  6712                           	callstack 0
  6713   00005A                     	ds	1
  6714   000000                     int$flags	set	btemp
  6715   000000                     wtemp8	set	btemp+1
  6716   000000                     ttemp5	set	btemp+1
  6717   000000                     ttemp6	set	btemp+4
  6718   000000                     ttemp7	set	btemp+8
  6719                           
  6720                           	psect	idloc
  6721                           
  6722                           ;Config register IDLOC0 @ 0x200000
  6723                           ;	unspecified, using default values
  6724   200000                     	org	2097152
  6725   200000  FF                 	db	255
  6726                           
  6727                           ;Config register IDLOC1 @ 0x200001
  6728                           ;	unspecified, using default values
  6729   200001                     	org	2097153
  6730   200001  FF                 	db	255
  6731                           
  6732                           ;Config register IDLOC2 @ 0x200002
  6733                           ;	unspecified, using default values
  6734   200002                     	org	2097154
  6735   200002  FF                 	db	255
  6736                           
  6737                           ;Config register IDLOC3 @ 0x200003
  6738                           ;	unspecified, using default values
  6739   200003                     	org	2097155
  6740   200003  FF                 	db	255
  6741                           
  6742                           ;Config register IDLOC4 @ 0x200004
  6743                           ;	unspecified, using default values
  6744   200004                     	org	2097156
  6745   200004  FF                 	db	255
  6746                           
  6747                           ;Config register IDLOC5 @ 0x200005
  6748                           ;	unspecified, using default values
  6749   200005                     	org	2097157
  6750   200005  FF                 	db	255
  6751                           
  6752                           ;Config register IDLOC6 @ 0x200006
  6753                           ;	unspecified, using default values
  6754   200006                     	org	2097158
  6755   200006  FF                 	db	255
  6756                           
  6757                           ;Config register IDLOC7 @ 0x200007
  6758                           ;	unspecified, using default values
  6759   200007                     	org	2097159
  6760   200007  FF                 	db	255
  6761                           
  6762                           	psect	config
  6763                           
  6764                           ;Config register CONFIG1L @ 0x300000
  6765                           ;	PLL Prescaler Selection bits
  6766                           ;	PLLDIV = 5, Divide by 5 (20 MHz oscillator input)
  6767                           ;	System Clock Postscaler Selection bits
  6768                           ;	CPUDIV = OSC1_PLL2, [Primary Oscillator Src: /1][96 MHz PLL Src: /2]
  6769                           ;	USB Clock Selection bit (used in Full-Speed USB mode only; UCFG:FSEN = 1)
  6770                           ;	USBDIV = 2, USB clock source comes from the 96 MHz PLL divided by 2
  6771   300000                     	org	3145728
  6772   300000  24                 	db	36
  6773                           
  6774                           ;Config register CONFIG1H @ 0x300001
  6775                           ;	Oscillator Selection bits
  6776                           ;	FOSC = HSPLL_HS, HS oscillator, PLL enabled (HSPLL)
  6777                           ;	Fail-Safe Clock Monitor Enable bit
  6778                           ;	FCMEN = OFF, Fail-Safe Clock Monitor disabled
  6779                           ;	Internal/External Oscillator Switchover bit
  6780                           ;	IESO = OFF, Oscillator Switchover mode disabled
  6781   300001                     	org	3145729
  6782   300001  0E                 	db	14
  6783                           
  6784                           ;Config register CONFIG2L @ 0x300002
  6785                           ;	Power-up Timer Enable bit
  6786                           ;	PWRT = OFF, PWRT disabled
  6787                           ;	Brown-out Reset Enable bits
  6788                           ;	BOR = OFF, Brown-out Reset disabled in hardware and software
  6789                           ;	Brown-out Reset Voltage bits
  6790                           ;	BORV = 3, Minimum setting 2.05V
  6791                           ;	USB Voltage Regulator Enable bit
  6792                           ;	VREGEN = OFF, USB voltage regulator disabled
  6793   300002                     	org	3145730
  6794   300002  19                 	db	25
  6795                           
  6796                           ;Config register CONFIG2H @ 0x300003
  6797                           ;	Watchdog Timer Enable bit
  6798                           ;	WDT = OFF, WDT disabled (control is placed on the SWDTEN bit)
  6799                           ;	Watchdog Timer Postscale Select bits
  6800                           ;	WDTPS = 32768, 1:32768
  6801   300003                     	org	3145731
  6802   300003  1E                 	db	30
  6803                           
  6804                           ; Padding undefined space
  6805   300004                     	org	3145732
  6806   300004  FF                 	db	255
  6807                           
  6808                           ;Config register CONFIG3H @ 0x300005
  6809                           ;	CCP2 MUX bit
  6810                           ;	CCP2MX = OFF, CCP2 input/output is multiplexed with RB3
  6811                           ;	PORTB A/D Enable bit
  6812                           ;	PBADEN = OFF, PORTB<4:0> pins are configured as digital I/O on Reset
  6813                           ;	Low-Power Timer 1 Oscillator Enable bit
  6814                           ;	LPT1OSC = OFF, Timer1 configured for higher power operation
  6815                           ;	MCLR Pin Enable bit
  6816                           ;	MCLRE = OFF, RE3 input pin enabled; MCLR pin disabled
  6817   300005                     	org	3145733
  6818   300005  00                 	db	0
  6819                           
  6820                           ;Config register CONFIG4L @ 0x300006
  6821                           ;	Stack Full/Underflow Reset Enable bit
  6822                           ;	STVREN = ON, Stack full/underflow will cause Reset
  6823                           ;	Single-Supply ICSP Enable bit
  6824                           ;	LVP = OFF, Single-Supply ICSP disabled
  6825                           ;	Dedicated In-Circuit Debug/Programming Port (ICPORT) Enable bit
  6826                           ;	ICPRT = OFF, ICPORT disabled
  6827                           ;	Extended Instruction Set Enable bit
  6828                           ;	XINST = OFF, Instruction set extension and Indexed Addressing mode disabled (Legacy mo
      +                          de)
  6829                           ;	Background Debugger Enable bit
  6830                           ;	DEBUG = OFF, Background debugger disabled, RB6 and RB7 configured as general purpose I
      +                          /O pins
  6831   300006                     	org	3145734
  6832   300006  81                 	db	129
  6833                           
  6834                           ; Padding undefined space
  6835   300007                     	org	3145735
  6836   300007  FF                 	db	255
  6837                           
  6838                           ;Config register CONFIG5L @ 0x300008
  6839                           ;	Code Protection bit
  6840                           ;	CP0 = OFF, Block 0 (000800-001FFFh) is not code-protected
  6841                           ;	Code Protection bit
  6842                           ;	CP1 = OFF, Block 1 (002000-003FFFh) is not code-protected
  6843                           ;	Code Protection bit
  6844                           ;	CP2 = OFF, Block 2 (004000-005FFFh) is not code-protected
  6845                           ;	Code Protection bit
  6846                           ;	CP3 = OFF, Block 3 (006000-007FFFh) is not code-protected
  6847   300008                     	org	3145736
  6848   300008  0F                 	db	15
  6849                           
  6850                           ;Config register CONFIG5H @ 0x300009
  6851                           ;	Boot Block Code Protection bit
  6852                           ;	CPB = OFF, Boot block (000000-0007FFh) is not code-protected
  6853                           ;	Data EEPROM Code Protection bit
  6854                           ;	CPD = OFF, Data EEPROM is not code-protected
  6855   300009                     	org	3145737
  6856   300009  C0                 	db	192
  6857                           
  6858                           ;Config register CONFIG6L @ 0x30000A
  6859                           ;	Write Protection bit
  6860                           ;	WRT0 = OFF, Block 0 (000800-001FFFh) is not write-protected
  6861                           ;	Write Protection bit
  6862                           ;	WRT1 = OFF, Block 1 (002000-003FFFh) is not write-protected
  6863                           ;	Write Protection bit
  6864                           ;	WRT2 = OFF, Block 2 (004000-005FFFh) is not write-protected
  6865                           ;	Write Protection bit
  6866                           ;	WRT3 = OFF, Block 3 (006000-007FFFh) is not write-protected
  6867   30000A                     	org	3145738
  6868   30000A  0F                 	db	15
  6869                           
  6870                           ;Config register CONFIG6H @ 0x30000B
  6871                           ;	Configuration Register Write Protection bit
  6872                           ;	WRTC = OFF, Configuration registers (300000-3000FFh) are not write-protected
  6873                           ;	Boot Block Write Protection bit
  6874                           ;	WRTB = OFF, Boot block (000000-0007FFh) is not write-protected
  6875                           ;	Data EEPROM Write Protection bit
  6876                           ;	WRTD = OFF, Data EEPROM is not write-protected
  6877   30000B                     	org	3145739
  6878   30000B  E0                 	db	224
  6879                           
  6880                           ;Config register CONFIG7L @ 0x30000C
  6881                           ;	Table Read Protection bit
  6882                           ;	EBTR0 = OFF, Block 0 (000800-001FFFh) is not protected from table reads executed in ot
      +                          her blocks
  6883                           ;	Table Read Protection bit
  6884                           ;	EBTR1 = OFF, Block 1 (002000-003FFFh) is not protected from table reads executed in ot
      +                          her blocks
  6885                           ;	Table Read Protection bit
  6886                           ;	EBTR2 = OFF, Block 2 (004000-005FFFh) is not protected from table reads executed in ot
      +                          her blocks
  6887                           ;	Table Read Protection bit
  6888                           ;	EBTR3 = OFF, Block 3 (006000-007FFFh) is not protected from table reads executed in ot
      +                          her blocks
  6889   30000C                     	org	3145740
  6890   30000C  0F                 	db	15
  6891                           
  6892                           ;Config register CONFIG7H @ 0x30000D
  6893                           ;	Boot Block Table Read Protection bit
  6894                           ;	EBTRB = OFF, Boot block (000000-0007FFh) is not protected from table reads executed in
      +                           other blocks
  6895   30000D                     	org	3145741
  6896   30000D  40                 	db	64
  6897                           tosu	equ	0xFFF
  6898                           tosh	equ	0xFFE
  6899                           tosl	equ	0xFFD
  6900                           stkptr	equ	0xFFC
  6901                           pclatu	equ	0xFFB
  6902                           pclath	equ	0xFFA
  6903                           pcl	equ	0xFF9
  6904                           tblptru	equ	0xFF8
  6905                           tblptrh	equ	0xFF7
  6906                           tblptrl	equ	0xFF6
  6907                           tablat	equ	0xFF5
  6908                           prodh	equ	0xFF4
  6909                           prodl	equ	0xFF3
  6910                           indf0	equ	0xFEF
  6911                           postinc0	equ	0xFEE
  6912                           postdec0	equ	0xFED
  6913                           preinc0	equ	0xFEC
  6914                           plusw0	equ	0xFEB
  6915                           fsr0h	equ	0xFEA
  6916                           fsr0l	equ	0xFE9
  6917                           wreg	equ	0xFE8
  6918                           indf1	equ	0xFE7
  6919                           postinc1	equ	0xFE6
  6920                           postdec1	equ	0xFE5
  6921                           preinc1	equ	0xFE4
  6922                           plusw1	equ	0xFE3
  6923                           fsr1h	equ	0xFE2
  6924                           fsr1l	equ	0xFE1
  6925                           bsr	equ	0xFE0
  6926                           indf2	equ	0xFDF
  6927                           postinc2	equ	0xFDE
  6928                           postdec2	equ	0xFDD
  6929                           preinc2	equ	0xFDC
  6930                           plusw2	equ	0xFDB
  6931                           fsr2h	equ	0xFDA
  6932                           fsr2l	equ	0xFD9
  6933                           status	equ	0xFD8

Data Sizes:
    Strings     0
    Constant    12
    Data        36
    BSS         124
    Persistent  0
    Stack       0

Auto Spaces:
    Space          Size  Autos    Used
    COMRAM           94     81      89
    BANK0           160     24     158
    BANK1           256      0      18
    BANK2           256      0       0
    BANK3           256      0       0
    BANK4           256      0       0
    BANK5           256      0       0
    BANK6           256      0       0
    BANK7           256      0       0

Pointer List with Targets:

    read_cal$529	PTR int  size(2) Largest target is 18
		 -> mins(BANK0[18]), an(BANK0[18]), 

    read_cal$527	PTR int  size(2) Largest target is 18
		 -> maxs(BANK0[18]), an(BANK0[18]), 

    read_cal$525	PTR int  size(2) Largest target is 18
		 -> mins(BANK0[18]), an(BANK0[18]), 

    read_cal$523	PTR int  size(2) Largest target is 18
		 -> maxs(BANK0[18]), an(BANK0[18]), 


Critical Paths under _main in COMRAM

    _main->_mspeed
    _mspeed->___fltol
    _MotorBSpeed->___awdiv
    _MotorASpeed->___awdiv
    _line_cal->___aldiv
    ___aldiv->___lmul
    ___fltol->___flsub
    ___flsub->___fladd
    ___fladd->___flmul
    ___flmul->___xxtofl
    _EnhancedRead->___awdiv

Critical Paths under _enc in COMRAM

    None.

Critical Paths under _main in BANK0

    None.

Critical Paths under _enc in BANK0

    None.

Critical Paths under _main in BANK1

    None.

Critical Paths under _enc in BANK1

    None.

Critical Paths under _main in BANK2

    None.

Critical Paths under _enc in BANK2

    None.

Critical Paths under _main in BANK3

    None.

Critical Paths under _enc in BANK3

    None.

Critical Paths under _main in BANK4

    None.

Critical Paths under _enc in BANK4

    None.

Critical Paths under _main in BANK5

    None.

Critical Paths under _enc in BANK5

    None.

Critical Paths under _main in BANK6

    None.

Critical Paths under _enc in BANK6

    None.

Critical Paths under _main in BANK7

    None.

Critical Paths under _enc in BANK7

    None.

Call Graph Tables:

 ---------------------------------------------------------------------------------
 (Depth) Function   	        Calls       Base Space   Used Autos Params    Refs
 ---------------------------------------------------------------------------------
 (0) _main                                                24    24      0   18130
                                              0 BANK0     24    24      0
                       _EnhancedRead
                            ___almod
                            ___fladd
                             ___flge
                            ___flmul
                            ___flsub
                            ___fltol
                           ___xxtofl
                           _init_cal
                           _init_tms
                           _line_cal
                             _mspeed
                           _read_cal
                               _setA
                               _setB
                               _setC
                               _setD
 ---------------------------------------------------------------------------------
 (1) _setD                                                 0     0      0       0
 ---------------------------------------------------------------------------------
 (1) _setC                                                 0     0      0       0
 ---------------------------------------------------------------------------------
 (1) _setB                                                 0     0      0       0
 ---------------------------------------------------------------------------------
 (1) _setA                                                 0     0      0       0
 ---------------------------------------------------------------------------------
 (1) _read_cal                                            19    19      0     720
                                              4 COMRAM    19    19      0
 ---------------------------------------------------------------------------------
 (1) _mspeed                                               4     0      4    3261
                                             77 COMRAM     4     0      4
                        _MotorASpeed
                        _MotorBSpeed
                            ___fladd (ARG)
                            ___flsub (ARG)
                            ___fltol (ARG)
                           ___xxtofl (ARG)
 ---------------------------------------------------------------------------------
 (2) _MotorBSpeed                                          3     1      2     989
                                             12 COMRAM     3     1      2
                            ___awdiv
 ---------------------------------------------------------------------------------
 (2) _MotorASpeed                                          3     1      2    1012
                                             12 COMRAM     3     1      2
                            ___awdiv
 ---------------------------------------------------------------------------------
 (1) _line_cal                                            30    30      0    1821
                                             30 COMRAM    30    30      0
                            ___aldiv
                             ___lmul
 ---------------------------------------------------------------------------------
 (2) ___lmul                                              12     4      8     674
                                              4 COMRAM    12     4      8
 ---------------------------------------------------------------------------------
 (2) ___aldiv                                             14     6      8     604
                                             16 COMRAM    14     6      8
                             ___lmul (ARG)
 ---------------------------------------------------------------------------------
 (1) _init_tms                                             0     0      0       0
                          _MotorsPWM
                            _an_init
                            _init_io
 ---------------------------------------------------------------------------------
 (2) _init_io                                              0     0      0       0
 ---------------------------------------------------------------------------------
 (2) _an_init                                              0     0      0       0
 ---------------------------------------------------------------------------------
 (2) _MotorsPWM                                            0     0      0       0
 ---------------------------------------------------------------------------------
 (1) _init_cal                                             2     2      0     136
                                              4 COMRAM     2     2      0
 ---------------------------------------------------------------------------------
 (1) ___xxtofl                                            14    10      4     778
                                              4 COMRAM    14    10      4
 ---------------------------------------------------------------------------------
 (1) ___fltol                                             10     6      4     381
                                             67 COMRAM    10     6      4
                            ___fladd (ARG)
                            ___flsub (ARG)
                           ___xxtofl (ARG)
 ---------------------------------------------------------------------------------
 (1) ___flsub                                              8     0      8    3345
                                             59 COMRAM     8     0      8
                            ___fladd
                           ___xxtofl (ARG)
 ---------------------------------------------------------------------------------
 (2) ___fladd                                             16     8      8    2870
                                             43 COMRAM    16     8      8
                            ___flmul (ARG)
                           ___xxtofl (ARG)
 ---------------------------------------------------------------------------------
 (1) ___flmul                                             25    17      8    2504
                                             18 COMRAM    25    17      8
                           ___xxtofl (ARG)
 ---------------------------------------------------------------------------------
 (1) ___flge                                              12     4      8     334
                                              4 COMRAM    12     4      8
 ---------------------------------------------------------------------------------
 (1) ___almod                                             10     2      8     448
                                              4 COMRAM    10     2      8
 ---------------------------------------------------------------------------------
 (1) _EnhancedRead                                         4     4      0     892
                                             12 COMRAM     4     4      0
                            ___awdiv
 ---------------------------------------------------------------------------------
 (3) ___awdiv                                              8     4      4     756
                                              4 COMRAM     8     4      4
 ---------------------------------------------------------------------------------
 Estimated maximum stack depth 3
 ---------------------------------------------------------------------------------
 (Depth) Function   	        Calls       Base Space   Used Autos Params    Refs
 ---------------------------------------------------------------------------------
 (4) _enc                                                  4     4      0       0
                                              0 COMRAM     4     4      0
 ---------------------------------------------------------------------------------
 Estimated maximum stack depth 4
 ---------------------------------------------------------------------------------

 Call Graph Graphs:

 _main (ROOT)
   _EnhancedRead
     ___awdiv
   ___almod
   ___fladd
     ___flmul (ARG)
       ___xxtofl (ARG)
     ___xxtofl (ARG)
   ___flge
   ___flmul
   ___flsub
     ___fladd
     ___xxtofl (ARG)
   ___fltol
     ___fladd (ARG)
     ___flsub (ARG)
     ___xxtofl (ARG)
   ___xxtofl
   _init_cal
   _init_tms
     _MotorsPWM
     _an_init
     _init_io
   _line_cal
     ___aldiv
       ___lmul (ARG)
     ___lmul
   _mspeed
     _MotorASpeed
       ___awdiv
     _MotorBSpeed
       ___awdiv
     ___fladd (ARG)
     ___flsub (ARG)
     ___fltol (ARG)
     ___xxtofl (ARG)
   _read_cal
   _setA
   _setB
   _setC
   _setD

 _enc (ROOT)

 Address spaces:
Name               Size   Autos  Total    Cost      Usage
BIGRAM             7FF      0       0      40        0.0%
EEDATA             100      0       0       0        0.0%
BITBANK7           100      0       0      18        0.0%
BANK7              100      0       0      19        0.0%
BITBANK6           100      0       0      16        0.0%
BANK6              100      0       0      17        0.0%
BITBANK5           100      0       0      14        0.0%
BANK5              100      0       0      15        0.0%
BITBANK4           100      0       0      12        0.0%
BANK4              100      0       0      13        0.0%
BITBANK3           100      0       0      10        0.0%
BANK3              100      0       0      11        0.0%
BITBANK2           100      0       0       8        0.0%
BANK2              100      0       0       9        0.0%
BITBANK1           100      0       0       6        0.0%
BANK1              100      0      12       7        7.0%
BITBANK0            A0      0       0       4        0.0%
BANK0               A0     18      9E       5       98.8%
BITCOMRAM           5E      0       0       0        0.0%
COMRAM              5E     51      59       1       94.7%
BITBIGSFRhhhhhh     19      0       0      21        0.0%
BITBIGSFRllhh       10      0       0      36        0.0%
BITBIGSFRhhhhhh      D      0       0      20        0.0%
BITBIGSFRhlll        D      0       0      35        0.0%
BITBIGSFRlll         D      0       0      38        0.0%
BITBIGSFRhllhll      7      0       0      33        0.0%
BITBIGSFRhllhll      7      0       0      34        0.0%
BITBIGSFRhhhlll      5      0       0      25        0.0%
BITBIGSFRhllhh       3      0       0      30        0.0%
BITBIGSFRhlhlll      3      0       0      29        0.0%
BITBIGSFRhhhlh       2      0       0      23        0.0%
BITBIGSFRhllhll      1      0       0      32        0.0%
BITBIGSFRhllhlh      1      0       0      31        0.0%
BITBIGSFRhlhllh      1      0       0      28        0.0%
BITBIGSFRhlhlh       1      0       0      27        0.0%
BITBIGSFRhlhh        1      0       0      26        0.0%
BITBIGSFRhhhlll      1      0       0      24        0.0%
BITBIGSFRllhl        1      0       0      37        0.0%
BITBIGSFRhhhhl       1      0       0      22        0.0%
BIGSFR               0      0       0     200        0.0%
BITSFR               0      0       0     200        0.0%
SFR                  0      0       0     200        0.0%
STACK                0      0       0       2        0.0%
NULL                 0      0       0       0        0.0%
ABS                  0      0     109      39        0.0%
DATA                 0      0     109       3        0.0%
CODE                 0      0       0       0        0.0%


Microchip Technology PIC18 Macro Assembler V2.40 build 20220703182018 
Symbol Table                                                                                   Sun Jul 28 12:08:21 2024

                      _i 008C                       l52 088E                       l54 08BA  
                     l81 0D30                       l58 10FC                       l75 0C68  
                     l84 0D62                       l87 0F32                       l89 0F58  
           ___awdiv@sign 000A                       _an 00B8                       _cs 00E0  
                     _kd 00D8                       _es 0056                       _kp 00DC  
                     _lp 0092                       _ls 00CA                      l201 21D4  
                    l300 2D9A                      l134 2B10                      l144 2AF6  
                    l137 2B72                      l129 2D64                      l315 2D40  
                    l171 15DC                      l350 2DAE                      l264 2C8E  
                    l344 2DC2                      l353 2DA4                      l282 285A  
                    l267 2D12                      l531 2494                      l347 2DB8  
                    l463 2BCC                      l544 278A                      l464 2BDC  
                    l713 2658                      l297 2922                      l714 269E  
                    l741 259A                      l683 29E6                      l970 1780  
                    l968 17CC                      l985 18E6                      l977 1A9C  
                    l969 17BA                      l994 19B6                      l995 19A4  
                    _PR2 000FCB                      _ckd 0052                      _ckp 00D4  
                    _enc 0008                      prod 000FF3                      wreg 000FE8  
           ___flmul@aexp 0024             ___flmul@bexp 0025             ___flmul@sign 001F  
           ___flmul@temp 002A             ___flmul@prod 0026             ___fltol@exp1 004D  
                   l1010 2CD4                     l1102 22C4                     l1061 1D58  
                   l1109 2320                     l1054 1B62                     l1071 1E88  
                   l1063 1DD0                     l1064 1DBE                     l3001 26C2  
                   l1058 1EC6                     l3011 2702                     l3003 26C6  
                   l3021 2754                     l3013 270E                     l3005 26D4  
                   l3101 1C8A                     l3015 271C                     l3023 275A  
                   l3007 26E4                     l3111 1D20                     l3103 1C96  
                   l3031 1A9E                     l1095 222C                     l3025 276A  
                   l3017 273A                     l3009 26FA                     l3121 1D76  
                   l3113 1D3E                     l3105 1CB2                     l3041 1ADA  
                   l3033 1AAA                     l3201 24FC                     l1098 2388  
                   l3027 277A                     l3019 274A                     l3131 1DE0  
                   l3123 1D7A                     l3115 1D48                     l3107 1CDC  
                   l3051 1B0C                     l3043 1AEA                     l3035 1AB8  
                   l3211 2526                     l3203 2500                     l3141 1E42  
                   l3133 1DEC                     l3125 1D88                     l3117 1D56  
                   l3109 1D12                     l3061 1B4C                     l3053 1B1A  
                   l3045 1AF0                     l3037 1ABA                     l3221 254E  
                   l3213 2530                     l3205 250E                     l2501 27B0  
                   l3151 1EAA                     l3143 1E56                     l3135 1DFA  
                   l3127 1DB6                     l3119 1D68                     l3071 1B96  
                   l3063 1B52                     l3055 1B1C                     l3047 1B00  
                   l3039 1ACA                     l3223 255A                     l3215 253A  
                   l2511 282C                     l2503 27B8                     l2441 293E  
                   l3153 1EAC                     l3145 1E70                     l3137 1E24  
                   l3081 1BE6                     l3073 1BA2                     l3065 1B72  
                   l3057 1B2C                     l3049 1B06                     l2601 1634  
                   l3161 2C90                     l3225 256A                     l3241 2252  
                   l3233 21D8                     l2513 2842                     l2505 27D4  
                   l2521 289C                     l2451 2964                     l2443 2942  
                   l2435 2924                     l3171 25DA                     l3147 1E8C  
                   l3155 1EB2                     l3139 1E28                     l3091 1C28  
                   l3083 1BF2                     l3075 1BAC                     l3067 1B82  
                   l3059 1B3C                     l2611 1664                     l2603 1644  
                   l3163 2CA0                     l3227 257A                     l3251 22AC  
                   l3235 21E8                     l2531 2B74                     l2507 27DC  
                   l2523 28A4                     l2515 285C                     ?_enc 0001  
                   l2461 299A                     l2453 2976                     l2445 2950  
                   l2437 2928                     l3181 2646                     l3173 2608  
                   l3157 1EB6                     l3149 1E9C                     l3093 1C34  
                   l3085 1BFE                     l3077 1BC2                     l2701 183A  
                   l2621 16A4                     l2613 1672                     l2605 164A  
                   l3229 258A                     l3261 2310                     l3253 22AE  
                   l3245 2266                     l3237 21F6                     l2541 238A  
                   l2533 2B84                     l2509 2820                     l2525 28EA  
                   l2517 2878                     l2463 29B0                     l2455 297E  
                   l2471 29C6                     l2447 2958                     l2439 2936  
                   l3183 2696                     l3175 2618                     l3167 259C  
                   l3095 1C44                     l3087 1C0C                     l3079 1BCE  
                   l2711 1880                     l2703 1848                     l2631 16DE  
                   l2623 16A6                     l2615 1674                     l2607 165C  
                   l3191 24AC                     l3271 2368                     l3263 232E  
                   l3255 22BA                     l3247 226E                     l3239 223C  
                   l2551 23BE                     l2543 238E                     l2535 2B92  
                   l2527 28F6                     l2519 2880                     l2473 29D6  
                   l2465 29B8                     l2457 2986                     l2449 295C  
                   l3185 269C                     l3177 2626                     l3169 25CA  
                   l3097 1C5E                     l3089 1C18                     l2721 18FC  
                   l2713 18B4                     l2705 184A                     l2641 16F2  
                   l2633 16E2                     l2617 1684                     l2625 16AE  
                   l2609 165E                     l3273 2376                     l3265 2330  
                   l3257 22F6                     l3249 227A                     l2481 2D4E  
                   l2801 2C60                     l2561 2400                     l2553 23CE  
                   l2545 239C                     l2537 2BA2                     l2529 290A  
                   l2475 29DE                     l2467 29BA                     l2459 2994  
                   l3179 2638                     l3099 1C6E                     l2731 1938  
                   l2723 190C                     l2715 18B6                     l2707 1854  
                   l2651 1706                     l2643 16F6                     l2635 16E6  
                   l2627 16BE                     l2619 1694                     l3195 24C0  
                   l3275 2378                     l3267 2334                     l3259 2302  
                   l2491 2CE6                     l2483 2D60                     l2811 2C6A  
                   l2803 2C62                     l2571 2452                     l2563 240C  
                   l2555 23D2                     l2547 23AC                     l2539 2BAC  
                   l2469 29C0                     l2741 1964                     l2733 193A  
                   l2717 18C6                     l2709 185A                     l2661 171A  
                   l2653 170A                     l2645 16FA                     l2637 16EA  
                   l2629 16D0                     l3197 24EA                     l3189 2496  
                   l3269 2358                     l2493 2CF6                     l2485 2D62  
                   l2821 2C78                     l2813 2C6C                     l2805 2C64  
                   l2581 2484                     l2573 2454                     l2565 241A  
                   l2557 23E2                     l2549 23B0                     l3701 09F4  
                   l2751 199C                     l2735 1948                     l2727 1920  
                   l2743 1966                     l2719 18D6                     l2671 1778  
                   l2655 170E                     l2647 16FE                     l2639 16EE  
                   l2663 171E                     l2591 15FA                     l3199 24EC  
                   l2495 2CFC                     l2479 2D42                     l2487 2D14  
                   l2823 2C82                     l2815 2C6E                     l2807 2C66  
                   l2575 245E                     l2567 2424                     l2559 23F8  
                   l2911 1350                     l2903 1242                     l3711 0A64  
                   l3703 0A16                     l2841 2B48                     l2833 2AFC  
                   l2761 1A1A                     l2737 1950                     l2729 192A  
                   l2745 1974                     l2681 17AE                     l2673 178E  
                   l2665 1722                     l2657 1712                     l2649 1702  
                   l2593 160A                     l2585 15DE                     l2489 2CD6  
                   l2817 2C74                     l2809 2C68                     l2569 2442  
                   l2577 2464                     l2497 278C                     l2825 2D82  
                   l2921 1378                     l2913 1354                     l2905 12B8  
                   l3801 0DA6                     l3721 0AF4                     l3713 0A88  
                   l3705 0A1A                     l3641 0812                     l2843 2B60  
                   l2835 2B0E                     l2827 2AF8                     l2771 1A60  
                   l2755 19C6                     l2763 1A1C                     l2747 1978  
                   l2739 1954                     l2691 17FE                     l2683 17B8  
                   l2675 179A                     l2667 174C                     l2659 1716  
                   l2595 161A                     l2587 15EA                     l2819 2C76  
                   l2579 2474                     l2499 2794                     l2931 148A  
                   l2923 13EE                     l2915 1370                     l2907 12E8  
                   l2851 2DA6                     l3811 0F26                     l3803 0DC6  
                   l3731 0B52                     l3723 0AF8                     l3715 0AAA  
                   l3707 0A3E                     l3651 0852                     l3643 081C  
                   l2845 2B62                     l2837 2B1E                     l2781 1A8A  
                   l2773 1A6E                     l2765 1A2C                     l2757 19D2  
                   l2749 1986                     l2693 180E                     l2685 17DA  
                   l2677 179E                     l2669 1768                     l2597 162A  
                   l2589 15F8                     l2861 2A7A                     l2941 1524  
                   l2933 14A6                     l2925 141E                     l2909 1314  
                   l2853 2D9C                     l3821 0FF2                     l3813 0F36  
                   l3805 0DD2                     l3741 0BD0                     l3733 0B5A  
                   l3725 0B1C                     l3717 0AAE                     l3709 0A60  
                   l3661 0892                     l3653 085A                     l3645 0824  
                   l2839 2B2A                     l2783 1A8C                     l2775 1A74  
                   l2767 1A3C                     l2759 19E0                     l2695 181C  
                   l2687 17EA                     l2679 17AC                     l2599 162C  
                   l2863 2A94                     l2855 2A72                     l2791 2C4E  
                   l2951 1EC8                     l2943 1554                     l2927 144A  
                   l2847 2DBA                     l3823 1002                     l3815 0F50  
                   l3807 0EEC                     l3751 0BFC                     l3743 0BD4  
                   l3735 0BCA                     l3727 0B2C                     l3719 0AD2  
                   l3671 08BE                     l3663 089C                     l3655 086E  
                   l3647 0834                     l3639 080E                     l2777 1A76  
                   l2769 1A5C                     l2697 182A                     l2873 2ABC  
                   l2865 2A98                     l2793 2C50                     l2961 1F76  
                   l2945 1580                     l2929 1486                     l2849 2DB0  
                   l3825 1066                     l3817 0F5C                     l3809 0F0A  
                   l3761 0C76                     l3753 0C1C                     l3745 0BE2  
                   l3737 0BCC                     l3729 0B3A                     l3681 0916  
                   l3673 08C6                     l3665 08AA                     l3657 087C  
                   l3833 10A6                     l3649 0848                     l2779 1A7C  
                   l2699 1836                     l2875 2AD6                     l2867 2AB4  
                   l2795 2C52                     l2787 2C44                     l2971 2098  
                   l2963 1FA6                     l2947 15BC                     l2939 14AE  
                   l2891 11DE                     l3827 106E                     l3819 0F8E  
                   l3771 0C9C                     l3763 0C82                     l3755 0C2C  
                   l3739 0BCE                     l3691 098E                     l3683 0928  
                   l3675 08DA                     l3667 08B2                     l3659 0880  
                   l2877 2ADA                     l2797 2C54                     l2789 2C4C  
                   l2981 213C                     l2973 20BA                     l2965 1FC0  
                   l2957 1EF8                     l2949 15C0                     l2893 121A  
                   l2885 110C                     l3829 1092                     l3773 0C9E  
                   l3765 0C96                     l3757 0C30                     l3693 09B0  
                   l3685 094A                     l3677 08FC                     l3669 08B4  
                   l2799 2C56                     l2991 21C0                     l2983 2140  
                   l2975 20C2                     l2967 1FDA                     l2959 1F5C  
                   l2895 121E                     l2887 1182                     l2879 1104  
                   l3871 10BE                     l3791 0D0C                     l3783 0CCE  
                   l3775 0CA2                     l3767 0C98                     l3759 0C4C  
                   l3695 09B8                     l3687 0966                     l3679 090E  
                   l2993 21CC                     l2985 215C                     l2977 20F8  
                   l2969 207E                     l2897 123A                     l2889 11B2  
                   l3793 0D3E                     l3785 0CD2                     l3777 0CC6  
                   l3769 0C9A                     l3697 09CA                     l3689 097A  
                   l2995 26A0                     l2987 216E                     l2979 212C  
                   l3795 0D78                     l3787 0CEE                     l3699 09EC  
                   l2997 26A4                     l2989 21A4                     l3797 0D86  
                   l3789 0CFE                     l2999 26B2                     l3799 0DA2  
                   u2000 289C                     u2001 2898                     u2010 28C2  
                   u2011 28BA                     u2100 2442                     u2101 243E  
                   u2110 2474                     u2030 28EA                     u2111 2470  
                   u2031 28E6                     u2200 16DE                     u2120 15F8  
                   u3000 24E0                     u2040 2B92                     u2201 16DA  
                   u2121 15F4                     u2041 2B8E                     u2210 174C  
                   u2130 160A                     u3010 250E                     u2050 2BCC  
                   u2211 1748                     u2131 1606                     u3011 250A  
                   u2051 2BC8                     u2300 182A                     u2220 1764  
                   u2140 161A                     u3020 2522                     u3100 22F2  
                   u2060 239C                     u2028 28C4                     u2301 1826  
                   u2221 175E                     u2141 1616                     u3021 251E  
                   u3005 24D6                     u3101 22EE                     u2061 2398  
                   u2310 1848                     u2230 1766                     u2150 165C  
                   u3030 254A                     u3110 2310                     u2070 23BE  
                   u2311 1844                     u2151 1658                     u3031 2546  
                   u3111 230C                     u2071 23BA                     u2400 1986  
                   u2320 1880                     u2240 178E                     u2160 1672  
                   u3040 256A                     u3120 2320                     u2080 23F8  
                   u4000 0CEE                     u2401 1982                     u2321 187C  
                   u2241 178A                     u2161 166E                     u3041 2566  
                   u3121 231C                     u2081 23F4                     u4001 0CEA  
                   u2410 199C                     u2330 18C6                     u2250 17AC  
                   u2170 1684                     u3050 257A                     u3130 232E  
                   u2090 241A                     u4010 0D0C                     u2411 1998  
                   u2331 18C2                     u2251 17A8                     u2171 1680  
                   u3051 2576                     u3131 232A                     u2091 2416  
                   u4011 0D08                     u2500 1A8A                     u2420 19B2  
                   u2340 18FC                     u2260 17CC                     u2180 1694  
                   u3140 2368                     u3060 21E8                     u4100 1092  
                   u4020 0D3E                     u2501 1A86                     u2421 19AE  
                   u2341 18F8                     u2261 17C8                     u2181 1690  
                   u3141 2364                     u3061 21E4                     u4101 108E  
                   u4021 0D3A                     u2510 2B1E                     u2430 19C6  
                   u2350 190C                     u2270 17DA                     u2190 16D0  
                   u3150 2376                     u3070 21F6                     u4030 0D78  
                   u2511 2B1A                     u2431 19C2                     u2351 1908  
                   u2271 17D6                     u2191 16CC                     u3151 2372  
                   u3071 21F2                     u4031 0D74                     u2520 2B72  
                   u2440 19E0                     u2360 1938                     u2280 17EA  
                   u3080 2252                     u2600 14A6                     u4040 0D86  
                   u2521 2B6E                     u2441 19DC                     u2361 1934  
                   u2281 17E6                     u3081 224E                     u2601 14A2  
                   u4041 0D82                     u2450 1A1A                     u2370 1948  
                   u2290 181C                     u3090 22A8                     u2530 2AB4  
                   u2610 1524                     u4050 0F0A                     u2451 1A16  
                   u2371 1944                     u2291 1818                     u3091 22A4  
                   u2531 2AB0                     u2611 1520                     u4051 0F06  
                   u1900 2976                     u2700 26D4                     u2460 1A2C  
                   u2380 1964                     u2540 2AF6                     u2620 15DC  
                   u4060 0F26                     u1901 2972                     u2701 26D0  
                   u2461 1A28                     u2381 1960                     u2541 2AF2  
                   u2621 15D8                     u4061 0F22                     u1910 2994  
                   u2710 26FA                     u2470 1A3C                     u2390 1974  
                   u2630 1F5C                     u2550 1182                     u4070 0F50  
                   u1911 2990                     u2711 26F6                     u2471 1A38  
                   u2391 1970                     u2631 1F58                     u2551 117E  
                   u4071 0F4C                     u1920 29B0                     u2720 271C  
                   u2800 1B3C                     u2480 1A5C                     u2640 1FA6  
                   u2560 123A                     u4080 0F8E                     u1921 29AC  
                   u2721 2718                     u2801 1B38                     u2481 1A58  
                   u2641 1FA2                     u2561 1236                     u4081 0F8A  
                   u1930 29D6                     u2730 273A                     u2810 1B72  
                   u2490 1A6E                     u2650 20BA                     u2570 12B8  
                   u4090 1002                     u1931 29D2                     u2731 2736  
                   u2811 1B6E                     u2491 1A6A                     u2651 20B6  
                   u2571 12B4                     u4091 0FFE                     u2740 276A  
                   u2900 1DFA                     u2820 1B82                     u2660 215C  
                   u1940 27B0                     u2580 1370                     u2741 2766  
                   u2901 1DF6                     u2821 1B7E                     u2661 2158  
                   u1941 27AC                     u2581 136C                     u2910 1E42  
                   u2830 1CFC                     u2750 1AB8                     u2670 216E  
                   u1950 27D4                     u2590 13EE                     u2911 1E3E  
                   u2751 1AB4                     u2671 216A                     u1951 27D0  
                   u2591 13EA                     u1880 2936                     u2920 1E70  
                   u2840 1D56                     u2760 1ACA                     u2680 21C0  
                   u1960 27FA                     u3800 098E                     u1881 2932  
                   u2921 1E6C                     u2841 1D52                     u2761 1AC6  
                   u2681 21BC                     u1961 27F2                     u3801 098A  
                   u1890 2950                     u2690 26B2                     u2930 1EAA  
                   u2850 1D76                     u2770 1ADA                     u3810 09B0  
                   u1891 294C                     u2691 26AE                     u2931 1EA6  
                   u2851 1D72                     u2835 1CF2                     u2771 1AD6  
                   u3811 09AC                     u2940 25CA                     u2860 1D88  
                   u2780 1B1A                     u1980 2820                     u3900 0AF4  
                   u3820 09CA                     u3740 087C                     u2941 25C6  
                   u2861 1D84                     u2781 1B16                     u1981 281C  
                   u3901 0AF0                     u3821 09C6                     u3741 0878  
                   u2950 2608                     u2870 1DB6                     u2790 1B2C  
                   u1990 2878                     u3910 0B1C                     u3830 09EC  
                   u3750 08AA                     u2951 2604                     u2871 1DB2  
                   u2791 1B28                     u1991 2874                     u3911 0B18  
                   u3831 09E8                     u3751 08A6                     u2960 2626  
                   u2880 1DCC                     u3920 0B3A                     u3840 0A16  
                   u3760 08FC                     u2961 2622                     u2881 1DC8  
                   u3921 0B36                     u3841 0A12                     u3761 08F8  
                   u2970 2646                     u2890 1DE0                     u1978 27FC  
                   u3930 0BBA                     u3850 0A3E                     u3770 090E  
                   u2971 2642                     u2891 1DDC                     u3931 0BB0  
                   u3851 0A3A                     u3771 090A                     u2980 2696  
                   u3860 0A60                     u3780 0928                     u2981 2692  
                   u3861 0A5C                     u3781 0924                     u2990 24AC  
                   u3950 0BE2                     u3870 0A88                     u3790 094A  
                   u2991 24A8                     u3951 0BDE                     u3871 0A84  
                   u3791 0946                     u3960 0C1C                     u3880 0AAA  
                   u3961 0C18                     u3881 0AA6                     u3970 0C4C  
                   u3890 0AD2                     u3971 0C48                     u3891 0ACE  
                   u3980 0C76                     u3948 0BBE                     u3981 0C72  
                   u3990 0CC6                     u3991 0CC2                     _TXIF 007CF4  
                   _main 080E                     _maxs 00A6                     _mode 008E  
                   _setA 2DBA                     _setB 2DB0                     _setC 2DA6  
                   _setD 2D9C                     _mins 0094                     _time 0060  
                   fsr1h 000FE2                     fsr2h 000FDA                     fsr1l 000FE1  
                   fsr2l 000FD9                     btemp 005A                     prodh 000FF4  
                   prodl 000FF3                     start 000E             ___param_bank 000000  
                  ??_enc 0001            ___fltol@sign1 004C          __end_of___aldiv 2496  
        __end_of___almod 278C          __end_of___fladd 1A9E                    ?_main 0001  
                  ?_setA 0001                    ?_setB 0001                    ?_setC 0001  
                  ?_setD 0001          __end_of___awdiv 29E8                    _EEADR 000FA9  
        __end_of___flmul 1EC8          __end_of___flsub 2CD6          __end_of___fltol 259C  
                  _CMCON 000FB4          ___awdiv@divisor 0007                    i2l333 2A66  
        ___awdiv@counter 0009                    _TMR0H 000FD7                    _TMR1H 000FCF  
                  _TMR0L 000FD6                    _TMR1L 000FCE                    _SPBRG 000FAF  
                  _TXREG 000FAD          __end_of_an_init 2D66      ___lmul@multiplicand 0009  
        __end_of_init_io 2D42                    main@a 00EC                    main@b 00EE  
                  main@i 00F0                    tablat 000FF5                    ttemp5 005B  
                  ttemp6 005E                    ttemp7 0062                    status 000FD8  
                  wtemp8 005B     __end_of_EnhancedRead 2B74          __initialization 2BDE  
           __end_of_main 1104             __end_of_setA 2DC4             __end_of_setB 2DBA  
           __end_of_setC 2DB0             __end_of_setD 2DA6                   ??_main 00E6  
                 ??_setA 0005                   ??_setB 0005                   ??_setC 0005  
                 ??_setD 0005            __activetblptr 000002                   _ADRESH 000FC4  
                 _ADRESL 000FC3                   _EEDATA 000FA8                   _CCPR1L 000FBE  
                 _CCPR2L 000FBB                   _EECON2 000FA7         ___awdiv@dividend 0005  
                 i2l3551 2A00                   i2l3553 2A0A                   i2l3563 2A5C  
                 i2l3565 2A64                   i2l3557 2A2A                   i2l3549 29F2  
                 i2l3559 2A54                   _TMR0IF 007F92                   _SPBRGH 000FB0  
                 _TMR2ON 007E52            ??_MotorASpeed 000F            ??_MotorBSpeed 000F  
       __end_of___xxtofl 238A              line_cal@aux 0033                   ___flge 259C  
                 ___lmul 2B74                ??___aldiv 0019                ??___almod 000D  
              ??___fladd 0034                ??___awdiv 0009                   _calval 0100  
              ??___flmul 001B                ??___flsub 0044                ??___fltol 0048  
                 _kd_val 0801         __end_of_line_cal 21D6         __end_of_init_cal 2AF8  
                 _kp_val 0805         __end_of_read_cal 15DE                   _old_lp 0090  
                 _intern 0088         __end_of_init_tms 2C90                   clear_0 2C24  
                 clear_1 2C30                ??_an_init 0005         ___awdiv@quotient 000B  
                 _mspeed 2D82                   isa$std 000001                   _status 00E4  
                 main@fs 00F4                ??_init_io 0005             __pdataCOMRAM 0052  
           __mediumconst 0000                   tblptrh 000FF7                   tblptrl 000FF6  
                 tblptru 000FF8            _line_cal$2432 0025               ___flge@ff1 0005  
             ___flge@ff2 0009             ___xxtofl@arg 000F             ___xxtofl@exp 000E  
           ___xxtofl@val 0005               __accesstop 0060  __end_of__initialization 2C36  
          ___rparam_used 000001               ___fltol@f1 0044           __pcstackCOMRAM 0001  
           __pidataBANK0 2D66      __end_of_MotorASpeed 285C      __end_of_MotorBSpeed 2924  
             __pbssBANK0 0060               __pbssBANK1 0100        __end_of_MotorsPWM 2D14  
                ?___flge 0005                  ?___lmul 0005           ___lmul@product 000D  
                ?_mspeed 004E                  _T2CKPS0 007E50                  _T2CKPS1 007E51  
              ?___xxtofl 0005             _EnhancedRead 2AF8                ?_line_cal 0001  
              ?_init_cal 0001                ?_read_cal 0001                ?_init_tms 0001  
            _MotorASpeed 278C              _MotorBSpeed 285C                  __Hparam 0000  
                __Lparam 0000                  ___aldiv 238A                  ___almod 26A0  
                ___fladd 15DE                  ___awdiv 2924                  ___flmul 1A9E  
                ___flsub 2C90                  ___fltol 2496             __psmallconst 0800  
                __pcinit 2BDE                  _an_init 2D42                  __ramtop 0800  
                __ptext0 080E                  __ptext1 2D9C                  __ptext2 2DA6  
                __ptext3 2DB0                  __ptext4 2DBA                  __ptext5 1104  
                __ptext6 2D82                  __ptext7 285C                  __ptext8 278C  
                __ptext9 1EC8                _T0CONbits 000FD5                _T1CONbits 000FCD  
              _T2CONbits 000FCA                  _init_io 2D14               ??___xxtofl 0009  
       ___aldiv@dividend 0011                  main@dif 00F8                  main@der 00EA  
         __pintcode_body 29E8     end_of_initialization 2C36               ??_line_cal 001F  
             ??_init_cal 0005            __Lmediumconst 0000                  int_func 29E8  
             ??_read_cal 0005               ??_init_tms 0005                  mspeed@a 004E  
                mspeed@b 0050                _RCSTAbits 000FAB         ___aldiv@quotient 001B  
                postdec1 000FE5                  postdec2 000FDD                  postinc0 000FEE  
                postinc1 000FE6                  postinc2 000FDE               _speed_vals 0809  
              _PORTAbits 000F80                _PORTBbits 000F81                _PORTCbits 000F82  
              _PORTDbits 000F83                _PORTEbits 000F84              ___fladd@grs 003B  
          ___xxtofl@sign 000D                _TRISAbits 000F92                _TRISBbits 000F93  
              _TRISCbits 000F94                _TRISDbits 000F95                _TRISEbits 000F96  
            ___flmul@grs 0020              _CCP1CONbits 000FBD              _CCP2CONbits 000FBA  
              _TXSTAbits 000FAC           __end_of___flge 26A0           __end_of___lmul 2BDE  
            _BAUDCONbits 000FB8            __pidataCOMRAM 2DC4           __end_of_kd_val 0805  
         __end_of_kp_val 0809           __end_of_mspeed 2D9C      start_initialization 2BDE  
            __end_of_enc 2A72               line_cal@ok 0031                _MotorsPWM 2CD6  
               ??___flge 000D                 ??___lmul 000D              __pdataBANK0 00CA  
               ??_mspeed 0052                ___fladd@a 0030                ___fladd@b 002C  
              ___flmul@a 0017                ___flmul@b 0013                ___flsub@a 0040  
              ___flsub@b 003C            __pcstackBANK0 00E6             _read_cal$523 000E  
           _read_cal$525 0010             _read_cal$527 0012             _read_cal$529 0014  
           ?_MotorASpeed 000D             ?_MotorBSpeed 000D               ?_MotorsPWM 0001  
              __pintcode 0008                 ?___aldiv 0011                 ?___almod 0005  
               ?___fladd 002C                 ?___awdiv 0005                 ?___flmul 0013  
               ?___flsub 003C                 ?___fltol 0044                 ?_an_init 0001  
       ___almod@dividend 0005              __smallconst 0800                 ?_init_io 0001  
           MotorASpeed@S 000D             MotorBSpeed@S 000D          ___aldiv@divisor 0015  
               _T2OUTPS0 007E53                 _T2OUTPS1 007E54                 _T2OUTPS2 007E55  
               _T2OUTPS3 007E56          ___aldiv@counter 0019            EnhancedRead@i 0010  
               i2u357_40 2A00                 i2u357_41 29FC                 i2u358_40 2A26  
               i2u358_41 2A22                 _UCFGbits 000F6F                 _RCONbits 000FD0  
               _UCONbits 000F6D               _ADCON0bits 000FC2               _ADCON1bits 000FC1  
             _ADCON2bits 000FC0                main@i_346 00F2                main@speed 00FC  
      ___lmul@multiplier 0005              _INTCON2bits 000FF1                copy_data0 2BF2  
              copy_data1 2C12               _EECON1bits 000FA6                 __Hrparam 0000  
              line_cal@a 0029                line_cal@b 002D                line_cal@i 0039  
              line_cal@j 003B                 __Lrparam 0000                init_cal@i 0005  
            ??_MotorsPWM 0005            line_cal@value 0035                read_cal@i 0016  
               ___xxtofl 21D6                 _best_err 008A                 __ptext10 2B74  
               __ptext11 238A                 __ptext20 15DE                 __ptext12 2C44  
               __ptext21 1A9E                 __ptext13 2D14                 __ptext22 259C  
               __ptext14 2D42                 __ptext23 26A0                 __ptext15 2CD6  
               __ptext24 2AF8                 __ptext16 2A72                 __ptext25 2924  
               __ptext17 21D6                 __ptext18 2496                 __ptext19 2C90  
        ___almod@divisor 0009          ___almod@counter 000D                 _line_cal 1EC8  
               _init_cal 2A72                 _read_cal 1104                 _init_tms 2C44  
               isa$xinst 000000                 int$flags 005A          EnhancedRead@aux 000E  
               main@faux 00F6            ?_EnhancedRead 0001               _INTCONbits 000FF2  
               intlevel2 0000       __end_of_speed_vals 080D               _OSCCONbits 000FD3  
         ??_EnhancedRead 000D             ___aldiv@sign 001A            ___fladd@signs 0038  
           ___almod@sign 000E             ___fladd@aexp 0039             ___fladd@bexp 003A  
