

Microchip MPLAB XC8 Assembler V2.40 build 20220703182018 
                                                                                               Sat Jul 12 15:39:03 2025

Microchip MPLAB XC8 C Compiler v2.40 (Free license) build 20220703182018 Og1 
     1                           	processor	18F4550
     2                           	fnconf	rparam,??,?,0
     3                           	pagewidth 120
     4                           	opt	flic
     5                           	psect	cinit,global,reloc=2,class=CODE,delta=1
     6                           	psect	bssCOMRAM,global,class=COMRAM,space=1,delta=1,lowdata,noexec
     7                           	psect	bssBANK0,global,class=BANK0,space=1,delta=1,lowdata,noexec
     8                           	psect	bssBANK1,global,class=BANK1,space=1,delta=1,lowdata,noexec
     9                           	psect	bssBANK2,global,class=BANK2,space=1,delta=1,lowdata,noexec
    10                           	psect	cstackBANK1,global,class=BANK1,space=1,delta=1,lowdata,noexec
    11                           	psect	cstackCOMRAM,global,class=COMRAM,space=1,delta=1,lowdata,noexec
    12                           	psect	text0,global,reloc=2,class=CODE,delta=1
    13                           	psect	text1,global,reloc=2,class=CODE,delta=1
    14                           	psect	text2,global,reloc=2,class=CODE,delta=1
    15                           	psect	text3,global,reloc=2,class=CODE,delta=1,group=1
    16                           	psect	text4,global,reloc=2,class=CODE,delta=1
    17                           	psect	text5,global,reloc=2,class=CODE,delta=1
    18                           	psect	text6,global,reloc=2,class=CODE,delta=1,group=1
    19                           	psect	text7,global,reloc=2,class=CODE,delta=1
    20                           	psect	text8,global,reloc=2,class=CODE,delta=1,group=1
    21                           	psect	text9,global,reloc=2,class=CODE,delta=1,group=1
    22                           	psect	text10,global,reloc=2,class=CODE,delta=1
    23                           	psect	text11,global,reloc=2,class=CODE,delta=1
    24                           	psect	text12,global,reloc=2,class=CODE,delta=1
    25                           	psect	text13,global,reloc=2,class=CODE,delta=1
    26                           	psect	text14,global,reloc=2,class=CODE,delta=1
    27                           	psect	intcode,global,reloc=2,class=CODE,delta=1
    28                           	psect	intcode_body,global,reloc=2,class=CODE,delta=1
    29                           	psect	intsave_regs,global,class=BIGRAM,space=1,delta=1,noexec
    30                           	psect	rparam,global,class=COMRAM,space=1,delta=1,noexec
    31                           	psect	temp,global,ovrld,common,class=COMRAM,space=1,delta=1
    32                           	psect	idloc,global,abs,ovrld,class=IDLOC,space=5,delta=1,noexec
    33                           	psect	config,global,abs,ovrld,class=CONFIG,space=4,delta=1,noexec
    34   000000                     
    35                           ; Version 2.40
    36                           ; Generated 17/11/2021 GMT
    37                           ; 
    38                           ; Copyright © 2021, Microchip Technology Inc. and its subsidiaries ("Microchip")
    39                           ; All rights reserved.
    40                           ; 
    41                           ; This software is developed by Microchip Technology Inc. and its subsidiaries ("Microch
      +                          ip").
    42                           ; 
    43                           ; Redistribution and use in source and binary forms, with or without modification, are
    44                           ; permitted provided that the following conditions are met:
    45                           ; 
    46                           ;     1. Redistributions of source code must retain the above copyright notice, this lis
      +                          t of
    47                           ;        conditions and the following disclaimer.
    48                           ; 
    49                           ;     2. Redistributions in binary form must reproduce the above copyright notice, this 
      +                          list
    50                           ;        of conditions and the following disclaimer in the documentation and/or other
    51                           ;        materials provided with the distribution. Publication is not required when
    52                           ;        this file is used in an embedded application.
    53                           ; 
    54                           ;     3. Microchip's name may not be used to endorse or promote products derived from th
      +                          is
    55                           ;        software without specific prior written permission.
    56                           ; 
    57                           ; THIS SOFTWARE IS PROVIDED BY MICROCHIP "AS IS" AND ANY EXPRESS OR IMPLIED WARRANTIES,
    58                           ; INCLUDING, BUT NOT LIMITED TO, THE IMPLIED WARRANTIES OF MERCHANTABILITY AND FITNESS F
      +                          OR
    59                           ; PURPOSE ARE DISCLAIMED.  IN NO EVENT SHALL MICROCHIP BE LIABLE FOR ANY DIRECT, INDIREC
      +                          T,
    60                           ; INCIDENTAL, SPECIAL, EXEMPLARY, OR CONSEQUENTIAL DAMAGES (INCLUDING BUT NOT LIMITED TO
    61                           ; PROCUREMENT OF SUBSTITUTE GOODS OR SERVICES; LOSS OF USE, DATA OR PROFITS; OR BUSINESS
    62                           ; INTERRUPTION) HOWSOEVER CAUSED AND ON ANY THEORY OF LIABILITY, WHETHER IN CONTRACT, ST
      +                          RICT
    63                           ; LIABILITY, OR TORT (INCLUDING NEGLIGENCE OR OTHERWISE) ARISING IN ANY WAY OUT OF THE U
      +                          SE OF
    64                           ; THIS SOFTWARE, EVEN IF ADVISED OF THE POSSIBILITY OF SUCH DAMAGE.
    65                           ; 
    66                           ; 
    67                           ; Code-generator required, PIC18F4550 Definitions
    68                           ; 
    69                           ; SFR Addresses
    70   000000                     _EECON2	set	4007
    71   000000                     _EEDATA	set	4008
    72   000000                     _ADRESL	set	4035
    73   000000                     _ADRESH	set	4036
    74   000000                     _TMR1L	set	4046
    75   000000                     _TMR1H	set	4047
    76   000000                     _TMR0L	set	4054
    77   000000                     _TMR0H	set	4055
    78   000000                     _INTCON2bits	set	4081
    79   000000                     _TMR0IF	set	32658
    80   000000                     _UCONbits	set	3949
    81   000000                     _CMCON	set	4020
    82   000000                     _OSCCONbits	set	4051
    83   000000                     _T0CONbits	set	4053
    84   000000                     _BAUDCONbits	set	4024
    85   000000                     _CCP2CONbits	set	4026
    86   000000                     _CCP1CONbits	set	4029
    87   000000                     _T2CONbits	set	4042
    88   000000                     _T1CONbits	set	4045
    89   000000                     _RCONbits	set	4048
    90   000000                     _UCFGbits	set	3951
    91   000000                     _PORTBbits	set	3969
    92   000000                     _PORTCbits	set	3970
    93   000000                     _PORTDbits	set	3971
    94   000000                     _TRISAbits	set	3986
    95   000000                     _TRISBbits	set	3987
    96   000000                     _TRISCbits	set	3988
    97   000000                     _INTCONbits	set	4082
    98   000000                     _PR2	set	4043
    99   000000                     _ADCON2bits	set	4032
   100   000000                     _ADCON1bits	set	4033
   101   000000                     _ADCON0bits	set	4034
   102   000000                     _CCPR1L	set	4030
   103   000000                     _CCPR2L	set	4027
   104   000000                     _EECON1bits	set	4006
   105   000000                     _EEADR	set	4009
   106   000000                     _TRISEbits	set	3990
   107   000000                     _TRISDbits	set	3989
   108   000000                     _RCSTAbits	set	4011
   109   000000                     _TXSTAbits	set	4012
   110   000000                     _SPBRG	set	4015
   111   000000                     _TXIF	set	31988
   112   000000                     _EEIF	set	32012
   113   000000                     _SPBRGH	set	4016
   114   000000                     _TXREG	set	4013
   115                           
   116                           ; #config settings
   117                           
   118                           	psect	cinit
   119   00162E                     __pcinit:
   120                           	callstack 0
   121   00162E                     start_initialization:
   122                           	callstack 0
   123   00162E                     __initialization:
   124                           	callstack 0
   125                           
   126                           ; Clear objects allocated to BANK2 (256 bytes)
   127   00162E  EE02  F000         	lfsr	0,__pbssBANK2
   128   001632  EE11 F000          	lfsr	1,256
   129   001636                     clear_0:
   130   001636  6AEE               	clrf	postinc0,c
   131   001638  50E5               	movf	postdec1,w,c
   132   00163A  50E1               	movf	fsr1l,w,c
   133   00163C  E1FC               	bnz	clear_0
   134   00163E  50E2               	movf	fsr1h,w,c
   135   001640  E1FA               	bnz	clear_0
   136                           
   137                           ; Clear objects allocated to BANK1 (46 bytes)
   138   001642  EE01  F000         	lfsr	0,__pbssBANK1
   139   001646  0E2E               	movlw	46
   140   001648                     clear_1:
   141   001648  6AEE               	clrf	postinc0,c
   142   00164A  06E8               	decf	wreg,f,c
   143   00164C  E1FD               	bnz	clear_1
   144                           
   145                           ; Clear objects allocated to BANK0 (158 bytes)
   146   00164E  EE00  F060         	lfsr	0,__pbssBANK0
   147   001652  0E9E               	movlw	158
   148   001654                     clear_2:
   149   001654  6AEE               	clrf	postinc0,c
   150   001656  06E8               	decf	wreg,f,c
   151   001658  E1FD               	bnz	clear_2
   152                           
   153                           ; Clear objects allocated to COMRAM (26 bytes)
   154   00165A  EE00  F03B         	lfsr	0,__pbssCOMRAM
   155   00165E  0E1A               	movlw	26
   156   001660                     clear_3:
   157   001660  6AEE               	clrf	postinc0,c
   158   001662  06E8               	decf	wreg,f,c
   159   001664  E1FD               	bnz	clear_3
   160   001666                     end_of_initialization:
   161                           	callstack 0
   162   001666                     __end_of__initialization:
   163                           	callstack 0
   164   001666  9055               	bcf	int$flags,0,c	;clear compiler interrupt flag (level 1)
   165   001668  9255               	bcf	int$flags,1,c	;clear compiler interrupt flag (level 2)
   166   00166A  0100               	movlb	0
   167   00166C  EF38  F00B         	goto	_main	;jump to C main() function
   168                           
   169                           	psect	bssCOMRAM
   170   00003B                     __pbssCOMRAM:
   171                           	callstack 0
   172   00003B                     _combination_state:
   173                           	callstack 0
   174   00003B                     	ds	10
   175   000045                     _b_state:
   176                           	callstack 0
   177   000045                     	ds	5
   178   00004A                     _pwm:
   179                           	callstack 0
   180   00004A                     	ds	4
   181   00004E                     _persisted_status:
   182                           	callstack 0
   183   00004E                     	ds	2
   184   000050                     _status_value:
   185                           	callstack 0
   186   000050                     	ds	2
   187   000052                     _status_enabled:
   188                           	callstack 0
   189   000052                     	ds	1
   190   000053                     _int_status:
   191                           	callstack 0
   192   000053                     	ds	1
   193   000054                     _initial_state:
   194                           	callstack 0
   195   000054                     	ds	1
   196                           
   197                           	psect	bssBANK0
   198   000060                     __pbssBANK0:
   199                           	callstack 0
   200   000060                     _state_counter:
   201                           	callstack 0
   202   000060                     	ds	40
   203   000088                     _b_counter:
   204                           	callstack 0
   205   000088                     	ds	40
   206   0000B0                     _counter:
   207                           	callstack 0
   208   0000B0                     	ds	40
   209   0000D8                     _iterations:
   210                           	callstack 0
   211   0000D8                     	ds	8
   212   0000E0                     _leds:
   213                           	callstack 0
   214   0000E0                     	ds	5
   215   0000E5                     _triple_click_evt:
   216                           	callstack 0
   217   0000E5                     	ds	5
   218   0000EA                     _double_click_evt:
   219                           	callstack 0
   220   0000EA                     	ds	5
   221   0000EF                     _single_click_evt:
   222                           	callstack 0
   223   0000EF                     	ds	5
   224   0000F4                     _b:
   225                           	callstack 0
   226   0000F4                     	ds	5
   227   0000F9                     _last_b:
   228                           	callstack 0
   229   0000F9                     	ds	5
   230                           
   231                           	psect	bssBANK1
   232   000100                     __pbssBANK1:
   233                           	callstack 0
   234   000100                     _an_input:
   235                           	callstack 0
   236   000100                     	ds	20
   237   000114                     _amount_cycles:
   238                           	callstack 0
   239   000114                     	ds	8
   240   00011C                     _sum_iterations:
   241                           	callstack 0
   242   00011C                     	ds	8
   243   000124                     _release_evt:
   244                           	callstack 0
   245   000124                     	ds	5
   246   000129                     _press_evt:
   247                           	callstack 0
   248   000129                     	ds	5
   249                           
   250                           	psect	bssBANK2
   251   000200                     __pbssBANK2:
   252                           	callstack 0
   253   000200                     _persisted_data:
   254                           	callstack 0
   255   000200                     	ds	256
   256                           
   257                           	psect	cstackBANK1
   258   00012E                     __pcstackBANK1:
   259                           	callstack 0
   260   00012E                     ??_loop:
   261                           
   262                           ; 1 bytes @ 0x0
   263   00012E                     	ds	8
   264                           
   265                           	psect	cstackCOMRAM
   266   000001                     __pcstackCOMRAM:
   267                           	callstack 0
   268   000001                     ??_enc:
   269   000001                     
   270                           ; 1 bytes @ 0x0
   271   000001                     	ds	4
   272   000005                     enc@i:
   273                           	callstack 0
   274                           
   275                           ; 2 bytes @ 0x4
   276   000005                     	ds	2
   277   000007                     ??_init_vars:
   278   000007                     ??_buttons_init:
   279   000007                     ??_buttons_loop:
   280   000007                     ?___awmod:
   281                           	callstack 0
   282   000007                     ?___omul:
   283                           	callstack 0
   284   000007                     status_init@i:
   285                           	callstack 0
   286   000007                     ___awmod@dividend:
   287                           	callstack 0
   288   000007                     ___omul@multiplier:
   289                           	callstack 0
   290                           
   291                           ; 8 bytes @ 0x6
   292   000007                     	ds	2
   293   000009                     init_vars@i:
   294                           	callstack 0
   295   000009                     buttons_init@i:
   296                           	callstack 0
   297   000009                     ___awmod@divisor:
   298                           	callstack 0
   299                           
   300                           ; 2 bytes @ 0x8
   301   000009                     	ds	2
   302   00000B                     ___awmod@counter:
   303                           	callstack 0
   304                           
   305                           ; 1 bytes @ 0xA
   306   00000B                     	ds	1
   307   00000C                     ___awmod@sign:
   308                           	callstack 0
   309                           
   310                           ; 1 bytes @ 0xB
   311   00000C                     	ds	1
   312   00000D                     ?___awdiv:
   313                           	callstack 0
   314   00000D                     ___awdiv@dividend:
   315                           	callstack 0
   316                           
   317                           ; 2 bytes @ 0xC
   318   00000D                     	ds	2
   319   00000F                     ___awdiv@divisor:
   320                           	callstack 0
   321   00000F                     ___omul@multiplicand:
   322                           	callstack 0
   323                           
   324                           ; 8 bytes @ 0xE
   325   00000F                     	ds	2
   326   000011                     ___awdiv@counter:
   327                           	callstack 0
   328   000011                     buttons_loop@click_evt:
   329                           	callstack 0
   330                           
   331                           ; 5 bytes @ 0x10
   332   000011                     	ds	1
   333   000012                     ___awdiv@sign:
   334                           	callstack 0
   335                           
   336                           ; 1 bytes @ 0x11
   337   000012                     	ds	1
   338   000013                     ___awdiv@quotient:
   339                           	callstack 0
   340                           
   341                           ; 2 bytes @ 0x12
   342   000013                     	ds	2
   343   000015                     ??_read_analog:
   344   000015                     ??_update_pwm:
   345   000015                     ??_status_loop:
   346                           
   347                           ; 1 bytes @ 0x14
   348   000015                     	ds	1
   349   000016                     read_analog@aux:
   350                           	callstack 0
   351   000016                     update_pwm@pwm0:
   352                           	callstack 0
   353   000016                     buttons_loop@i_1315:
   354                           	callstack 0
   355                           
   356                           ; 2 bytes @ 0x15
   357   000016                     	ds	1
   358   000017                     ___omul@product:
   359                           	callstack 0
   360                           
   361                           ; 8 bytes @ 0x16
   362   000017                     	ds	1
   363   000018                     read_analog@i:
   364                           	callstack 0
   365   000018                     update_pwm@pwm1:
   366                           	callstack 0
   367   000018                     buttons_loop@i:
   368                           	callstack 0
   369                           
   370                           ; 2 bytes @ 0x17
   371   000018                     	ds	6
   372   00001E                     status_loop@half_status:
   373                           	callstack 0
   374                           
   375                           ; 2 bytes @ 0x1D
   376   00001E                     	ds	1
   377   00001F                     ?___aodiv:
   378                           	callstack 0
   379   00001F                     ___aodiv@dividend:
   380                           	callstack 0
   381                           
   382                           ; 8 bytes @ 0x1E
   383   00001F                     	ds	1
   384   000020                     status_loop@half_led:
   385                           	callstack 0
   386                           
   387                           ; 2 bytes @ 0x1F
   388   000020                     	ds	2
   389   000022                     status_loop@i:
   390                           	callstack 0
   391                           
   392                           ; 2 bytes @ 0x21
   393   000022                     	ds	5
   394   000027                     ___aodiv@divisor:
   395                           	callstack 0
   396                           
   397                           ; 8 bytes @ 0x26
   398   000027                     	ds	8
   399   00002F                     ___aodiv@counter:
   400                           	callstack 0
   401                           
   402                           ; 1 bytes @ 0x2E
   403   00002F                     	ds	1
   404   000030                     ___aodiv@sign:
   405                           	callstack 0
   406                           
   407                           ; 1 bytes @ 0x2F
   408   000030                     	ds	1
   409   000031                     ___aodiv@quotient:
   410                           	callstack 0
   411                           
   412                           ; 8 bytes @ 0x30
   413   000031                     	ds	8
   414   000039                     loop@analog_read:
   415                           	callstack 0
   416                           
   417                           ; 2 bytes @ 0x38
   418   000039                     	ds	2
   419   00003B                     
   420                           ; 1 bytes @ 0x3A
   421 ;;
   422 ;;Main: autosize = 0, tempsize = 0, incstack = 0, save=0
   423 ;;
   424 ;; *************** function _main *****************
   425 ;; Defined at:
   426 ;;		line 618 in file "main.c"
   427 ;; Parameters:    Size  Location     Type
   428 ;;		None
   429 ;; Auto vars:     Size  Location     Type
   430 ;;		None
   431 ;; Return value:  Size  Location     Type
   432 ;;                  1    wreg      void 
   433 ;; Registers used:
   434 ;;		wreg, fsr2l, fsr2h, status,2, status,0, prodl, prodh, cstack
   435 ;; Tracked objects:
   436 ;;		On entry : 0/0
   437 ;;		On exit  : 0/0
   438 ;;		Unchanged: 0/0
   439 ;; Data sizes:     COMRAM   BANK0   BANK1   BANK2   BANK3   BANK4   BANK5   BANK6   BANK7
   440 ;;      Params:         0       0       0       0       0       0       0       0       0
   441 ;;      Locals:         0       0       0       0       0       0       0       0       0
   442 ;;      Temps:          0       0       0       0       0       0       0       0       0
   443 ;;      Totals:         0       0       0       0       0       0       0       0       0
   444 ;;Total ram usage:        0 bytes
   445 ;; Hardware stack levels required when called: 3
   446 ;; This function calls:
   447 ;;		_buttons_init
   448 ;;		_buttons_loop
   449 ;;		_config_micro
   450 ;;		_init
   451 ;;		_init_vars
   452 ;;		_loop
   453 ;;		_read_analog
   454 ;;		_status_init
   455 ;;		_status_loop
   456 ;;		_update_pwm
   457 ;; This function is called by:
   458 ;;		Startup code after reset
   459 ;; This function uses a non-reentrant model
   460 ;;
   461                           
   462                           	psect	text0
   463   001670                     __ptext0:
   464                           	callstack 0
   465   001670                     _main:
   466                           	callstack 28
   467   001670                     
   468                           ;main.c: 619:     config_micro();
   469   001670  EC59  F008         	call	_config_micro	;wreg free
   470   001674                     
   471                           ;main.c: 620:     init_vars();
   472   001674  ECB8  F00A         	call	_init_vars	;wreg free
   473   001678                     
   474                           ;main.c: 621:     buttons_init();
   475   001678  ECC5  F007         	call	_buttons_init	;wreg free
   476   00167C                     
   477                           ;main.c: 622:     status_init();
   478   00167C  ECEC  F00A         	call	_status_init	;wreg free
   479   001680                     
   480                           ;main.c: 623:     init();
   481   001680  EC50  F00B         	call	_init	;wreg free
   482   001684                     l2145:
   483                           
   484                           ;main.c: 626:         update_pwm();
   485   001684  EC10  F006         	call	_update_pwm	;wreg free
   486   001688                     
   487                           ;main.c: 627:         read_analog();
   488   001688  EC7A  F00A         	call	_read_analog	;wreg free
   489   00168C                     
   490                           ;main.c: 628:         buttons_loop();
   491   00168C  EC09  F000         	call	_buttons_loop	;wreg free
   492   001690                     
   493                           ;main.c: 629:         status_loop();
   494   001690  EC0D  F005         	call	_status_loop	;wreg free
   495   001694                     
   496                           ;main.c: 630:         loop();
   497   001694  EC32  F009         	call	_loop	;wreg free
   498   001698  EF42  F00B         	goto	l2145
   499   00169C  EF07  F000         	goto	start
   500   0016A0                     __end_of_main:
   501                           	callstack 0
   502                           
   503 ;; *************** function _update_pwm *****************
   504 ;; Defined at:
   505 ;;		line 309 in file "main.c"
   506 ;; Parameters:    Size  Location     Type
   507 ;;		None
   508 ;; Auto vars:     Size  Location     Type
   509 ;;  pwm1            2   23[COMRAM] int 
   510 ;;  pwm0            2   21[COMRAM] int 
   511 ;; Return value:  Size  Location     Type
   512 ;;                  1    wreg      void 
   513 ;; Registers used:
   514 ;;		wreg, status,2, status,0, cstack
   515 ;; Tracked objects:
   516 ;;		On entry : 0/0
   517 ;;		On exit  : 0/0
   518 ;;		Unchanged: 0/0
   519 ;; Data sizes:     COMRAM   BANK0   BANK1   BANK2   BANK3   BANK4   BANK5   BANK6   BANK7
   520 ;;      Params:         0       0       0       0       0       0       0       0       0
   521 ;;      Locals:         4       0       0       0       0       0       0       0       0
   522 ;;      Temps:          1       0       0       0       0       0       0       0       0
   523 ;;      Totals:         5       0       0       0       0       0       0       0       0
   524 ;;Total ram usage:        5 bytes
   525 ;; Hardware stack levels used: 1
   526 ;; Hardware stack levels required when called: 2
   527 ;; This function calls:
   528 ;;		___awdiv
   529 ;; This function is called by:
   530 ;;		_main
   531 ;; This function uses a non-reentrant model
   532 ;;
   533                           
   534                           	psect	text1
   535   000C20                     __ptext1:
   536                           	callstack 0
   537   000C20                     _update_pwm:
   538                           	callstack 28
   539   000C20                     
   540                           ;main.c: 310:     int pwm0, pwm1;;main.c: 312:     if (pwm[0] > 600){
   541   000C20  BE4B               	btfsc	(_pwm+1)^0,7,c
   542   000C22  EF1C  F006         	goto	u1481
   543   000C26  0E59               	movlw	89
   544   000C28  5C4A               	subwf	_pwm^0,w,c
   545   000C2A  0E02               	movlw	2
   546   000C2C  584B               	subwfb	(_pwm+1)^0,w,c
   547   000C2E  A0D8               	btfss	status,0,c
   548   000C30  EF1C  F006         	goto	u1481
   549   000C34  EF1E  F006         	goto	u1480
   550   000C38                     u1481:
   551   000C38  EF24  F006         	goto	l1785
   552   000C3C                     u1480:
   553   000C3C                     
   554                           ;main.c: 313:         pwm0 = 600;
   555   000C3C  0E02               	movlw	2
   556   000C3E  6E17               	movwf	(update_pwm@pwm0+1)^0,c
   557   000C40  0E58               	movlw	88
   558   000C42  6E16               	movwf	update_pwm@pwm0^0,c
   559                           
   560                           ;main.c: 314:     }else if (pwm[0] < -600){
   561   000C44  EF3C  F006         	goto	l1789
   562   000C48                     l1785:
   563   000C48  AE4B               	btfss	(_pwm+1)^0,7,c
   564   000C4A  EF30  F006         	goto	u1491
   565   000C4E  0EA8               	movlw	168
   566   000C50  5C4A               	subwf	_pwm^0,w,c
   567   000C52  0EFD               	movlw	253
   568   000C54  584B               	subwfb	(_pwm+1)^0,w,c
   569   000C56  B0D8               	btfsc	status,0,c
   570   000C58  EF30  F006         	goto	u1491
   571   000C5C  EF32  F006         	goto	u1490
   572   000C60                     u1491:
   573   000C60  EF38  F006         	goto	l150
   574   000C64                     u1490:
   575   000C64                     
   576                           ;main.c: 315:         pwm0 = -600;
   577   000C64  0EFD               	movlw	253
   578   000C66  6E17               	movwf	(update_pwm@pwm0+1)^0,c
   579   000C68  0EA8               	movlw	168
   580   000C6A  6E16               	movwf	update_pwm@pwm0^0,c
   581                           
   582                           ;main.c: 316:     }else{
   583   000C6C  EF3C  F006         	goto	l1789
   584   000C70                     l150:
   585                           
   586                           ;main.c: 317:         pwm0 = pwm[0];
   587   000C70  C04A  F016         	movff	_pwm,update_pwm@pwm0
   588   000C74  C04B  F017         	movff	_pwm+1,update_pwm@pwm0+1
   589   000C78                     l1789:
   590                           
   591                           ;main.c: 320:     PORTDbits.RD1 = pwm0 > 0 ? 0 : 1;
   592   000C78  BE17               	btfsc	(update_pwm@pwm0+1)^0,7,c
   593   000C7A  EF47  F006         	goto	u1501
   594   000C7E  5017               	movf	(update_pwm@pwm0+1)^0,w,c
   595   000C80  E10A               	bnz	u1500
   596   000C82  0416               	decf	update_pwm@pwm0^0,w,c
   597   000C84  A0D8               	btfss	status,0,c
   598   000C86  EF47  F006         	goto	u1501
   599   000C8A  EF4B  F006         	goto	u1500
   600   000C8E                     u1501:
   601   000C8E  6A15               	clrf	??_update_pwm^0,c
   602   000C90  2A15               	incf	??_update_pwm^0,f,c
   603   000C92  EF4C  F006         	goto	u1518
   604   000C96                     u1500:
   605   000C96  6A15               	clrf	??_update_pwm^0,c
   606   000C98                     u1518:
   607   000C98  4615               	rlncf	??_update_pwm^0,f,c
   608   000C9A  5083               	movf	131,w,c	;volatile
   609   000C9C  1815               	xorwf	??_update_pwm^0,w,c
   610   000C9E  0BFD               	andlw	-3
   611   000CA0  1815               	xorwf	??_update_pwm^0,w,c
   612   000CA2  6E83               	movwf	131,c	;volatile
   613                           
   614                           ;main.c: 321:     PORTDbits.RD0 = pwm0 < 0 ? 0 : 1;
   615   000CA4  BE17               	btfsc	(update_pwm@pwm0+1)^0,7,c
   616   000CA6  EF5B  F006         	goto	u1520
   617   000CAA  EF57  F006         	goto	u1521
   618   000CAE                     u1521:
   619   000CAE  6A15               	clrf	??_update_pwm^0,c
   620   000CB0  2A15               	incf	??_update_pwm^0,f,c
   621   000CB2  EF5C  F006         	goto	u1538
   622   000CB6                     u1520:
   623   000CB6  6A15               	clrf	??_update_pwm^0,c
   624   000CB8                     u1538:
   625   000CB8  5083               	movf	131,w,c	;volatile
   626   000CBA  1815               	xorwf	??_update_pwm^0,w,c
   627   000CBC  0BFE               	andlw	-2
   628   000CBE  1815               	xorwf	??_update_pwm^0,w,c
   629   000CC0  6E83               	movwf	131,c	;volatile
   630                           
   631                           ;main.c: 322:     pwm0 = pwm0 > 0 ? pwm0 : (-pwm0);
   632   000CC2  BE17               	btfsc	(update_pwm@pwm0+1)^0,7,c
   633   000CC4  EF6E  F006         	goto	u1540
   634   000CC8  5017               	movf	(update_pwm@pwm0+1)^0,w,c
   635   000CCA  E106               	bnz	u1541
   636   000CCC  0416               	decf	update_pwm@pwm0^0,w,c
   637   000CCE  B0D8               	btfsc	status,0,c
   638   000CD0  EF6C  F006         	goto	u1541
   639   000CD4  EF6E  F006         	goto	u1540
   640   000CD8                     u1541:
   641   000CD8  EF72  F006         	goto	l1793
   642   000CDC                     u1540:
   643   000CDC  6C16               	negf	update_pwm@pwm0^0,c
   644   000CDE  1E17               	comf	(update_pwm@pwm0+1)^0,f,c
   645   000CE0  B0D8               	btfsc	status,0,c
   646   000CE2  2A17               	incf	(update_pwm@pwm0+1)^0,f,c
   647   000CE4                     l1793:
   648                           
   649                           ;main.c: 324:     CCP1CONbits.DC1B = pwm0 % 4;
   650   000CE4  C016  F015         	movff	update_pwm@pwm0,??_update_pwm
   651   000CE8  0E03               	movlw	3
   652   000CEA  1615               	andwf	??_update_pwm^0,f,c
   653   000CEC  3A15               	swapf	??_update_pwm^0,f,c
   654   000CEE  50BD               	movf	189,w,c	;volatile
   655   000CF0  1815               	xorwf	??_update_pwm^0,w,c
   656   000CF2  0BCF               	andlw	-49
   657   000CF4  1815               	xorwf	??_update_pwm^0,w,c
   658   000CF6  6EBD               	movwf	189,c	;volatile
   659   000CF8                     
   660                           ;main.c: 325:     CCPR1L = pwm0 / 4;
   661   000CF8  C016  F00D         	movff	update_pwm@pwm0,___awdiv@dividend
   662   000CFC  C017  F00E         	movff	update_pwm@pwm0+1,___awdiv@dividend+1
   663   000D00  0E00               	movlw	0
   664   000D02  6E10               	movwf	(___awdiv@divisor+1)^0,c
   665   000D04  0E04               	movlw	4
   666   000D06  6E0F               	movwf	___awdiv@divisor^0,c
   667   000D08  ECD0  F008         	call	___awdiv	;wreg free
   668   000D0C  500D               	movf	?___awdiv^0,w,c
   669   000D0E  6EBE               	movwf	190,c	;volatile
   670   000D10                     
   671                           ;main.c: 327:     if (pwm[1] > 600){
   672   000D10  BE4D               	btfsc	(_pwm+3)^0,7,c
   673   000D12  EF94  F006         	goto	u1551
   674   000D16  0E59               	movlw	89
   675   000D18  5C4C               	subwf	(_pwm+2)^0,w,c
   676   000D1A  0E02               	movlw	2
   677   000D1C  584D               	subwfb	(_pwm+3)^0,w,c
   678   000D1E  A0D8               	btfss	status,0,c
   679   000D20  EF94  F006         	goto	u1551
   680   000D24  EF96  F006         	goto	u1550
   681   000D28                     u1551:
   682   000D28  EF9C  F006         	goto	l1801
   683   000D2C                     u1550:
   684   000D2C                     
   685                           ;main.c: 328:         pwm1 = 600;
   686   000D2C  0E02               	movlw	2
   687   000D2E  6E19               	movwf	(update_pwm@pwm1+1)^0,c
   688   000D30  0E58               	movlw	88
   689   000D32  6E18               	movwf	update_pwm@pwm1^0,c
   690                           
   691                           ;main.c: 329:     }else if (pwm[1] < -600){
   692   000D34  EFB4  F006         	goto	l1805
   693   000D38                     l1801:
   694   000D38  AE4D               	btfss	(_pwm+3)^0,7,c
   695   000D3A  EFA8  F006         	goto	u1561
   696   000D3E  0EA8               	movlw	168
   697   000D40  5C4C               	subwf	(_pwm+2)^0,w,c
   698   000D42  0EFD               	movlw	253
   699   000D44  584D               	subwfb	(_pwm+3)^0,w,c
   700   000D46  B0D8               	btfsc	status,0,c
   701   000D48  EFA8  F006         	goto	u1561
   702   000D4C  EFAA  F006         	goto	u1560
   703   000D50                     u1561:
   704   000D50  EFB0  F006         	goto	l158
   705   000D54                     u1560:
   706   000D54                     
   707                           ;main.c: 330:         pwm1 = -600;
   708   000D54  0EFD               	movlw	253
   709   000D56  6E19               	movwf	(update_pwm@pwm1+1)^0,c
   710   000D58  0EA8               	movlw	168
   711   000D5A  6E18               	movwf	update_pwm@pwm1^0,c
   712                           
   713                           ;main.c: 331:     }else{
   714   000D5C  EFB4  F006         	goto	l1805
   715   000D60                     l158:
   716                           
   717                           ;main.c: 332:         pwm1 = pwm[1];
   718   000D60  C04C  F018         	movff	_pwm+2,update_pwm@pwm1
   719   000D64  C04D  F019         	movff	_pwm+3,update_pwm@pwm1+1
   720   000D68                     l1805:
   721                           
   722                           ;main.c: 335:     PORTCbits.RC1 = pwm1 > 0 ? 0 : 1;
   723   000D68  BE19               	btfsc	(update_pwm@pwm1+1)^0,7,c
   724   000D6A  EFBF  F006         	goto	u1571
   725   000D6E  5019               	movf	(update_pwm@pwm1+1)^0,w,c
   726   000D70  E10A               	bnz	u1570
   727   000D72  0418               	decf	update_pwm@pwm1^0,w,c
   728   000D74  A0D8               	btfss	status,0,c
   729   000D76  EFBF  F006         	goto	u1571
   730   000D7A  EFC3  F006         	goto	u1570
   731   000D7E                     u1571:
   732   000D7E  6A15               	clrf	??_update_pwm^0,c
   733   000D80  2A15               	incf	??_update_pwm^0,f,c
   734   000D82  EFC4  F006         	goto	u1588
   735   000D86                     u1570:
   736   000D86  6A15               	clrf	??_update_pwm^0,c
   737   000D88                     u1588:
   738   000D88  4615               	rlncf	??_update_pwm^0,f,c
   739   000D8A  5082               	movf	130,w,c	;volatile
   740   000D8C  1815               	xorwf	??_update_pwm^0,w,c
   741   000D8E  0BFD               	andlw	-3
   742   000D90  1815               	xorwf	??_update_pwm^0,w,c
   743   000D92  6E82               	movwf	130,c	;volatile
   744                           
   745                           ;main.c: 336:     PORTCbits.RC0 = pwm1 < 0 ? 0 : 1;
   746   000D94  BE19               	btfsc	(update_pwm@pwm1+1)^0,7,c
   747   000D96  EFD3  F006         	goto	u1590
   748   000D9A  EFCF  F006         	goto	u1591
   749   000D9E                     u1591:
   750   000D9E  6A15               	clrf	??_update_pwm^0,c
   751   000DA0  2A15               	incf	??_update_pwm^0,f,c
   752   000DA2  EFD4  F006         	goto	u1608
   753   000DA6                     u1590:
   754   000DA6  6A15               	clrf	??_update_pwm^0,c
   755   000DA8                     u1608:
   756   000DA8  5082               	movf	130,w,c	;volatile
   757   000DAA  1815               	xorwf	??_update_pwm^0,w,c
   758   000DAC  0BFE               	andlw	-2
   759   000DAE  1815               	xorwf	??_update_pwm^0,w,c
   760   000DB0  6E82               	movwf	130,c	;volatile
   761                           
   762                           ;main.c: 337:     pwm1 = pwm1 > 0 ? pwm1 : (-pwm1);
   763   000DB2  BE19               	btfsc	(update_pwm@pwm1+1)^0,7,c
   764   000DB4  EFE6  F006         	goto	u1610
   765   000DB8  5019               	movf	(update_pwm@pwm1+1)^0,w,c
   766   000DBA  E106               	bnz	u1611
   767   000DBC  0418               	decf	update_pwm@pwm1^0,w,c
   768   000DBE  B0D8               	btfsc	status,0,c
   769   000DC0  EFE4  F006         	goto	u1611
   770   000DC4  EFE6  F006         	goto	u1610
   771   000DC8                     u1611:
   772   000DC8  EFEA  F006         	goto	l1809
   773   000DCC                     u1610:
   774   000DCC  6C18               	negf	update_pwm@pwm1^0,c
   775   000DCE  1E19               	comf	(update_pwm@pwm1+1)^0,f,c
   776   000DD0  B0D8               	btfsc	status,0,c
   777   000DD2  2A19               	incf	(update_pwm@pwm1+1)^0,f,c
   778   000DD4                     l1809:
   779                           
   780                           ;main.c: 339:     CCP2CONbits.DC2B = pwm1 % 4;
   781   000DD4  C018  F015         	movff	update_pwm@pwm1,??_update_pwm
   782   000DD8  0E03               	movlw	3
   783   000DDA  1615               	andwf	??_update_pwm^0,f,c
   784   000DDC  3A15               	swapf	??_update_pwm^0,f,c
   785   000DDE  50BA               	movf	186,w,c	;volatile
   786   000DE0  1815               	xorwf	??_update_pwm^0,w,c
   787   000DE2  0BCF               	andlw	-49
   788   000DE4  1815               	xorwf	??_update_pwm^0,w,c
   789   000DE6  6EBA               	movwf	186,c	;volatile
   790   000DE8                     
   791                           ;main.c: 340:     CCPR2L = pwm1 / 4;
   792   000DE8  C018  F00D         	movff	update_pwm@pwm1,___awdiv@dividend
   793   000DEC  C019  F00E         	movff	update_pwm@pwm1+1,___awdiv@dividend+1
   794   000DF0  0E00               	movlw	0
   795   000DF2  6E10               	movwf	(___awdiv@divisor+1)^0,c
   796   000DF4  0E04               	movlw	4
   797   000DF6  6E0F               	movwf	___awdiv@divisor^0,c
   798   000DF8  ECD0  F008         	call	___awdiv	;wreg free
   799   000DFC  500D               	movf	?___awdiv^0,w,c
   800   000DFE  6EBB               	movwf	187,c	;volatile
   801   000E00  0012               	return		;funcret
   802   000E02                     __end_of_update_pwm:
   803                           	callstack 0
   804                           
   805 ;; *************** function _status_loop *****************
   806 ;; Defined at:
   807 ;;		line 547 in file "main.c"
   808 ;; Parameters:    Size  Location     Type
   809 ;;		None
   810 ;; Auto vars:     Size  Location     Type
   811 ;;  i               2   33[COMRAM] int 
   812 ;;  half_led        2   31[COMRAM] int 
   813 ;;  half_status     2   29[COMRAM] int 
   814 ;; Return value:  Size  Location     Type
   815 ;;                  1    wreg      void 
   816 ;; Registers used:
   817 ;;		wreg, fsr2l, fsr2h, status,2, status,0, cstack
   818 ;; Tracked objects:
   819 ;;		On entry : 0/0
   820 ;;		On exit  : 0/0
   821 ;;		Unchanged: 0/0
   822 ;; Data sizes:     COMRAM   BANK0   BANK1   BANK2   BANK3   BANK4   BANK5   BANK6   BANK7
   823 ;;      Params:         0       0       0       0       0       0       0       0       0
   824 ;;      Locals:         6       0       0       0       0       0       0       0       0
   825 ;;      Temps:          9       0       0       0       0       0       0       0       0
   826 ;;      Totals:        15       0       0       0       0       0       0       0       0
   827 ;;Total ram usage:       15 bytes
   828 ;; Hardware stack levels used: 1
   829 ;; Hardware stack levels required when called: 2
   830 ;; This function calls:
   831 ;;		___awdiv
   832 ;;		___awmod
   833 ;; This function is called by:
   834 ;;		_main
   835 ;; This function uses a non-reentrant model
   836 ;;
   837                           
   838                           	psect	text2
   839   000A1A                     __ptext2:
   840                           	callstack 0
   841   000A1A                     _status_loop:
   842                           	callstack 28
   843   000A1A                     
   844                           ;main.c: 548:     if (status_enabled == 1){
   845   000A1A  0452               	decf	_status_enabled^0,w,c
   846   000A1C  A4D8               	btfss	status,2,c
   847   000A1E  EF13  F005         	goto	u2211
   848   000A22  EF15  F005         	goto	u2210
   849   000A26                     u2211:
   850   000A26  EF0F  F006         	goto	l285
   851   000A2A                     u2210:
   852   000A2A                     
   853                           ;main.c: 550:         if (counter[2] >= 100){
   854   000A2A  0100               	movlb	0	; () banked
   855   000A2C  BFC7               	btfsc	(_counter+23)& (0+255),7,b
   856   000A2E  EF28  F005         	goto	u2221
   857   000A32  51C7               	movf	(_counter+23)& (0+255),w,b
   858   000A34  11C6               	iorwf	(_counter+22)& (0+255),w,b
   859   000A36  11C5               	iorwf	(_counter+21)& (0+255),w,b
   860   000A38  11C4               	iorwf	(_counter+20)& (0+255),w,b
   861   000A3A  11C3               	iorwf	(_counter+19)& (0+255),w,b
   862   000A3C  11C2               	iorwf	(_counter+18)& (0+255),w,b
   863   000A3E  11C1               	iorwf	(_counter+17)& (0+255),w,b
   864   000A40  E109               	bnz	u2220
   865   000A42  0E64               	movlw	100
   866   000A44  5DC0               	subwf	(_counter+16)& (0+255),w,b
   867   000A46  A0D8               	btfss	status,0,c
   868   000A48  EF28  F005         	goto	u2221
   869   000A4C  EF2A  F005         	goto	u2220
   870   000A50                     u2221:
   871   000A50  EF51  F005         	goto	l2017
   872   000A54                     u2220:
   873   000A54                     
   874                           ; BSR set to: 0
   875                           ;main.c: 551:             counter[2] = 0;
   876   000A54  EE20  F0C0         	lfsr	2,_counter+16
   877   000A58  0E07               	movlw	7
   878   000A5A                     u2231:
   879   000A5A  6ADE               	clrf	postinc2,c
   880   000A5C  06E8               	decf	wreg,f,c
   881   000A5E  E2FD               	bc	u2231
   882   000A60                     
   883                           ; BSR set to: 0
   884                           ;main.c: 553:             if (status_value > 1000){
   885   000A60  BE51               	btfsc	(_status_value+1)^0,7,c
   886   000A62  EF3C  F005         	goto	u2241
   887   000A66  0EE9               	movlw	233
   888   000A68  5C50               	subwf	_status_value^0,w,c
   889   000A6A  0E03               	movlw	3
   890   000A6C  5851               	subwfb	(_status_value+1)^0,w,c
   891   000A6E  A0D8               	btfss	status,0,c
   892   000A70  EF3C  F005         	goto	u2241
   893   000A74  EF3E  F005         	goto	u2240
   894   000A78                     u2241:
   895   000A78  EF42  F005         	goto	l2011
   896   000A7C                     u2240:
   897   000A7C                     
   898                           ; BSR set to: 0
   899                           ;main.c: 554:                 status_value = 1000;
   900   000A7C  0E03               	movlw	3
   901   000A7E  6E51               	movwf	(_status_value+1)^0,c
   902   000A80  0EE8               	movlw	232
   903   000A82  6E50               	movwf	_status_value^0,c
   904   000A84                     l2011:
   905                           
   906                           ; BSR set to: 0
   907                           ;main.c: 556:             if (status_value < 0){
   908   000A84  BE51               	btfsc	(_status_value+1)^0,7,c
   909   000A86  EF49  F005         	goto	u2250
   910   000A8A  EF47  F005         	goto	u2251
   911   000A8E                     u2251:
   912   000A8E  EF4D  F005         	goto	l2015
   913   000A92                     u2250:
   914   000A92                     
   915                           ; BSR set to: 0
   916                           ;main.c: 557:                 status_value = 0;
   917   000A92  0E00               	movlw	0
   918   000A94  6E51               	movwf	(_status_value+1)^0,c
   919   000A96  0E00               	movlw	0
   920   000A98  6E50               	movwf	_status_value^0,c
   921   000A9A                     l2015:
   922                           
   923                           ; BSR set to: 0
   924                           ;main.c: 559:             persisted_status = status_value;
   925   000A9A  C050  F04E         	movff	_status_value,_persisted_status
   926   000A9E  C051  F04F         	movff	_status_value+1,_persisted_status+1
   927   000AA2                     l2017:
   928                           
   929                           ; BSR set to: 0
   930                           ;main.c: 562:         int half_status;;main.c: 563:         half_status = (int) (persist
      +                          ed_status % 200) / 2 ;
   931   000AA2  0E00               	movlw	0
   932   000AA4  6E0A               	movwf	(___awmod@divisor+1)^0,c
   933   000AA6  0EC8               	movlw	200
   934   000AA8  6E09               	movwf	___awmod@divisor^0,c
   935   000AAA  C04E  F007         	movff	_persisted_status,___awmod@dividend
   936   000AAE  C04F  F008         	movff	_persisted_status+1,___awmod@dividend+1
   937   000AB2  EC8C  F009         	call	___awmod	;wreg free
   938   000AB6  C007  F00D         	movff	?___awmod,___awdiv@dividend
   939   000ABA  C008  F00E         	movff	?___awmod+1,___awdiv@dividend+1
   940   000ABE  0E00               	movlw	0
   941   000AC0  6E10               	movwf	(___awdiv@divisor+1)^0,c
   942   000AC2  0E02               	movlw	2
   943   000AC4  6E0F               	movwf	___awdiv@divisor^0,c
   944   000AC6  ECD0  F008         	call	___awdiv	;wreg free
   945   000ACA  C00D  F01E         	movff	?___awdiv,status_loop@half_status
   946   000ACE  C00E  F01F         	movff	?___awdiv+1,status_loop@half_status+1
   947   000AD2                     
   948                           ;main.c: 565:         if (counter[2] < half_status){
   949   000AD2  C01E  F015         	movff	status_loop@half_status,??_status_loop
   950   000AD6  C01F  F016         	movff	status_loop@half_status+1,??_status_loop+1
   951   000ADA  0E00               	movlw	0
   952   000ADC  BE16               	btfsc	(??_status_loop+1)^0,7,c
   953   000ADE  0EFF               	movlw	255
   954   000AE0  6E17               	movwf	(??_status_loop+2)^0,c
   955   000AE2  6E18               	movwf	(??_status_loop+3)^0,c
   956   000AE4  6E19               	movwf	(??_status_loop+4)^0,c
   957   000AE6  6E1A               	movwf	(??_status_loop+5)^0,c
   958   000AE8  6E1B               	movwf	(??_status_loop+6)^0,c
   959   000AEA  6E1C               	movwf	(??_status_loop+7)^0,c
   960   000AEC  5015               	movf	??_status_loop^0,w,c
   961   000AEE  0100               	movlb	0	; () banked
   962   000AF0  5DC0               	subwf	(_counter+16)& (0+255),w,b
   963   000AF2  5016               	movf	(??_status_loop+1)^0,w,c
   964   000AF4  59C1               	subwfb	(_counter+17)& (0+255),w,b
   965   000AF6  5017               	movf	(??_status_loop+2)^0,w,c
   966   000AF8  59C2               	subwfb	(_counter+18)& (0+255),w,b
   967   000AFA  5018               	movf	(??_status_loop+3)^0,w,c
   968   000AFC  59C3               	subwfb	(_counter+19)& (0+255),w,b
   969   000AFE  5019               	movf	(??_status_loop+4)^0,w,c
   970   000B00  59C4               	subwfb	(_counter+20)& (0+255),w,b
   971   000B02  501A               	movf	(??_status_loop+5)^0,w,c
   972   000B04  59C5               	subwfb	(_counter+21)& (0+255),w,b
   973   000B06  501B               	movf	(??_status_loop+6)^0,w,c
   974   000B08  59C6               	subwfb	(_counter+22)& (0+255),w,b
   975   000B0A  51C7               	movf	(_counter+23)& (0+255),w,b
   976   000B0C  0A80               	xorlw	128
   977   000B0E  6E1D               	movwf	(??_status_loop+8)^0,c
   978   000B10  501C               	movf	(??_status_loop+7)^0,w,c
   979   000B12  0A80               	xorlw	128
   980   000B14  581D               	subwfb	(??_status_loop+8)^0,w,c
   981   000B16  B0D8               	btfsc	status,0,c
   982   000B18  EF90  F005         	goto	u2261
   983   000B1C  EF92  F005         	goto	u2260
   984   000B20                     u2261:
   985   000B20  EF96  F005         	goto	l2023
   986   000B24                     u2260:
   987   000B24                     
   988                           ; BSR set to: 0
   989                           ;main.c: 566:             int_status = 1;
   990   000B24  0E01               	movlw	1
   991   000B26  6E53               	movwf	_int_status^0,c
   992                           
   993                           ;main.c: 567:         }else{
   994   000B28  EF98  F005         	goto	l2025
   995   000B2C                     l2023:
   996                           
   997                           ; BSR set to: 0
   998                           ;main.c: 568:             int_status = 0;
   999   000B2C  0E00               	movlw	0
  1000   000B2E  6E53               	movwf	_int_status^0,c
  1001   000B30                     l2025:
  1002                           
  1003                           ; BSR set to: 0
  1004                           ;main.c: 572:         int half_led;;main.c: 573:         half_led = (int) (persisted_sta
      +                          tus / 200);
  1005   000B30  C04E  F00D         	movff	_persisted_status,___awdiv@dividend
  1006   000B34  C04F  F00E         	movff	_persisted_status+1,___awdiv@dividend+1
  1007   000B38  0E00               	movlw	0
  1008   000B3A  6E10               	movwf	(___awdiv@divisor+1)^0,c
  1009   000B3C  0EC8               	movlw	200
  1010   000B3E  6E0F               	movwf	___awdiv@divisor^0,c
  1011   000B40  ECD0  F008         	call	___awdiv	;wreg free
  1012   000B44  C00D  F020         	movff	?___awdiv,status_loop@half_led
  1013   000B48  C00E  F021         	movff	?___awdiv+1,status_loop@half_led+1
  1014   000B4C                     
  1015                           ;main.c: 575:         int i;;main.c: 576:         for (i = 0;i < 5;i++){
  1016   000B4C  0E00               	movlw	0
  1017   000B4E  6E23               	movwf	(status_loop@i+1)^0,c
  1018   000B50  0E00               	movlw	0
  1019   000B52  6E22               	movwf	status_loop@i^0,c
  1020   000B54                     l2033:
  1021                           
  1022                           ;main.c: 577:             if (i < half_led){
  1023   000B54  5020               	movf	status_loop@half_led^0,w,c
  1024   000B56  5C22               	subwf	status_loop@i^0,w,c
  1025   000B58  5023               	movf	(status_loop@i+1)^0,w,c
  1026   000B5A  0A80               	xorlw	128
  1027   000B5C  6E15               	movwf	??_status_loop^0,c
  1028   000B5E  5021               	movf	(status_loop@half_led+1)^0,w,c
  1029   000B60  0A80               	xorlw	128
  1030   000B62  5815               	subwfb	??_status_loop^0,w,c
  1031   000B64  B0D8               	btfsc	status,0,c
  1032   000B66  EFB7  F005         	goto	u2271
  1033   000B6A  EFB9  F005         	goto	u2270
  1034   000B6E                     u2271:
  1035   000B6E  EFC3  F005         	goto	l2037
  1036   000B72                     u2270:
  1037   000B72                     
  1038                           ;main.c: 578:                 leds[i] = 1;
  1039   000B72  0EE0               	movlw	low _leds
  1040   000B74  2422               	addwf	status_loop@i^0,w,c
  1041   000B76  6ED9               	movwf	fsr2l,c
  1042   000B78  0E00               	movlw	high _leds
  1043   000B7A  2023               	addwfc	(status_loop@i+1)^0,w,c
  1044   000B7C  6EDA               	movwf	fsr2h,c
  1045   000B7E  0E01               	movlw	1
  1046   000B80  6EDF               	movwf	indf2,c
  1047                           
  1048                           ;main.c: 579:             }else if (i == half_led){
  1049   000B82  EFE1  F005         	goto	l2043
  1050   000B86                     l2037:
  1051   000B86  5020               	movf	status_loop@half_led^0,w,c
  1052   000B88  1822               	xorwf	status_loop@i^0,w,c
  1053   000B8A  E107               	bnz	u2281
  1054   000B8C  5021               	movf	(status_loop@half_led+1)^0,w,c
  1055   000B8E  1823               	xorwf	(status_loop@i+1)^0,w,c
  1056   000B90  A4D8               	btfss	status,2,c
  1057   000B92  EFCD  F005         	goto	u2281
  1058   000B96  EFCF  F005         	goto	u2280
  1059   000B9A                     u2281:
  1060   000B9A  EFD9  F005         	goto	l2041
  1061   000B9E                     u2280:
  1062   000B9E                     
  1063                           ;main.c: 580:                 leds[i] = int_status;
  1064   000B9E  0EE0               	movlw	low _leds
  1065   000BA0  2422               	addwf	status_loop@i^0,w,c
  1066   000BA2  6ED9               	movwf	fsr2l,c
  1067   000BA4  0E00               	movlw	high _leds
  1068   000BA6  2023               	addwfc	(status_loop@i+1)^0,w,c
  1069   000BA8  6EDA               	movwf	fsr2h,c
  1070   000BAA  C053  FFDF         	movff	_int_status,indf2
  1071                           
  1072                           ;main.c: 581:             }else{
  1073   000BAE  EFE1  F005         	goto	l2043
  1074   000BB2                     l2041:
  1075                           
  1076                           ;main.c: 582:                 leds[i] = 0;
  1077   000BB2  0EE0               	movlw	low _leds
  1078   000BB4  2422               	addwf	status_loop@i^0,w,c
  1079   000BB6  6ED9               	movwf	fsr2l,c
  1080   000BB8  0E00               	movlw	high _leds
  1081   000BBA  2023               	addwfc	(status_loop@i+1)^0,w,c
  1082   000BBC  6EDA               	movwf	fsr2h,c
  1083   000BBE  0E00               	movlw	0
  1084   000BC0  6EDF               	movwf	indf2,c
  1085   000BC2                     l2043:
  1086                           
  1087                           ;main.c: 584:         }
  1088   000BC2  4A22               	infsnz	status_loop@i^0,f,c
  1089   000BC4  2A23               	incf	(status_loop@i+1)^0,f,c
  1090   000BC6  BE23               	btfsc	(status_loop@i+1)^0,7,c
  1091   000BC8  EFEF  F005         	goto	u2291
  1092   000BCC  5023               	movf	(status_loop@i+1)^0,w,c
  1093   000BCE  E109               	bnz	u2290
  1094   000BD0  0E05               	movlw	5
  1095   000BD2  5C22               	subwf	status_loop@i^0,w,c
  1096   000BD4  A0D8               	btfss	status,0,c
  1097   000BD6  EFEF  F005         	goto	u2291
  1098   000BDA  EFF1  F005         	goto	u2290
  1099   000BDE                     u2291:
  1100   000BDE  EFAA  F005         	goto	l2033
  1101   000BE2                     u2290:
  1102   000BE2                     
  1103                           ;main.c: 587:         PORTBbits.RB0 = leds[0];
  1104   000BE2  0100               	movlb	0	; () banked
  1105   000BE4  B1E0               	btfsc	_leds& (0+255),0,b
  1106   000BE6  D002               	bra	u2305
  1107   000BE8  9081               	bcf	129,0,c	;volatile
  1108   000BEA  D001               	bra	u2306
  1109   000BEC                     u2305:
  1110   000BEC  8081               	bsf	129,0,c	;volatile
  1111   000BEE                     u2306:
  1112                           
  1113                           ;main.c: 588:         PORTBbits.RB1 = leds[1];
  1114   000BEE  0100               	movlb	0	; () banked
  1115   000BF0  B1E1               	btfsc	(_leds+1)& (0+255),0,b
  1116   000BF2  D002               	bra	u2315
  1117   000BF4  9281               	bcf	129,1,c	;volatile
  1118   000BF6  D001               	bra	u2316
  1119   000BF8                     u2315:
  1120   000BF8  8281               	bsf	129,1,c	;volatile
  1121   000BFA                     u2316:
  1122                           
  1123                           ;main.c: 589:         PORTBbits.RB2 = leds[2];
  1124   000BFA  0100               	movlb	0	; () banked
  1125   000BFC  B1E2               	btfsc	(_leds+2)& (0+255),0,b
  1126   000BFE  D002               	bra	u2325
  1127   000C00  9481               	bcf	129,2,c	;volatile
  1128   000C02  D001               	bra	u2326
  1129   000C04                     u2325:
  1130   000C04  8481               	bsf	129,2,c	;volatile
  1131   000C06                     u2326:
  1132                           
  1133                           ;main.c: 590:         PORTBbits.RB4 = leds[3];
  1134   000C06  0100               	movlb	0	; () banked
  1135   000C08  B1E3               	btfsc	(_leds+3)& (0+255),0,b
  1136   000C0A  D002               	bra	u2335
  1137   000C0C  9881               	bcf	129,4,c	;volatile
  1138   000C0E  D001               	bra	u2336
  1139   000C10                     u2335:
  1140   000C10  8881               	bsf	129,4,c	;volatile
  1141   000C12                     u2336:
  1142                           
  1143                           ;main.c: 591:         PORTBbits.RB5 = leds[4];
  1144   000C12  0100               	movlb	0	; () banked
  1145   000C14  B1E4               	btfsc	(_leds+4)& (0+255),0,b
  1146   000C16  D002               	bra	u2345
  1147   000C18  9A81               	bcf	129,5,c	;volatile
  1148   000C1A  D001               	bra	u2346
  1149   000C1C                     u2345:
  1150   000C1C  8A81               	bsf	129,5,c	;volatile
  1151   000C1E                     u2346:
  1152   000C1E                     l285:
  1153   000C1E  0012               	return		;funcret
  1154   000C20                     __end_of_status_loop:
  1155                           	callstack 0
  1156                           
  1157 ;; *************** function ___awmod *****************
  1158 ;; Defined at:
  1159 ;;		line 7 in file "C:\Program Files\Microchip\xc8\v2.40\pic\sources\c99\common\awmod.c"
  1160 ;; Parameters:    Size  Location     Type
  1161 ;;  dividend        2    6[COMRAM] int 
  1162 ;;  divisor         2    8[COMRAM] int 
  1163 ;; Auto vars:     Size  Location     Type
  1164 ;;  sign            1   11[COMRAM] unsigned char 
  1165 ;;  counter         1   10[COMRAM] unsigned char 
  1166 ;; Return value:  Size  Location     Type
  1167 ;;                  2    6[COMRAM] int 
  1168 ;; Registers used:
  1169 ;;		wreg, status,2, status,0
  1170 ;; Tracked objects:
  1171 ;;		On entry : 0/0
  1172 ;;		On exit  : 0/0
  1173 ;;		Unchanged: 0/0
  1174 ;; Data sizes:     COMRAM   BANK0   BANK1   BANK2   BANK3   BANK4   BANK5   BANK6   BANK7
  1175 ;;      Params:         4       0       0       0       0       0       0       0       0
  1176 ;;      Locals:         2       0       0       0       0       0       0       0       0
  1177 ;;      Temps:          0       0       0       0       0       0       0       0       0
  1178 ;;      Totals:         6       0       0       0       0       0       0       0       0
  1179 ;;Total ram usage:        6 bytes
  1180 ;; Hardware stack levels used: 1
  1181 ;; Hardware stack levels required when called: 1
  1182 ;; This function calls:
  1183 ;;		Nothing
  1184 ;; This function is called by:
  1185 ;;		_status_loop
  1186 ;; This function uses a non-reentrant model
  1187 ;;
  1188                           
  1189                           	psect	text3
  1190   001318                     __ptext3:
  1191                           	callstack 0
  1192   001318                     ___awmod:
  1193                           	callstack 28
  1194   001318  0E00               	movlw	0
  1195   00131A  6E0C               	movwf	___awmod@sign^0,c
  1196   00131C  BE08               	btfsc	(___awmod@dividend+1)^0,7,c
  1197   00131E  EF95  F009         	goto	u1380
  1198   001322  EF93  F009         	goto	u1381
  1199   001326                     u1381:
  1200   001326  EF9B  F009         	goto	l1719
  1201   00132A                     u1380:
  1202   00132A  6C07               	negf	___awmod@dividend^0,c
  1203   00132C  1E08               	comf	(___awmod@dividend+1)^0,f,c
  1204   00132E  B0D8               	btfsc	status,0,c
  1205   001330  2A08               	incf	(___awmod@dividend+1)^0,f,c
  1206   001332  0E01               	movlw	1
  1207   001334  6E0C               	movwf	___awmod@sign^0,c
  1208   001336                     l1719:
  1209   001336  BE0A               	btfsc	(___awmod@divisor+1)^0,7,c
  1210   001338  EFA2  F009         	goto	u1390
  1211   00133C  EFA0  F009         	goto	u1391
  1212   001340                     u1391:
  1213   001340  EFA6  F009         	goto	l1723
  1214   001344                     u1390:
  1215   001344  6C09               	negf	___awmod@divisor^0,c
  1216   001346  1E0A               	comf	(___awmod@divisor+1)^0,f,c
  1217   001348  B0D8               	btfsc	status,0,c
  1218   00134A  2A0A               	incf	(___awmod@divisor+1)^0,f,c
  1219   00134C                     l1723:
  1220   00134C  5009               	movf	___awmod@divisor^0,w,c
  1221   00134E  100A               	iorwf	(___awmod@divisor+1)^0,w,c
  1222   001350  B4D8               	btfsc	status,2,c
  1223   001352  EFAD  F009         	goto	u1401
  1224   001356  EFAF  F009         	goto	u1400
  1225   00135A                     u1401:
  1226   00135A  EFD3  F009         	goto	l1739
  1227   00135E                     u1400:
  1228   00135E  0E01               	movlw	1
  1229   001360  6E0B               	movwf	___awmod@counter^0,c
  1230   001362  EFB7  F009         	goto	l1729
  1231   001366                     l1727:
  1232   001366  90D8               	bcf	status,0,c
  1233   001368  3609               	rlcf	___awmod@divisor^0,f,c
  1234   00136A  360A               	rlcf	(___awmod@divisor+1)^0,f,c
  1235   00136C  2A0B               	incf	___awmod@counter^0,f,c
  1236   00136E                     l1729:
  1237   00136E  AE0A               	btfss	(___awmod@divisor+1)^0,7,c
  1238   001370  EFBC  F009         	goto	u1411
  1239   001374  EFBE  F009         	goto	u1410
  1240   001378                     u1411:
  1241   001378  EFB3  F009         	goto	l1727
  1242   00137C                     u1410:
  1243   00137C                     l1731:
  1244   00137C  5009               	movf	___awmod@divisor^0,w,c
  1245   00137E  5C07               	subwf	___awmod@dividend^0,w,c
  1246   001380  500A               	movf	(___awmod@divisor+1)^0,w,c
  1247   001382  5808               	subwfb	(___awmod@dividend+1)^0,w,c
  1248   001384  A0D8               	btfss	status,0,c
  1249   001386  EFC7  F009         	goto	u1421
  1250   00138A  EFC9  F009         	goto	u1420
  1251   00138E                     u1421:
  1252   00138E  EFCD  F009         	goto	l1735
  1253   001392                     u1420:
  1254   001392  5009               	movf	___awmod@divisor^0,w,c
  1255   001394  5E07               	subwf	___awmod@dividend^0,f,c
  1256   001396  500A               	movf	(___awmod@divisor+1)^0,w,c
  1257   001398  5A08               	subwfb	(___awmod@dividend+1)^0,f,c
  1258   00139A                     l1735:
  1259   00139A  90D8               	bcf	status,0,c
  1260   00139C  320A               	rrcf	(___awmod@divisor+1)^0,f,c
  1261   00139E  3209               	rrcf	___awmod@divisor^0,f,c
  1262   0013A0  2E0B               	decfsz	___awmod@counter^0,f,c
  1263   0013A2  EFBE  F009         	goto	l1731
  1264   0013A6                     l1739:
  1265   0013A6  500C               	movf	___awmod@sign^0,w,c
  1266   0013A8  B4D8               	btfsc	status,2,c
  1267   0013AA  EFD9  F009         	goto	u1431
  1268   0013AE  EFDB  F009         	goto	u1430
  1269   0013B2                     u1431:
  1270   0013B2  EFDF  F009         	goto	l1743
  1271   0013B6                     u1430:
  1272   0013B6  6C07               	negf	___awmod@dividend^0,c
  1273   0013B8  1E08               	comf	(___awmod@dividend+1)^0,f,c
  1274   0013BA  B0D8               	btfsc	status,0,c
  1275   0013BC  2A08               	incf	(___awmod@dividend+1)^0,f,c
  1276   0013BE                     l1743:
  1277   0013BE  C007  F007         	movff	___awmod@dividend,?___awmod
  1278   0013C2  C008  F008         	movff	___awmod@dividend+1,?___awmod+1
  1279   0013C6  0012               	return		;funcret
  1280   0013C8                     __end_of___awmod:
  1281                           	callstack 0
  1282                           
  1283 ;; *************** function _status_init *****************
  1284 ;; Defined at:
  1285 ;;		line 534 in file "main.c"
  1286 ;; Parameters:    Size  Location     Type
  1287 ;;		None
  1288 ;; Auto vars:     Size  Location     Type
  1289 ;;  i               2    6[COMRAM] int 
  1290 ;; Return value:  Size  Location     Type
  1291 ;;                  1    wreg      void 
  1292 ;; Registers used:
  1293 ;;		wreg, fsr2l, fsr2h, status,2, status,0
  1294 ;; Tracked objects:
  1295 ;;		On entry : 0/0
  1296 ;;		On exit  : 0/0
  1297 ;;		Unchanged: 0/0
  1298 ;; Data sizes:     COMRAM   BANK0   BANK1   BANK2   BANK3   BANK4   BANK5   BANK6   BANK7
  1299 ;;      Params:         0       0       0       0       0       0       0       0       0
  1300 ;;      Locals:         2       0       0       0       0       0       0       0       0
  1301 ;;      Temps:          0       0       0       0       0       0       0       0       0
  1302 ;;      Totals:         2       0       0       0       0       0       0       0       0
  1303 ;;Total ram usage:        2 bytes
  1304 ;; Hardware stack levels used: 1
  1305 ;; Hardware stack levels required when called: 1
  1306 ;; This function calls:
  1307 ;;		Nothing
  1308 ;; This function is called by:
  1309 ;;		_main
  1310 ;; This function uses a non-reentrant model
  1311 ;;
  1312                           
  1313                           	psect	text4
  1314   0015D8                     __ptext4:
  1315                           	callstack 0
  1316   0015D8                     _status_init:
  1317                           	callstack 29
  1318   0015D8                     
  1319                           ;main.c: 535:     status_value = 0;
  1320   0015D8  0E00               	movlw	0
  1321   0015DA  6E51               	movwf	(_status_value+1)^0,c
  1322   0015DC  0E00               	movlw	0
  1323   0015DE  6E50               	movwf	_status_value^0,c
  1324                           
  1325                           ;main.c: 536:     status_enabled = 0;
  1326   0015E0  0E00               	movlw	0
  1327   0015E2  6E52               	movwf	_status_enabled^0,c
  1328                           
  1329                           ;main.c: 537:     int_status = 0;
  1330   0015E4  0E00               	movlw	0
  1331   0015E6  6E53               	movwf	_int_status^0,c
  1332   0015E8                     
  1333                           ;main.c: 539:     counter[2] = 0;
  1334   0015E8  EE20  F0C0         	lfsr	2,_counter+16
  1335   0015EC  0E07               	movlw	7
  1336   0015EE                     u2191:
  1337   0015EE  6ADE               	clrf	postinc2,c
  1338   0015F0  06E8               	decf	wreg,f,c
  1339   0015F2  E2FD               	bc	u2191
  1340   0015F4                     
  1341                           ;main.c: 541:     int i;;main.c: 542:     for (i = 0;i < 5;i++){
  1342   0015F4  0E00               	movlw	0
  1343   0015F6  6E08               	movwf	(status_init@i+1)^0,c
  1344   0015F8  0E00               	movlw	0
  1345   0015FA  6E07               	movwf	status_init@i^0,c
  1346   0015FC                     l1995:
  1347                           
  1348                           ;main.c: 543:         leds[i] = 0;
  1349   0015FC  0EE0               	movlw	low _leds
  1350   0015FE  2407               	addwf	status_init@i^0,w,c
  1351   001600  6ED9               	movwf	fsr2l,c
  1352   001602  0E00               	movlw	high _leds
  1353   001604  2008               	addwfc	(status_init@i+1)^0,w,c
  1354   001606  6EDA               	movwf	fsr2h,c
  1355   001608  0E00               	movlw	0
  1356   00160A  6EDF               	movwf	indf2,c
  1357   00160C                     
  1358                           ;main.c: 544:     }
  1359   00160C  4A07               	infsnz	status_init@i^0,f,c
  1360   00160E  2A08               	incf	(status_init@i+1)^0,f,c
  1361   001610  BE08               	btfsc	(status_init@i+1)^0,7,c
  1362   001612  EF14  F00B         	goto	u2201
  1363   001616  5008               	movf	(status_init@i+1)^0,w,c
  1364   001618  E109               	bnz	u2200
  1365   00161A  0E05               	movlw	5
  1366   00161C  5C07               	subwf	status_init@i^0,w,c
  1367   00161E  A0D8               	btfss	status,0,c
  1368   001620  EF14  F00B         	goto	u2201
  1369   001624  EF16  F00B         	goto	u2200
  1370   001628                     u2201:
  1371   001628  EFFE  F00A         	goto	l1995
  1372   00162C                     u2200:
  1373   00162C  0012               	return		;funcret
  1374   00162E                     __end_of_status_init:
  1375                           	callstack 0
  1376                           
  1377 ;; *************** function _read_analog *****************
  1378 ;; Defined at:
  1379 ;;		line 206 in file "main.c"
  1380 ;; Parameters:    Size  Location     Type
  1381 ;;		None
  1382 ;; Auto vars:     Size  Location     Type
  1383 ;;  aux             2   21[COMRAM] unsigned int 
  1384 ;;  i               1   23[COMRAM] unsigned char 
  1385 ;; Return value:  Size  Location     Type
  1386 ;;                  1    wreg      void 
  1387 ;; Registers used:
  1388 ;;		wreg, fsr2l, fsr2h, status,2, status,0, prodl, prodh, cstack
  1389 ;; Tracked objects:
  1390 ;;		On entry : 0/0
  1391 ;;		On exit  : 0/0
  1392 ;;		Unchanged: 0/0
  1393 ;; Data sizes:     COMRAM   BANK0   BANK1   BANK2   BANK3   BANK4   BANK5   BANK6   BANK7
  1394 ;;      Params:         0       0       0       0       0       0       0       0       0
  1395 ;;      Locals:         3       0       0       0       0       0       0       0       0
  1396 ;;      Temps:          1       0       0       0       0       0       0       0       0
  1397 ;;      Totals:         4       0       0       0       0       0       0       0       0
  1398 ;;Total ram usage:        4 bytes
  1399 ;; Hardware stack levels used: 1
  1400 ;; Hardware stack levels required when called: 2
  1401 ;; This function calls:
  1402 ;;		___awdiv
  1403 ;; This function is called by:
  1404 ;;		_main
  1405 ;; This function uses a non-reentrant model
  1406 ;;
  1407                           
  1408                           	psect	text5
  1409   0014F4                     __ptext5:
  1410                           	callstack 0
  1411   0014F4                     _read_analog:
  1412                           	callstack 28
  1413   0014F4                     
  1414                           ;main.c: 207:     unsigned int aux;;main.c: 208:     unsigned char i;;main.c: 209:     f
      +                          or (i=0;i<=5;i++){
  1415   0014F4  0E00               	movlw	0
  1416   0014F6  6E18               	movwf	read_analog@i^0,c
  1417   0014F8                     l1753:
  1418                           
  1419                           ;main.c: 210:         ADCON0bits.CHS=i;
  1420   0014F8  C018  F015         	movff	read_analog@i,??_read_analog
  1421   0014FC  4615               	rlncf	??_read_analog^0,f,c
  1422   0014FE  4615               	rlncf	??_read_analog^0,f,c
  1423   001500  50C2               	movf	194,w,c	;volatile
  1424   001502  1815               	xorwf	??_read_analog^0,w,c
  1425   001504  0BC3               	andlw	-61
  1426   001506  1815               	xorwf	??_read_analog^0,w,c
  1427   001508  6EC2               	movwf	194,c	;volatile
  1428   00150A                     
  1429                           ;main.c: 211:         ADCON0bits.GODONE=1;
  1430   00150A  82C2               	bsf	194,1,c	;volatile
  1431   00150C                     l106:
  1432   00150C  B2C2               	btfsc	194,1,c	;volatile
  1433   00150E  EF8B  F00A         	goto	u1441
  1434   001512  EF8D  F00A         	goto	u1440
  1435   001516                     u1441:
  1436   001516  EF86  F00A         	goto	l106
  1437   00151A                     u1440:
  1438   00151A                     
  1439                           ;main.c: 213:         aux=ADRESH*4;
  1440   00151A  50C4               	movf	196,w,c	;volatile
  1441   00151C  0D04               	mullw	4
  1442   00151E  CFF3 F016          	movff	prodl,read_analog@aux
  1443   001522  CFF4 F017          	movff	prodh,read_analog@aux+1
  1444   001526                     
  1445                           ;main.c: 214:         aux=aux+ADRESL/64;
  1446   001526  CFC3 F00D          	movff	4035,___awdiv@dividend	;volatile
  1447   00152A  6A0E               	clrf	(___awdiv@dividend+1)^0,c
  1448   00152C  0E00               	movlw	0
  1449   00152E  6E10               	movwf	(___awdiv@divisor+1)^0,c
  1450   001530  0E40               	movlw	64
  1451   001532  6E0F               	movwf	___awdiv@divisor^0,c
  1452   001534  ECD0  F008         	call	___awdiv	;wreg free
  1453   001538  5016               	movf	read_analog@aux^0,w,c
  1454   00153A  240D               	addwf	?___awdiv^0,w,c
  1455   00153C  6E16               	movwf	read_analog@aux^0,c
  1456   00153E  5017               	movf	(read_analog@aux+1)^0,w,c
  1457   001540  200E               	addwfc	(?___awdiv+1)^0,w,c
  1458   001542  6E17               	movwf	(read_analog@aux+1)^0,c
  1459   001544                     
  1460                           ;main.c: 215:         an_input[i]=aux;
  1461   001544  5018               	movf	read_analog@i^0,w,c
  1462   001546  0D02               	mullw	2
  1463   001548  0E00               	movlw	low _an_input
  1464   00154A  24F3               	addwf	243,w,c
  1465   00154C  6ED9               	movwf	fsr2l,c
  1466   00154E  0E01               	movlw	high _an_input
  1467   001550  20F4               	addwfc	prodh,w,c
  1468   001552  6EDA               	movwf	fsr2h,c
  1469   001554  C016  FFDE         	movff	read_analog@aux,postinc2
  1470   001558  C017  FFDD         	movff	read_analog@aux+1,postdec2
  1471   00155C                     
  1472                           ;main.c: 216:     }
  1473   00155C  2A18               	incf	read_analog@i^0,f,c
  1474   00155E  0E05               	movlw	5
  1475   001560  6418               	cpfsgt	read_analog@i^0,c
  1476   001562  EFB5  F00A         	goto	u1451
  1477   001566  EFB7  F00A         	goto	u1450
  1478   00156A                     u1451:
  1479   00156A  EF7C  F00A         	goto	l1753
  1480   00156E                     u1450:
  1481   00156E  0012               	return		;funcret
  1482   001570                     __end_of_read_analog:
  1483                           	callstack 0
  1484                           
  1485 ;; *************** function ___awdiv *****************
  1486 ;; Defined at:
  1487 ;;		line 7 in file "C:\Program Files\Microchip\xc8\v2.40\pic\sources\c99\common\awdiv.c"
  1488 ;; Parameters:    Size  Location     Type
  1489 ;;  dividend        2   12[COMRAM] int 
  1490 ;;  divisor         2   14[COMRAM] int 
  1491 ;; Auto vars:     Size  Location     Type
  1492 ;;  quotient        2   18[COMRAM] int 
  1493 ;;  sign            1   17[COMRAM] unsigned char 
  1494 ;;  counter         1   16[COMRAM] unsigned char 
  1495 ;; Return value:  Size  Location     Type
  1496 ;;                  2   12[COMRAM] int 
  1497 ;; Registers used:
  1498 ;;		wreg, status,2, status,0
  1499 ;; Tracked objects:
  1500 ;;		On entry : 0/0
  1501 ;;		On exit  : 0/0
  1502 ;;		Unchanged: 0/0
  1503 ;; Data sizes:     COMRAM   BANK0   BANK1   BANK2   BANK3   BANK4   BANK5   BANK6   BANK7
  1504 ;;      Params:         4       0       0       0       0       0       0       0       0
  1505 ;;      Locals:         4       0       0       0       0       0       0       0       0
  1506 ;;      Temps:          0       0       0       0       0       0       0       0       0
  1507 ;;      Totals:         8       0       0       0       0       0       0       0       0
  1508 ;;Total ram usage:        8 bytes
  1509 ;; Hardware stack levels used: 1
  1510 ;; Hardware stack levels required when called: 1
  1511 ;; This function calls:
  1512 ;;		Nothing
  1513 ;; This function is called by:
  1514 ;;		_read_analog
  1515 ;;		_update_pwm
  1516 ;;		_status_loop
  1517 ;; This function uses a non-reentrant model
  1518 ;;
  1519                           
  1520                           	psect	text6
  1521   0011A0                     __ptext6:
  1522                           	callstack 0
  1523   0011A0                     ___awdiv:
  1524                           	callstack 28
  1525   0011A0  0E00               	movlw	0
  1526   0011A2  6E12               	movwf	___awdiv@sign^0,c
  1527   0011A4  BE10               	btfsc	(___awdiv@divisor+1)^0,7,c
  1528   0011A6  EFD9  F008         	goto	u1320
  1529   0011AA  EFD7  F008         	goto	u1321
  1530   0011AE                     u1321:
  1531   0011AE  EFDF  F008         	goto	l1675
  1532   0011B2                     u1320:
  1533   0011B2  6C0F               	negf	___awdiv@divisor^0,c
  1534   0011B4  1E10               	comf	(___awdiv@divisor+1)^0,f,c
  1535   0011B6  B0D8               	btfsc	status,0,c
  1536   0011B8  2A10               	incf	(___awdiv@divisor+1)^0,f,c
  1537   0011BA  0E01               	movlw	1
  1538   0011BC  6E12               	movwf	___awdiv@sign^0,c
  1539   0011BE                     l1675:
  1540   0011BE  BE0E               	btfsc	(___awdiv@dividend+1)^0,7,c
  1541   0011C0  EFE6  F008         	goto	u1330
  1542   0011C4  EFE4  F008         	goto	u1331
  1543   0011C8                     u1331:
  1544   0011C8  EFEC  F008         	goto	l1681
  1545   0011CC                     u1330:
  1546   0011CC  6C0D               	negf	___awdiv@dividend^0,c
  1547   0011CE  1E0E               	comf	(___awdiv@dividend+1)^0,f,c
  1548   0011D0  B0D8               	btfsc	status,0,c
  1549   0011D2  2A0E               	incf	(___awdiv@dividend+1)^0,f,c
  1550   0011D4  0E01               	movlw	1
  1551   0011D6  1A12               	xorwf	___awdiv@sign^0,f,c
  1552   0011D8                     l1681:
  1553   0011D8  0E00               	movlw	0
  1554   0011DA  6E14               	movwf	(___awdiv@quotient+1)^0,c
  1555   0011DC  0E00               	movlw	0
  1556   0011DE  6E13               	movwf	___awdiv@quotient^0,c
  1557   0011E0  500F               	movf	___awdiv@divisor^0,w,c
  1558   0011E2  1010               	iorwf	(___awdiv@divisor+1)^0,w,c
  1559   0011E4  B4D8               	btfsc	status,2,c
  1560   0011E6  EFF7  F008         	goto	u1341
  1561   0011EA  EFF9  F008         	goto	u1340
  1562   0011EE                     u1341:
  1563   0011EE  EF21  F009         	goto	l1703
  1564   0011F2                     u1340:
  1565   0011F2  0E01               	movlw	1
  1566   0011F4  6E11               	movwf	___awdiv@counter^0,c
  1567   0011F6  EF01  F009         	goto	l1689
  1568   0011FA                     l1687:
  1569   0011FA  90D8               	bcf	status,0,c
  1570   0011FC  360F               	rlcf	___awdiv@divisor^0,f,c
  1571   0011FE  3610               	rlcf	(___awdiv@divisor+1)^0,f,c
  1572   001200  2A11               	incf	___awdiv@counter^0,f,c
  1573   001202                     l1689:
  1574   001202  AE10               	btfss	(___awdiv@divisor+1)^0,7,c
  1575   001204  EF06  F009         	goto	u1351
  1576   001208  EF08  F009         	goto	u1350
  1577   00120C                     u1351:
  1578   00120C  EFFD  F008         	goto	l1687
  1579   001210                     u1350:
  1580   001210                     l1691:
  1581   001210  90D8               	bcf	status,0,c
  1582   001212  3613               	rlcf	___awdiv@quotient^0,f,c
  1583   001214  3614               	rlcf	(___awdiv@quotient+1)^0,f,c
  1584   001216  500F               	movf	___awdiv@divisor^0,w,c
  1585   001218  5C0D               	subwf	___awdiv@dividend^0,w,c
  1586   00121A  5010               	movf	(___awdiv@divisor+1)^0,w,c
  1587   00121C  580E               	subwfb	(___awdiv@dividend+1)^0,w,c
  1588   00121E  A0D8               	btfss	status,0,c
  1589   001220  EF14  F009         	goto	u1361
  1590   001224  EF16  F009         	goto	u1360
  1591   001228                     u1361:
  1592   001228  EF1B  F009         	goto	l1699
  1593   00122C                     u1360:
  1594   00122C  500F               	movf	___awdiv@divisor^0,w,c
  1595   00122E  5E0D               	subwf	___awdiv@dividend^0,f,c
  1596   001230  5010               	movf	(___awdiv@divisor+1)^0,w,c
  1597   001232  5A0E               	subwfb	(___awdiv@dividend+1)^0,f,c
  1598   001234  8013               	bsf	___awdiv@quotient^0,0,c
  1599   001236                     l1699:
  1600   001236  90D8               	bcf	status,0,c
  1601   001238  3210               	rrcf	(___awdiv@divisor+1)^0,f,c
  1602   00123A  320F               	rrcf	___awdiv@divisor^0,f,c
  1603   00123C  2E11               	decfsz	___awdiv@counter^0,f,c
  1604   00123E  EF08  F009         	goto	l1691
  1605   001242                     l1703:
  1606   001242  5012               	movf	___awdiv@sign^0,w,c
  1607   001244  B4D8               	btfsc	status,2,c
  1608   001246  EF27  F009         	goto	u1371
  1609   00124A  EF29  F009         	goto	u1370
  1610   00124E                     u1371:
  1611   00124E  EF2D  F009         	goto	l1707
  1612   001252                     u1370:
  1613   001252  6C13               	negf	___awdiv@quotient^0,c
  1614   001254  1E14               	comf	(___awdiv@quotient+1)^0,f,c
  1615   001256  B0D8               	btfsc	status,0,c
  1616   001258  2A14               	incf	(___awdiv@quotient+1)^0,f,c
  1617   00125A                     l1707:
  1618   00125A  C013  F00D         	movff	___awdiv@quotient,?___awdiv
  1619   00125E  C014  F00E         	movff	___awdiv@quotient+1,?___awdiv+1
  1620   001262  0012               	return		;funcret
  1621   001264                     __end_of___awdiv:
  1622                           	callstack 0
  1623                           
  1624 ;; *************** function _loop *****************
  1625 ;; Defined at:
  1626 ;;		line 608 in file "main.c"
  1627 ;; Parameters:    Size  Location     Type
  1628 ;;		None
  1629 ;; Auto vars:     Size  Location     Type
  1630 ;;  analog_read     2   56[COMRAM] int 
  1631 ;; Return value:  Size  Location     Type
  1632 ;;                  1    wreg      void 
  1633 ;; Registers used:
  1634 ;;		wreg, fsr2l, fsr2h, status,2, status,0, cstack
  1635 ;; Tracked objects:
  1636 ;;		On entry : 0/0
  1637 ;;		On exit  : 0/0
  1638 ;;		Unchanged: 0/0
  1639 ;; Data sizes:     COMRAM   BANK0   BANK1   BANK2   BANK3   BANK4   BANK5   BANK6   BANK7
  1640 ;;      Params:         0       0       0       0       0       0       0       0       0
  1641 ;;      Locals:         2       0       0       0       0       0       0       0       0
  1642 ;;      Temps:          0       0       8       0       0       0       0       0       0
  1643 ;;      Totals:         2       0       8       0       0       0       0       0       0
  1644 ;;Total ram usage:       10 bytes
  1645 ;; Hardware stack levels used: 1
  1646 ;; Hardware stack levels required when called: 2
  1647 ;; This function calls:
  1648 ;;		___aodiv
  1649 ;;		___omul
  1650 ;; This function is called by:
  1651 ;;		_main
  1652 ;; This function uses a non-reentrant model
  1653 ;;
  1654                           
  1655                           	psect	text7
  1656   001264                     __ptext7:
  1657                           	callstack 0
  1658   001264                     _loop:
  1659                           	callstack 28
  1660   001264                     
  1661                           ;main.c: 609:     int analog_read;;main.c: 610:     analog_read = an_input[0];
  1662   001264  C100  F039         	movff	_an_input,loop@analog_read
  1663   001268  C101  F03A         	movff	_an_input+1,loop@analog_read+1
  1664   00126C                     
  1665                           ;main.c: 612:     status_value = (int) ( (long long) analog_read * 1000 / (long long) 10
      +                          24 );
  1666   00126C  0EE8               	movlw	232
  1667   00126E  6E0F               	movwf	___omul@multiplicand^0,c
  1668   001270  0E03               	movlw	3
  1669   001272  6E10               	movwf	(___omul@multiplicand+1)^0,c
  1670   001274  0E00               	movlw	0
  1671   001276  6E11               	movwf	(___omul@multiplicand+2)^0,c
  1672   001278  0E00               	movlw	0
  1673   00127A  6E12               	movwf	(___omul@multiplicand+3)^0,c
  1674   00127C  0E00               	movlw	0
  1675   00127E  6E13               	movwf	(___omul@multiplicand+4)^0,c
  1676   001280  0E00               	movlw	0
  1677   001282  6E14               	movwf	(___omul@multiplicand+5)^0,c
  1678   001284  0E00               	movlw	0
  1679   001286  6E15               	movwf	(___omul@multiplicand+6)^0,c
  1680   001288  0E00               	movlw	0
  1681   00128A  6E16               	movwf	(___omul@multiplicand+7)^0,c
  1682   00128C  C039  F007         	movff	loop@analog_read,___omul@multiplier
  1683   001290  C03A  F008         	movff	loop@analog_read+1,___omul@multiplier+1
  1684   001294  0E00               	movlw	0
  1685   001296  BE08               	btfsc	(___omul@multiplier+1)^0,7,c
  1686   001298  0EFF               	movlw	-1
  1687   00129A  6E09               	movwf	(___omul@multiplier+2)^0,c
  1688   00129C  6E0A               	movwf	(___omul@multiplier+3)^0,c
  1689   00129E  6E0B               	movwf	(___omul@multiplier+4)^0,c
  1690   0012A0  6E0C               	movwf	(___omul@multiplier+5)^0,c
  1691   0012A2  6E0D               	movwf	(___omul@multiplier+6)^0,c
  1692   0012A4  6E0E               	movwf	(___omul@multiplier+7)^0,c
  1693   0012A6  ECE4  F009         	call	___omul	;wreg free
  1694   0012AA  C007  F01F         	movff	?___omul,___aodiv@dividend
  1695   0012AE  C008  F020         	movff	?___omul+1,___aodiv@dividend+1
  1696   0012B2  C009  F021         	movff	?___omul+2,___aodiv@dividend+2
  1697   0012B6  C00A  F022         	movff	?___omul+3,___aodiv@dividend+3
  1698   0012BA  C00B  F023         	movff	?___omul+4,___aodiv@dividend+4
  1699   0012BE  C00C  F024         	movff	?___omul+5,___aodiv@dividend+5
  1700   0012C2  C00D  F025         	movff	?___omul+6,___aodiv@dividend+6
  1701   0012C6  C00E  F026         	movff	?___omul+7,___aodiv@dividend+7
  1702   0012CA  0E00               	movlw	0
  1703   0012CC  6E27               	movwf	___aodiv@divisor^0,c
  1704   0012CE  0E04               	movlw	4
  1705   0012D0  6E28               	movwf	(___aodiv@divisor+1)^0,c
  1706   0012D2  0E00               	movlw	0
  1707   0012D4  6E29               	movwf	(___aodiv@divisor+2)^0,c
  1708   0012D6  0E00               	movlw	0
  1709   0012D8  6E2A               	movwf	(___aodiv@divisor+3)^0,c
  1710   0012DA  0E00               	movlw	0
  1711   0012DC  6E2B               	movwf	(___aodiv@divisor+4)^0,c
  1712   0012DE  0E00               	movlw	0
  1713   0012E0  6E2C               	movwf	(___aodiv@divisor+5)^0,c
  1714   0012E2  0E00               	movlw	0
  1715   0012E4  6E2D               	movwf	(___aodiv@divisor+6)^0,c
  1716   0012E6  0E00               	movlw	0
  1717   0012E8  6E2E               	movwf	(___aodiv@divisor+7)^0,c
  1718   0012EA  EC01  F007         	call	___aodiv	;wreg free
  1719   0012EE  C01F  F12E         	movff	?___aodiv,??_loop
  1720   0012F2  C020  F12F         	movff	?___aodiv+1,??_loop+1
  1721   0012F6  C021  F130         	movff	?___aodiv+2,??_loop+2
  1722   0012FA  C022  F131         	movff	?___aodiv+3,??_loop+3
  1723   0012FE  C023  F132         	movff	?___aodiv+4,??_loop+4
  1724   001302  C024  F133         	movff	?___aodiv+5,??_loop+5
  1725   001306  C025  F134         	movff	?___aodiv+6,??_loop+6
  1726   00130A  C026  F135         	movff	?___aodiv+7,??_loop+7
  1727   00130E  C12E  F050         	movff	??_loop,_status_value
  1728   001312  C12F  F051         	movff	??_loop+1,_status_value+1
  1729   001316  0012               	return		;funcret
  1730   001318                     __end_of_loop:
  1731                           	callstack 0
  1732                           
  1733 ;; *************** function ___omul *****************
  1734 ;; Defined at:
  1735 ;;		line 91 in file "C:\Program Files\Microchip\xc8\v2.40\pic\sources\c99\common\Umul64.c"
  1736 ;; Parameters:    Size  Location     Type
  1737 ;;  multiplier      8    6[COMRAM] unsigned long long 
  1738 ;;  multiplicand    8   14[COMRAM] unsigned long long 
  1739 ;; Auto vars:     Size  Location     Type
  1740 ;;  product         8   22[COMRAM] unsigned long long 
  1741 ;; Return value:  Size  Location     Type
  1742 ;;                  8    6[COMRAM] unsigned long long 
  1743 ;; Registers used:
  1744 ;;		wreg, fsr2l, fsr2h, status,2, status,0
  1745 ;; Tracked objects:
  1746 ;;		On entry : 0/0
  1747 ;;		On exit  : 0/0
  1748 ;;		Unchanged: 0/0
  1749 ;; Data sizes:     COMRAM   BANK0   BANK1   BANK2   BANK3   BANK4   BANK5   BANK6   BANK7
  1750 ;;      Params:        16       0       0       0       0       0       0       0       0
  1751 ;;      Locals:         8       0       0       0       0       0       0       0       0
  1752 ;;      Temps:          0       0       0       0       0       0       0       0       0
  1753 ;;      Totals:        24       0       0       0       0       0       0       0       0
  1754 ;;Total ram usage:       24 bytes
  1755 ;; Hardware stack levels used: 1
  1756 ;; Hardware stack levels required when called: 1
  1757 ;; This function calls:
  1758 ;;		Nothing
  1759 ;; This function is called by:
  1760 ;;		_loop
  1761 ;; This function uses a non-reentrant model
  1762 ;;
  1763                           
  1764                           	psect	text8
  1765   0013C8                     __ptext8:
  1766                           	callstack 0
  1767   0013C8                     ___omul:
  1768                           	callstack 28
  1769   0013C8  EE20  F017         	lfsr	2,___omul@product
  1770   0013CC  0E07               	movlw	7
  1771   0013CE                     u1221:
  1772   0013CE  6ADE               	clrf	postinc2,c
  1773   0013D0  06E8               	decf	wreg,f,c
  1774   0013D2  E2FD               	bc	u1221
  1775   0013D4                     l1615:
  1776   0013D4  A007               	btfss	___omul@multiplier^0,0,c
  1777   0013D6  EFEF  F009         	goto	u1231
  1778   0013DA  EFF1  F009         	goto	u1230
  1779   0013DE                     u1231:
  1780   0013DE  EF01  F00A         	goto	l1619
  1781   0013E2                     u1230:
  1782   0013E2  500F               	movf	___omul@multiplicand^0,w,c
  1783   0013E4  2617               	addwf	___omul@product^0,f,c
  1784   0013E6  5010               	movf	(___omul@multiplicand+1)^0,w,c
  1785   0013E8  2218               	addwfc	(___omul@product+1)^0,f,c
  1786   0013EA  5011               	movf	(___omul@multiplicand+2)^0,w,c
  1787   0013EC  2219               	addwfc	(___omul@product+2)^0,f,c
  1788   0013EE  5012               	movf	(___omul@multiplicand+3)^0,w,c
  1789   0013F0  221A               	addwfc	(___omul@product+3)^0,f,c
  1790   0013F2  5013               	movf	(___omul@multiplicand+4)^0,w,c
  1791   0013F4  221B               	addwfc	(___omul@product+4)^0,f,c
  1792   0013F6  5014               	movf	(___omul@multiplicand+5)^0,w,c
  1793   0013F8  221C               	addwfc	(___omul@product+5)^0,f,c
  1794   0013FA  5015               	movf	(___omul@multiplicand+6)^0,w,c
  1795   0013FC  221D               	addwfc	(___omul@product+6)^0,f,c
  1796   0013FE  5016               	movf	(___omul@multiplicand+7)^0,w,c
  1797   001400  221E               	addwfc	(___omul@product+7)^0,f,c
  1798   001402                     l1619:
  1799   001402  90D8               	bcf	status,0,c
  1800   001404  360F               	rlcf	___omul@multiplicand^0,f,c
  1801   001406  3610               	rlcf	(___omul@multiplicand+1)^0,f,c
  1802   001408  3611               	rlcf	(___omul@multiplicand+2)^0,f,c
  1803   00140A  3612               	rlcf	(___omul@multiplicand+3)^0,f,c
  1804   00140C  3613               	rlcf	(___omul@multiplicand+4)^0,f,c
  1805   00140E  3614               	rlcf	(___omul@multiplicand+5)^0,f,c
  1806   001410  3615               	rlcf	(___omul@multiplicand+6)^0,f,c
  1807   001412  3616               	rlcf	(___omul@multiplicand+7)^0,f,c
  1808   001414  90D8               	bcf	status,0,c
  1809   001416  320E               	rrcf	(___omul@multiplier+7)^0,f,c
  1810   001418  320D               	rrcf	(___omul@multiplier+6)^0,f,c
  1811   00141A  320C               	rrcf	(___omul@multiplier+5)^0,f,c
  1812   00141C  320B               	rrcf	(___omul@multiplier+4)^0,f,c
  1813   00141E  320A               	rrcf	(___omul@multiplier+3)^0,f,c
  1814   001420  3209               	rrcf	(___omul@multiplier+2)^0,f,c
  1815   001422  3208               	rrcf	(___omul@multiplier+1)^0,f,c
  1816   001424  3207               	rrcf	___omul@multiplier^0,f,c
  1817   001426  5007               	movf	___omul@multiplier^0,w,c
  1818   001428  1008               	iorwf	(___omul@multiplier+1)^0,w,c
  1819   00142A  1009               	iorwf	(___omul@multiplier+2)^0,w,c
  1820   00142C  100A               	iorwf	(___omul@multiplier+3)^0,w,c
  1821   00142E  100B               	iorwf	(___omul@multiplier+4)^0,w,c
  1822   001430  100C               	iorwf	(___omul@multiplier+5)^0,w,c
  1823   001432  100D               	iorwf	(___omul@multiplier+6)^0,w,c
  1824   001434  100E               	iorwf	(___omul@multiplier+7)^0,w,c
  1825   001436  A4D8               	btfss	status,2,c
  1826   001438  EF20  F00A         	goto	u1241
  1827   00143C  EF22  F00A         	goto	u1240
  1828   001440                     u1241:
  1829   001440  EFEA  F009         	goto	l1615
  1830   001444                     u1240:
  1831   001444  C017  F007         	movff	___omul@product,?___omul
  1832   001448  C018  F008         	movff	___omul@product+1,?___omul+1
  1833   00144C  C019  F009         	movff	___omul@product+2,?___omul+2
  1834   001450  C01A  F00A         	movff	___omul@product+3,?___omul+3
  1835   001454  C01B  F00B         	movff	___omul@product+4,?___omul+4
  1836   001458  C01C  F00C         	movff	___omul@product+5,?___omul+5
  1837   00145C  C01D  F00D         	movff	___omul@product+6,?___omul+6
  1838   001460  C01E  F00E         	movff	___omul@product+7,?___omul+7
  1839   001464  0012               	return		;funcret
  1840   001466                     __end_of___omul:
  1841                           	callstack 0
  1842                           
  1843 ;; *************** function ___aodiv *****************
  1844 ;; Defined at:
  1845 ;;		line 9 in file "C:\Program Files\Microchip\xc8\v2.40\pic\sources\c99\common\aodiv.c"
  1846 ;; Parameters:    Size  Location     Type
  1847 ;;  dividend        8   30[COMRAM] long long 
  1848 ;;  divisor         8   38[COMRAM] long long 
  1849 ;; Auto vars:     Size  Location     Type
  1850 ;;  quotient        8   48[COMRAM] long long 
  1851 ;;  sign            1   47[COMRAM] unsigned char 
  1852 ;;  counter         1   46[COMRAM] unsigned char 
  1853 ;; Return value:  Size  Location     Type
  1854 ;;                  8   30[COMRAM] long long 
  1855 ;; Registers used:
  1856 ;;		wreg, fsr2l, fsr2h, status,2, status,0
  1857 ;; Tracked objects:
  1858 ;;		On entry : 0/0
  1859 ;;		On exit  : 0/0
  1860 ;;		Unchanged: 0/0
  1861 ;; Data sizes:     COMRAM   BANK0   BANK1   BANK2   BANK3   BANK4   BANK5   BANK6   BANK7
  1862 ;;      Params:        16       0       0       0       0       0       0       0       0
  1863 ;;      Locals:        10       0       0       0       0       0       0       0       0
  1864 ;;      Temps:          0       0       0       0       0       0       0       0       0
  1865 ;;      Totals:        26       0       0       0       0       0       0       0       0
  1866 ;;Total ram usage:       26 bytes
  1867 ;; Hardware stack levels used: 1
  1868 ;; Hardware stack levels required when called: 1
  1869 ;; This function calls:
  1870 ;;		Nothing
  1871 ;; This function is called by:
  1872 ;;		_loop
  1873 ;; This function uses a non-reentrant model
  1874 ;;
  1875                           
  1876                           	psect	text9
  1877   000E02                     __ptext9:
  1878                           	callstack 0
  1879   000E02                     ___aodiv:
  1880                           	callstack 28
  1881   000E02  0E00               	movlw	0
  1882   000E04  6E30               	movwf	___aodiv@sign^0,c
  1883   000E06  BE2E               	btfsc	(___aodiv@divisor+7)^0,7,c
  1884   000E08  EF0A  F007         	goto	u1250
  1885   000E0C  EF08  F007         	goto	u1251
  1886   000E10                     u1251:
  1887   000E10  EF1C  F007         	goto	l1631
  1888   000E14                     u1250:
  1889   000E14  1E2E               	comf	(___aodiv@divisor+7)^0,f,c
  1890   000E16  1E2D               	comf	(___aodiv@divisor+6)^0,f,c
  1891   000E18  1E2C               	comf	(___aodiv@divisor+5)^0,f,c
  1892   000E1A  1E2B               	comf	(___aodiv@divisor+4)^0,f,c
  1893   000E1C  1E2A               	comf	(___aodiv@divisor+3)^0,f,c
  1894   000E1E  1E29               	comf	(___aodiv@divisor+2)^0,f,c
  1895   000E20  1E28               	comf	(___aodiv@divisor+1)^0,f,c
  1896   000E22  6C27               	negf	___aodiv@divisor^0,c
  1897   000E24  0E00               	movlw	0
  1898   000E26  2228               	addwfc	(___aodiv@divisor+1)^0,f,c
  1899   000E28  2229               	addwfc	(___aodiv@divisor+2)^0,f,c
  1900   000E2A  222A               	addwfc	(___aodiv@divisor+3)^0,f,c
  1901   000E2C  222B               	addwfc	(___aodiv@divisor+4)^0,f,c
  1902   000E2E  222C               	addwfc	(___aodiv@divisor+5)^0,f,c
  1903   000E30  222D               	addwfc	(___aodiv@divisor+6)^0,f,c
  1904   000E32  222E               	addwfc	(___aodiv@divisor+7)^0,f,c
  1905   000E34  0E01               	movlw	1
  1906   000E36  6E30               	movwf	___aodiv@sign^0,c
  1907   000E38                     l1631:
  1908   000E38  BE26               	btfsc	(___aodiv@dividend+7)^0,7,c
  1909   000E3A  EF23  F007         	goto	u1260
  1910   000E3E  EF21  F007         	goto	u1261
  1911   000E42                     u1261:
  1912   000E42  EF35  F007         	goto	l1637
  1913   000E46                     u1260:
  1914   000E46  1E26               	comf	(___aodiv@dividend+7)^0,f,c
  1915   000E48  1E25               	comf	(___aodiv@dividend+6)^0,f,c
  1916   000E4A  1E24               	comf	(___aodiv@dividend+5)^0,f,c
  1917   000E4C  1E23               	comf	(___aodiv@dividend+4)^0,f,c
  1918   000E4E  1E22               	comf	(___aodiv@dividend+3)^0,f,c
  1919   000E50  1E21               	comf	(___aodiv@dividend+2)^0,f,c
  1920   000E52  1E20               	comf	(___aodiv@dividend+1)^0,f,c
  1921   000E54  6C1F               	negf	___aodiv@dividend^0,c
  1922   000E56  0E00               	movlw	0
  1923   000E58  2220               	addwfc	(___aodiv@dividend+1)^0,f,c
  1924   000E5A  2221               	addwfc	(___aodiv@dividend+2)^0,f,c
  1925   000E5C  2222               	addwfc	(___aodiv@dividend+3)^0,f,c
  1926   000E5E  2223               	addwfc	(___aodiv@dividend+4)^0,f,c
  1927   000E60  2224               	addwfc	(___aodiv@dividend+5)^0,f,c
  1928   000E62  2225               	addwfc	(___aodiv@dividend+6)^0,f,c
  1929   000E64  2226               	addwfc	(___aodiv@dividend+7)^0,f,c
  1930   000E66  0E01               	movlw	1
  1931   000E68  1A30               	xorwf	___aodiv@sign^0,f,c
  1932   000E6A                     l1637:
  1933   000E6A  EE20  F031         	lfsr	2,___aodiv@quotient
  1934   000E6E  0E07               	movlw	7
  1935   000E70                     u1271:
  1936   000E70  6ADE               	clrf	postinc2,c
  1937   000E72  06E8               	decf	wreg,f,c
  1938   000E74  E2FD               	bc	u1271
  1939   000E76  5027               	movf	___aodiv@divisor^0,w,c
  1940   000E78  1028               	iorwf	(___aodiv@divisor+1)^0,w,c
  1941   000E7A  1029               	iorwf	(___aodiv@divisor+2)^0,w,c
  1942   000E7C  102A               	iorwf	(___aodiv@divisor+3)^0,w,c
  1943   000E7E  102B               	iorwf	(___aodiv@divisor+4)^0,w,c
  1944   000E80  102C               	iorwf	(___aodiv@divisor+5)^0,w,c
  1945   000E82  102D               	iorwf	(___aodiv@divisor+6)^0,w,c
  1946   000E84  102E               	iorwf	(___aodiv@divisor+7)^0,w,c
  1947   000E86  B4D8               	btfsc	status,2,c
  1948   000E88  EF48  F007         	goto	u1281
  1949   000E8C  EF4A  F007         	goto	u1280
  1950   000E90                     u1281:
  1951   000E90  EF9C  F007         	goto	l1659
  1952   000E94                     u1280:
  1953   000E94  0E01               	movlw	1
  1954   000E96  6E2F               	movwf	___aodiv@counter^0,c
  1955   000E98  EF58  F007         	goto	l1645
  1956   000E9C                     l1643:
  1957   000E9C  90D8               	bcf	status,0,c
  1958   000E9E  3627               	rlcf	___aodiv@divisor^0,f,c
  1959   000EA0  3628               	rlcf	(___aodiv@divisor+1)^0,f,c
  1960   000EA2  3629               	rlcf	(___aodiv@divisor+2)^0,f,c
  1961   000EA4  362A               	rlcf	(___aodiv@divisor+3)^0,f,c
  1962   000EA6  362B               	rlcf	(___aodiv@divisor+4)^0,f,c
  1963   000EA8  362C               	rlcf	(___aodiv@divisor+5)^0,f,c
  1964   000EAA  362D               	rlcf	(___aodiv@divisor+6)^0,f,c
  1965   000EAC  362E               	rlcf	(___aodiv@divisor+7)^0,f,c
  1966   000EAE  2A2F               	incf	___aodiv@counter^0,f,c
  1967   000EB0                     l1645:
  1968   000EB0  AE2E               	btfss	(___aodiv@divisor+7)^0,7,c
  1969   000EB2  EF5D  F007         	goto	u1291
  1970   000EB6  EF5F  F007         	goto	u1290
  1971   000EBA                     u1291:
  1972   000EBA  EF4E  F007         	goto	l1643
  1973   000EBE                     u1290:
  1974   000EBE                     l1647:
  1975   000EBE  90D8               	bcf	status,0,c
  1976   000EC0  3631               	rlcf	___aodiv@quotient^0,f,c
  1977   000EC2  3632               	rlcf	(___aodiv@quotient+1)^0,f,c
  1978   000EC4  3633               	rlcf	(___aodiv@quotient+2)^0,f,c
  1979   000EC6  3634               	rlcf	(___aodiv@quotient+3)^0,f,c
  1980   000EC8  3635               	rlcf	(___aodiv@quotient+4)^0,f,c
  1981   000ECA  3636               	rlcf	(___aodiv@quotient+5)^0,f,c
  1982   000ECC  3637               	rlcf	(___aodiv@quotient+6)^0,f,c
  1983   000ECE  3638               	rlcf	(___aodiv@quotient+7)^0,f,c
  1984   000ED0  5027               	movf	___aodiv@divisor^0,w,c
  1985   000ED2  5C1F               	subwf	___aodiv@dividend^0,w,c
  1986   000ED4  5028               	movf	(___aodiv@divisor+1)^0,w,c
  1987   000ED6  5820               	subwfb	(___aodiv@dividend+1)^0,w,c
  1988   000ED8  5029               	movf	(___aodiv@divisor+2)^0,w,c
  1989   000EDA  5821               	subwfb	(___aodiv@dividend+2)^0,w,c
  1990   000EDC  502A               	movf	(___aodiv@divisor+3)^0,w,c
  1991   000EDE  5822               	subwfb	(___aodiv@dividend+3)^0,w,c
  1992   000EE0  502B               	movf	(___aodiv@divisor+4)^0,w,c
  1993   000EE2  5823               	subwfb	(___aodiv@dividend+4)^0,w,c
  1994   000EE4  502C               	movf	(___aodiv@divisor+5)^0,w,c
  1995   000EE6  5824               	subwfb	(___aodiv@dividend+5)^0,w,c
  1996   000EE8  502D               	movf	(___aodiv@divisor+6)^0,w,c
  1997   000EEA  5825               	subwfb	(___aodiv@dividend+6)^0,w,c
  1998   000EEC  502E               	movf	(___aodiv@divisor+7)^0,w,c
  1999   000EEE  5826               	subwfb	(___aodiv@dividend+7)^0,w,c
  2000   000EF0  A0D8               	btfss	status,0,c
  2001   000EF2  EF7D  F007         	goto	u1301
  2002   000EF6  EF7F  F007         	goto	u1300
  2003   000EFA                     u1301:
  2004   000EFA  EF90  F007         	goto	l1655
  2005   000EFE                     u1300:
  2006   000EFE  5027               	movf	___aodiv@divisor^0,w,c
  2007   000F00  5E1F               	subwf	___aodiv@dividend^0,f,c
  2008   000F02  5028               	movf	(___aodiv@divisor+1)^0,w,c
  2009   000F04  5A20               	subwfb	(___aodiv@dividend+1)^0,f,c
  2010   000F06  5029               	movf	(___aodiv@divisor+2)^0,w,c
  2011   000F08  5A21               	subwfb	(___aodiv@dividend+2)^0,f,c
  2012   000F0A  502A               	movf	(___aodiv@divisor+3)^0,w,c
  2013   000F0C  5A22               	subwfb	(___aodiv@dividend+3)^0,f,c
  2014   000F0E  502B               	movf	(___aodiv@divisor+4)^0,w,c
  2015   000F10  5A23               	subwfb	(___aodiv@dividend+4)^0,f,c
  2016   000F12  502C               	movf	(___aodiv@divisor+5)^0,w,c
  2017   000F14  5A24               	subwfb	(___aodiv@dividend+5)^0,f,c
  2018   000F16  502D               	movf	(___aodiv@divisor+6)^0,w,c
  2019   000F18  5A25               	subwfb	(___aodiv@dividend+6)^0,f,c
  2020   000F1A  502E               	movf	(___aodiv@divisor+7)^0,w,c
  2021   000F1C  5A26               	subwfb	(___aodiv@dividend+7)^0,f,c
  2022   000F1E  8031               	bsf	___aodiv@quotient^0,0,c
  2023   000F20                     l1655:
  2024   000F20  90D8               	bcf	status,0,c
  2025   000F22  322E               	rrcf	(___aodiv@divisor+7)^0,f,c
  2026   000F24  322D               	rrcf	(___aodiv@divisor+6)^0,f,c
  2027   000F26  322C               	rrcf	(___aodiv@divisor+5)^0,f,c
  2028   000F28  322B               	rrcf	(___aodiv@divisor+4)^0,f,c
  2029   000F2A  322A               	rrcf	(___aodiv@divisor+3)^0,f,c
  2030   000F2C  3229               	rrcf	(___aodiv@divisor+2)^0,f,c
  2031   000F2E  3228               	rrcf	(___aodiv@divisor+1)^0,f,c
  2032   000F30  3227               	rrcf	___aodiv@divisor^0,f,c
  2033   000F32  2E2F               	decfsz	___aodiv@counter^0,f,c
  2034   000F34  EF5F  F007         	goto	l1647
  2035   000F38                     l1659:
  2036   000F38  5030               	movf	___aodiv@sign^0,w,c
  2037   000F3A  B4D8               	btfsc	status,2,c
  2038   000F3C  EFA2  F007         	goto	u1311
  2039   000F40  EFA4  F007         	goto	u1310
  2040   000F44                     u1311:
  2041   000F44  EFB4  F007         	goto	l1663
  2042   000F48                     u1310:
  2043   000F48  1E38               	comf	(___aodiv@quotient+7)^0,f,c
  2044   000F4A  1E37               	comf	(___aodiv@quotient+6)^0,f,c
  2045   000F4C  1E36               	comf	(___aodiv@quotient+5)^0,f,c
  2046   000F4E  1E35               	comf	(___aodiv@quotient+4)^0,f,c
  2047   000F50  1E34               	comf	(___aodiv@quotient+3)^0,f,c
  2048   000F52  1E33               	comf	(___aodiv@quotient+2)^0,f,c
  2049   000F54  1E32               	comf	(___aodiv@quotient+1)^0,f,c
  2050   000F56  6C31               	negf	___aodiv@quotient^0,c
  2051   000F58  0E00               	movlw	0
  2052   000F5A  2232               	addwfc	(___aodiv@quotient+1)^0,f,c
  2053   000F5C  2233               	addwfc	(___aodiv@quotient+2)^0,f,c
  2054   000F5E  2234               	addwfc	(___aodiv@quotient+3)^0,f,c
  2055   000F60  2235               	addwfc	(___aodiv@quotient+4)^0,f,c
  2056   000F62  2236               	addwfc	(___aodiv@quotient+5)^0,f,c
  2057   000F64  2237               	addwfc	(___aodiv@quotient+6)^0,f,c
  2058   000F66  2238               	addwfc	(___aodiv@quotient+7)^0,f,c
  2059   000F68                     l1663:
  2060   000F68  C031  F01F         	movff	___aodiv@quotient,?___aodiv
  2061   000F6C  C032  F020         	movff	___aodiv@quotient+1,?___aodiv+1
  2062   000F70  C033  F021         	movff	___aodiv@quotient+2,?___aodiv+2
  2063   000F74  C034  F022         	movff	___aodiv@quotient+3,?___aodiv+3
  2064   000F78  C035  F023         	movff	___aodiv@quotient+4,?___aodiv+4
  2065   000F7C  C036  F024         	movff	___aodiv@quotient+5,?___aodiv+5
  2066   000F80  C037  F025         	movff	___aodiv@quotient+6,?___aodiv+6
  2067   000F84  C038  F026         	movff	___aodiv@quotient+7,?___aodiv+7
  2068   000F88  0012               	return		;funcret
  2069   000F8A                     __end_of___aodiv:
  2070                           	callstack 0
  2071                           
  2072 ;; *************** function _init_vars *****************
  2073 ;; Defined at:
  2074 ;;		line 300 in file "main.c"
  2075 ;; Parameters:    Size  Location     Type
  2076 ;;		None
  2077 ;; Auto vars:     Size  Location     Type
  2078 ;;  i               2    8[COMRAM] int 
  2079 ;; Return value:  Size  Location     Type
  2080 ;;                  1    wreg      void 
  2081 ;; Registers used:
  2082 ;;		wreg, fsr2l, fsr2h, status,2, status,0
  2083 ;; Tracked objects:
  2084 ;;		On entry : 0/0
  2085 ;;		On exit  : 0/0
  2086 ;;		Unchanged: 0/0
  2087 ;; Data sizes:     COMRAM   BANK0   BANK1   BANK2   BANK3   BANK4   BANK5   BANK6   BANK7
  2088 ;;      Params:         0       0       0       0       0       0       0       0       0
  2089 ;;      Locals:         2       0       0       0       0       0       0       0       0
  2090 ;;      Temps:          2       0       0       0       0       0       0       0       0
  2091 ;;      Totals:         4       0       0       0       0       0       0       0       0
  2092 ;;Total ram usage:        4 bytes
  2093 ;; Hardware stack levels used: 1
  2094 ;; Hardware stack levels required when called: 1
  2095 ;; This function calls:
  2096 ;;		Nothing
  2097 ;; This function is called by:
  2098 ;;		_main
  2099 ;; This function uses a non-reentrant model
  2100 ;;
  2101                           
  2102                           	psect	text10
  2103   001570                     __ptext10:
  2104                           	callstack 0
  2105   001570                     _init_vars:
  2106                           	callstack 29
  2107   001570                     
  2108                           ;main.c: 301:     int i;;main.c: 302:     for (i=0;i<5;i++){
  2109   001570  0E00               	movlw	0
  2110   001572  6E0A               	movwf	(init_vars@i+1)^0,c
  2111   001574  0E00               	movlw	0
  2112   001576  6E09               	movwf	init_vars@i^0,c
  2113   001578                     l1773:
  2114                           
  2115                           ;main.c: 303:         counter[i] = 0;
  2116   001578  C009  F007         	movff	init_vars@i,??_init_vars
  2117   00157C  C00A  F008         	movff	init_vars@i+1,??_init_vars+1
  2118   001580  90D8               	bcf	status,0,c
  2119   001582  3607               	rlcf	??_init_vars^0,f,c
  2120   001584  3608               	rlcf	(??_init_vars+1)^0,f,c
  2121   001586  90D8               	bcf	status,0,c
  2122   001588  3607               	rlcf	??_init_vars^0,f,c
  2123   00158A  3608               	rlcf	(??_init_vars+1)^0,f,c
  2124   00158C  90D8               	bcf	status,0,c
  2125   00158E  3607               	rlcf	??_init_vars^0,f,c
  2126   001590  3608               	rlcf	(??_init_vars+1)^0,f,c
  2127   001592  0EB0               	movlw	low _counter
  2128   001594  2407               	addwf	??_init_vars^0,w,c
  2129   001596  6ED9               	movwf	fsr2l,c
  2130   001598  0E00               	movlw	high _counter
  2131   00159A  2008               	addwfc	(??_init_vars+1)^0,w,c
  2132   00159C  6EDA               	movwf	fsr2h,c
  2133   00159E  0E07               	movlw	7
  2134   0015A0                     u1461:
  2135   0015A0  6ADE               	clrf	postinc2,c
  2136   0015A2  06E8               	decf	wreg,f,c
  2137   0015A4  E2FD               	bc	u1461
  2138   0015A6                     
  2139                           ;main.c: 304:     }
  2140   0015A6  4A09               	infsnz	init_vars@i^0,f,c
  2141   0015A8  2A0A               	incf	(init_vars@i+1)^0,f,c
  2142   0015AA  BE0A               	btfsc	(init_vars@i+1)^0,7,c
  2143   0015AC  EFE1  F00A         	goto	u1471
  2144   0015B0  500A               	movf	(init_vars@i+1)^0,w,c
  2145   0015B2  E109               	bnz	u1470
  2146   0015B4  0E05               	movlw	5
  2147   0015B6  5C09               	subwf	init_vars@i^0,w,c
  2148   0015B8  A0D8               	btfss	status,0,c
  2149   0015BA  EFE1  F00A         	goto	u1471
  2150   0015BE  EFE3  F00A         	goto	u1470
  2151   0015C2                     u1471:
  2152   0015C2  EFBC  F00A         	goto	l1773
  2153   0015C6                     u1470:
  2154   0015C6                     
  2155                           ;main.c: 305:     pwm[0] = 0;
  2156   0015C6  0E00               	movlw	0
  2157   0015C8  6E4B               	movwf	(_pwm+1)^0,c
  2158   0015CA  0E00               	movlw	0
  2159   0015CC  6E4A               	movwf	_pwm^0,c
  2160                           
  2161                           ;main.c: 306:     pwm[1] = 0;
  2162   0015CE  0E00               	movlw	0
  2163   0015D0  6E4D               	movwf	(_pwm+3)^0,c
  2164   0015D2  0E00               	movlw	0
  2165   0015D4  6E4C               	movwf	(_pwm+2)^0,c
  2166   0015D6  0012               	return		;funcret
  2167   0015D8                     __end_of_init_vars:
  2168                           	callstack 0
  2169                           
  2170 ;; *************** function _init *****************
  2171 ;; Defined at:
  2172 ;;		line 604 in file "main.c"
  2173 ;; Parameters:    Size  Location     Type
  2174 ;;		None
  2175 ;; Auto vars:     Size  Location     Type
  2176 ;;		None
  2177 ;; Return value:  Size  Location     Type
  2178 ;;                  1    wreg      void 
  2179 ;; Registers used:
  2180 ;;		wreg, status,2
  2181 ;; Tracked objects:
  2182 ;;		On entry : 0/0
  2183 ;;		On exit  : 0/0
  2184 ;;		Unchanged: 0/0
  2185 ;; Data sizes:     COMRAM   BANK0   BANK1   BANK2   BANK3   BANK4   BANK5   BANK6   BANK7
  2186 ;;      Params:         0       0       0       0       0       0       0       0       0
  2187 ;;      Locals:         0       0       0       0       0       0       0       0       0
  2188 ;;      Temps:          0       0       0       0       0       0       0       0       0
  2189 ;;      Totals:         0       0       0       0       0       0       0       0       0
  2190 ;;Total ram usage:        0 bytes
  2191 ;; Hardware stack levels used: 1
  2192 ;; Hardware stack levels required when called: 1
  2193 ;; This function calls:
  2194 ;;		Nothing
  2195 ;; This function is called by:
  2196 ;;		_main
  2197 ;; This function uses a non-reentrant model
  2198 ;;
  2199                           
  2200                           	psect	text11
  2201   0016A0                     __ptext11:
  2202                           	callstack 0
  2203   0016A0                     _init:
  2204                           	callstack 29
  2205   0016A0                     
  2206                           ;main.c: 605:     status_enabled = 1;
  2207   0016A0  0E01               	movlw	1
  2208   0016A2  6E52               	movwf	_status_enabled^0,c
  2209   0016A4  0012               	return		;funcret
  2210   0016A6                     __end_of_init:
  2211                           	callstack 0
  2212                           
  2213 ;; *************** function _config_micro *****************
  2214 ;; Defined at:
  2215 ;;		line 71 in file "main.c"
  2216 ;; Parameters:    Size  Location     Type
  2217 ;;		None
  2218 ;; Auto vars:     Size  Location     Type
  2219 ;;		None
  2220 ;; Return value:  Size  Location     Type
  2221 ;;                  1    wreg      void 
  2222 ;; Registers used:
  2223 ;;		wreg, status,2
  2224 ;; Tracked objects:
  2225 ;;		On entry : 0/0
  2226 ;;		On exit  : 0/0
  2227 ;;		Unchanged: 0/0
  2228 ;; Data sizes:     COMRAM   BANK0   BANK1   BANK2   BANK3   BANK4   BANK5   BANK6   BANK7
  2229 ;;      Params:         0       0       0       0       0       0       0       0       0
  2230 ;;      Locals:         0       0       0       0       0       0       0       0       0
  2231 ;;      Temps:          0       0       0       0       0       0       0       0       0
  2232 ;;      Totals:         0       0       0       0       0       0       0       0       0
  2233 ;;Total ram usage:        0 bytes
  2234 ;; Hardware stack levels used: 1
  2235 ;; Hardware stack levels required when called: 1
  2236 ;; This function calls:
  2237 ;;		Nothing
  2238 ;; This function is called by:
  2239 ;;		_main
  2240 ;; This function uses a non-reentrant model
  2241 ;;
  2242                           
  2243                           	psect	text12
  2244   0010B2                     __ptext12:
  2245                           	callstack 0
  2246   0010B2                     _config_micro:
  2247                           	callstack 29
  2248   0010B2                     
  2249                           ;main.c: 73:     OSCCONbits.IRCF = 7;
  2250   0010B2  0E70               	movlw	112
  2251   0010B4  12D3               	iorwf	211,f,c	;volatile
  2252                           
  2253                           ;main.c: 76:     CMCON=0x07;
  2254   0010B6  0E07               	movlw	7
  2255   0010B8  6EB4               	movwf	180,c	;volatile
  2256   0010BA                     
  2257                           ;main.c: 79:     UCONbits.USBEN = 0;
  2258   0010BA  966D               	bcf	109,3,c	;volatile
  2259   0010BC                     
  2260                           ;main.c: 80:     UCFGbits.UTRDIS = 1;
  2261   0010BC  866F               	bsf	111,3,c	;volatile
  2262   0010BE                     
  2263                           ;main.c: 83:     T0CONbits.TMR0ON = 0;
  2264   0010BE  9ED5               	bcf	213,7,c	;volatile
  2265   0010C0                     
  2266                           ;main.c: 84:     T0CONbits.T08BIT = 0;
  2267   0010C0  9CD5               	bcf	213,6,c	;volatile
  2268   0010C2                     
  2269                           ;main.c: 85:     T0CONbits.T0CS = 0;
  2270   0010C2  9AD5               	bcf	213,5,c	;volatile
  2271   0010C4                     
  2272                           ;main.c: 86:     T0CONbits.PSA = 0;
  2273   0010C4  96D5               	bcf	213,3,c	;volatile
  2274                           
  2275                           ;main.c: 87:     T0CONbits.T0PS = 0b101;
  2276   0010C6  50D5               	movf	213,w,c	;volatile
  2277   0010C8  0BF8               	andlw	-8
  2278   0010CA  0905               	iorlw	5
  2279   0010CC  6ED5               	movwf	213,c	;volatile
  2280   0010CE                     
  2281                           ;main.c: 90:     INTCON2bits.TMR0IP = 1;
  2282   0010CE  84F1               	bsf	241,2,c	;volatile
  2283   0010D0                     
  2284                           ;main.c: 91:     INTCONbits.TMR0IE = 1;
  2285   0010D0  8AF2               	bsf	242,5,c	;volatile
  2286   0010D2                     
  2287                           ;main.c: 92:     RCONbits.IPEN = 0;
  2288   0010D2  9ED0               	bcf	208,7,c	;volatile
  2289                           
  2290                           ;main.c: 95:     TMR0H = 0xF8;
  2291   0010D4  0EF8               	movlw	248
  2292   0010D6  6ED7               	movwf	215,c	;volatile
  2293                           
  2294                           ;main.c: 96:     TMR0L = 0xAC;
  2295   0010D8  0EAC               	movlw	172
  2296   0010DA  6ED6               	movwf	214,c	;volatile
  2297   0010DC                     
  2298                           ;main.c: 101:     T1CONbits.TMR1ON = 0;
  2299   0010DC  90CD               	bcf	205,0,c	;volatile
  2300   0010DE                     
  2301                           ;main.c: 102:     T1CONbits.T1RD16 = 0;
  2302   0010DE  9ECD               	bcf	205,7,c	;volatile
  2303   0010E0                     
  2304                           ;main.c: 103:     T1CONbits.T1RUN = 0;
  2305   0010E0  9CCD               	bcf	205,6,c	;volatile
  2306                           
  2307                           ;main.c: 104:     T1CONbits.T1CKPS = 0;
  2308   0010E2  0ECF               	movlw	-49
  2309   0010E4  16CD               	andwf	205,f,c	;volatile
  2310   0010E6                     
  2311                           ;main.c: 105:     T1CONbits.T1OSCEN = 0;
  2312   0010E6  96CD               	bcf	205,3,c	;volatile
  2313   0010E8                     
  2314                           ;main.c: 106:     T1CONbits.TMR1CS = 0;
  2315   0010E8  92CD               	bcf	205,1,c	;volatile
  2316   0010EA                     
  2317                           ;main.c: 109:     INTCONbits.GIE = 1;
  2318   0010EA  8EF2               	bsf	242,7,c	;volatile
  2319   0010EC                     
  2320                           ;main.c: 110:     T0CONbits.TMR0ON = 1;
  2321   0010EC  8ED5               	bsf	213,7,c	;volatile
  2322   0010EE                     
  2323                           ;main.c: 111:     T1CONbits.TMR1ON = 1;
  2324   0010EE  80CD               	bsf	205,0,c	;volatile
  2325                           
  2326                           ;main.c: 113:     TMR1H = 0xF8;
  2327   0010F0  0EF8               	movlw	248
  2328   0010F2  6ECF               	movwf	207,c	;volatile
  2329                           
  2330                           ;main.c: 114:     TMR1L = 0x2F;
  2331   0010F4  0E2F               	movlw	47
  2332   0010F6  6ECE               	movwf	206,c	;volatile
  2333   0010F8                     
  2334                           ;main.c: 119:     T2CONbits.TMR2ON=0;
  2335   0010F8  94CA               	bcf	202,2,c	;volatile
  2336                           
  2337                           ;main.c: 120:     T2CONbits.TOUTPS=0b01;
  2338   0010FA  50CA               	movf	202,w,c	;volatile
  2339   0010FC  0B87               	andlw	-121
  2340   0010FE  0908               	iorlw	8
  2341   001100  6ECA               	movwf	202,c	;volatile
  2342                           
  2343                           ;main.c: 121:     T2CONbits.T2CKPS=0b01;
  2344   001102  50CA               	movf	202,w,c	;volatile
  2345   001104  0BFC               	andlw	-4
  2346   001106  0901               	iorlw	1
  2347   001108  6ECA               	movwf	202,c	;volatile
  2348                           
  2349                           ;main.c: 124:     CCP1CONbits.CCP1M = 0b1100;
  2350   00110A  50BD               	movf	189,w,c	;volatile
  2351   00110C  0BF0               	andlw	-16
  2352   00110E  090C               	iorlw	12
  2353   001110  6EBD               	movwf	189,c	;volatile
  2354                           
  2355                           ;main.c: 125:     CCP2CONbits.CCP2M = 0b1100;
  2356   001112  50BA               	movf	186,w,c	;volatile
  2357   001114  0BF0               	andlw	-16
  2358   001116  090C               	iorlw	12
  2359   001118  6EBA               	movwf	186,c	;volatile
  2360                           
  2361                           ;main.c: 126:     PR2=149;
  2362   00111A  0E95               	movlw	149
  2363   00111C  6ECB               	movwf	203,c	;volatile
  2364                           
  2365                           ;main.c: 130:     CCP1CONbits.DC1B = 0;
  2366   00111E  0ECF               	movlw	-49
  2367   001120  16BD               	andwf	189,f,c	;volatile
  2368                           
  2369                           ;main.c: 131:     CCP2CONbits.DC2B = 0;
  2370   001122  0ECF               	movlw	-49
  2371   001124  16BA               	andwf	186,f,c	;volatile
  2372                           
  2373                           ;main.c: 132:     CCPR1L = 0;
  2374   001126  0E00               	movlw	0
  2375   001128  6EBE               	movwf	190,c	;volatile
  2376                           
  2377                           ;main.c: 133:     CCPR2L = 0;
  2378   00112A  0E00               	movlw	0
  2379   00112C  6EBB               	movwf	187,c	;volatile
  2380   00112E                     
  2381                           ;main.c: 135:     T2CONbits.TMR2ON=1;
  2382   00112E  84CA               	bsf	202,2,c	;volatile
  2383                           
  2384                           ;main.c: 138:     ADCON0bits.CHS=0;
  2385   001130  0EC3               	movlw	-61
  2386   001132  16C2               	andwf	194,f,c	;volatile
  2387   001134                     
  2388                           ;main.c: 139:     ADCON0bits.GODONE=0;
  2389   001134  92C2               	bcf	194,1,c	;volatile
  2390   001136                     
  2391                           ;main.c: 140:     ADCON0bits.ADON=1;
  2392   001136  80C2               	bsf	194,0,c	;volatile
  2393                           
  2394                           ;main.c: 142:     ADCON1bits.VCFG = 0;
  2395   001138  0ECF               	movlw	-49
  2396   00113A  16C1               	andwf	193,f,c	;volatile
  2397                           
  2398                           ;main.c: 143:     ADCON1bits.PCFG = 0b1001;
  2399   00113C  50C1               	movf	193,w,c	;volatile
  2400   00113E  0BF0               	andlw	-16
  2401   001140  0909               	iorlw	9
  2402   001142  6EC1               	movwf	193,c	;volatile
  2403   001144                     
  2404                           ;main.c: 145:     ADCON2bits.ADFM=0;
  2405   001144  9EC0               	bcf	192,7,c	;volatile
  2406                           
  2407                           ;main.c: 146:     ADCON2bits.ACQT=7;
  2408   001146  0E38               	movlw	56
  2409   001148  12C0               	iorwf	192,f,c	;volatile
  2410                           
  2411                           ;main.c: 147:     ADCON2bits.ADCS=6;
  2412   00114A  50C0               	movf	192,w,c	;volatile
  2413   00114C  0BF8               	andlw	-8
  2414   00114E  0906               	iorlw	6
  2415   001150  6EC0               	movwf	192,c	;volatile
  2416   001152                     
  2417                           ;main.c: 152:     TRISCbits.RC6 = 1;
  2418   001152  8C94               	bsf	148,6,c	;volatile
  2419   001154                     
  2420                           ;main.c: 153:     TRISCbits.RC7 = 1;
  2421   001154  8E94               	bsf	148,7,c	;volatile
  2422   001156                     
  2423                           ;main.c: 155:     BAUDCONbits.RXDTP=0;
  2424   001156  9AB8               	bcf	184,5,c	;volatile
  2425   001158                     
  2426                           ;main.c: 156:     BAUDCONbits.TXCKP=0;
  2427   001158  98B8               	bcf	184,4,c	;volatile
  2428   00115A                     
  2429                           ;main.c: 157:     BAUDCONbits.BRG16=1;
  2430   00115A  86B8               	bsf	184,3,c	;volatile
  2431   00115C                     
  2432                           ;main.c: 159:     BAUDCONbits.WUE=0;
  2433   00115C  92B8               	bcf	184,1,c	;volatile
  2434   00115E                     
  2435                           ;main.c: 160:     BAUDCONbits.ABDEN=0;
  2436   00115E  90B8               	bcf	184,0,c	;volatile
  2437                           
  2438                           ;main.c: 161:     SPBRG=51;
  2439   001160  0E33               	movlw	51
  2440   001162  6EAF               	movwf	175,c	;volatile
  2441                           
  2442                           ;main.c: 162:     SPBRGH=0;
  2443   001164  0E00               	movlw	0
  2444   001166  6EB0               	movwf	176,c	;volatile
  2445   001168                     
  2446                           ;main.c: 163:     TXSTAbits.CSRC=0;
  2447   001168  9EAC               	bcf	172,7,c	;volatile
  2448   00116A                     
  2449                           ;main.c: 164:     TXSTAbits.TX9=0;
  2450   00116A  9CAC               	bcf	172,6,c	;volatile
  2451   00116C                     
  2452                           ;main.c: 165:     TXSTAbits.TXEN=1;
  2453   00116C  8AAC               	bsf	172,5,c	;volatile
  2454   00116E                     
  2455                           ;main.c: 166:     TXSTAbits.SYNC=0;
  2456   00116E  98AC               	bcf	172,4,c	;volatile
  2457   001170                     
  2458                           ;main.c: 168:     TXSTAbits.BRGH=0;
  2459   001170  94AC               	bcf	172,2,c	;volatile
  2460   001172                     
  2461                           ;main.c: 169:     RCSTAbits.RX9=0;
  2462   001172  9CAB               	bcf	171,6,c	;volatile
  2463   001174                     
  2464                           ;main.c: 170:     RCSTAbits.CREN=1;
  2465   001174  88AB               	bsf	171,4,c	;volatile
  2466   001176                     
  2467                           ;main.c: 171:     RCSTAbits.SPEN=1;
  2468   001176  8EAB               	bsf	171,7,c	;volatile
  2469   001178                     
  2470                           ;main.c: 177:     TRISBbits.RB0 = 0;
  2471   001178  9093               	bcf	147,0,c	;volatile
  2472   00117A                     
  2473                           ;main.c: 178:     TRISBbits.RB1 = 0;
  2474   00117A  9293               	bcf	147,1,c	;volatile
  2475   00117C                     
  2476                           ;main.c: 179:     TRISBbits.RB2 = 0;
  2477   00117C  9493               	bcf	147,2,c	;volatile
  2478   00117E                     
  2479                           ;main.c: 180:     TRISBbits.RB4 = 0;
  2480   00117E  9893               	bcf	147,4,c	;volatile
  2481   001180                     
  2482                           ;main.c: 181:     TRISBbits.RB5 = 0;
  2483   001180  9A93               	bcf	147,5,c	;volatile
  2484   001182                     
  2485                           ;main.c: 184:     TRISDbits.RD2 = 1;
  2486   001182  8495               	bsf	149,2,c	;volatile
  2487   001184                     
  2488                           ;main.c: 185:     TRISDbits.RD3 = 1;
  2489   001184  8695               	bsf	149,3,c	;volatile
  2490   001186                     
  2491                           ;main.c: 188:     TRISAbits.RA0 = 1;
  2492   001186  8092               	bsf	146,0,c	;volatile
  2493   001188                     
  2494                           ;main.c: 189:     TRISAbits.RA1 = 1;
  2495   001188  8292               	bsf	146,1,c	;volatile
  2496   00118A                     
  2497                           ;main.c: 190:     TRISAbits.RA2 = 1;
  2498   00118A  8492               	bsf	146,2,c	;volatile
  2499   00118C                     
  2500                           ;main.c: 191:     TRISAbits.RA3 = 1;
  2501   00118C  8692               	bsf	146,3,c	;volatile
  2502   00118E                     
  2503                           ;main.c: 192:     TRISAbits.RA4 = 1;
  2504   00118E  8892               	bsf	146,4,c	;volatile
  2505   001190                     
  2506                           ;main.c: 193:     TRISEbits.RE0 = 1;
  2507   001190  8096               	bsf	150,0,c	;volatile
  2508   001192                     
  2509                           ;main.c: 196:     TRISDbits.RD1 = 0;
  2510   001192  9295               	bcf	149,1,c	;volatile
  2511   001194                     
  2512                           ;main.c: 197:     TRISDbits.RD0 = 0;
  2513   001194  9095               	bcf	149,0,c	;volatile
  2514   001196                     
  2515                           ;main.c: 198:     TRISCbits.RC1 = 0;
  2516   001196  9294               	bcf	148,1,c	;volatile
  2517   001198                     
  2518                           ;main.c: 199:     TRISCbits.RC0 = 0;
  2519   001198  9094               	bcf	148,0,c	;volatile
  2520   00119A                     
  2521                           ;main.c: 200:     TRISBbits.RB3 = 0;
  2522   00119A  9693               	bcf	147,3,c	;volatile
  2523   00119C                     
  2524                           ;main.c: 201:     TRISCbits.RC2 = 0;
  2525   00119C  9494               	bcf	148,2,c	;volatile
  2526   00119E  0012               	return		;funcret
  2527   0011A0                     __end_of_config_micro:
  2528                           	callstack 0
  2529                           
  2530 ;; *************** function _buttons_loop *****************
  2531 ;; Defined at:
  2532 ;;		line 386 in file "main.c"
  2533 ;; Parameters:    Size  Location     Type
  2534 ;;		None
  2535 ;; Auto vars:     Size  Location     Type
  2536 ;;  click_evt       5   16[COMRAM] unsigned char [5]
  2537 ;;  i               2   21[COMRAM] int 
  2538 ;;  i               2   23[COMRAM] int 
  2539 ;; Return value:  Size  Location     Type
  2540 ;;                  1    wreg      void 
  2541 ;; Registers used:
  2542 ;;		wreg, fsr2l, fsr2h, status,2, status,0
  2543 ;; Tracked objects:
  2544 ;;		On entry : 0/0
  2545 ;;		On exit  : 0/0
  2546 ;;		Unchanged: 0/0
  2547 ;; Data sizes:     COMRAM   BANK0   BANK1   BANK2   BANK3   BANK4   BANK5   BANK6   BANK7
  2548 ;;      Params:         0       0       0       0       0       0       0       0       0
  2549 ;;      Locals:         9       0       0       0       0       0       0       0       0
  2550 ;;      Temps:         10       0       0       0       0       0       0       0       0
  2551 ;;      Totals:        19       0       0       0       0       0       0       0       0
  2552 ;;Total ram usage:       19 bytes
  2553 ;; Hardware stack levels used: 1
  2554 ;; Hardware stack levels required when called: 1
  2555 ;; This function calls:
  2556 ;;		Nothing
  2557 ;; This function is called by:
  2558 ;;		_main
  2559 ;; This function uses a non-reentrant model
  2560 ;;
  2561                           
  2562                           	psect	text13
  2563   000012                     __ptext13:
  2564                           	callstack 0
  2565   000012                     _buttons_loop:
  2566                           	callstack 29
  2567   000012                     
  2568                           ;main.c: 387:     if (b_state[0] == 0){
  2569   000012  5045               	movf	_b_state^0,w,c
  2570   000014  A4D8               	btfss	status,2,c
  2571   000016  EF0F  F000         	goto	u1681
  2572   00001A  EF11  F000         	goto	u1680
  2573   00001E                     u1681:
  2574   00001E  EF1D  F000         	goto	l1839
  2575   000022                     u1680:
  2576   000022                     
  2577                           ;main.c: 388:         if (PORTDbits.RD2){
  2578   000022  A483               	btfss	131,2,c	;volatile
  2579   000024  EF16  F000         	goto	u1691
  2580   000028  EF18  F000         	goto	u1690
  2581   00002C                     u1691:
  2582   00002C  EF37  F000         	goto	l204
  2583   000030                     u1690:
  2584   000030                     
  2585                           ;main.c: 389:             b[0] = 0;
  2586   000030  0E00               	movlw	0
  2587   000032  0100               	movlb	0	; () banked
  2588   000034  6FF4               	movwf	_b& (0+255),b
  2589   000036  EF37  F000         	goto	l204
  2590   00003A                     l1839:
  2591   00003A  0445               	decf	_b_state^0,w,c
  2592   00003C  B4D8               	btfsc	status,2,c
  2593   00003E  EF23  F000         	goto	u1701
  2594   000042  EF25  F000         	goto	u1700
  2595   000046                     u1701:
  2596   000046  EF2D  F000         	goto	l207
  2597   00004A                     u1700:
  2598   00004A  5054               	movf	_initial_state^0,w,c
  2599   00004C  B4D8               	btfsc	status,2,c
  2600   00004E  EF2B  F000         	goto	u1711
  2601   000052  EF2D  F000         	goto	u1710
  2602   000056                     u1711:
  2603   000056  EF37  F000         	goto	l204
  2604   00005A                     u1710:
  2605   00005A                     l207:
  2606                           
  2607                           ;main.c: 392:         if (!PORTDbits.RD2){
  2608   00005A  B483               	btfsc	131,2,c	;volatile
  2609   00005C  EF32  F000         	goto	u1721
  2610   000060  EF34  F000         	goto	u1720
  2611   000064                     u1721:
  2612   000064  EF37  F000         	goto	l204
  2613   000068                     u1720:
  2614   000068                     
  2615                           ;main.c: 393:             b[0] = 1;
  2616   000068  0E01               	movlw	1
  2617   00006A  0100               	movlb	0	; () banked
  2618   00006C  6FF4               	movwf	_b& (0+255),b
  2619   00006E                     l204:
  2620                           
  2621                           ;main.c: 396:     if (b_state[1] == 0){
  2622   00006E  5046               	movf	(_b_state+1)^0,w,c
  2623   000070  A4D8               	btfss	status,2,c
  2624   000072  EF3D  F000         	goto	u1731
  2625   000076  EF3F  F000         	goto	u1730
  2626   00007A                     u1731:
  2627   00007A  EF4B  F000         	goto	l1849
  2628   00007E                     u1730:
  2629   00007E                     
  2630                           ;main.c: 397:         if (PORTDbits.RD3){
  2631   00007E  A683               	btfss	131,3,c	;volatile
  2632   000080  EF44  F000         	goto	u1741
  2633   000084  EF46  F000         	goto	u1740
  2634   000088                     u1741:
  2635   000088  EF5D  F000         	goto	l211
  2636   00008C                     u1740:
  2637   00008C                     
  2638                           ;main.c: 398:             b[1] = 0;
  2639   00008C  0E00               	movlw	0
  2640   00008E  0100               	movlb	0	; () banked
  2641   000090  6FF5               	movwf	(_b+1)& (0+255),b
  2642   000092  EF5D  F000         	goto	l211
  2643   000096                     l1849:
  2644   000096  0446               	decf	(_b_state+1)^0,w,c
  2645   000098  A4D8               	btfss	status,2,c
  2646   00009A  EF51  F000         	goto	u1751
  2647   00009E  EF53  F000         	goto	u1750
  2648   0000A2                     u1751:
  2649   0000A2  EF5D  F000         	goto	l211
  2650   0000A6                     u1750:
  2651   0000A6                     
  2652                           ;main.c: 401:         if (!PORTDbits.RD3){
  2653   0000A6  B683               	btfsc	131,3,c	;volatile
  2654   0000A8  EF58  F000         	goto	u1761
  2655   0000AC  EF5A  F000         	goto	u1760
  2656   0000B0                     u1761:
  2657   0000B0  EF5D  F000         	goto	l211
  2658   0000B4                     u1760:
  2659   0000B4                     
  2660                           ;main.c: 402:             b[1] = 1;
  2661   0000B4  0E01               	movlw	1
  2662   0000B6  0100               	movlb	0	; () banked
  2663   0000B8  6FF5               	movwf	(_b+1)& (0+255),b
  2664   0000BA                     l211:
  2665                           
  2666                           ;main.c: 405:     int i;;main.c: 406:     if (initial_state){
  2667   0000BA  5054               	movf	_initial_state^0,w,c
  2668   0000BC  B4D8               	btfsc	status,2,c
  2669   0000BE  EF63  F000         	goto	u1771
  2670   0000C2  EF65  F000         	goto	u1770
  2671   0000C6                     u1771:
  2672   0000C6  EF14  F001         	goto	l1879
  2673   0000CA                     u1770:
  2674   0000CA                     
  2675                           ;main.c: 407:         if (counter[0] >= 20){
  2676   0000CA  0100               	movlb	0	; () banked
  2677   0000CC  BFB7               	btfsc	(_counter+7)& (0+255),7,b
  2678   0000CE  EF78  F000         	goto	u1781
  2679   0000D2  51B7               	movf	(_counter+7)& (0+255),w,b
  2680   0000D4  11B6               	iorwf	(_counter+6)& (0+255),w,b
  2681   0000D6  11B5               	iorwf	(_counter+5)& (0+255),w,b
  2682   0000D8  11B4               	iorwf	(_counter+4)& (0+255),w,b
  2683   0000DA  11B3               	iorwf	(_counter+3)& (0+255),w,b
  2684   0000DC  11B2               	iorwf	(_counter+2)& (0+255),w,b
  2685   0000DE  11B1               	iorwf	(_counter+1)& (0+255),w,b
  2686   0000E0  E109               	bnz	u1780
  2687   0000E2  0E14               	movlw	20
  2688   0000E4  5DB0               	subwf	_counter& (0+255),w,b
  2689   0000E6  A0D8               	btfss	status,0,c
  2690   0000E8  EF78  F000         	goto	u1781
  2691   0000EC  EF7A  F000         	goto	u1780
  2692   0000F0                     u1781:
  2693   0000F0  EF0C  F005         	goto	l255
  2694   0000F4                     u1780:
  2695   0000F4                     
  2696                           ; BSR set to: 0
  2697                           ;main.c: 408:             counter[0] = 0;
  2698   0000F4  EE20  F0B0         	lfsr	2,_counter
  2699   0000F8  0E07               	movlw	7
  2700   0000FA                     u1791:
  2701   0000FA  6ADE               	clrf	postinc2,c
  2702   0000FC  06E8               	decf	wreg,f,c
  2703   0000FE  E2FD               	bc	u1791
  2704   000100                     
  2705                           ; BSR set to: 0
  2706                           ;main.c: 409:             if (!b[0]){
  2707   000100  51F4               	movf	_b& (0+255),w,b
  2708   000102  A4D8               	btfss	status,2,c
  2709   000104  EF86  F000         	goto	u1801
  2710   000108  EF88  F000         	goto	u1800
  2711   00010C                     u1801:
  2712   00010C  EF0F  F001         	goto	l1877
  2713   000110                     u1800:
  2714   000110                     
  2715                           ; BSR set to: 0
  2716                           ;main.c: 410:                 initial_state = 0;
  2717   000110  0E00               	movlw	0
  2718   000112  6E54               	movwf	_initial_state^0,c
  2719   000114                     
  2720                           ; BSR set to: 0
  2721                           ;main.c: 411:                 counter[0] = 0;
  2722   000114  EE20  F0B0         	lfsr	2,_counter
  2723   000118  0E07               	movlw	7
  2724   00011A                     u1811:
  2725   00011A  6ADE               	clrf	postinc2,c
  2726   00011C  06E8               	decf	wreg,f,c
  2727   00011E  E2FD               	bc	u1811
  2728   000120                     
  2729                           ; BSR set to: 0
  2730                           ;main.c: 412:                 for (i = 0;i < 2;i++){
  2731   000120  0E00               	movlw	0
  2732   000122  6E19               	movwf	(buttons_loop@i+1)^0,c
  2733   000124  0E00               	movlw	0
  2734   000126  6E18               	movwf	buttons_loop@i^0,c
  2735   000128                     l1871:
  2736                           
  2737                           ;main.c: 413:                     b_state[i] = 0;
  2738   000128  0E45               	movlw	low _b_state
  2739   00012A  2418               	addwf	buttons_loop@i^0,w,c
  2740   00012C  6ED9               	movwf	fsr2l,c
  2741   00012E  0E00               	movlw	high _b_state
  2742   000130  2019               	addwfc	(buttons_loop@i+1)^0,w,c
  2743   000132  6EDA               	movwf	fsr2h,c
  2744   000134  0E00               	movlw	0
  2745   000136  6EDF               	movwf	indf2,c
  2746                           
  2747                           ;main.c: 414:                     b[i] = 0;
  2748   000138  0EF4               	movlw	low _b
  2749   00013A  2418               	addwf	buttons_loop@i^0,w,c
  2750   00013C  6ED9               	movwf	fsr2l,c
  2751   00013E  0E00               	movlw	high _b
  2752   000140  2019               	addwfc	(buttons_loop@i+1)^0,w,c
  2753   000142  6EDA               	movwf	fsr2h,c
  2754   000144  0E00               	movlw	0
  2755   000146  6EDF               	movwf	indf2,c
  2756                           
  2757                           ;main.c: 415:                     last_b[i] = 0;
  2758   000148  0EF9               	movlw	low _last_b
  2759   00014A  2418               	addwf	buttons_loop@i^0,w,c
  2760   00014C  6ED9               	movwf	fsr2l,c
  2761   00014E  0E00               	movlw	high _last_b
  2762   000150  2019               	addwfc	(buttons_loop@i+1)^0,w,c
  2763   000152  6EDA               	movwf	fsr2h,c
  2764   000154  0E00               	movlw	0
  2765   000156  6EDF               	movwf	indf2,c
  2766                           
  2767                           ;main.c: 417:                     b_counter[i] = 0;
  2768   000158  C018  F007         	movff	buttons_loop@i,??_buttons_loop
  2769   00015C  C019  F008         	movff	buttons_loop@i+1,??_buttons_loop+1
  2770   000160  90D8               	bcf	status,0,c
  2771   000162  3607               	rlcf	??_buttons_loop^0,f,c
  2772   000164  3608               	rlcf	(??_buttons_loop+1)^0,f,c
  2773   000166  90D8               	bcf	status,0,c
  2774   000168  3607               	rlcf	??_buttons_loop^0,f,c
  2775   00016A  3608               	rlcf	(??_buttons_loop+1)^0,f,c
  2776   00016C  90D8               	bcf	status,0,c
  2777   00016E  3607               	rlcf	??_buttons_loop^0,f,c
  2778   000170  3608               	rlcf	(??_buttons_loop+1)^0,f,c
  2779   000172  0E88               	movlw	low _b_counter
  2780   000174  2407               	addwf	??_buttons_loop^0,w,c
  2781   000176  6ED9               	movwf	fsr2l,c
  2782   000178  0E00               	movlw	high _b_counter
  2783   00017A  2008               	addwfc	(??_buttons_loop+1)^0,w,c
  2784   00017C  6EDA               	movwf	fsr2h,c
  2785   00017E  0E07               	movlw	7
  2786   000180                     u1821:
  2787   000180  6ADE               	clrf	postinc2,c
  2788   000182  06E8               	decf	wreg,f,c
  2789   000184  E2FD               	bc	u1821
  2790                           
  2791                           ;main.c: 418:                     state_counter[i] = 0;
  2792   000186  C018  F007         	movff	buttons_loop@i,??_buttons_loop
  2793   00018A  C019  F008         	movff	buttons_loop@i+1,??_buttons_loop+1
  2794   00018E  90D8               	bcf	status,0,c
  2795   000190  3607               	rlcf	??_buttons_loop^0,f,c
  2796   000192  3608               	rlcf	(??_buttons_loop+1)^0,f,c
  2797   000194  90D8               	bcf	status,0,c
  2798   000196  3607               	rlcf	??_buttons_loop^0,f,c
  2799   000198  3608               	rlcf	(??_buttons_loop+1)^0,f,c
  2800   00019A  90D8               	bcf	status,0,c
  2801   00019C  3607               	rlcf	??_buttons_loop^0,f,c
  2802   00019E  3608               	rlcf	(??_buttons_loop+1)^0,f,c
  2803   0001A0  0E60               	movlw	low _state_counter
  2804   0001A2  2407               	addwf	??_buttons_loop^0,w,c
  2805   0001A4  6ED9               	movwf	fsr2l,c
  2806   0001A6  0E00               	movlw	high _state_counter
  2807   0001A8  2008               	addwfc	(??_buttons_loop+1)^0,w,c
  2808   0001AA  6EDA               	movwf	fsr2h,c
  2809   0001AC  0E07               	movlw	7
  2810   0001AE                     u1831:
  2811   0001AE  6ADE               	clrf	postinc2,c
  2812   0001B0  06E8               	decf	wreg,f,c
  2813   0001B2  E2FD               	bc	u1831
  2814                           
  2815                           ;main.c: 419:                     combination_state[i] = 0;
  2816   0001B4  90D8               	bcf	status,0,c
  2817   0001B6  3418               	rlcf	buttons_loop@i^0,w,c
  2818   0001B8  6ED9               	movwf	fsr2l,c
  2819   0001BA  3419               	rlcf	(buttons_loop@i+1)^0,w,c
  2820   0001BC  6EDA               	movwf	fsr2h,c
  2821   0001BE  0E3B               	movlw	low _combination_state
  2822   0001C0  26D9               	addwf	fsr2l,f,c
  2823   0001C2  0E00               	movlw	high _combination_state
  2824   0001C4  22DA               	addwfc	fsr2h,f,c
  2825   0001C6  0E00               	movlw	0
  2826   0001C8  6EDE               	movwf	postinc2,c
  2827   0001CA  0E00               	movlw	0
  2828   0001CC  6EDD               	movwf	postdec2,c
  2829                           
  2830                           ;main.c: 420:                     single_click_evt[i] = 0;
  2831   0001CE  0EEF               	movlw	low _single_click_evt
  2832   0001D0  2418               	addwf	buttons_loop@i^0,w,c
  2833   0001D2  6ED9               	movwf	fsr2l,c
  2834   0001D4  0E00               	movlw	high _single_click_evt
  2835   0001D6  2019               	addwfc	(buttons_loop@i+1)^0,w,c
  2836   0001D8  6EDA               	movwf	fsr2h,c
  2837   0001DA  0E00               	movlw	0
  2838   0001DC  6EDF               	movwf	indf2,c
  2839                           
  2840                           ;main.c: 421:                     double_click_evt[i] = 0;
  2841   0001DE  0EEA               	movlw	low _double_click_evt
  2842   0001E0  2418               	addwf	buttons_loop@i^0,w,c
  2843   0001E2  6ED9               	movwf	fsr2l,c
  2844   0001E4  0E00               	movlw	high _double_click_evt
  2845   0001E6  2019               	addwfc	(buttons_loop@i+1)^0,w,c
  2846   0001E8  6EDA               	movwf	fsr2h,c
  2847   0001EA  0E00               	movlw	0
  2848   0001EC  6EDF               	movwf	indf2,c
  2849                           
  2850                           ;main.c: 422:                     triple_click_evt[i] = 0;
  2851   0001EE  0EE5               	movlw	low _triple_click_evt
  2852   0001F0  2418               	addwf	buttons_loop@i^0,w,c
  2853   0001F2  6ED9               	movwf	fsr2l,c
  2854   0001F4  0E00               	movlw	high _triple_click_evt
  2855   0001F6  2019               	addwfc	(buttons_loop@i+1)^0,w,c
  2856   0001F8  6EDA               	movwf	fsr2h,c
  2857   0001FA  0E00               	movlw	0
  2858   0001FC  6EDF               	movwf	indf2,c
  2859   0001FE                     
  2860                           ;main.c: 423:                 }
  2861   0001FE  4A18               	infsnz	buttons_loop@i^0,f,c
  2862   000200  2A19               	incf	(buttons_loop@i+1)^0,f,c
  2863   000202  BE19               	btfsc	(buttons_loop@i+1)^0,7,c
  2864   000204  EF0D  F001         	goto	u1841
  2865   000208  5019               	movf	(buttons_loop@i+1)^0,w,c
  2866   00020A  E109               	bnz	u1840
  2867   00020C  0E02               	movlw	2
  2868   00020E  5C18               	subwf	buttons_loop@i^0,w,c
  2869   000210  A0D8               	btfss	status,0,c
  2870   000212  EF0D  F001         	goto	u1841
  2871   000216  EF0F  F001         	goto	u1840
  2872   00021A                     u1841:
  2873   00021A  EF94  F000         	goto	l1871
  2874   00021E                     u1840:
  2875   00021E                     l1877:
  2876                           
  2877                           ;main.c: 425:             b[0] = 0;
  2878   00021E  0E00               	movlw	0
  2879   000220  0100               	movlb	0	; () banked
  2880   000222  6FF4               	movwf	_b& (0+255),b
  2881   000224  EF0C  F005         	goto	l255
  2882   000228                     l1879:
  2883   000228  0100               	movlb	0	; () banked
  2884   00022A  BFB7               	btfsc	(_counter+7)& (0+255),7,b
  2885   00022C  EF26  F001         	goto	u1851
  2886   000230  51B7               	movf	(_counter+7)& (0+255),w,b
  2887   000232  11B6               	iorwf	(_counter+6)& (0+255),w,b
  2888   000234  11B5               	iorwf	(_counter+5)& (0+255),w,b
  2889   000236  11B4               	iorwf	(_counter+4)& (0+255),w,b
  2890   000238  11B3               	iorwf	(_counter+3)& (0+255),w,b
  2891   00023A  11B2               	iorwf	(_counter+2)& (0+255),w,b
  2892   00023C  11B1               	iorwf	(_counter+1)& (0+255),w,b
  2893   00023E  E108               	bnz	u1850
  2894   000240  05B0               	decf	_counter& (0+255),w,b
  2895   000242  A0D8               	btfss	status,0,c
  2896   000244  EF26  F001         	goto	u1851
  2897   000248  EF28  F001         	goto	u1850
  2898   00024C                     u1851:
  2899   00024C  EF0C  F005         	goto	l255
  2900   000250                     u1850:
  2901   000250                     
  2902                           ; BSR set to: 0
  2903                           ;main.c: 428:         counter[0] = 0;
  2904   000250  EE20  F0B0         	lfsr	2,_counter
  2905   000254  0E07               	movlw	7
  2906   000256                     u1861:
  2907   000256  6ADE               	clrf	postinc2,c
  2908   000258  06E8               	decf	wreg,f,c
  2909   00025A  E2FD               	bc	u1861
  2910                           
  2911                           ;main.c: 430:         sum_iterations += iterations;
  2912   00025C  EE20  F0D8         	lfsr	2,_iterations
  2913   000260  50DE               	movf	postinc2,w,c
  2914   000262  0101               	movlb	1	; () banked
  2915   000264  271C               	addwf	_sum_iterations& (0+255),f,b
  2916   000266  50DE               	movf	postinc2,w,c
  2917   000268  231D               	addwfc	(_sum_iterations+1)& (0+255),f,b
  2918   00026A  50DE               	movf	postinc2,w,c
  2919   00026C  231E               	addwfc	(_sum_iterations+2)& (0+255),f,b
  2920   00026E  50DE               	movf	postinc2,w,c
  2921   000270  231F               	addwfc	(_sum_iterations+3)& (0+255),f,b
  2922   000272  50DE               	movf	postinc2,w,c
  2923   000274  2320               	addwfc	(_sum_iterations+4)& (0+255),f,b
  2924   000276  50DE               	movf	postinc2,w,c
  2925   000278  2321               	addwfc	(_sum_iterations+5)& (0+255),f,b
  2926   00027A  50DE               	movf	postinc2,w,c
  2927   00027C  2322               	addwfc	(_sum_iterations+6)& (0+255),f,b
  2928   00027E  50DD               	movf	postdec2,w,c
  2929   000280  2323               	addwfc	(_sum_iterations+7)& (0+255),f,b
  2930   000282                     
  2931                           ; BSR set to: 1
  2932                           ;main.c: 431:         amount_cycles ++;
  2933   000282  0E01               	movlw	1
  2934   000284  2714               	addwf	_amount_cycles& (0+255),f,b
  2935   000286  0E00               	movlw	0
  2936   000288  2315               	addwfc	(_amount_cycles+1)& (0+255),f,b
  2937   00028A  2316               	addwfc	(_amount_cycles+2)& (0+255),f,b
  2938   00028C  2317               	addwfc	(_amount_cycles+3)& (0+255),f,b
  2939   00028E  2318               	addwfc	(_amount_cycles+4)& (0+255),f,b
  2940   000290  2319               	addwfc	(_amount_cycles+5)& (0+255),f,b
  2941   000292  231A               	addwfc	(_amount_cycles+6)& (0+255),f,b
  2942   000294  231B               	addwfc	(_amount_cycles+7)& (0+255),f,b
  2943   000296                     
  2944                           ; BSR set to: 1
  2945                           ;main.c: 432:         iterations = 0;
  2946   000296  EE20  F0D8         	lfsr	2,_iterations
  2947   00029A  0E07               	movlw	7
  2948   00029C                     u1871:
  2949   00029C  6ADE               	clrf	postinc2,c
  2950   00029E  06E8               	decf	wreg,f,c
  2951   0002A0  E2FD               	bc	u1871
  2952   0002A2                     
  2953                           ; BSR set to: 1
  2954                           ;main.c: 435:         for (i = 0;i < 2;i++){
  2955   0002A2  0E00               	movlw	0
  2956   0002A4  6E19               	movwf	(buttons_loop@i+1)^0,c
  2957   0002A6  0E00               	movlw	0
  2958   0002A8  6E18               	movwf	buttons_loop@i^0,c
  2959   0002AA                     l1893:
  2960                           
  2961                           ;main.c: 436:             if (b_state[i] == 0){
  2962   0002AA  0E45               	movlw	low _b_state
  2963   0002AC  2418               	addwf	buttons_loop@i^0,w,c
  2964   0002AE  6ED9               	movwf	fsr2l,c
  2965   0002B0  0E00               	movlw	high _b_state
  2966   0002B2  2019               	addwfc	(buttons_loop@i+1)^0,w,c
  2967   0002B4  6EDA               	movwf	fsr2h,c
  2968   0002B6  50DF               	movf	indf2,w,c
  2969   0002B8  A4D8               	btfss	status,2,c
  2970   0002BA  EF61  F001         	goto	u1881
  2971   0002BE  EF63  F001         	goto	u1880
  2972   0002C2                     u1881:
  2973   0002C2  EF04  F002         	goto	l1903
  2974   0002C6                     u1880:
  2975   0002C6                     
  2976                           ;main.c: 437:                 if (b[i]){
  2977   0002C6  0EF4               	movlw	low _b
  2978   0002C8  2418               	addwf	buttons_loop@i^0,w,c
  2979   0002CA  6ED9               	movwf	fsr2l,c
  2980   0002CC  0E00               	movlw	high _b
  2981   0002CE  2019               	addwfc	(buttons_loop@i+1)^0,w,c
  2982   0002D0  6EDA               	movwf	fsr2h,c
  2983   0002D2  50DF               	movf	indf2,w,c
  2984   0002D4  B4D8               	btfsc	status,2,c
  2985   0002D6  EF6F  F001         	goto	u1891
  2986   0002DA  EF71  F001         	goto	u1890
  2987   0002DE                     u1891:
  2988   0002DE  EFE3  F001         	goto	l1901
  2989   0002E2                     u1890:
  2990   0002E2                     
  2991                           ;main.c: 438:                     b_counter[i] ++;
  2992   0002E2  C018  F007         	movff	buttons_loop@i,??_buttons_loop
  2993   0002E6  C019  F008         	movff	buttons_loop@i+1,??_buttons_loop+1
  2994   0002EA  90D8               	bcf	status,0,c
  2995   0002EC  3607               	rlcf	??_buttons_loop^0,f,c
  2996   0002EE  3608               	rlcf	(??_buttons_loop+1)^0,f,c
  2997   0002F0  90D8               	bcf	status,0,c
  2998   0002F2  3607               	rlcf	??_buttons_loop^0,f,c
  2999   0002F4  3608               	rlcf	(??_buttons_loop+1)^0,f,c
  3000   0002F6  90D8               	bcf	status,0,c
  3001   0002F8  3607               	rlcf	??_buttons_loop^0,f,c
  3002   0002FA  3608               	rlcf	(??_buttons_loop+1)^0,f,c
  3003   0002FC  0E88               	movlw	low _b_counter
  3004   0002FE  2407               	addwf	??_buttons_loop^0,w,c
  3005   000300  6ED9               	movwf	fsr2l,c
  3006   000302  0E00               	movlw	high _b_counter
  3007   000304  2008               	addwfc	(??_buttons_loop+1)^0,w,c
  3008   000306  6EDA               	movwf	fsr2h,c
  3009   000308  2ADE               	incf	postinc2,f,c
  3010   00030A  0E00               	movlw	0
  3011   00030C  22DE               	addwfc	postinc2,f,c
  3012   00030E  22DE               	addwfc	postinc2,f,c
  3013   000310  22DE               	addwfc	postinc2,f,c
  3014   000312  22DE               	addwfc	postinc2,f,c
  3015   000314  22DE               	addwfc	postinc2,f,c
  3016   000316  22DE               	addwfc	postinc2,f,c
  3017   000318  22DE               	addwfc	postinc2,f,c
  3018                           
  3019                           ;main.c: 439:                     if (b_counter[i] >= 2){
  3020   00031A  C018  F007         	movff	buttons_loop@i,??_buttons_loop
  3021   00031E  C019  F008         	movff	buttons_loop@i+1,??_buttons_loop+1
  3022   000322  90D8               	bcf	status,0,c
  3023   000324  3607               	rlcf	??_buttons_loop^0,f,c
  3024   000326  3608               	rlcf	(??_buttons_loop+1)^0,f,c
  3025   000328  90D8               	bcf	status,0,c
  3026   00032A  3607               	rlcf	??_buttons_loop^0,f,c
  3027   00032C  3608               	rlcf	(??_buttons_loop+1)^0,f,c
  3028   00032E  90D8               	bcf	status,0,c
  3029   000330  3607               	rlcf	??_buttons_loop^0,f,c
  3030   000332  3608               	rlcf	(??_buttons_loop+1)^0,f,c
  3031   000334  0E88               	movlw	low _b_counter
  3032   000336  2407               	addwf	??_buttons_loop^0,w,c
  3033   000338  6ED9               	movwf	fsr2l,c
  3034   00033A  0E00               	movlw	high _b_counter
  3035   00033C  2008               	addwfc	(??_buttons_loop+1)^0,w,c
  3036   00033E  6EDA               	movwf	fsr2h,c
  3037   000340  0E07               	movlw	7
  3038   000342  BEDB               	btfsc	plusw2,7,c
  3039   000344  EFC0  F001         	goto	u1901
  3040   000348  0E07               	movlw	7
  3041   00034A  50DB               	movf	plusw2,w,c
  3042   00034C  E11B               	bnz	u1900
  3043   00034E  0E06               	movlw	6
  3044   000350  50DB               	movf	plusw2,w,c
  3045   000352  E118               	bnz	u1900
  3046   000354  0E05               	movlw	5
  3047   000356  50DB               	movf	plusw2,w,c
  3048   000358  E115               	bnz	u1900
  3049   00035A  0E04               	movlw	4
  3050   00035C  50DB               	movf	plusw2,w,c
  3051   00035E  E112               	bnz	u1900
  3052   000360  0E03               	movlw	3
  3053   000362  50DB               	movf	plusw2,w,c
  3054   000364  E10F               	bnz	u1900
  3055   000366  0E02               	movlw	2
  3056   000368  50DB               	movf	plusw2,w,c
  3057   00036A  E10C               	bnz	u1900
  3058   00036C  0E01               	movlw	1
  3059   00036E  50DB               	movf	plusw2,w,c
  3060   000370  E109               	bnz	u1900
  3061   000372  0E02               	movlw	2
  3062   000374  5CDE               	subwf	postinc2,w,c
  3063   000376  A0D8               	btfss	status,0,c
  3064   000378  EFC0  F001         	goto	u1901
  3065   00037C  EFC2  F001         	goto	u1900
  3066   000380                     u1901:
  3067   000380  EFB1  F002         	goto	l1913
  3068   000384                     u1900:
  3069   000384                     
  3070                           ;main.c: 440:                         b_state[i] = 1;
  3071   000384  0E45               	movlw	low _b_state
  3072   000386  2418               	addwf	buttons_loop@i^0,w,c
  3073   000388  6ED9               	movwf	fsr2l,c
  3074   00038A  0E00               	movlw	high _b_state
  3075   00038C  2019               	addwfc	(buttons_loop@i+1)^0,w,c
  3076   00038E  6EDA               	movwf	fsr2h,c
  3077   000390  0E01               	movlw	1
  3078   000392  6EDF               	movwf	indf2,c
  3079                           
  3080                           ;main.c: 441:                         b_counter[i] = 0;
  3081   000394  C018  F007         	movff	buttons_loop@i,??_buttons_loop
  3082   000398  C019  F008         	movff	buttons_loop@i+1,??_buttons_loop+1
  3083   00039C  90D8               	bcf	status,0,c
  3084   00039E  3607               	rlcf	??_buttons_loop^0,f,c
  3085   0003A0  3608               	rlcf	(??_buttons_loop+1)^0,f,c
  3086   0003A2  90D8               	bcf	status,0,c
  3087   0003A4  3607               	rlcf	??_buttons_loop^0,f,c
  3088   0003A6  3608               	rlcf	(??_buttons_loop+1)^0,f,c
  3089   0003A8  90D8               	bcf	status,0,c
  3090   0003AA  3607               	rlcf	??_buttons_loop^0,f,c
  3091   0003AC  3608               	rlcf	(??_buttons_loop+1)^0,f,c
  3092   0003AE  0E88               	movlw	low _b_counter
  3093   0003B0  2407               	addwf	??_buttons_loop^0,w,c
  3094   0003B2  6ED9               	movwf	fsr2l,c
  3095   0003B4  0E00               	movlw	high _b_counter
  3096   0003B6  2008               	addwfc	(??_buttons_loop+1)^0,w,c
  3097   0003B8  6EDA               	movwf	fsr2h,c
  3098   0003BA  0E07               	movlw	7
  3099   0003BC                     u1911:
  3100   0003BC  6ADE               	clrf	postinc2,c
  3101   0003BE  06E8               	decf	wreg,f,c
  3102   0003C0  E2FD               	bc	u1911
  3103   0003C2  EFB1  F002         	goto	l1913
  3104   0003C6                     l1901:
  3105                           
  3106                           ;main.c: 444:                     b[i] = 1;
  3107   0003C6  0EF4               	movlw	low _b
  3108   0003C8  2418               	addwf	buttons_loop@i^0,w,c
  3109   0003CA  6ED9               	movwf	fsr2l,c
  3110   0003CC  0E00               	movlw	high _b
  3111   0003CE  2019               	addwfc	(buttons_loop@i+1)^0,w,c
  3112   0003D0  6EDA               	movwf	fsr2h,c
  3113   0003D2  0E01               	movlw	1
  3114   0003D4  6EDF               	movwf	indf2,c
  3115                           
  3116                           ;main.c: 445:                     b_counter[i] = 0;
  3117   0003D6  C018  F007         	movff	buttons_loop@i,??_buttons_loop
  3118   0003DA  C019  F008         	movff	buttons_loop@i+1,??_buttons_loop+1
  3119   0003DE  90D8               	bcf	status,0,c
  3120   0003E0  3607               	rlcf	??_buttons_loop^0,f,c
  3121   0003E2  3608               	rlcf	(??_buttons_loop+1)^0,f,c
  3122   0003E4  90D8               	bcf	status,0,c
  3123   0003E6  3607               	rlcf	??_buttons_loop^0,f,c
  3124   0003E8  3608               	rlcf	(??_buttons_loop+1)^0,f,c
  3125   0003EA  90D8               	bcf	status,0,c
  3126   0003EC  3607               	rlcf	??_buttons_loop^0,f,c
  3127   0003EE  3608               	rlcf	(??_buttons_loop+1)^0,f,c
  3128   0003F0  0E88               	movlw	low _b_counter
  3129   0003F2  2407               	addwf	??_buttons_loop^0,w,c
  3130   0003F4  6ED9               	movwf	fsr2l,c
  3131   0003F6  0E00               	movlw	high _b_counter
  3132   0003F8  2008               	addwfc	(??_buttons_loop+1)^0,w,c
  3133   0003FA  6EDA               	movwf	fsr2h,c
  3134   0003FC  0E07               	movlw	7
  3135   0003FE                     u1921:
  3136   0003FE  6ADE               	clrf	postinc2,c
  3137   000400  06E8               	decf	wreg,f,c
  3138   000402  E2FD               	bc	u1921
  3139   000404  EFB1  F002         	goto	l1913
  3140   000408                     l1903:
  3141   000408  0E45               	movlw	low _b_state
  3142   00040A  2418               	addwf	buttons_loop@i^0,w,c
  3143   00040C  6ED9               	movwf	fsr2l,c
  3144   00040E  0E00               	movlw	high _b_state
  3145   000410  2019               	addwfc	(buttons_loop@i+1)^0,w,c
  3146   000412  6EDA               	movwf	fsr2h,c
  3147   000414  04DE               	decf	postinc2,w,c
  3148   000416  A4D8               	btfss	status,2,c
  3149   000418  EF10  F002         	goto	u1931
  3150   00041C  EF12  F002         	goto	u1930
  3151   000420                     u1931:
  3152   000420  EFB1  F002         	goto	l1913
  3153   000424                     u1930:
  3154   000424                     
  3155                           ;main.c: 448:                 if (!b[i]){
  3156   000424  0EF4               	movlw	low _b
  3157   000426  2418               	addwf	buttons_loop@i^0,w,c
  3158   000428  6ED9               	movwf	fsr2l,c
  3159   00042A  0E00               	movlw	high _b
  3160   00042C  2019               	addwfc	(buttons_loop@i+1)^0,w,c
  3161   00042E  6EDA               	movwf	fsr2h,c
  3162   000430  50DF               	movf	indf2,w,c
  3163   000432  A4D8               	btfss	status,2,c
  3164   000434  EF1E  F002         	goto	u1941
  3165   000438  EF20  F002         	goto	u1940
  3166   00043C                     u1941:
  3167   00043C  EF92  F002         	goto	l1911
  3168   000440                     u1940:
  3169   000440                     
  3170                           ;main.c: 449:                     b_counter[i] ++;
  3171   000440  C018  F007         	movff	buttons_loop@i,??_buttons_loop
  3172   000444  C019  F008         	movff	buttons_loop@i+1,??_buttons_loop+1
  3173   000448  90D8               	bcf	status,0,c
  3174   00044A  3607               	rlcf	??_buttons_loop^0,f,c
  3175   00044C  3608               	rlcf	(??_buttons_loop+1)^0,f,c
  3176   00044E  90D8               	bcf	status,0,c
  3177   000450  3607               	rlcf	??_buttons_loop^0,f,c
  3178   000452  3608               	rlcf	(??_buttons_loop+1)^0,f,c
  3179   000454  90D8               	bcf	status,0,c
  3180   000456  3607               	rlcf	??_buttons_loop^0,f,c
  3181   000458  3608               	rlcf	(??_buttons_loop+1)^0,f,c
  3182   00045A  0E88               	movlw	low _b_counter
  3183   00045C  2407               	addwf	??_buttons_loop^0,w,c
  3184   00045E  6ED9               	movwf	fsr2l,c
  3185   000460  0E00               	movlw	high _b_counter
  3186   000462  2008               	addwfc	(??_buttons_loop+1)^0,w,c
  3187   000464  6EDA               	movwf	fsr2h,c
  3188   000466  2ADE               	incf	postinc2,f,c
  3189   000468  0E00               	movlw	0
  3190   00046A  22DE               	addwfc	postinc2,f,c
  3191   00046C  22DE               	addwfc	postinc2,f,c
  3192   00046E  22DE               	addwfc	postinc2,f,c
  3193   000470  22DE               	addwfc	postinc2,f,c
  3194   000472  22DE               	addwfc	postinc2,f,c
  3195   000474  22DE               	addwfc	postinc2,f,c
  3196   000476  22DE               	addwfc	postinc2,f,c
  3197                           
  3198                           ;main.c: 450:                     if (b_counter[i] >= 2){
  3199   000478  C018  F007         	movff	buttons_loop@i,??_buttons_loop
  3200   00047C  C019  F008         	movff	buttons_loop@i+1,??_buttons_loop+1
  3201   000480  90D8               	bcf	status,0,c
  3202   000482  3607               	rlcf	??_buttons_loop^0,f,c
  3203   000484  3608               	rlcf	(??_buttons_loop+1)^0,f,c
  3204   000486  90D8               	bcf	status,0,c
  3205   000488  3607               	rlcf	??_buttons_loop^0,f,c
  3206   00048A  3608               	rlcf	(??_buttons_loop+1)^0,f,c
  3207   00048C  90D8               	bcf	status,0,c
  3208   00048E  3607               	rlcf	??_buttons_loop^0,f,c
  3209   000490  3608               	rlcf	(??_buttons_loop+1)^0,f,c
  3210   000492  0E88               	movlw	low _b_counter
  3211   000494  2407               	addwf	??_buttons_loop^0,w,c
  3212   000496  6ED9               	movwf	fsr2l,c
  3213   000498  0E00               	movlw	high _b_counter
  3214   00049A  2008               	addwfc	(??_buttons_loop+1)^0,w,c
  3215   00049C  6EDA               	movwf	fsr2h,c
  3216   00049E  0E07               	movlw	7
  3217   0004A0  BEDB               	btfsc	plusw2,7,c
  3218   0004A2  EF6F  F002         	goto	u1951
  3219   0004A6  0E07               	movlw	7
  3220   0004A8  50DB               	movf	plusw2,w,c
  3221   0004AA  E11B               	bnz	u1950
  3222   0004AC  0E06               	movlw	6
  3223   0004AE  50DB               	movf	plusw2,w,c
  3224   0004B0  E118               	bnz	u1950
  3225   0004B2  0E05               	movlw	5
  3226   0004B4  50DB               	movf	plusw2,w,c
  3227   0004B6  E115               	bnz	u1950
  3228   0004B8  0E04               	movlw	4
  3229   0004BA  50DB               	movf	plusw2,w,c
  3230   0004BC  E112               	bnz	u1950
  3231   0004BE  0E03               	movlw	3
  3232   0004C0  50DB               	movf	plusw2,w,c
  3233   0004C2  E10F               	bnz	u1950
  3234   0004C4  0E02               	movlw	2
  3235   0004C6  50DB               	movf	plusw2,w,c
  3236   0004C8  E10C               	bnz	u1950
  3237   0004CA  0E01               	movlw	1
  3238   0004CC  50DB               	movf	plusw2,w,c
  3239   0004CE  E109               	bnz	u1950
  3240   0004D0  0E02               	movlw	2
  3241   0004D2  5CDE               	subwf	postinc2,w,c
  3242   0004D4  A0D8               	btfss	status,0,c
  3243   0004D6  EF6F  F002         	goto	u1951
  3244   0004DA  EF71  F002         	goto	u1950
  3245   0004DE                     u1951:
  3246   0004DE  EFB1  F002         	goto	l1913
  3247   0004E2                     u1950:
  3248   0004E2                     
  3249                           ;main.c: 451:                         b_state[i] = 0;
  3250   0004E2  0E45               	movlw	low _b_state
  3251   0004E4  2418               	addwf	buttons_loop@i^0,w,c
  3252   0004E6  6ED9               	movwf	fsr2l,c
  3253   0004E8  0E00               	movlw	high _b_state
  3254   0004EA  2019               	addwfc	(buttons_loop@i+1)^0,w,c
  3255   0004EC  6EDA               	movwf	fsr2h,c
  3256   0004EE  0E00               	movlw	0
  3257   0004F0  6EDF               	movwf	indf2,c
  3258                           
  3259                           ;main.c: 452:                         b_counter[i] = 0;
  3260   0004F2  C018  F007         	movff	buttons_loop@i,??_buttons_loop
  3261   0004F6  C019  F008         	movff	buttons_loop@i+1,??_buttons_loop+1
  3262   0004FA  90D8               	bcf	status,0,c
  3263   0004FC  3607               	rlcf	??_buttons_loop^0,f,c
  3264   0004FE  3608               	rlcf	(??_buttons_loop+1)^0,f,c
  3265   000500  90D8               	bcf	status,0,c
  3266   000502  3607               	rlcf	??_buttons_loop^0,f,c
  3267   000504  3608               	rlcf	(??_buttons_loop+1)^0,f,c
  3268   000506  90D8               	bcf	status,0,c
  3269   000508  3607               	rlcf	??_buttons_loop^0,f,c
  3270   00050A  3608               	rlcf	(??_buttons_loop+1)^0,f,c
  3271   00050C  0E88               	movlw	low _b_counter
  3272   00050E  2407               	addwf	??_buttons_loop^0,w,c
  3273   000510  6ED9               	movwf	fsr2l,c
  3274   000512  0E00               	movlw	high _b_counter
  3275   000514  2008               	addwfc	(??_buttons_loop+1)^0,w,c
  3276   000516  6EDA               	movwf	fsr2h,c
  3277   000518  0E07               	movlw	7
  3278   00051A                     u1961:
  3279   00051A  6ADE               	clrf	postinc2,c
  3280   00051C  06E8               	decf	wreg,f,c
  3281   00051E  E2FD               	bc	u1961
  3282   000520  EFB1  F002         	goto	l1913
  3283   000524                     l1911:
  3284                           
  3285                           ;main.c: 455:                     b[i] = 0;
  3286   000524  0EF4               	movlw	low _b
  3287   000526  2418               	addwf	buttons_loop@i^0,w,c
  3288   000528  6ED9               	movwf	fsr2l,c
  3289   00052A  0E00               	movlw	high _b
  3290   00052C  2019               	addwfc	(buttons_loop@i+1)^0,w,c
  3291   00052E  6EDA               	movwf	fsr2h,c
  3292   000530  0E00               	movlw	0
  3293   000532  6EDF               	movwf	indf2,c
  3294                           
  3295                           ;main.c: 456:                     b_counter[i] = 0;
  3296   000534  C018  F007         	movff	buttons_loop@i,??_buttons_loop
  3297   000538  C019  F008         	movff	buttons_loop@i+1,??_buttons_loop+1
  3298   00053C  90D8               	bcf	status,0,c
  3299   00053E  3607               	rlcf	??_buttons_loop^0,f,c
  3300   000540  3608               	rlcf	(??_buttons_loop+1)^0,f,c
  3301   000542  90D8               	bcf	status,0,c
  3302   000544  3607               	rlcf	??_buttons_loop^0,f,c
  3303   000546  3608               	rlcf	(??_buttons_loop+1)^0,f,c
  3304   000548  90D8               	bcf	status,0,c
  3305   00054A  3607               	rlcf	??_buttons_loop^0,f,c
  3306   00054C  3608               	rlcf	(??_buttons_loop+1)^0,f,c
  3307   00054E  0E88               	movlw	low _b_counter
  3308   000550  2407               	addwf	??_buttons_loop^0,w,c
  3309   000552  6ED9               	movwf	fsr2l,c
  3310   000554  0E00               	movlw	high _b_counter
  3311   000556  2008               	addwfc	(??_buttons_loop+1)^0,w,c
  3312   000558  6EDA               	movwf	fsr2h,c
  3313   00055A  0E07               	movlw	7
  3314   00055C                     u1971:
  3315   00055C  6ADE               	clrf	postinc2,c
  3316   00055E  06E8               	decf	wreg,f,c
  3317   000560  E2FD               	bc	u1971
  3318   000562                     l1913:
  3319                           
  3320                           ;main.c: 459:         }
  3321   000562  4A18               	infsnz	buttons_loop@i^0,f,c
  3322   000564  2A19               	incf	(buttons_loop@i+1)^0,f,c
  3323   000566  BE19               	btfsc	(buttons_loop@i+1)^0,7,c
  3324   000568  EFBF  F002         	goto	u1981
  3325   00056C  5019               	movf	(buttons_loop@i+1)^0,w,c
  3326   00056E  E109               	bnz	u1980
  3327   000570  0E02               	movlw	2
  3328   000572  5C18               	subwf	buttons_loop@i^0,w,c
  3329   000574  A0D8               	btfss	status,0,c
  3330   000576  EFBF  F002         	goto	u1981
  3331   00057A  EFC1  F002         	goto	u1980
  3332   00057E                     u1981:
  3333   00057E  EF55  F001         	goto	l1893
  3334   000582                     u1980:
  3335   000582                     
  3336                           ;main.c: 462:         char click_evt[5];;main.c: 464:         for (i = 0;i < 2;i++){
  3337   000582  0E00               	movlw	0
  3338   000584  6E19               	movwf	(buttons_loop@i+1)^0,c
  3339   000586  0E00               	movlw	0
  3340   000588  6E18               	movwf	buttons_loop@i^0,c
  3341   00058A                     l1923:
  3342                           
  3343                           ;main.c: 465:             click_evt[i] = 0;
  3344   00058A  0E11               	movlw	low buttons_loop@click_evt
  3345   00058C  2418               	addwf	buttons_loop@i^0,w,c
  3346   00058E  6ED9               	movwf	fsr2l,c
  3347   000590  0E00               	movlw	high buttons_loop@click_evt
  3348   000592  2019               	addwfc	(buttons_loop@i+1)^0,w,c
  3349   000594  6EDA               	movwf	fsr2h,c
  3350   000596  0E00               	movlw	0
  3351   000598  6EDF               	movwf	indf2,c
  3352                           
  3353                           ;main.c: 467:             if (last_b[i] == 0 && b_state[i] == 1){
  3354   00059A  0EF9               	movlw	low _last_b
  3355   00059C  2418               	addwf	buttons_loop@i^0,w,c
  3356   00059E  6ED9               	movwf	fsr2l,c
  3357   0005A0  0E00               	movlw	high _last_b
  3358   0005A2  2019               	addwfc	(buttons_loop@i+1)^0,w,c
  3359   0005A4  6EDA               	movwf	fsr2h,c
  3360   0005A6  50DF               	movf	indf2,w,c
  3361   0005A8  A4D8               	btfss	status,2,c
  3362   0005AA  EFD9  F002         	goto	u1991
  3363   0005AE  EFDB  F002         	goto	u1990
  3364   0005B2                     u1991:
  3365   0005B2  EF02  F003         	goto	l1929
  3366   0005B6                     u1990:
  3367   0005B6  0E45               	movlw	low _b_state
  3368   0005B8  2418               	addwf	buttons_loop@i^0,w,c
  3369   0005BA  6ED9               	movwf	fsr2l,c
  3370   0005BC  0E00               	movlw	high _b_state
  3371   0005BE  2019               	addwfc	(buttons_loop@i+1)^0,w,c
  3372   0005C0  6EDA               	movwf	fsr2h,c
  3373   0005C2  04DE               	decf	postinc2,w,c
  3374   0005C4  A4D8               	btfss	status,2,c
  3375   0005C6  EFE7  F002         	goto	u2001
  3376   0005CA  EFE9  F002         	goto	u2000
  3377   0005CE                     u2001:
  3378   0005CE  EF02  F003         	goto	l1929
  3379   0005D2                     u2000:
  3380   0005D2                     
  3381                           ;main.c: 469:                 press_evt[i] ++;
  3382   0005D2  0E29               	movlw	low _press_evt
  3383   0005D4  2418               	addwf	buttons_loop@i^0,w,c
  3384   0005D6  6ED9               	movwf	fsr2l,c
  3385   0005D8  0E01               	movlw	high _press_evt
  3386   0005DA  2019               	addwfc	(buttons_loop@i+1)^0,w,c
  3387   0005DC  6EDA               	movwf	fsr2h,c
  3388   0005DE  2ADF               	incf	indf2,f,c
  3389                           
  3390                           ;main.c: 470:                 click_evt[i] = 1;
  3391   0005E0  0E11               	movlw	low buttons_loop@click_evt
  3392   0005E2  2418               	addwf	buttons_loop@i^0,w,c
  3393   0005E4  6ED9               	movwf	fsr2l,c
  3394   0005E6  0E00               	movlw	high buttons_loop@click_evt
  3395   0005E8  2019               	addwfc	(buttons_loop@i+1)^0,w,c
  3396   0005EA  6EDA               	movwf	fsr2h,c
  3397   0005EC  0E01               	movlw	1
  3398   0005EE  6EDF               	movwf	indf2,c
  3399                           
  3400                           ;main.c: 472:                 last_b[i] = 1;
  3401   0005F0  0EF9               	movlw	low _last_b
  3402   0005F2  2418               	addwf	buttons_loop@i^0,w,c
  3403   0005F4  6ED9               	movwf	fsr2l,c
  3404   0005F6  0E00               	movlw	high _last_b
  3405   0005F8  2019               	addwfc	(buttons_loop@i+1)^0,w,c
  3406   0005FA  6EDA               	movwf	fsr2h,c
  3407   0005FC  0E01               	movlw	1
  3408   0005FE  6EDF               	movwf	indf2,c
  3409                           
  3410                           ;main.c: 473:             }else if (last_b[i] == 1 && b_state[i] == 0){
  3411   000600  EF2D  F003         	goto	l1935
  3412   000604                     l1929:
  3413   000604  0EF9               	movlw	low _last_b
  3414   000606  2418               	addwf	buttons_loop@i^0,w,c
  3415   000608  6ED9               	movwf	fsr2l,c
  3416   00060A  0E00               	movlw	high _last_b
  3417   00060C  2019               	addwfc	(buttons_loop@i+1)^0,w,c
  3418   00060E  6EDA               	movwf	fsr2h,c
  3419   000610  04DE               	decf	postinc2,w,c
  3420   000612  A4D8               	btfss	status,2,c
  3421   000614  EF0E  F003         	goto	u2011
  3422   000618  EF10  F003         	goto	u2010
  3423   00061C                     u2011:
  3424   00061C  EF2D  F003         	goto	l1935
  3425   000620                     u2010:
  3426   000620  0E45               	movlw	low _b_state
  3427   000622  2418               	addwf	buttons_loop@i^0,w,c
  3428   000624  6ED9               	movwf	fsr2l,c
  3429   000626  0E00               	movlw	high _b_state
  3430   000628  2019               	addwfc	(buttons_loop@i+1)^0,w,c
  3431   00062A  6EDA               	movwf	fsr2h,c
  3432   00062C  50DF               	movf	indf2,w,c
  3433   00062E  A4D8               	btfss	status,2,c
  3434   000630  EF1C  F003         	goto	u2021
  3435   000634  EF1E  F003         	goto	u2020
  3436   000638                     u2021:
  3437   000638  EF2D  F003         	goto	l1935
  3438   00063C                     u2020:
  3439   00063C                     
  3440                           ;main.c: 475:                 release_evt[i] ++;
  3441   00063C  0E24               	movlw	low _release_evt
  3442   00063E  2418               	addwf	buttons_loop@i^0,w,c
  3443   000640  6ED9               	movwf	fsr2l,c
  3444   000642  0E01               	movlw	high _release_evt
  3445   000644  2019               	addwfc	(buttons_loop@i+1)^0,w,c
  3446   000646  6EDA               	movwf	fsr2h,c
  3447   000648  2ADF               	incf	indf2,f,c
  3448                           
  3449                           ;main.c: 477:                 last_b[i] = 0;
  3450   00064A  0EF9               	movlw	low _last_b
  3451   00064C  2418               	addwf	buttons_loop@i^0,w,c
  3452   00064E  6ED9               	movwf	fsr2l,c
  3453   000650  0E00               	movlw	high _last_b
  3454   000652  2019               	addwfc	(buttons_loop@i+1)^0,w,c
  3455   000654  6EDA               	movwf	fsr2h,c
  3456   000656  0E00               	movlw	0
  3457   000658  6EDF               	movwf	indf2,c
  3458   00065A                     l1935:
  3459                           
  3460                           ;main.c: 479:         }
  3461   00065A  4A18               	infsnz	buttons_loop@i^0,f,c
  3462   00065C  2A19               	incf	(buttons_loop@i+1)^0,f,c
  3463   00065E  BE19               	btfsc	(buttons_loop@i+1)^0,7,c
  3464   000660  EF3B  F003         	goto	u2031
  3465   000664  5019               	movf	(buttons_loop@i+1)^0,w,c
  3466   000666  E109               	bnz	u2030
  3467   000668  0E02               	movlw	2
  3468   00066A  5C18               	subwf	buttons_loop@i^0,w,c
  3469   00066C  A0D8               	btfss	status,0,c
  3470   00066E  EF3B  F003         	goto	u2031
  3471   000672  EF3D  F003         	goto	u2030
  3472   000676                     u2031:
  3473   000676  EFC5  F002         	goto	l1923
  3474   00067A                     u2030:
  3475   00067A                     
  3476                           ;main.c: 482:         int i;;main.c: 484:         for (i = 0;i < 2;i++){
  3477   00067A  0E00               	movlw	0
  3478   00067C  6E17               	movwf	(buttons_loop@i_1315+1)^0,c
  3479   00067E  0E00               	movlw	0
  3480   000680  6E16               	movwf	buttons_loop@i_1315^0,c
  3481   000682                     l1945:
  3482                           
  3483                           ;main.c: 485:             if (combination_state[i] == 0){
  3484   000682  90D8               	bcf	status,0,c
  3485   000684  3416               	rlcf	buttons_loop@i_1315^0,w,c
  3486   000686  6ED9               	movwf	fsr2l,c
  3487   000688  3417               	rlcf	(buttons_loop@i_1315+1)^0,w,c
  3488   00068A  6EDA               	movwf	fsr2h,c
  3489   00068C  0E3B               	movlw	low _combination_state
  3490   00068E  26D9               	addwf	fsr2l,f,c
  3491   000690  0E00               	movlw	high _combination_state
  3492   000692  22DA               	addwfc	fsr2h,f,c
  3493   000694  50DE               	movf	postinc2,w,c
  3494   000696  10DE               	iorwf	postinc2,w,c
  3495   000698  A4D8               	btfss	status,2,c
  3496   00069A  EF51  F003         	goto	u2041
  3497   00069E  EF53  F003         	goto	u2040
  3498   0006A2                     u2041:
  3499   0006A2  EF87  F003         	goto	l1951
  3500   0006A6                     u2040:
  3501   0006A6                     
  3502                           ;main.c: 487:                 if (click_evt[i]){
  3503   0006A6  0E11               	movlw	low buttons_loop@click_evt
  3504   0006A8  2416               	addwf	buttons_loop@i_1315^0,w,c
  3505   0006AA  6ED9               	movwf	fsr2l,c
  3506   0006AC  0E00               	movlw	high buttons_loop@click_evt
  3507   0006AE  2017               	addwfc	(buttons_loop@i_1315+1)^0,w,c
  3508   0006B0  6EDA               	movwf	fsr2h,c
  3509   0006B2  50DF               	movf	indf2,w,c
  3510   0006B4  B4D8               	btfsc	status,2,c
  3511   0006B6  EF5F  F003         	goto	u2051
  3512   0006BA  EF61  F003         	goto	u2050
  3513   0006BE                     u2051:
  3514   0006BE  EFFC  F004         	goto	l1981
  3515   0006C2                     u2050:
  3516   0006C2                     
  3517                           ;main.c: 488:                     state_counter[i] = 0;
  3518   0006C2  C016  F007         	movff	buttons_loop@i_1315,??_buttons_loop
  3519   0006C6  C017  F008         	movff	buttons_loop@i_1315+1,??_buttons_loop+1
  3520   0006CA  90D8               	bcf	status,0,c
  3521   0006CC  3607               	rlcf	??_buttons_loop^0,f,c
  3522   0006CE  3608               	rlcf	(??_buttons_loop+1)^0,f,c
  3523   0006D0  90D8               	bcf	status,0,c
  3524   0006D2  3607               	rlcf	??_buttons_loop^0,f,c
  3525   0006D4  3608               	rlcf	(??_buttons_loop+1)^0,f,c
  3526   0006D6  90D8               	bcf	status,0,c
  3527   0006D8  3607               	rlcf	??_buttons_loop^0,f,c
  3528   0006DA  3608               	rlcf	(??_buttons_loop+1)^0,f,c
  3529   0006DC  0E60               	movlw	low _state_counter
  3530   0006DE  2407               	addwf	??_buttons_loop^0,w,c
  3531   0006E0  6ED9               	movwf	fsr2l,c
  3532   0006E2  0E00               	movlw	high _state_counter
  3533   0006E4  2008               	addwfc	(??_buttons_loop+1)^0,w,c
  3534   0006E6  6EDA               	movwf	fsr2h,c
  3535   0006E8  0E07               	movlw	7
  3536   0006EA                     u2061:
  3537   0006EA  6ADE               	clrf	postinc2,c
  3538   0006EC  06E8               	decf	wreg,f,c
  3539   0006EE  E2FD               	bc	u2061
  3540                           
  3541                           ;main.c: 489:                     combination_state[i] = 1;
  3542   0006F0  90D8               	bcf	status,0,c
  3543   0006F2  3416               	rlcf	buttons_loop@i_1315^0,w,c
  3544   0006F4  6ED9               	movwf	fsr2l,c
  3545   0006F6  3417               	rlcf	(buttons_loop@i_1315+1)^0,w,c
  3546   0006F8  6EDA               	movwf	fsr2h,c
  3547   0006FA  0E3B               	movlw	low _combination_state
  3548   0006FC  26D9               	addwf	fsr2l,f,c
  3549   0006FE  0E00               	movlw	high _combination_state
  3550   000700  22DA               	addwfc	fsr2h,f,c
  3551   000702  0E01               	movlw	1
  3552   000704  6EDE               	movwf	postinc2,c
  3553   000706  0E00               	movlw	0
  3554   000708  6EDD               	movwf	postdec2,c
  3555   00070A  EFFC  F004         	goto	l1981
  3556   00070E                     l1951:
  3557   00070E  90D8               	bcf	status,0,c
  3558   000710  3416               	rlcf	buttons_loop@i_1315^0,w,c
  3559   000712  6ED9               	movwf	fsr2l,c
  3560   000714  3417               	rlcf	(buttons_loop@i_1315+1)^0,w,c
  3561   000716  6EDA               	movwf	fsr2h,c
  3562   000718  0E3B               	movlw	low _combination_state
  3563   00071A  26D9               	addwf	fsr2l,f,c
  3564   00071C  0E00               	movlw	high _combination_state
  3565   00071E  22DA               	addwfc	fsr2h,f,c
  3566   000720  28DE               	incf	postinc2,w,c
  3567   000722  E108               	bnz	u2070
  3568   000724  28DE               	incf	postinc2,w,c
  3569   000726  B4D8               	btfsc	status,2,c
  3570   000728  EF98  F003         	goto	u2071
  3571   00072C  EF9A  F003         	goto	u2070
  3572   000730                     u2071:
  3573   000730  EF90  F004         	goto	l1973
  3574   000734                     u2070:
  3575   000734  90D8               	bcf	status,0,c
  3576   000736  3416               	rlcf	buttons_loop@i_1315^0,w,c
  3577   000738  6ED9               	movwf	fsr2l,c
  3578   00073A  3417               	rlcf	(buttons_loop@i_1315+1)^0,w,c
  3579   00073C  6EDA               	movwf	fsr2h,c
  3580   00073E  0E3B               	movlw	low _combination_state
  3581   000740  26D9               	addwf	fsr2l,f,c
  3582   000742  0E00               	movlw	high _combination_state
  3583   000744  22DA               	addwfc	fsr2h,f,c
  3584   000746  50DE               	movf	postinc2,w,c
  3585   000748  10DE               	iorwf	postinc2,w,c
  3586   00074A  B4D8               	btfsc	status,2,c
  3587   00074C  EFAA  F003         	goto	u2081
  3588   000750  EFAC  F003         	goto	u2080
  3589   000754                     u2081:
  3590   000754  EF90  F004         	goto	l1973
  3591   000758                     u2080:
  3592   000758                     
  3593                           ;main.c: 493:                 if (click_evt[i]){
  3594   000758  0E11               	movlw	low buttons_loop@click_evt
  3595   00075A  2416               	addwf	buttons_loop@i_1315^0,w,c
  3596   00075C  6ED9               	movwf	fsr2l,c
  3597   00075E  0E00               	movlw	high buttons_loop@click_evt
  3598   000760  2017               	addwfc	(buttons_loop@i_1315+1)^0,w,c
  3599   000762  6EDA               	movwf	fsr2h,c
  3600   000764  50DF               	movf	indf2,w,c
  3601   000766  B4D8               	btfsc	status,2,c
  3602   000768  EFB8  F003         	goto	u2091
  3603   00076C  EFBA  F003         	goto	u2090
  3604   000770                     u2091:
  3605   000770  EFC6  F003         	goto	l243
  3606   000774                     u2090:
  3607   000774                     
  3608                           ;main.c: 494:                     combination_state[i] ++;
  3609   000774  90D8               	bcf	status,0,c
  3610   000776  3416               	rlcf	buttons_loop@i_1315^0,w,c
  3611   000778  6ED9               	movwf	fsr2l,c
  3612   00077A  3417               	rlcf	(buttons_loop@i_1315+1)^0,w,c
  3613   00077C  6EDA               	movwf	fsr2h,c
  3614   00077E  0E3B               	movlw	low _combination_state
  3615   000780  26D9               	addwf	fsr2l,f,c
  3616   000782  0E00               	movlw	high _combination_state
  3617   000784  22DA               	addwfc	fsr2h,f,c
  3618   000786  2ADE               	incf	postinc2,f,c
  3619   000788  0E00               	movlw	0
  3620   00078A  22DD               	addwfc	postdec2,f,c
  3621   00078C                     l243:
  3622                           
  3623                           ;main.c: 496:                 if (state_counter[i] >= 30){
  3624   00078C  C016  F007         	movff	buttons_loop@i_1315,??_buttons_loop
  3625   000790  C017  F008         	movff	buttons_loop@i_1315+1,??_buttons_loop+1
  3626   000794  90D8               	bcf	status,0,c
  3627   000796  3607               	rlcf	??_buttons_loop^0,f,c
  3628   000798  3608               	rlcf	(??_buttons_loop+1)^0,f,c
  3629   00079A  90D8               	bcf	status,0,c
  3630   00079C  3607               	rlcf	??_buttons_loop^0,f,c
  3631   00079E  3608               	rlcf	(??_buttons_loop+1)^0,f,c
  3632   0007A0  90D8               	bcf	status,0,c
  3633   0007A2  3607               	rlcf	??_buttons_loop^0,f,c
  3634   0007A4  3608               	rlcf	(??_buttons_loop+1)^0,f,c
  3635   0007A6  0E60               	movlw	low _state_counter
  3636   0007A8  2407               	addwf	??_buttons_loop^0,w,c
  3637   0007AA  6ED9               	movwf	fsr2l,c
  3638   0007AC  0E00               	movlw	high _state_counter
  3639   0007AE  2008               	addwfc	(??_buttons_loop+1)^0,w,c
  3640   0007B0  6EDA               	movwf	fsr2h,c
  3641   0007B2  0E07               	movlw	7
  3642   0007B4  BEDB               	btfsc	plusw2,7,c
  3643   0007B6  EFF9  F003         	goto	u2101
  3644   0007BA  0E07               	movlw	7
  3645   0007BC  50DB               	movf	plusw2,w,c
  3646   0007BE  E11B               	bnz	u2100
  3647   0007C0  0E06               	movlw	6
  3648   0007C2  50DB               	movf	plusw2,w,c
  3649   0007C4  E118               	bnz	u2100
  3650   0007C6  0E05               	movlw	5
  3651   0007C8  50DB               	movf	plusw2,w,c
  3652   0007CA  E115               	bnz	u2100
  3653   0007CC  0E04               	movlw	4
  3654   0007CE  50DB               	movf	plusw2,w,c
  3655   0007D0  E112               	bnz	u2100
  3656   0007D2  0E03               	movlw	3
  3657   0007D4  50DB               	movf	plusw2,w,c
  3658   0007D6  E10F               	bnz	u2100
  3659   0007D8  0E02               	movlw	2
  3660   0007DA  50DB               	movf	plusw2,w,c
  3661   0007DC  E10C               	bnz	u2100
  3662   0007DE  0E01               	movlw	1
  3663   0007E0  50DB               	movf	plusw2,w,c
  3664   0007E2  E109               	bnz	u2100
  3665   0007E4  0E1E               	movlw	30
  3666   0007E6  5CDE               	subwf	postinc2,w,c
  3667   0007E8  A0D8               	btfss	status,0,c
  3668   0007EA  EFF9  F003         	goto	u2101
  3669   0007EE  EFFB  F003         	goto	u2100
  3670   0007F2                     u2101:
  3671   0007F2  EF72  F004         	goto	l1971
  3672   0007F6                     u2100:
  3673   0007F6                     
  3674                           ;main.c: 498:                     if (combination_state[i] == 1){
  3675   0007F6  90D8               	bcf	status,0,c
  3676   0007F8  3416               	rlcf	buttons_loop@i_1315^0,w,c
  3677   0007FA  6ED9               	movwf	fsr2l,c
  3678   0007FC  3417               	rlcf	(buttons_loop@i_1315+1)^0,w,c
  3679   0007FE  6EDA               	movwf	fsr2h,c
  3680   000800  0E3B               	movlw	low _combination_state
  3681   000802  26D9               	addwf	fsr2l,f,c
  3682   000804  0E00               	movlw	high _combination_state
  3683   000806  22DA               	addwfc	fsr2h,f,c
  3684   000808  04DE               	decf	postinc2,w,c
  3685   00080A  10DE               	iorwf	postinc2,w,c
  3686   00080C  A4D8               	btfss	status,2,c
  3687   00080E  EF0B  F004         	goto	u2111
  3688   000812  EF0D  F004         	goto	u2110
  3689   000816                     u2111:
  3690   000816  EF16  F004         	goto	l1963
  3691   00081A                     u2110:
  3692   00081A                     
  3693                           ;main.c: 499:                         single_click_evt[i] ++;
  3694   00081A  0EEF               	movlw	low _single_click_evt
  3695   00081C  2416               	addwf	buttons_loop@i_1315^0,w,c
  3696   00081E  6ED9               	movwf	fsr2l,c
  3697   000820  0E00               	movlw	high _single_click_evt
  3698   000822  2017               	addwfc	(buttons_loop@i_1315+1)^0,w,c
  3699   000824  6EDA               	movwf	fsr2h,c
  3700   000826  2ADF               	incf	indf2,f,c
  3701                           
  3702                           ;main.c: 500:                     }else if (combination_state[i] == 2){
  3703   000828  EF4C  F004         	goto	l246
  3704   00082C                     l1963:
  3705   00082C  90D8               	bcf	status,0,c
  3706   00082E  3416               	rlcf	buttons_loop@i_1315^0,w,c
  3707   000830  6ED9               	movwf	fsr2l,c
  3708   000832  3417               	rlcf	(buttons_loop@i_1315+1)^0,w,c
  3709   000834  6EDA               	movwf	fsr2h,c
  3710   000836  0E3B               	movlw	low _combination_state
  3711   000838  26D9               	addwf	fsr2l,f,c
  3712   00083A  0E00               	movlw	high _combination_state
  3713   00083C  22DA               	addwfc	fsr2h,f,c
  3714   00083E  0E02               	movlw	2
  3715   000840  18DE               	xorwf	postinc2,w,c
  3716   000842  10DE               	iorwf	postinc2,w,c
  3717   000844  A4D8               	btfss	status,2,c
  3718   000846  EF27  F004         	goto	u2121
  3719   00084A  EF29  F004         	goto	u2120
  3720   00084E                     u2121:
  3721   00084E  EF32  F004         	goto	l1967
  3722   000852                     u2120:
  3723   000852                     
  3724                           ;main.c: 501:                         double_click_evt[i] ++;
  3725   000852  0EEA               	movlw	low _double_click_evt
  3726   000854  2416               	addwf	buttons_loop@i_1315^0,w,c
  3727   000856  6ED9               	movwf	fsr2l,c
  3728   000858  0E00               	movlw	high _double_click_evt
  3729   00085A  2017               	addwfc	(buttons_loop@i_1315+1)^0,w,c
  3730   00085C  6EDA               	movwf	fsr2h,c
  3731   00085E  2ADF               	incf	indf2,f,c
  3732                           
  3733                           ;main.c: 502:                     }else if(combination_state[i] == 3){
  3734   000860  EF4C  F004         	goto	l246
  3735   000864                     l1967:
  3736   000864  90D8               	bcf	status,0,c
  3737   000866  3416               	rlcf	buttons_loop@i_1315^0,w,c
  3738   000868  6ED9               	movwf	fsr2l,c
  3739   00086A  3417               	rlcf	(buttons_loop@i_1315+1)^0,w,c
  3740   00086C  6EDA               	movwf	fsr2h,c
  3741   00086E  0E3B               	movlw	low _combination_state
  3742   000870  26D9               	addwf	fsr2l,f,c
  3743   000872  0E00               	movlw	high _combination_state
  3744   000874  22DA               	addwfc	fsr2h,f,c
  3745   000876  0E03               	movlw	3
  3746   000878  18DE               	xorwf	postinc2,w,c
  3747   00087A  10DE               	iorwf	postinc2,w,c
  3748   00087C  A4D8               	btfss	status,2,c
  3749   00087E  EF43  F004         	goto	u2131
  3750   000882  EF45  F004         	goto	u2130
  3751   000886                     u2131:
  3752   000886  EF4C  F004         	goto	l246
  3753   00088A                     u2130:
  3754   00088A                     
  3755                           ;main.c: 503:                         triple_click_evt[i] ++;
  3756   00088A  0EE5               	movlw	low _triple_click_evt
  3757   00088C  2416               	addwf	buttons_loop@i_1315^0,w,c
  3758   00088E  6ED9               	movwf	fsr2l,c
  3759   000890  0E00               	movlw	high _triple_click_evt
  3760   000892  2017               	addwfc	(buttons_loop@i_1315+1)^0,w,c
  3761   000894  6EDA               	movwf	fsr2h,c
  3762   000896  2ADF               	incf	indf2,f,c
  3763   000898                     l246:
  3764                           
  3765                           ;main.c: 505:                     state_counter[i] = 0;
  3766   000898  C016  F007         	movff	buttons_loop@i_1315,??_buttons_loop
  3767   00089C  C017  F008         	movff	buttons_loop@i_1315+1,??_buttons_loop+1
  3768   0008A0  90D8               	bcf	status,0,c
  3769   0008A2  3607               	rlcf	??_buttons_loop^0,f,c
  3770   0008A4  3608               	rlcf	(??_buttons_loop+1)^0,f,c
  3771   0008A6  90D8               	bcf	status,0,c
  3772   0008A8  3607               	rlcf	??_buttons_loop^0,f,c
  3773   0008AA  3608               	rlcf	(??_buttons_loop+1)^0,f,c
  3774   0008AC  90D8               	bcf	status,0,c
  3775   0008AE  3607               	rlcf	??_buttons_loop^0,f,c
  3776   0008B0  3608               	rlcf	(??_buttons_loop+1)^0,f,c
  3777   0008B2  0E60               	movlw	low _state_counter
  3778   0008B4  2407               	addwf	??_buttons_loop^0,w,c
  3779   0008B6  6ED9               	movwf	fsr2l,c
  3780   0008B8  0E00               	movlw	high _state_counter
  3781   0008BA  2008               	addwfc	(??_buttons_loop+1)^0,w,c
  3782   0008BC  6EDA               	movwf	fsr2h,c
  3783   0008BE  0E07               	movlw	7
  3784   0008C0                     u2141:
  3785   0008C0  6ADE               	clrf	postinc2,c
  3786   0008C2  06E8               	decf	wreg,f,c
  3787   0008C4  E2FD               	bc	u2141
  3788                           
  3789                           ;main.c: 506:                     combination_state[i] = -1;
  3790   0008C6  90D8               	bcf	status,0,c
  3791   0008C8  3416               	rlcf	buttons_loop@i_1315^0,w,c
  3792   0008CA  6ED9               	movwf	fsr2l,c
  3793   0008CC  3417               	rlcf	(buttons_loop@i_1315+1)^0,w,c
  3794   0008CE  6EDA               	movwf	fsr2h,c
  3795   0008D0  0E3B               	movlw	low _combination_state
  3796   0008D2  26D9               	addwf	fsr2l,f,c
  3797   0008D4  0E00               	movlw	high _combination_state
  3798   0008D6  22DA               	addwfc	fsr2h,f,c
  3799   0008D8  0EFF               	movlw	255
  3800   0008DA  6EDE               	movwf	postinc2,c
  3801   0008DC  0EFF               	movlw	255
  3802   0008DE  6EDD               	movwf	postdec2,c
  3803                           
  3804                           ;main.c: 507:                 }else{
  3805   0008E0  EFFC  F004         	goto	l1981
  3806   0008E4                     l1971:
  3807                           
  3808                           ;main.c: 508:                     state_counter[i] ++;
  3809   0008E4  C016  F007         	movff	buttons_loop@i_1315,??_buttons_loop
  3810   0008E8  C017  F008         	movff	buttons_loop@i_1315+1,??_buttons_loop+1
  3811   0008EC  90D8               	bcf	status,0,c
  3812   0008EE  3607               	rlcf	??_buttons_loop^0,f,c
  3813   0008F0  3608               	rlcf	(??_buttons_loop+1)^0,f,c
  3814   0008F2  90D8               	bcf	status,0,c
  3815   0008F4  3607               	rlcf	??_buttons_loop^0,f,c
  3816   0008F6  3608               	rlcf	(??_buttons_loop+1)^0,f,c
  3817   0008F8  90D8               	bcf	status,0,c
  3818   0008FA  3607               	rlcf	??_buttons_loop^0,f,c
  3819   0008FC  3608               	rlcf	(??_buttons_loop+1)^0,f,c
  3820   0008FE  0E60               	movlw	low _state_counter
  3821   000900  2407               	addwf	??_buttons_loop^0,w,c
  3822   000902  6ED9               	movwf	fsr2l,c
  3823   000904  0E00               	movlw	high _state_counter
  3824   000906  2008               	addwfc	(??_buttons_loop+1)^0,w,c
  3825   000908  6EDA               	movwf	fsr2h,c
  3826   00090A  2ADE               	incf	postinc2,f,c
  3827   00090C  0E00               	movlw	0
  3828   00090E  22DE               	addwfc	postinc2,f,c
  3829   000910  22DE               	addwfc	postinc2,f,c
  3830   000912  22DE               	addwfc	postinc2,f,c
  3831   000914  22DE               	addwfc	postinc2,f,c
  3832   000916  22DE               	addwfc	postinc2,f,c
  3833   000918  22DE               	addwfc	postinc2,f,c
  3834   00091A  22DE               	addwfc	postinc2,f,c
  3835   00091C  EFFC  F004         	goto	l1981
  3836   000920                     l1973:
  3837   000920  90D8               	bcf	status,0,c
  3838   000922  3416               	rlcf	buttons_loop@i_1315^0,w,c
  3839   000924  6ED9               	movwf	fsr2l,c
  3840   000926  3417               	rlcf	(buttons_loop@i_1315+1)^0,w,c
  3841   000928  6EDA               	movwf	fsr2h,c
  3842   00092A  0E3B               	movlw	low _combination_state
  3843   00092C  26D9               	addwf	fsr2l,f,c
  3844   00092E  0E00               	movlw	high _combination_state
  3845   000930  22DA               	addwfc	fsr2h,f,c
  3846   000932  28DE               	incf	postinc2,w,c
  3847   000934  E106               	bnz	u2151
  3848   000936  28DE               	incf	postinc2,w,c
  3849   000938  A4D8               	btfss	status,2,c
  3850   00093A  EFA1  F004         	goto	u2151
  3851   00093E  EFA3  F004         	goto	u2150
  3852   000942                     u2151:
  3853   000942  EFFC  F004         	goto	l1981
  3854   000946                     u2150:
  3855   000946                     
  3856                           ;main.c: 511:                 if (state_counter[i] >= 10){
  3857   000946  C016  F007         	movff	buttons_loop@i_1315,??_buttons_loop
  3858   00094A  C017  F008         	movff	buttons_loop@i_1315+1,??_buttons_loop+1
  3859   00094E  90D8               	bcf	status,0,c
  3860   000950  3607               	rlcf	??_buttons_loop^0,f,c
  3861   000952  3608               	rlcf	(??_buttons_loop+1)^0,f,c
  3862   000954  90D8               	bcf	status,0,c
  3863   000956  3607               	rlcf	??_buttons_loop^0,f,c
  3864   000958  3608               	rlcf	(??_buttons_loop+1)^0,f,c
  3865   00095A  90D8               	bcf	status,0,c
  3866   00095C  3607               	rlcf	??_buttons_loop^0,f,c
  3867   00095E  3608               	rlcf	(??_buttons_loop+1)^0,f,c
  3868   000960  0E60               	movlw	low _state_counter
  3869   000962  2407               	addwf	??_buttons_loop^0,w,c
  3870   000964  6ED9               	movwf	fsr2l,c
  3871   000966  0E00               	movlw	high _state_counter
  3872   000968  2008               	addwfc	(??_buttons_loop+1)^0,w,c
  3873   00096A  6EDA               	movwf	fsr2h,c
  3874   00096C  0E07               	movlw	7
  3875   00096E  BEDB               	btfsc	plusw2,7,c
  3876   000970  EFD6  F004         	goto	u2161
  3877   000974  0E07               	movlw	7
  3878   000976  50DB               	movf	plusw2,w,c
  3879   000978  E11B               	bnz	u2160
  3880   00097A  0E06               	movlw	6
  3881   00097C  50DB               	movf	plusw2,w,c
  3882   00097E  E118               	bnz	u2160
  3883   000980  0E05               	movlw	5
  3884   000982  50DB               	movf	plusw2,w,c
  3885   000984  E115               	bnz	u2160
  3886   000986  0E04               	movlw	4
  3887   000988  50DB               	movf	plusw2,w,c
  3888   00098A  E112               	bnz	u2160
  3889   00098C  0E03               	movlw	3
  3890   00098E  50DB               	movf	plusw2,w,c
  3891   000990  E10F               	bnz	u2160
  3892   000992  0E02               	movlw	2
  3893   000994  50DB               	movf	plusw2,w,c
  3894   000996  E10C               	bnz	u2160
  3895   000998  0E01               	movlw	1
  3896   00099A  50DB               	movf	plusw2,w,c
  3897   00099C  E109               	bnz	u2160
  3898   00099E  0E0A               	movlw	10
  3899   0009A0  5CDE               	subwf	postinc2,w,c
  3900   0009A2  A0D8               	btfss	status,0,c
  3901   0009A4  EFD6  F004         	goto	u2161
  3902   0009A8  EFD8  F004         	goto	u2160
  3903   0009AC                     u2161:
  3904   0009AC  EF72  F004         	goto	l1971
  3905   0009B0                     u2160:
  3906   0009B0                     
  3907                           ;main.c: 513:                     combination_state[i] = 0;
  3908   0009B0  90D8               	bcf	status,0,c
  3909   0009B2  3416               	rlcf	buttons_loop@i_1315^0,w,c
  3910   0009B4  6ED9               	movwf	fsr2l,c
  3911   0009B6  3417               	rlcf	(buttons_loop@i_1315+1)^0,w,c
  3912   0009B8  6EDA               	movwf	fsr2h,c
  3913   0009BA  0E3B               	movlw	low _combination_state
  3914   0009BC  26D9               	addwf	fsr2l,f,c
  3915   0009BE  0E00               	movlw	high _combination_state
  3916   0009C0  22DA               	addwfc	fsr2h,f,c
  3917   0009C2  0E00               	movlw	0
  3918   0009C4  6EDE               	movwf	postinc2,c
  3919   0009C6  0E00               	movlw	0
  3920   0009C8  6EDD               	movwf	postdec2,c
  3921                           
  3922                           ;main.c: 514:                     state_counter[i] = 0;
  3923   0009CA  C016  F007         	movff	buttons_loop@i_1315,??_buttons_loop
  3924   0009CE  C017  F008         	movff	buttons_loop@i_1315+1,??_buttons_loop+1
  3925   0009D2  90D8               	bcf	status,0,c
  3926   0009D4  3607               	rlcf	??_buttons_loop^0,f,c
  3927   0009D6  3608               	rlcf	(??_buttons_loop+1)^0,f,c
  3928   0009D8  90D8               	bcf	status,0,c
  3929   0009DA  3607               	rlcf	??_buttons_loop^0,f,c
  3930   0009DC  3608               	rlcf	(??_buttons_loop+1)^0,f,c
  3931   0009DE  90D8               	bcf	status,0,c
  3932   0009E0  3607               	rlcf	??_buttons_loop^0,f,c
  3933   0009E2  3608               	rlcf	(??_buttons_loop+1)^0,f,c
  3934   0009E4  0E60               	movlw	low _state_counter
  3935   0009E6  2407               	addwf	??_buttons_loop^0,w,c
  3936   0009E8  6ED9               	movwf	fsr2l,c
  3937   0009EA  0E00               	movlw	high _state_counter
  3938   0009EC  2008               	addwfc	(??_buttons_loop+1)^0,w,c
  3939   0009EE  6EDA               	movwf	fsr2h,c
  3940   0009F0  0E07               	movlw	7
  3941   0009F2                     u2171:
  3942   0009F2  6ADE               	clrf	postinc2,c
  3943   0009F4  06E8               	decf	wreg,f,c
  3944   0009F6  E2FD               	bc	u2171
  3945   0009F8                     l1981:
  3946                           
  3947                           ;main.c: 519:         }
  3948   0009F8  4A16               	infsnz	buttons_loop@i_1315^0,f,c
  3949   0009FA  2A17               	incf	(buttons_loop@i_1315+1)^0,f,c
  3950   0009FC  BE17               	btfsc	(buttons_loop@i_1315+1)^0,7,c
  3951   0009FE  EF0A  F005         	goto	u2181
  3952   000A02  5017               	movf	(buttons_loop@i_1315+1)^0,w,c
  3953   000A04  E109               	bnz	u2180
  3954   000A06  0E02               	movlw	2
  3955   000A08  5C16               	subwf	buttons_loop@i_1315^0,w,c
  3956   000A0A  A0D8               	btfss	status,0,c
  3957   000A0C  EF0A  F005         	goto	u2181
  3958   000A10  EF0C  F005         	goto	u2180
  3959   000A14                     u2181:
  3960   000A14  EF41  F003         	goto	l1945
  3961   000A18                     u2180:
  3962   000A18                     l255:
  3963   000A18  0012               	return		;funcret
  3964   000A1A                     __end_of_buttons_loop:
  3965                           	callstack 0
  3966                           
  3967 ;; *************** function _buttons_init *****************
  3968 ;; Defined at:
  3969 ;;		line 364 in file "main.c"
  3970 ;; Parameters:    Size  Location     Type
  3971 ;;		None
  3972 ;; Auto vars:     Size  Location     Type
  3973 ;;  i               2    8[COMRAM] int 
  3974 ;; Return value:  Size  Location     Type
  3975 ;;                  1    wreg      void 
  3976 ;; Registers used:
  3977 ;;		wreg, fsr2l, fsr2h, status,2, status,0
  3978 ;; Tracked objects:
  3979 ;;		On entry : 0/0
  3980 ;;		On exit  : 0/0
  3981 ;;		Unchanged: 0/0
  3982 ;; Data sizes:     COMRAM   BANK0   BANK1   BANK2   BANK3   BANK4   BANK5   BANK6   BANK7
  3983 ;;      Params:         0       0       0       0       0       0       0       0       0
  3984 ;;      Locals:         2       0       0       0       0       0       0       0       0
  3985 ;;      Temps:          2       0       0       0       0       0       0       0       0
  3986 ;;      Totals:         4       0       0       0       0       0       0       0       0
  3987 ;;Total ram usage:        4 bytes
  3988 ;; Hardware stack levels used: 1
  3989 ;; Hardware stack levels required when called: 1
  3990 ;; This function calls:
  3991 ;;		Nothing
  3992 ;; This function is called by:
  3993 ;;		_main
  3994 ;; This function uses a non-reentrant model
  3995 ;;
  3996                           
  3997                           	psect	text14
  3998   000F8A                     __ptext14:
  3999                           	callstack 0
  4000   000F8A                     _buttons_init:
  4001                           	callstack 29
  4002   000F8A                     
  4003                           ;main.c: 365:     int i;;main.c: 366:     for (i = 0;i < 2;i++){
  4004   000F8A  0E00               	movlw	0
  4005   000F8C  6E0A               	movwf	(buttons_init@i+1)^0,c
  4006   000F8E  0E00               	movlw	0
  4007   000F90  6E09               	movwf	buttons_init@i^0,c
  4008   000F92                     l1819:
  4009                           
  4010                           ;main.c: 367:         b_state[i] = 0;
  4011   000F92  0E45               	movlw	low _b_state
  4012   000F94  2409               	addwf	buttons_init@i^0,w,c
  4013   000F96  6ED9               	movwf	fsr2l,c
  4014   000F98  0E00               	movlw	high _b_state
  4015   000F9A  200A               	addwfc	(buttons_init@i+1)^0,w,c
  4016   000F9C  6EDA               	movwf	fsr2h,c
  4017   000F9E  0E00               	movlw	0
  4018   000FA0  6EDF               	movwf	indf2,c
  4019                           
  4020                           ;main.c: 368:         b[i] = 0;
  4021   000FA2  0EF4               	movlw	low _b
  4022   000FA4  2409               	addwf	buttons_init@i^0,w,c
  4023   000FA6  6ED9               	movwf	fsr2l,c
  4024   000FA8  0E00               	movlw	high _b
  4025   000FAA  200A               	addwfc	(buttons_init@i+1)^0,w,c
  4026   000FAC  6EDA               	movwf	fsr2h,c
  4027   000FAE  0E00               	movlw	0
  4028   000FB0  6EDF               	movwf	indf2,c
  4029                           
  4030                           ;main.c: 369:         last_b[i] = 0;
  4031   000FB2  0EF9               	movlw	low _last_b
  4032   000FB4  2409               	addwf	buttons_init@i^0,w,c
  4033   000FB6  6ED9               	movwf	fsr2l,c
  4034   000FB8  0E00               	movlw	high _last_b
  4035   000FBA  200A               	addwfc	(buttons_init@i+1)^0,w,c
  4036   000FBC  6EDA               	movwf	fsr2h,c
  4037   000FBE  0E00               	movlw	0
  4038   000FC0  6EDF               	movwf	indf2,c
  4039                           
  4040                           ;main.c: 371:         b_counter[i] = 0;
  4041   000FC2  C009  F007         	movff	buttons_init@i,??_buttons_init
  4042   000FC6  C00A  F008         	movff	buttons_init@i+1,??_buttons_init+1
  4043   000FCA  90D8               	bcf	status,0,c
  4044   000FCC  3607               	rlcf	??_buttons_init^0,f,c
  4045   000FCE  3608               	rlcf	(??_buttons_init+1)^0,f,c
  4046   000FD0  90D8               	bcf	status,0,c
  4047   000FD2  3607               	rlcf	??_buttons_init^0,f,c
  4048   000FD4  3608               	rlcf	(??_buttons_init+1)^0,f,c
  4049   000FD6  90D8               	bcf	status,0,c
  4050   000FD8  3607               	rlcf	??_buttons_init^0,f,c
  4051   000FDA  3608               	rlcf	(??_buttons_init+1)^0,f,c
  4052   000FDC  0E88               	movlw	low _b_counter
  4053   000FDE  2407               	addwf	??_buttons_init^0,w,c
  4054   000FE0  6ED9               	movwf	fsr2l,c
  4055   000FE2  0E00               	movlw	high _b_counter
  4056   000FE4  2008               	addwfc	(??_buttons_init+1)^0,w,c
  4057   000FE6  6EDA               	movwf	fsr2h,c
  4058   000FE8  0E07               	movlw	7
  4059   000FEA                     u1621:
  4060   000FEA  6ADE               	clrf	postinc2,c
  4061   000FEC  06E8               	decf	wreg,f,c
  4062   000FEE  E2FD               	bc	u1621
  4063                           
  4064                           ;main.c: 372:         state_counter[i] = 0;
  4065   000FF0  C009  F007         	movff	buttons_init@i,??_buttons_init
  4066   000FF4  C00A  F008         	movff	buttons_init@i+1,??_buttons_init+1
  4067   000FF8  90D8               	bcf	status,0,c
  4068   000FFA  3607               	rlcf	??_buttons_init^0,f,c
  4069   000FFC  3608               	rlcf	(??_buttons_init+1)^0,f,c
  4070   000FFE  90D8               	bcf	status,0,c
  4071   001000  3607               	rlcf	??_buttons_init^0,f,c
  4072   001002  3608               	rlcf	(??_buttons_init+1)^0,f,c
  4073   001004  90D8               	bcf	status,0,c
  4074   001006  3607               	rlcf	??_buttons_init^0,f,c
  4075   001008  3608               	rlcf	(??_buttons_init+1)^0,f,c
  4076   00100A  0E60               	movlw	low _state_counter
  4077   00100C  2407               	addwf	??_buttons_init^0,w,c
  4078   00100E  6ED9               	movwf	fsr2l,c
  4079   001010  0E00               	movlw	high _state_counter
  4080   001012  2008               	addwfc	(??_buttons_init+1)^0,w,c
  4081   001014  6EDA               	movwf	fsr2h,c
  4082   001016  0E07               	movlw	7
  4083   001018                     u1631:
  4084   001018  6ADE               	clrf	postinc2,c
  4085   00101A  06E8               	decf	wreg,f,c
  4086   00101C  E2FD               	bc	u1631
  4087                           
  4088                           ;main.c: 373:         combination_state[i] = 0;
  4089   00101E  90D8               	bcf	status,0,c
  4090   001020  3409               	rlcf	buttons_init@i^0,w,c
  4091   001022  6ED9               	movwf	fsr2l,c
  4092   001024  340A               	rlcf	(buttons_init@i+1)^0,w,c
  4093   001026  6EDA               	movwf	fsr2h,c
  4094   001028  0E3B               	movlw	low _combination_state
  4095   00102A  26D9               	addwf	fsr2l,f,c
  4096   00102C  0E00               	movlw	high _combination_state
  4097   00102E  22DA               	addwfc	fsr2h,f,c
  4098   001030  0E00               	movlw	0
  4099   001032  6EDE               	movwf	postinc2,c
  4100   001034  0E00               	movlw	0
  4101   001036  6EDD               	movwf	postdec2,c
  4102                           
  4103                           ;main.c: 374:         single_click_evt[i] = 0;
  4104   001038  0EEF               	movlw	low _single_click_evt
  4105   00103A  2409               	addwf	buttons_init@i^0,w,c
  4106   00103C  6ED9               	movwf	fsr2l,c
  4107   00103E  0E00               	movlw	high _single_click_evt
  4108   001040  200A               	addwfc	(buttons_init@i+1)^0,w,c
  4109   001042  6EDA               	movwf	fsr2h,c
  4110   001044  0E00               	movlw	0
  4111   001046  6EDF               	movwf	indf2,c
  4112                           
  4113                           ;main.c: 375:         double_click_evt[i] = 0;
  4114   001048  0EEA               	movlw	low _double_click_evt
  4115   00104A  2409               	addwf	buttons_init@i^0,w,c
  4116   00104C  6ED9               	movwf	fsr2l,c
  4117   00104E  0E00               	movlw	high _double_click_evt
  4118   001050  200A               	addwfc	(buttons_init@i+1)^0,w,c
  4119   001052  6EDA               	movwf	fsr2h,c
  4120   001054  0E00               	movlw	0
  4121   001056  6EDF               	movwf	indf2,c
  4122                           
  4123                           ;main.c: 376:         triple_click_evt[i] = 0;
  4124   001058  0EE5               	movlw	low _triple_click_evt
  4125   00105A  2409               	addwf	buttons_init@i^0,w,c
  4126   00105C  6ED9               	movwf	fsr2l,c
  4127   00105E  0E00               	movlw	high _triple_click_evt
  4128   001060  200A               	addwfc	(buttons_init@i+1)^0,w,c
  4129   001062  6EDA               	movwf	fsr2h,c
  4130   001064  0E00               	movlw	0
  4131   001066  6EDF               	movwf	indf2,c
  4132   001068                     
  4133                           ;main.c: 377:     }
  4134   001068  4A09               	infsnz	buttons_init@i^0,f,c
  4135   00106A  2A0A               	incf	(buttons_init@i+1)^0,f,c
  4136   00106C  BE0A               	btfsc	(buttons_init@i+1)^0,7,c
  4137   00106E  EF42  F008         	goto	u1641
  4138   001072  500A               	movf	(buttons_init@i+1)^0,w,c
  4139   001074  E109               	bnz	u1640
  4140   001076  0E02               	movlw	2
  4141   001078  5C09               	subwf	buttons_init@i^0,w,c
  4142   00107A  A0D8               	btfss	status,0,c
  4143   00107C  EF42  F008         	goto	u1641
  4144   001080  EF44  F008         	goto	u1640
  4145   001084                     u1641:
  4146   001084  EFC9  F007         	goto	l1819
  4147   001088                     u1640:
  4148   001088                     
  4149                           ;main.c: 378:     initial_state = 1;
  4150   001088  0E01               	movlw	1
  4151   00108A  6E54               	movwf	_initial_state^0,c
  4152   00108C                     
  4153                           ;main.c: 381:     iterations = 0;
  4154   00108C  EE20  F0D8         	lfsr	2,_iterations
  4155   001090  0E07               	movlw	7
  4156   001092                     u1651:
  4157   001092  6ADE               	clrf	postinc2,c
  4158   001094  06E8               	decf	wreg,f,c
  4159   001096  E2FD               	bc	u1651
  4160   001098                     
  4161                           ;main.c: 382:     sum_iterations = 0;
  4162   001098  EE21  F01C         	lfsr	2,_sum_iterations
  4163   00109C  0E07               	movlw	7
  4164   00109E                     u1661:
  4165   00109E  6ADE               	clrf	postinc2,c
  4166   0010A0  06E8               	decf	wreg,f,c
  4167   0010A2  E2FD               	bc	u1661
  4168   0010A4                     
  4169                           ;main.c: 383:     amount_cycles = 0;
  4170   0010A4  EE21  F014         	lfsr	2,_amount_cycles
  4171   0010A8  0E07               	movlw	7
  4172   0010AA                     u1671:
  4173   0010AA  6ADE               	clrf	postinc2,c
  4174   0010AC  06E8               	decf	wreg,f,c
  4175   0010AE  E2FD               	bc	u1671
  4176   0010B0  0012               	return		;funcret
  4177   0010B2                     __end_of_buttons_init:
  4178                           	callstack 0
  4179                           
  4180 ;; *************** function _enc *****************
  4181 ;; Defined at:
  4182 ;;		line 286 in file "main.c"
  4183 ;; Parameters:    Size  Location     Type
  4184 ;;		None
  4185 ;; Auto vars:     Size  Location     Type
  4186 ;;  i               2    4[COMRAM] int 
  4187 ;; Return value:  Size  Location     Type
  4188 ;;                  1    wreg      void 
  4189 ;; Registers used:
  4190 ;;		wreg, fsr2l, fsr2h, status,2, status,0
  4191 ;; Tracked objects:
  4192 ;;		On entry : 0/0
  4193 ;;		On exit  : 0/0
  4194 ;;		Unchanged: 0/0
  4195 ;; Data sizes:     COMRAM   BANK0   BANK1   BANK2   BANK3   BANK4   BANK5   BANK6   BANK7
  4196 ;;      Params:         0       0       0       0       0       0       0       0       0
  4197 ;;      Locals:         2       0       0       0       0       0       0       0       0
  4198 ;;      Temps:          4       0       0       0       0       0       0       0       0
  4199 ;;      Totals:         6       0       0       0       0       0       0       0       0
  4200 ;;Total ram usage:        6 bytes
  4201 ;; Hardware stack levels used: 1
  4202 ;; This function calls:
  4203 ;;		Nothing
  4204 ;; This function is called by:
  4205 ;;		Interrupt level 2
  4206 ;; This function uses a non-reentrant model
  4207 ;;
  4208                           
  4209                           	psect	intcode
  4210   000008                     __pintcode:
  4211                           	callstack 0
  4212   000008                     _enc:
  4213                           	callstack 28
  4214                           
  4215                           ;incstack = 0
  4216   000008  8255               	bsf	int$flags,1,c	;set compiler interrupt flag (level 2)
  4217   00000A  ED33  F00A         	call	int_func,f	;refresh shadow registers
  4218                           
  4219                           	psect	intcode_body
  4220   001466                     __pintcode_body:
  4221                           	callstack 28
  4222   001466                     int_func:
  4223                           	callstack 28
  4224   001466  0006               	pop		; remove dummy address from shadow register refresh
  4225   001468  CFD9 F003          	movff	fsr2l,??_enc+2
  4226   00146C  CFDA F004          	movff	fsr2h,??_enc+3
  4227   001470                     
  4228                           ;main.c: 287:     if (TMR0IF){
  4229   001470  A4F2               	btfss	4082,2,c	;volatile
  4230   001472  EF3D  F00A         	goto	i2u240_41
  4231   001476  EF3F  F00A         	goto	i2u240_40
  4232   00147A                     i2u240_41:
  4233   00147A  EF74  F00A         	goto	i2l140
  4234   00147E                     i2u240_40:
  4235   00147E                     
  4236                           ;main.c: 289:         TMR0H = 0xF8;
  4237   00147E  0EF8               	movlw	248
  4238   001480  6ED7               	movwf	215,c	;volatile
  4239                           
  4240                           ;main.c: 290:         TMR0L = 0xAC;
  4241   001482  0EAC               	movlw	172
  4242   001484  6ED6               	movwf	214,c	;volatile
  4243   001486                     
  4244                           ;main.c: 291:         TMR0IF = 0;
  4245   001486  94F2               	bcf	4082,2,c	;volatile
  4246                           
  4247                           ;main.c: 293:         int i;;main.c: 294:         for (i=0;i<5;i++){
  4248   001488  0E00               	movlw	0
  4249   00148A  6E06               	movwf	(enc@i+1)^0,c
  4250   00148C  0E00               	movlw	0
  4251   00148E  6E05               	movwf	enc@i^0,c
  4252   001490                     i2l2105:
  4253                           
  4254                           ;main.c: 295:             counter[i] ++;
  4255   001490  C005  F001         	movff	enc@i,??_enc
  4256   001494  C006  F002         	movff	enc@i+1,??_enc+1
  4257   001498  90D8               	bcf	status,0,c
  4258   00149A  3601               	rlcf	??_enc^0,f,c
  4259   00149C  3602               	rlcf	(??_enc+1)^0,f,c
  4260   00149E  90D8               	bcf	status,0,c
  4261   0014A0  3601               	rlcf	??_enc^0,f,c
  4262   0014A2  3602               	rlcf	(??_enc+1)^0,f,c
  4263   0014A4  90D8               	bcf	status,0,c
  4264   0014A6  3601               	rlcf	??_enc^0,f,c
  4265   0014A8  3602               	rlcf	(??_enc+1)^0,f,c
  4266   0014AA  0EB0               	movlw	low _counter
  4267   0014AC  2401               	addwf	??_enc^0,w,c
  4268   0014AE  6ED9               	movwf	fsr2l,c
  4269   0014B0  0E00               	movlw	high _counter
  4270   0014B2  2002               	addwfc	(??_enc+1)^0,w,c
  4271   0014B4  6EDA               	movwf	fsr2h,c
  4272   0014B6  2ADE               	incf	postinc2,f,c
  4273   0014B8  0E00               	movlw	0
  4274   0014BA  22DE               	addwfc	postinc2,f,c
  4275   0014BC  22DE               	addwfc	postinc2,f,c
  4276   0014BE  22DE               	addwfc	postinc2,f,c
  4277   0014C0  22DE               	addwfc	postinc2,f,c
  4278   0014C2  22DE               	addwfc	postinc2,f,c
  4279   0014C4  22DE               	addwfc	postinc2,f,c
  4280   0014C6  22DE               	addwfc	postinc2,f,c
  4281   0014C8                     
  4282                           ;main.c: 296:         }
  4283   0014C8  4A05               	infsnz	enc@i^0,f,c
  4284   0014CA  2A06               	incf	(enc@i+1)^0,f,c
  4285   0014CC  BE06               	btfsc	(enc@i+1)^0,7,c
  4286   0014CE  EF72  F00A         	goto	i2u241_41
  4287   0014D2  5006               	movf	(enc@i+1)^0,w,c
  4288   0014D4  E109               	bnz	i2u241_40
  4289   0014D6  0E05               	movlw	5
  4290   0014D8  5C05               	subwf	enc@i^0,w,c
  4291   0014DA  A0D8               	btfss	status,0,c
  4292   0014DC  EF72  F00A         	goto	i2u241_41
  4293   0014E0  EF74  F00A         	goto	i2u241_40
  4294   0014E4                     i2u241_41:
  4295   0014E4  EF48  F00A         	goto	i2l2105
  4296   0014E8                     i2u241_40:
  4297   0014E8                     i2l140:
  4298   0014E8  C004  FFDA         	movff	??_enc+3,fsr2h
  4299   0014EC  C003  FFD9         	movff	??_enc+2,fsr2l
  4300   0014F0  9255               	bcf	int$flags,1,c	;clear compiler interrupt flag (level 2)
  4301   0014F2  0011               	retfie		f
  4302   0014F4                     __end_of_enc:
  4303                           	callstack 0
  4304   000000                     
  4305                           	psect	rparam
  4306   000000                     
  4307                           	psect	temp
  4308   000055                     btemp:
  4309                           	callstack 0
  4310   000055                     	ds	1
  4311   000000                     int$flags	set	btemp
  4312   000000                     wtemp8	set	btemp+1
  4313   000000                     ttemp5	set	btemp+1
  4314   000000                     ttemp6	set	btemp+4
  4315   000000                     ttemp7	set	btemp+8
  4316                           
  4317                           	psect	idloc
  4318                           
  4319                           ;Config register IDLOC0 @ 0x200000
  4320                           ;	unspecified, using default values
  4321   200000                     	org	2097152
  4322   200000  FF                 	db	255
  4323                           
  4324                           ;Config register IDLOC1 @ 0x200001
  4325                           ;	unspecified, using default values
  4326   200001                     	org	2097153
  4327   200001  FF                 	db	255
  4328                           
  4329                           ;Config register IDLOC2 @ 0x200002
  4330                           ;	unspecified, using default values
  4331   200002                     	org	2097154
  4332   200002  FF                 	db	255
  4333                           
  4334                           ;Config register IDLOC3 @ 0x200003
  4335                           ;	unspecified, using default values
  4336   200003                     	org	2097155
  4337   200003  FF                 	db	255
  4338                           
  4339                           ;Config register IDLOC4 @ 0x200004
  4340                           ;	unspecified, using default values
  4341   200004                     	org	2097156
  4342   200004  FF                 	db	255
  4343                           
  4344                           ;Config register IDLOC5 @ 0x200005
  4345                           ;	unspecified, using default values
  4346   200005                     	org	2097157
  4347   200005  FF                 	db	255
  4348                           
  4349                           ;Config register IDLOC6 @ 0x200006
  4350                           ;	unspecified, using default values
  4351   200006                     	org	2097158
  4352   200006  FF                 	db	255
  4353                           
  4354                           ;Config register IDLOC7 @ 0x200007
  4355                           ;	unspecified, using default values
  4356   200007                     	org	2097159
  4357   200007  FF                 	db	255
  4358                           
  4359                           	psect	config
  4360                           
  4361                           ;Config register CONFIG1L @ 0x300000
  4362                           ;	PLL Prescaler Selection bits
  4363                           ;	PLLDIV = 5, Divide by 5 (20 MHz oscillator input)
  4364                           ;	System Clock Postscaler Selection bits
  4365                           ;	CPUDIV = OSC1_PLL2, [Primary Oscillator Src: /1][96 MHz PLL Src: /2]
  4366                           ;	USB Clock Selection bit (used in Full-Speed USB mode only; UCFG:FSEN = 1)
  4367                           ;	USBDIV = 2, USB clock source comes from the 96 MHz PLL divided by 2
  4368   300000                     	org	3145728
  4369   300000  24                 	db	36
  4370                           
  4371                           ;Config register CONFIG1H @ 0x300001
  4372                           ;	Oscillator Selection bits
  4373                           ;	FOSC = HSPLL_HS, HS oscillator, PLL enabled (HSPLL)
  4374                           ;	Fail-Safe Clock Monitor Enable bit
  4375                           ;	FCMEN = OFF, Fail-Safe Clock Monitor disabled
  4376                           ;	Internal/External Oscillator Switchover bit
  4377                           ;	IESO = OFF, Oscillator Switchover mode disabled
  4378   300001                     	org	3145729
  4379   300001  0E                 	db	14
  4380                           
  4381                           ;Config register CONFIG2L @ 0x300002
  4382                           ;	Power-up Timer Enable bit
  4383                           ;	PWRT = OFF, PWRT disabled
  4384                           ;	Brown-out Reset Enable bits
  4385                           ;	BOR = OFF, Brown-out Reset disabled in hardware and software
  4386                           ;	Brown-out Reset Voltage bits
  4387                           ;	BORV = 3, Minimum setting 2.05V
  4388                           ;	USB Voltage Regulator Enable bit
  4389                           ;	VREGEN = OFF, USB voltage regulator disabled
  4390   300002                     	org	3145730
  4391   300002  19                 	db	25
  4392                           
  4393                           ;Config register CONFIG2H @ 0x300003
  4394                           ;	Watchdog Timer Enable bit
  4395                           ;	WDT = OFF, WDT disabled (control is placed on the SWDTEN bit)
  4396                           ;	Watchdog Timer Postscale Select bits
  4397                           ;	WDTPS = 32768, 1:32768
  4398   300003                     	org	3145731
  4399   300003  1E                 	db	30
  4400                           
  4401                           ; Padding undefined space
  4402   300004                     	org	3145732
  4403   300004  FF                 	db	255
  4404                           
  4405                           ;Config register CONFIG3H @ 0x300005
  4406                           ;	CCP2 MUX bit
  4407                           ;	CCP2MX = OFF, CCP2 input/output is multiplexed with RB3
  4408                           ;	PORTB A/D Enable bit
  4409                           ;	PBADEN = OFF, PORTB<4:0> pins are configured as digital I/O on Reset
  4410                           ;	Low-Power Timer 1 Oscillator Enable bit
  4411                           ;	LPT1OSC = OFF, Timer1 configured for higher power operation
  4412                           ;	MCLR Pin Enable bit
  4413                           ;	MCLRE = OFF, RE3 input pin enabled; MCLR pin disabled
  4414   300005                     	org	3145733
  4415   300005  00                 	db	0
  4416                           
  4417                           ;Config register CONFIG4L @ 0x300006
  4418                           ;	Stack Full/Underflow Reset Enable bit
  4419                           ;	STVREN = ON, Stack full/underflow will cause Reset
  4420                           ;	Single-Supply ICSP Enable bit
  4421                           ;	LVP = OFF, Single-Supply ICSP disabled
  4422                           ;	Dedicated In-Circuit Debug/Programming Port (ICPORT) Enable bit
  4423                           ;	ICPRT = OFF, ICPORT disabled
  4424                           ;	Extended Instruction Set Enable bit
  4425                           ;	XINST = OFF, Instruction set extension and Indexed Addressing mode disabled (Legacy mo
      +                          de)
  4426                           ;	Background Debugger Enable bit
  4427                           ;	DEBUG = OFF, Background debugger disabled, RB6 and RB7 configured as general purpose I
      +                          /O pins
  4428   300006                     	org	3145734
  4429   300006  81                 	db	129
  4430                           
  4431                           ; Padding undefined space
  4432   300007                     	org	3145735
  4433   300007  FF                 	db	255
  4434                           
  4435                           ;Config register CONFIG5L @ 0x300008
  4436                           ;	Code Protection bit
  4437                           ;	CP0 = OFF, Block 0 (000800-001FFFh) is not code-protected
  4438                           ;	Code Protection bit
  4439                           ;	CP1 = OFF, Block 1 (002000-003FFFh) is not code-protected
  4440                           ;	Code Protection bit
  4441                           ;	CP2 = OFF, Block 2 (004000-005FFFh) is not code-protected
  4442                           ;	Code Protection bit
  4443                           ;	CP3 = OFF, Block 3 (006000-007FFFh) is not code-protected
  4444   300008                     	org	3145736
  4445   300008  0F                 	db	15
  4446                           
  4447                           ;Config register CONFIG5H @ 0x300009
  4448                           ;	Boot Block Code Protection bit
  4449                           ;	CPB = OFF, Boot block (000000-0007FFh) is not code-protected
  4450                           ;	Data EEPROM Code Protection bit
  4451                           ;	CPD = OFF, Data EEPROM is not code-protected
  4452   300009                     	org	3145737
  4453   300009  C0                 	db	192
  4454                           
  4455                           ;Config register CONFIG6L @ 0x30000A
  4456                           ;	Write Protection bit
  4457                           ;	WRT0 = OFF, Block 0 (000800-001FFFh) is not write-protected
  4458                           ;	Write Protection bit
  4459                           ;	WRT1 = OFF, Block 1 (002000-003FFFh) is not write-protected
  4460                           ;	Write Protection bit
  4461                           ;	WRT2 = OFF, Block 2 (004000-005FFFh) is not write-protected
  4462                           ;	Write Protection bit
  4463                           ;	WRT3 = OFF, Block 3 (006000-007FFFh) is not write-protected
  4464   30000A                     	org	3145738
  4465   30000A  0F                 	db	15
  4466                           
  4467                           ;Config register CONFIG6H @ 0x30000B
  4468                           ;	Configuration Register Write Protection bit
  4469                           ;	WRTC = OFF, Configuration registers (300000-3000FFh) are not write-protected
  4470                           ;	Boot Block Write Protection bit
  4471                           ;	WRTB = OFF, Boot block (000000-0007FFh) is not write-protected
  4472                           ;	Data EEPROM Write Protection bit
  4473                           ;	WRTD = OFF, Data EEPROM is not write-protected
  4474   30000B                     	org	3145739
  4475   30000B  E0                 	db	224
  4476                           
  4477                           ;Config register CONFIG7L @ 0x30000C
  4478                           ;	Table Read Protection bit
  4479                           ;	EBTR0 = OFF, Block 0 (000800-001FFFh) is not protected from table reads executed in ot
      +                          her blocks
  4480                           ;	Table Read Protection bit
  4481                           ;	EBTR1 = OFF, Block 1 (002000-003FFFh) is not protected from table reads executed in ot
      +                          her blocks
  4482                           ;	Table Read Protection bit
  4483                           ;	EBTR2 = OFF, Block 2 (004000-005FFFh) is not protected from table reads executed in ot
      +                          her blocks
  4484                           ;	Table Read Protection bit
  4485                           ;	EBTR3 = OFF, Block 3 (006000-007FFFh) is not protected from table reads executed in ot
      +                          her blocks
  4486   30000C                     	org	3145740
  4487   30000C  0F                 	db	15
  4488                           
  4489                           ;Config register CONFIG7H @ 0x30000D
  4490                           ;	Boot Block Table Read Protection bit
  4491                           ;	EBTRB = OFF, Boot block (000000-0007FFh) is not protected from table reads executed in
      +                           other blocks
  4492   30000D                     	org	3145741
  4493   30000D  40                 	db	64
  4494                           tosu	equ	0xFFF
  4495                           tosh	equ	0xFFE
  4496                           tosl	equ	0xFFD
  4497                           stkptr	equ	0xFFC
  4498                           pclatu	equ	0xFFB
  4499                           pclath	equ	0xFFA
  4500                           pcl	equ	0xFF9
  4501                           tblptru	equ	0xFF8
  4502                           tblptrh	equ	0xFF7
  4503                           tblptrl	equ	0xFF6
  4504                           tablat	equ	0xFF5
  4505                           prodh	equ	0xFF4
  4506                           prodl	equ	0xFF3
  4507                           indf0	equ	0xFEF
  4508                           postinc0	equ	0xFEE
  4509                           postdec0	equ	0xFED
  4510                           preinc0	equ	0xFEC
  4511                           plusw0	equ	0xFEB
  4512                           fsr0h	equ	0xFEA
  4513                           fsr0l	equ	0xFE9
  4514                           wreg	equ	0xFE8
  4515                           indf1	equ	0xFE7
  4516                           postinc1	equ	0xFE6
  4517                           postdec1	equ	0xFE5
  4518                           preinc1	equ	0xFE4
  4519                           plusw1	equ	0xFE3
  4520                           fsr1h	equ	0xFE2
  4521                           fsr1l	equ	0xFE1
  4522                           bsr	equ	0xFE0
  4523                           indf2	equ	0xFDF
  4524                           postinc2	equ	0xFDE
  4525                           postdec2	equ	0xFDD
  4526                           preinc2	equ	0xFDC
  4527                           plusw2	equ	0xFDB
  4528                           fsr2h	equ	0xFDA
  4529                           fsr2l	equ	0xFD9
  4530                           status	equ	0xFD8

Data Sizes:
    Strings     0
    Constant    0
    Data        0
    BSS         486
    Persistent  0
    Stack       0

Auto Spaces:
    Space          Size  Autos    Used
    COMRAM           94     58      84
    BANK0           160      0     158
    BANK1           256      8      54
    BANK2           256      0     256
    BANK3           256      0       0
    BANK4           256      0       0
    BANK5           256      0       0
    BANK6           256      0       0
    BANK7           256      0       0

Pointer List with Targets:

    None.

Critical Paths under _main in COMRAM

    _main->_loop
    _update_pwm->___awdiv
    _status_loop->___awdiv
    _read_analog->___awdiv
    ___awdiv->___awmod
    _loop->___aodiv
    ___aodiv->___omul

Critical Paths under _enc in COMRAM

    None.

Critical Paths under _main in BANK0

    None.

Critical Paths under _enc in BANK0

    None.

Critical Paths under _main in BANK1

    _main->_loop

Critical Paths under _enc in BANK1

    None.

Critical Paths under _main in BANK2

    None.

Critical Paths under _enc in BANK2

    None.

Critical Paths under _main in BANK3

    None.

Critical Paths under _enc in BANK3

    None.

Critical Paths under _main in BANK4

    None.

Critical Paths under _enc in BANK4

    None.

Critical Paths under _main in BANK5

    None.

Critical Paths under _enc in BANK5

    None.

Critical Paths under _main in BANK6

    None.

Critical Paths under _enc in BANK6

    None.

Critical Paths under _main in BANK7

    None.

Critical Paths under _enc in BANK7

    None.

Call Graph Tables:

 ---------------------------------------------------------------------------------
 (Depth) Function   	        Calls       Base Space   Used Autos Params    Refs
 ---------------------------------------------------------------------------------
 (0) _main                                                 0     0      0    7050
                       _buttons_init
                       _buttons_loop
                       _config_micro
                               _init
                          _init_vars
                               _loop
                        _read_analog
                        _status_init
                        _status_loop
                         _update_pwm
 ---------------------------------------------------------------------------------
 (1) _update_pwm                                           5     5      0    1332
                                             20 COMRAM     5     5      0
                            ___awdiv
 ---------------------------------------------------------------------------------
 (1) _status_loop                                         15    15      0    1732
                                             20 COMRAM    15    15      0
                            ___awdiv
                            ___awmod
 ---------------------------------------------------------------------------------
 (2) ___awmod                                              6     2      4     448
                                              6 COMRAM     6     2      4
 ---------------------------------------------------------------------------------
 (1) _status_init                                          2     2      0      68
                                              6 COMRAM     2     2      0
 ---------------------------------------------------------------------------------
 (1) _read_analog                                          4     4      0    1196
                                             20 COMRAM     4     4      0
                            ___awdiv
 ---------------------------------------------------------------------------------
 (2) ___awdiv                                              8     4      4    1060
                                             12 COMRAM     8     4      4
                            ___awmod (ARG)
 ---------------------------------------------------------------------------------
 (1) _loop                                                10    10      0     856
                                             56 COMRAM     2     2      0
                                              0 BANK1      8     8      0
                            ___aodiv
                             ___omul
 ---------------------------------------------------------------------------------
 (2) ___omul                                              24     8     16     370
                                              6 COMRAM    24     8     16
 ---------------------------------------------------------------------------------
 (2) ___aodiv                                             26    10     16     452
                                             30 COMRAM    26    10     16
                             ___omul (ARG)
 ---------------------------------------------------------------------------------
 (1) _init_vars                                            4     4      0      68
                                              6 COMRAM     4     4      0
 ---------------------------------------------------------------------------------
 (1) _init                                                 0     0      0       0
 ---------------------------------------------------------------------------------
 (1) _config_micro                                         0     0      0       0
 ---------------------------------------------------------------------------------
 (1) _buttons_loop                                        19    19      0    1554
                                              6 COMRAM    19    19      0
 ---------------------------------------------------------------------------------
 (1) _buttons_init                                         4     4      0     244
                                              6 COMRAM     4     4      0
 ---------------------------------------------------------------------------------
 Estimated maximum stack depth 2
 ---------------------------------------------------------------------------------
 (Depth) Function   	        Calls       Base Space   Used Autos Params    Refs
 ---------------------------------------------------------------------------------
 (3) _enc                                                  6     6      0      68
                                              0 COMRAM     6     6      0
 ---------------------------------------------------------------------------------
 Estimated maximum stack depth 3
 ---------------------------------------------------------------------------------

 Call Graph Graphs:

 _main (ROOT)
   _buttons_init
   _buttons_loop
   _config_micro
   _init
   _init_vars
   _loop
     ___aodiv
       ___omul (ARG)
     ___omul
   _read_analog
     ___awdiv
       ___awmod (ARG)
   _status_init
   _status_loop
     ___awdiv
     ___awmod
   _update_pwm
     ___awdiv

 _enc (ROOT)

 Address spaces:
Name               Size   Autos  Total    Cost      Usage
BIGRAM             7FF      0       0      41        0.0%
EEDATA             100      0       0       0        0.0%
BITBANK7           100      0       0      18        0.0%
BANK7              100      0       0      19        0.0%
BITBANK6           100      0       0      16        0.0%
BANK6              100      0       0      17        0.0%
BITBANK5           100      0       0      14        0.0%
BANK5              100      0       0      15        0.0%
BITBANK4           100      0       0      12        0.0%
BANK4              100      0       0      13        0.0%
BITBANK3           100      0       0      10        0.0%
BANK3              100      0       0      11        0.0%
BITBANK2           100      0       0       8        0.0%
BANK2              100      0     100       9      100.0%
BITBANK1           100      0       0       6        0.0%
BANK1              100      8      36       7       21.1%
BITBANK0            A0      0       0       4        0.0%
BANK0               A0      0      9E       5       98.8%
BITCOMRAM           5E      0       0       0        0.0%
COMRAM              5E     3A      54       1       89.4%
BITBIGSFRhhlh       19      0       0      21        0.0%
BITBIGSFRllhhll     11      0       0      37        0.0%
BITBIGSFRllhhlh      E      0       0      36        0.0%
BITBIGSFRhhh         D      0       0      20        0.0%
BITBIGSFRlll         D      0       0      39        0.0%
BITBIGSFRllhhhl      7      0       0      35        0.0%
BITBIGSFRlhlllh      5      0       0      25        0.0%
BITBIGSFRllhhhl      4      0       0      33        0.0%
BITBIGSFRllhhhh      3      0       0      30        0.0%
BITBIGSFRlhllll      3      0       0      29        0.0%
BITBIGSFRllhhhl      2      0       0      34        0.0%
BITBIGSFRlhh         2      0       0      23        0.0%
BITBIGSFRllhhhl      1      0       0      32        0.0%
BITBIGSFRllhhhl      1      0       0      31        0.0%
BITBIGSFRlhllll      1      0       0      28        0.0%
BITBIGSFRlhllll      1      0       0      27        0.0%
BITBIGSFRlhlllh      1      0       0      26        0.0%
BITBIGSFRlhllh       1      0       0      24        0.0%
BITBIGSFRllhl        1      0       0      38        0.0%
BITBIGSFRhl          1      0       0      22        0.0%
BIGSFR               0      0       0     200        0.0%
BITSFR               0      0       0     200        0.0%
SFR                  0      0       0     200        0.0%
STACK                0      0       0       2        0.0%
NULL                 0      0       0       0        0.0%
ABS                  0      0     228      40        0.0%
DATA                 0      0     228       3        0.0%
CODE                 0      0       0       0        0.0%


Microchip Technology PIC18 Macro Assembler V2.40 build 20220703182018 
Symbol Table                                                                                   Sat Jul 12 15:39:03 2025

                      _b 00F4             ___awdiv@sign 0012                      l101 119E  
                    l106 150C                      l211 00BA                      l204 006E  
                    l109 156E                      l150 0C70                      l207 005A  
                    l320 1464                      l145 15D6                      l243 078C  
                    l164 0E00                      l246 0898                      l270 162C  
                    l158 0D60                      l255 0A18                      l319 1444  
                    l416 0F88                      l280 0BE2                      l291 1316  
                    l533 1262                      l285 0C1E                      l199 10B0  
                    l288 16A4                      l546 13C6                      _PR2 000FCB  
                    _enc 0008                      _pwm 004A             ___awmod@sign 000C  
                    prod 000FF3                      wreg 000FE8              _status_init 15D8  
            _status_loop 0A1A                     l1111 10BA                     l1201 1188  
                   l1121 10C4                     l1113 10BC                     l2001 0A1A  
                   l1211 1192                     l1203 118A                     l1131 10DE  
                   l1123 10CE                     l1115 10BE                     l2011 0A84  
                   l2003 0A2A                     l1221 119C                     l1213 1194  
                   l1205 118C                     l1141 10EC                     l1133 10E0  
                   l1125 10D0                     l1117 10C0                     l1109 10B2  
                   l2021 0B24                     l2013 0A92                     l2005 0A54  
                   l1215 1196                     l1207 118E                     l1151 1136  
                   l1143 10EE                     l1135 10E6                     l1127 10D2  
                   l1119 10C2                     l2023 0B2C                     l2015 0A9A  
                   l2007 0A60                     l1217 1198                     l1209 1190  
                   l1161 1158                     l1153 1144                     l1145 10F8  
                   l1137 10E8                     l1129 10DC                     l2041 0BB2  
                   l2033 0B54                     l2025 0B30                     l2009 0A7C  
                   l2017 0AA2                     l1219 119A                     l1171 116A  
                   l1163 115A                     l1155 1152                     l1147 112E  
                   l1139 10EA                     l2131 1264                     l2043 0BC2  
                   l2035 0B72                     l2027 0B4C                     l2019 0AD2  
                   l1181 1174                     l1173 116C                     l1165 115C  
                   l1157 1154                     l1149 1134                     l2133 126C  
                   l2045 0BC6                     l2037 0B86                     l2141 167C  
                   l1191 117E                     l1183 1176                     l1175 116E  
                   l1167 115E                     l1159 1156                     l2039 0B9E  
                   l2151 1690                     l2143 1680                     l2135 1670  
                   l1193 1180                     l1185 1178                     l1177 1170  
                   l1169 1168                     l2153 1694                     l2145 1684  
                   l2137 1674                     l1195 1182                     l1187 117A  
                   l1179 1172                     l1523 16A0                     l2147 1688  
                   l2139 1678                     l1197 1184                     l1189 117C  
                   l1621 1414                     l1613 13C8                     l1701 123C  
                   l2149 168C                     l1199 1186                     l1631 0E38  
                   l1623 0E02                     l1615 13D4                     l1703 1242  
                   l1711 1318                     l1641 0E94                     l1633 0E46  
                   l1625 0E06                     l1617 13E2                     l1705 1252  
                   l1721 1344                     l1713 131C                     l1801 0D38  
                   l1651 0EFE                     l1643 0E9C                     l1635 0E66  
                   l1627 0E14                     l1619 1402                     l1707 125A  
                   l1731 137C                     l1723 134C                     l1715 132A  
                   l1811 0DE8                     l1803 0D54                     ?_enc 0001  
                   l1821 1068                     l1813 0F8A                     l1901 03C6  
                   l1661 0F48                     l1653 0F1E                     l1645 0EB0  
                   l1637 0E6A                     l1629 0E34                     l1741 13B6  
                   l1733 1392                     l1725 135E                     l1717 1332  
                   l1805 0D68                     l1831 10A4                     l1823 106C  
                   l1911 0524                     l1903 0408                     l1663 0F68  
                   l1655 0F20                     l1647 0EBE                     l1639 0E76  
                   l1671 11B2                     l1743 13BE                     l1735 139A  
                   l1727 1366                     l1719 1336                     l1807 0DCC  
                   l1825 1088                     l1905 0424                     l1913 0562  
                   l1841 004A                     l1833 0012                     l1657 0F32  
                   l1649 0ED0                     l1681 11D8                     l1673 11BA  
                   l1761 1544                     l1753 14F8                     l1737 13A0  
                   l1729 136E                     l1809 0DD4                     l1827 108C  
                   l1819 0F92                     l1931 0620                     l1923 058A  
                   l1915 0566                     l1907 0440                     l1851 00A6  
                   l1843 0068                     l1835 0022                     l1659 0F38  
                   l1691 1210                     l1683 11E0                     l1675 11BE  
                   l1667 11A0                     l1763 155C                     l1755 150A  
                   l1747 14F4                     l1739 13A6                     l1829 1098  
                   l1933 063C                     l1925 05B6                     l1917 0582  
                   l1909 04E2                     l1861 0110                     l1853 00B4  
                   l1845 007E                     l1837 0030                     l1773 1578  
                   l1693 1216                     l1685 11F2                     l1677 11CC  
                   l1669 11A4                     l1765 155E                     l1757 151A  
                   l1781 0C20                     l1951 070E                     l1935 065A  
                   l1927 05D2                     l1871 0128                     l1863 0114  
                   l1855 00CA                     l1847 008C                     l1839 003A  
                   l1775 15A6                     l1767 1570                     l1695 122C  
                   l1687 11FA                     l1679 11D4                     l1759 1526  
                   l1791 0CDC                     l1783 0C3C                     l1961 081A  
                   l1953 0734                     l1945 0682                     l1937 065E  
                   l1929 0604                     l1881 0250                     l1873 01FE  
                   l1865 0120                     l1857 00F4                     l1849 0096  
                   l1777 15AA                     l1697 1234                     l1689 1202  
                   l1793 0CE4                     l1785 0C48                     l1963 082C  
                   l1971 08E4                     l1955 0758                     l1947 06A6  
                   l1939 067A                     l1883 0282                     l1875 0202  
                   l1859 0100                     l1779 15C6                     l1699 1236  
                   l1795 0CF8                     l1787 0C64                     l1965 0852  
                   l1957 0774                     l1973 0920                     l1949 06C2  
                   l1981 09F8                     l1893 02AA                     l1885 0296  
                   l1877 021E                     l1797 0D10                     l1789 0C78  
                   l1983 09FC                     l1975 0946                     l1967 0864  
                   l1959 07F6                     l1895 02C6                     l1887 02A2  
                   l1879 0228                     l1799 0D2C                     l1977 09B0  
                   l1969 088A                     l1897 02E2                     l1985 15D8  
                   l1899 0384                     l1995 15FC                     l1987 15E8  
                   l1997 160C                     l1989 15F4                     l1999 1610  
                   _EEIF 007D0C                     u2000 05D2                     u2001 05CE  
                   u2010 0620                     u2011 061C                     u2100 07F6  
                   u2020 063C                     u1300 0EFE                     u2101 07F2  
                   u2021 0638                     u1301 0EFA                     u1221 13CE  
                   u2110 081A                     u2030 067A                     u1310 0F48  
                   u1230 13E2                     u2111 0816                     u2031 0676  
                   u1311 0F44                     u1231 13DE                     u2120 0852  
                   u2040 06A6                     u1240 1444                     u1320 11B2  
                   u2200 162C                     u1400 135E                     u2121 084E  
                   u2041 06A2                     u1241 1440                     u1321 11AE  
                   u2201 1628                     u1401 135A                     u2130 088A  
                   u2050 06C2                     u1250 0E14                     u1330 11CC  
                   u1410 137C                     u2210 0A2A                     u2131 0886  
                   u2051 06BE                     u1251 0E10                     u1331 11C8  
                   u1411 1378                     u2211 0A26                     u1260 0E46  
                   u1340 11F2                     u1420 1392                     u2220 0A54  
                   u1500 0C96                     u2141 08C0                     u2061 06EA  
                   u1261 0E42                     u1341 11EE                     u1421 138E  
                   u2221 0A50                     u1501 0C8E                     u2150 0946  
                   u2070 0734                     u1350 1210                     u1430 13B6  
                   u2151 0942                     u2071 0730                     u1271 0E70  
                   u1351 120C                     u1431 13B2                     u2231 0A5A  
                   u2160 09B0                     u2080 0758                     u1280 0E94  
                   u1360 122C                     u1440 151A                     u2240 0A7C  
                   u1520 0CB6                     u2161 09AC                     u2081 0754  
                   u1281 0E90                     u1361 1228                     u1441 1516  
                   u2305 0BEC                     u2241 0A78                     u1521 0CAE  
                   u2090 0774                     u1290 0EBE                     u1370 1252  
                   u1450 156E                     u2306 0BEE                     u2250 0A92  
                   u1610 0DCC                     u2171 09F2                     u2091 0770  
                   u1291 0EBA                     u1371 124E                     u1451 156A  
                   u2315 0BF8                     u2251 0A8E                     u1611 0DC8  
                   u2180 0A18                     u1700 004A                     u1380 132A  
                   u2316 0BFA                     u2260 0B24                     u1540 0CDC  
                   u1621 0FEA                     u2181 0A14                     u1701 0046  
                   u1461 15A0                     u1381 1326                     u2325 0C04  
                   u2261 0B20                     u1541 0CD8                     u1710 005A  
                   u1470 15C6                     u1390 1344                     u2326 0C06  
                   u2270 0B72                     u1550 0D2C                     u1518 0C98  
                   u1631 1018                     u1711 0056                     u1471 15C2  
                   u2191 15EE                     u1391 1340                     u2335 0C10  
                   u2271 0B6E                     u1551 0D28                     u1640 1088  
                   u1800 0110                     u1720 0068                     u2336 0C12  
                   u2280 0B9E                     u1608 0DA8                     u1560 0D54  
                   u1480 0C3C                     u1641 1084                     u1801 010C  
                   u1721 0064                     u2345 0C1C                     u2281 0B9A  
                   u1561 0D50                     u1481 0C38                     u1730 007E  
                   u2346 0C1E                     u2290 0BE2                     u1570 0D86  
                   u1538 0CB8                     u1490 0C64                     u1651 1092  
                   u1811 011A                     u1731 007A                     u2291 0BDE  
                   u1571 0D7E                     u1491 0C60                     u1900 0384  
                   u1740 008C                     u1661 109E                     u1901 0380  
                   u1821 0180                     u1741 0088                     u1750 00A6  
                   u1590 0DA6                     u1671 10AA                     u1911 03BC  
                   u1831 01AE                     u1751 00A2                     u1591 0D9E  
                   u1840 021E                     u1760 00B4                     u1680 0022  
                   u1921 03FE                     u1841 021A                     u1761 00B0  
                   u1681 001E                     u1930 0424                     u1850 0250  
                   u1770 00CA                     u1690 0030                     u1931 0420  
                   u1851 024C                     u1771 00C6                     u1691 002C  
                   u1940 0440                     u1780 00F4                     u1588 0D88  
                   u1941 043C                     u1861 0256                     u1781 00F0  
                   u1950 04E2                     u1951 04DE                     u1871 029C  
                   u1791 00FA                     u1880 02C6                     u1961 051A  
                   u1881 02C2                     u1890 02E2                     u1971 055C  
                   u1891 02DE                     u1980 0582                     u1981 057E  
                   u1990 05B6                     u1991 05B2                     _TXIF 007CF4  
                   _main 1670                     _leds 00E0                     enc@i 0005  
                   _init 16A0                     _loop 1264            _state_counter 0060  
                   fsr1h 000FE2                     fsr2h 000FDA                     indf2 000FDF  
                   fsr1l 000FE1                     fsr2l 000FD9                     btemp 0055  
         ??_config_micro 0007                     prodh 000FF4                     prodl 000FF3  
                   start 000E             ___param_bank 000000                    ??_enc 0001  
           _status_value 0050          __end_of___aodiv 0F8A                    ?_main 0001  
                  ?_init 0001          __end_of___awdiv 1264                    _EEADR 000FA9  
                  ?_loop 0001          __end_of___awmod 13C8                    _CMCON 000FB4  
        ___awdiv@divisor 000F                    i2l140 14E8          ___awdiv@counter 0011  
                  _TMR0H 000FD7                    _TMR1H 000FCF                    _TMR0L 000FD6  
                  _TMR1L 000FCE                    _SPBRG 000FAF                    _TXREG 000FAD  
           ?_read_analog 0001                    plusw2 000FDB                    ttemp5 0056  
                  ttemp6 0059                    ttemp7 005D                    status 000FD8  
                  wtemp8 0056          __initialization 162E             __end_of_main 16A0  
           __end_of_init 16A6             __end_of_loop 1318                   ??_main 003B  
                 ??_init 0007                   ??_loop 012E            __activetblptr 000000  
                 _ADRESH 000FC4                   _ADRESL 000FC3                   _EEDATA 000FA8  
                 _CCPR1L 000FBE                   _CCPR2L 000FBB                   _EECON2 000FA7  
       ___awdiv@dividend 000D                   i2l2105 1490                   i2l2107 14C8  
                 i2l2109 14CC                   i2l2095 1470                   i2l2097 147E  
                 i2l2099 1486                   _TMR0IF 007F92                   _SPBRGH 000FB0  
          ?_buttons_init 0001            ?_buttons_loop 0001                   ___omul 13C8  
              ??___aodiv 002F                ??___awdiv 0011                ??___awmod 000B  
    status_loop@half_led 0020                   _last_b 00F9                   clear_0 1636  
                 clear_1 1648                   clear_2 1654                   clear_3 1660  
       ___awdiv@quotient 0013          ___awmod@divisor 0009                   isa$std 000001  
        ___awmod@counter 000B     __end_of_config_micro 11A0               __accesstop 0060  
__end_of__initialization 1666            ___rparam_used 000001           ??_buttons_init 0007  
         ??_buttons_loop 0007           __pcstackCOMRAM 0001             status_init@i 0007  
           status_loop@i 0022       buttons_loop@i_1315 0016           _status_enabled 0052  
           ?_status_init 0001             ?_status_loop 0001               __pbssBANK0 0060  
             __pbssBANK1 0100               __pbssBANK2 0200            _initial_state 0054  
                ?___omul 0007      ___omul@multiplicand 000F           _sum_iterations 011C  
         _persisted_data 0200        _combination_state 003B                  __Hparam 0000  
                __Lparam 0000                  ___aodiv 0E02                  ___awdiv 11A0  
                ___awmod 1318                  _b_state 0045                  __pcinit 162E  
                __ramtop 0800                  __ptext0 1670                  __ptext1 0C20  
                __ptext2 0A1A                  __ptext3 1318                  __ptext4 15D8  
                __ptext5 14F4                  __ptext6 11A0                  __ptext7 1264  
                __ptext8 13C8                  __ptext9 0E02                _T0CONbits 000FD5  
              _T1CONbits 000FCD                  _counter 00B0                _T2CONbits 000FCA  
             _int_status 0053        __end_of_init_vars 15D8         ___awmod@dividend 0007  
             _iterations 00D8     __end_of_buttons_init 10B2     __end_of_buttons_loop 0A1A  
  buttons_loop@click_evt 0011           __pintcode_body 1466     end_of_initialization 1666  
         ___omul@product 0017                  int_func 1466             read_analog@i 0018  
           _config_micro 10B2         _triple_click_evt 00E5                _RCSTAbits 000FAB  
                postdec1 000FE5                  postdec2 000FDD                  postinc0 000FEE  
                postinc2 000FDE                _PORTBbits 000F81                _PORTCbits 000F82  
              _PORTDbits 000F83                _TRISAbits 000F92                _TRISBbits 000F93  
              _TRISCbits 000F94                _TRISDbits 000F95                _TRISEbits 000F96  
             _update_pwm 0C20         _persisted_status 004E              _CCP1CONbits 000FBD  
            _CCP2CONbits 000FBA                _TXSTAbits 000FAC           __end_of___omul 1466  
            _BAUDCONbits 000FB8         _single_click_evt 00EF      start_initialization 162E  
            __end_of_enc 14F4        ___omul@multiplier 0007           update_pwm@pwm0 0016  
         update_pwm@pwm1 0018                 ??___omul 0017               init_vars@i 0009  
          ??_read_analog 0015              __pbssCOMRAM 003B            __pcstackBANK1 012E  
       ___aodiv@dividend 001F              ?_update_pwm 0001                _b_counter 0088  
       _double_click_evt 00EA             _buttons_init 0F8A             _buttons_loop 0012  
              __pintcode 0008                 ?___aodiv 001F                 ?___awdiv 000D  
       ___aodiv@quotient 0031                 ?___awmod 0007   status_loop@half_status 001E  
              _init_vars 1570      __end_of_read_analog 1570                 i2u240_40 147E  
               i2u240_41 147A                 i2u241_40 14E8                 i2u241_41 14E4  
               _UCFGbits 000F6F                 _RCONbits 000FD0                 _UCONbits 000F6D  
              _press_evt 0129               _ADCON0bits 000FC2               _ADCON1bits 000FC1  
             _ADCON2bits 000FC0               ?_init_vars 0001              _INTCON2bits 000FF1  
        loop@analog_read 0039               _EECON1bits 000FA6                 __Hrparam 0000  
               __Lrparam 0000          ___aodiv@divisor 0027          ___aodiv@counter 002F  
         read_analog@aux 0016              _read_analog 14F4                 _an_input 0100  
          ??_status_init 0007            ??_status_loop 0015                 __ptext10 1570  
               __ptext11 16A0                 __ptext12 10B2                 __ptext13 0012  
               __ptext14 0F8A                 isa$xinst 000000                 int$flags 0055  
            _release_evt 0124               _INTCONbits 000FF2             ??_update_pwm 0015  
            ??_init_vars 0007                 intlevel2 0000            _amount_cycles 0114  
    __end_of_status_init 162E      __end_of_status_loop 0C20               _OSCCONbits 000FD3  
     __end_of_update_pwm 0E02            buttons_init@i 0009            buttons_loop@i 0018  
           ___aodiv@sign 0030            ?_config_micro 0001  
