

Microchip MPLAB XC8 Assembler V3.00 build 20241204225717 
                                                                                               Tue Aug 05 22:37:57 2025

Microchip MPLAB XC8 C Compiler v3.00 (Free license) build 20241204225717 Og1 
     1                           	processor	18F4550
     2                           	fnconf	rparam,??,?,0
     3                           	pagewidth 120
     4                           	opt	flic
     5                           	psect	idataBANK0,global,class=CODE,space=0,delta=1,noexec
     6                           	psect	idataBANK1,global,class=CODE,space=0,delta=1,noexec
     7                           	psect	cinit,global,reloc=2,class=CODE,space=0,delta=1
     8                           	psect	bssCOMRAM,global,class=COMRAM,space=1,delta=1,lowdata,noexec
     9                           	psect	bssBANK0,global,class=BANK0,space=1,delta=1,lowdata,noexec
    10                           	psect	dataBANK0,global,class=BANK0,space=1,delta=1,lowdata,noexec
    11                           	psect	bssBANK1,global,class=BANK1,space=1,delta=1,lowdata,noexec
    12                           	psect	dataBANK1,global,class=BANK1,space=1,delta=1,lowdata,noexec
    13                           	psect	bssBANK2,global,class=BANK2,space=1,delta=1,lowdata,noexec
    14                           	psect	cstackBANK1,global,class=BANK1,space=1,delta=1,lowdata,noexec
    15                           	psect	cstackCOMRAM,global,class=COMRAM,space=1,delta=1,lowdata,noexec
    16                           	psect	text0,global,reloc=2,class=CODE,space=0,delta=1
    17                           	psect	text1,global,reloc=2,class=CODE,space=0,delta=1
    18                           	psect	text2,global,reloc=2,class=CODE,space=0,delta=1
    19                           	psect	text3,global,reloc=2,class=CODE,space=0,delta=1,group=1
    20                           	psect	text4,global,reloc=2,class=CODE,space=0,delta=1
    21                           	psect	text5,global,reloc=2,class=CODE,space=0,delta=1
    22                           	psect	text6,global,reloc=2,class=CODE,space=0,delta=1,group=1
    23                           	psect	text7,global,reloc=2,class=CODE,space=0,delta=1
    24                           	psect	text8,global,reloc=2,class=CODE,space=0,delta=1
    25                           	psect	text9,global,reloc=2,class=CODE,space=0,delta=1
    26                           	psect	text10,global,reloc=2,class=CODE,space=0,delta=1
    27                           	psect	text11,global,reloc=2,class=CODE,space=0,delta=1
    28                           	psect	text12,global,reloc=2,class=CODE,space=0,delta=1
    29                           	psect	text13,global,reloc=2,class=CODE,space=0,delta=1
    30                           	psect	text14,global,reloc=2,class=CODE,space=0,delta=1
    31                           	psect	text15,global,reloc=2,class=CODE,space=0,delta=1
    32                           	psect	text16,global,reloc=2,class=CODE,space=0,delta=1
    33                           	psect	text17,global,reloc=2,class=CODE,space=0,delta=1
    34                           	psect	text18,global,reloc=2,class=CODE,space=0,delta=1
    35                           	psect	text19,global,reloc=2,class=CODE,space=0,delta=1
    36                           	psect	text20,global,reloc=2,class=CODE,space=0,delta=1
    37                           	psect	text21,global,reloc=2,class=CODE,space=0,delta=1
    38                           	psect	text22,global,reloc=2,class=CODE,space=0,delta=1
    39                           	psect	text23,global,reloc=2,class=CODE,space=0,delta=1,group=1
    40                           	psect	text24,global,reloc=2,class=CODE,space=0,delta=1,group=1
    41                           	psect	text25,global,reloc=2,class=CODE,space=0,delta=1
    42                           	psect	text26,global,reloc=2,class=CODE,space=0,delta=1
    43                           	psect	text27,global,reloc=2,class=CODE,space=0,delta=1
    44                           	psect	text28,global,reloc=2,class=CODE,space=0,delta=1
    45                           	psect	text29,global,reloc=2,class=CODE,space=0,delta=1
    46                           	psect	intcode,global,reloc=2,class=CODE,space=0,delta=1
    47                           	psect	intcode_body,global,reloc=2,class=CODE,space=0,delta=1
    48                           	psect	smallconst,global,reloc=2,class=SMALLCONST,space=0,delta=1,noexec
    49                           	psect	intsave_regs,global,class=BIGRAM,space=1,delta=1,noexec
    50                           	psect	rparam,global,class=COMRAM,space=1,delta=1,noexec
    51                           	psect	temp,global,ovrld,common,class=COMRAM,space=1,delta=1,lowdata
    52                           	psect	idloc,global,abs,ovrld,class=IDLOC,space=5,delta=1,noexec
    53                           	psect	config,global,abs,ovrld,class=CONFIG,space=4,delta=1,noexec
    54   000000                     
    55                           ; Version 2.40
    56                           ; Generated 17/11/2021 GMT
    57                           ; 
    58                           ; Copyright © 2021, Microchip Technology Inc. and its subsidiaries ("Microchip")
    59                           ; All rights reserved.
    60                           ; 
    61                           ; This software is developed by Microchip Technology Inc. and its subsidiaries ("Microch
      +                          ip").
    62                           ; 
    63                           ; Redistribution and use in source and binary forms, with or without modification, are
    64                           ; permitted provided that the following conditions are met:
    65                           ; 
    66                           ;     1. Redistributions of source code must retain the above copyright notice, this lis
      +                          t of
    67                           ;        conditions and the following disclaimer.
    68                           ; 
    69                           ;     2. Redistributions in binary form must reproduce the above copyright notice, this 
      +                          list
    70                           ;        of conditions and the following disclaimer in the documentation and/or other
    71                           ;        materials provided with the distribution. Publication is not required when
    72                           ;        this file is used in an embedded application.
    73                           ; 
    74                           ;     3. Microchip's name may not be used to endorse or promote products derived from th
      +                          is
    75                           ;        software without specific prior written permission.
    76                           ; 
    77                           ; THIS SOFTWARE IS PROVIDED BY MICROCHIP "AS IS" AND ANY EXPRESS OR IMPLIED WARRANTIES,
    78                           ; INCLUDING, BUT NOT LIMITED TO, THE IMPLIED WARRANTIES OF MERCHANTABILITY AND FITNESS F
      +                          OR
    79                           ; PURPOSE ARE DISCLAIMED.  IN NO EVENT SHALL MICROCHIP BE LIABLE FOR ANY DIRECT, INDIREC
      +                          T,
    80                           ; INCIDENTAL, SPECIAL, EXEMPLARY, OR CONSEQUENTIAL DAMAGES (INCLUDING BUT NOT LIMITED TO
    81                           ; PROCUREMENT OF SUBSTITUTE GOODS OR SERVICES; LOSS OF USE, DATA OR PROFITS; OR BUSINESS
    82                           ; INTERRUPTION) HOWSOEVER CAUSED AND ON ANY THEORY OF LIABILITY, WHETHER IN CONTRACT, ST
      +                          RICT
    83                           ; LIABILITY, OR TORT (INCLUDING NEGLIGENCE OR OTHERWISE) ARISING IN ANY WAY OUT OF THE U
      +                          SE OF
    84                           ; THIS SOFTWARE, EVEN IF ADVISED OF THE POSSIBILITY OF SUCH DAMAGE.
    85                           ; 
    86                           ; 
    87                           ; Code-generator required, PIC18F4550 Definitions
    88                           ; 
    89                           ; SFR Addresses
    90   000FE0                     bsr             equ	4064
    91   000FE9                     fsr0            equ	4073
    92   000FEA                     fsr0h           equ	4074
    93   000FE9                     fsr0l           equ	4073
    94   000FE1                     fsr1            equ	4065
    95   000FE2                     fsr1h           equ	4066
    96   000FE1                     fsr1l           equ	4065
    97   000FD9                     fsr2            equ	4057
    98   000FDA                     fsr2h           equ	4058
    99   000FD9                     fsr2l           equ	4057
   100   000FEF                     indf0           equ	4079
   101   000FE7                     indf1           equ	4071
   102   000FDF                     indf2           equ	4063
   103   000FF2                     intcon          equ	4082
   104   000000                     nvmcon          equ	0
   105   000FF9                     pcl             equ	4089
   106   000FFA                     pclath          equ	4090
   107   000FFB                     pclatu          equ	4091
   108   000FEB                     plusw0          equ	4075
   109   000FE3                     plusw1          equ	4067
   110   000FDB                     plusw2          equ	4059
   111   000FED                     postdec0        equ	4077
   112   000FE5                     postdec1        equ	4069
   113   000FDD                     postdec2        equ	4061
   114   000FEE                     postinc0        equ	4078
   115   000FE6                     postinc1        equ	4070
   116   000FDE                     postinc2        equ	4062
   117   000FEC                     preinc0         equ	4076
   118   000FE4                     preinc1         equ	4068
   119   000FDC                     preinc2         equ	4060
   120   000FF3                     prod            equ	4083
   121   000FF4                     prodh           equ	4084
   122   000FF3                     prodl           equ	4083
   123   000FD8                     status          equ	4056
   124   000FF5                     tablat          equ	4085
   125   000FF6                     tblptr          equ	4086
   126   000FF7                     tblptrh         equ	4087
   127   000FF6                     tblptrl         equ	4086
   128   000FF8                     tblptru         equ	4088
   129   000FFD                     tosl            equ	4093
   130   000FE8                     wreg            equ	4072
   131   000F62                     SPPDATA         equ	3938	;# 
   132   000F63                     SPPCFG          equ	3939	;# 
   133   000F64                     SPPEPS          equ	3940	;# 
   134   000F65                     SPPCON          equ	3941	;# 
   135   000F66                     UFRM            equ	3942	;# 
   136   000F66                     UFRML           equ	3942	;# 
   137   000F67                     UFRMH           equ	3943	;# 
   138   000F68                     UIR             equ	3944	;# 
   139   000F69                     UIE             equ	3945	;# 
   140   000F6A                     UEIR            equ	3946	;# 
   141   000F6B                     UEIE            equ	3947	;# 
   142   000F6C                     USTAT           equ	3948	;# 
   143   000F6D                     UCON            equ	3949	;# 
   144   000F6E                     UADDR           equ	3950	;# 
   145   000F6F                     UCFG            equ	3951	;# 
   146   000F70                     UEP0            equ	3952	;# 
   147   000F71                     UEP1            equ	3953	;# 
   148   000F72                     UEP2            equ	3954	;# 
   149   000F73                     UEP3            equ	3955	;# 
   150   000F74                     UEP4            equ	3956	;# 
   151   000F75                     UEP5            equ	3957	;# 
   152   000F76                     UEP6            equ	3958	;# 
   153   000F77                     UEP7            equ	3959	;# 
   154   000F78                     UEP8            equ	3960	;# 
   155   000F79                     UEP9            equ	3961	;# 
   156   000F7A                     UEP10           equ	3962	;# 
   157   000F7B                     UEP11           equ	3963	;# 
   158   000F7C                     UEP12           equ	3964	;# 
   159   000F7D                     UEP13           equ	3965	;# 
   160   000F7E                     UEP14           equ	3966	;# 
   161   000F7F                     UEP15           equ	3967	;# 
   162   000F80                     PORTA           equ	3968	;# 
   163   000F81                     PORTB           equ	3969	;# 
   164   000F82                     PORTC           equ	3970	;# 
   165   000F83                     PORTD           equ	3971	;# 
   166   000F84                     PORTE           equ	3972	;# 
   167   000F89                     LATA            equ	3977	;# 
   168   000F8A                     LATB            equ	3978	;# 
   169   000F8B                     LATC            equ	3979	;# 
   170   000F8C                     LATD            equ	3980	;# 
   171   000F8D                     LATE            equ	3981	;# 
   172   000F92                     TRISA           equ	3986	;# 
   173   000F92                     DDRA            equ	3986	;# 
   174   000F93                     TRISB           equ	3987	;# 
   175   000F93                     DDRB            equ	3987	;# 
   176   000F94                     TRISC           equ	3988	;# 
   177   000F94                     DDRC            equ	3988	;# 
   178   000F95                     TRISD           equ	3989	;# 
   179   000F95                     DDRD            equ	3989	;# 
   180   000F96                     TRISE           equ	3990	;# 
   181   000F96                     DDRE            equ	3990	;# 
   182   000F9B                     OSCTUNE         equ	3995	;# 
   183   000F9D                     PIE1            equ	3997	;# 
   184   000F9E                     PIR1            equ	3998	;# 
   185   000F9F                     IPR1            equ	3999	;# 
   186   000FA0                     PIE2            equ	4000	;# 
   187   000FA1                     PIR2            equ	4001	;# 
   188   000FA2                     IPR2            equ	4002	;# 
   189   000FA6                     EECON1          equ	4006	;# 
   190   000FA7                     EECON2          equ	4007	;# 
   191   000FA8                     EEDATA          equ	4008	;# 
   192   000FA9                     EEADR           equ	4009	;# 
   193   000FAB                     RCSTA           equ	4011	;# 
   194   000FAB                     RCSTA1          equ	4011	;# 
   195   000FAC                     TXSTA           equ	4012	;# 
   196   000FAC                     TXSTA1          equ	4012	;# 
   197   000FAD                     TXREG           equ	4013	;# 
   198   000FAD                     TXREG1          equ	4013	;# 
   199   000FAE                     RCREG           equ	4014	;# 
   200   000FAE                     RCREG1          equ	4014	;# 
   201   000FAF                     SPBRG           equ	4015	;# 
   202   000FAF                     SPBRG1          equ	4015	;# 
   203   000FB0                     SPBRGH          equ	4016	;# 
   204   000FB1                     T3CON           equ	4017	;# 
   205   000FB2                     TMR3            equ	4018	;# 
   206   000FB2                     TMR3L           equ	4018	;# 
   207   000FB3                     TMR3H           equ	4019	;# 
   208   000FB4                     CMCON           equ	4020	;# 
   209   000FB5                     CVRCON          equ	4021	;# 
   210   000FB6                     ECCP1AS         equ	4022	;# 
   211   000FB6                     CCP1AS          equ	4022	;# 
   212   000FB7                     ECCP1DEL        equ	4023	;# 
   213   000FB7                     CCP1DEL         equ	4023	;# 
   214   000FB8                     BAUDCON         equ	4024	;# 
   215   000FB8                     BAUDCTL         equ	4024	;# 
   216   000FBA                     CCP2CON         equ	4026	;# 
   217   000FBB                     CCPR2           equ	4027	;# 
   218   000FBB                     CCPR2L          equ	4027	;# 
   219   000FBC                     CCPR2H          equ	4028	;# 
   220   000FBD                     CCP1CON         equ	4029	;# 
   221   000FBD                     ECCP1CON        equ	4029	;# 
   222   000FBE                     CCPR1           equ	4030	;# 
   223   000FBE                     CCPR1L          equ	4030	;# 
   224   000FBF                     CCPR1H          equ	4031	;# 
   225   000FC0                     ADCON2          equ	4032	;# 
   226   000FC1                     ADCON1          equ	4033	;# 
   227   000FC2                     ADCON0          equ	4034	;# 
   228   000FC3                     ADRES           equ	4035	;# 
   229   000FC3                     ADRESL          equ	4035	;# 
   230   000FC4                     ADRESH          equ	4036	;# 
   231   000FC5                     SSPCON2         equ	4037	;# 
   232   000FC6                     SSPCON1         equ	4038	;# 
   233   000FC7                     SSPSTAT         equ	4039	;# 
   234   000FC8                     SSPADD          equ	4040	;# 
   235   000FC9                     SSPBUF          equ	4041	;# 
   236   000FCA                     T2CON           equ	4042	;# 
   237   000FCB                     PR2             equ	4043	;# 
   238   000FCB                     MEMCON          equ	4043	;# 
   239   000FCC                     TMR2            equ	4044	;# 
   240   000FCD                     T1CON           equ	4045	;# 
   241   000FCE                     TMR1            equ	4046	;# 
   242   000FCE                     TMR1L           equ	4046	;# 
   243   000FCF                     TMR1H           equ	4047	;# 
   244   000FD0                     RCON            equ	4048	;# 
   245   000FD1                     WDTCON          equ	4049	;# 
   246   000FD2                     HLVDCON         equ	4050	;# 
   247   000FD2                     LVDCON          equ	4050	;# 
   248   000FD3                     OSCCON          equ	4051	;# 
   249   000FD5                     T0CON           equ	4053	;# 
   250   000FD6                     TMR0            equ	4054	;# 
   251   000FD6                     TMR0L           equ	4054	;# 
   252   000FD7                     TMR0H           equ	4055	;# 
   253   000FD8                     STATUS          equ	4056	;# 
   254   000FD9                     FSR2            equ	4057	;# 
   255   000FD9                     FSR2L           equ	4057	;# 
   256   000FDA                     FSR2H           equ	4058	;# 
   257   000FDB                     PLUSW2          equ	4059	;# 
   258   000FDC                     PREINC2         equ	4060	;# 
   259   000FDD                     POSTDEC2        equ	4061	;# 
   260   000FDE                     POSTINC2        equ	4062	;# 
   261   000FDF                     INDF2           equ	4063	;# 
   262   000FE0                     BSR             equ	4064	;# 
   263   000FE1                     FSR1            equ	4065	;# 
   264   000FE1                     FSR1L           equ	4065	;# 
   265   000FE2                     FSR1H           equ	4066	;# 
   266   000FE3                     PLUSW1          equ	4067	;# 
   267   000FE4                     PREINC1         equ	4068	;# 
   268   000FE5                     POSTDEC1        equ	4069	;# 
   269   000FE6                     POSTINC1        equ	4070	;# 
   270   000FE7                     INDF1           equ	4071	;# 
   271   000FE8                     WREG            equ	4072	;# 
   272   000FE9                     FSR0            equ	4073	;# 
   273   000FE9                     FSR0L           equ	4073	;# 
   274   000FEA                     FSR0H           equ	4074	;# 
   275   000FEB                     PLUSW0          equ	4075	;# 
   276   000FEC                     PREINC0         equ	4076	;# 
   277   000FED                     POSTDEC0        equ	4077	;# 
   278   000FEE                     POSTINC0        equ	4078	;# 
   279   000FEF                     INDF0           equ	4079	;# 
   280   000FF0                     INTCON3         equ	4080	;# 
   281   000FF1                     INTCON2         equ	4081	;# 
   282   000FF2                     INTCON          equ	4082	;# 
   283   000FF3                     PROD            equ	4083	;# 
   284   000FF3                     PRODL           equ	4083	;# 
   285   000FF4                     PRODH           equ	4084	;# 
   286   000FF5                     TABLAT          equ	4085	;# 
   287   000FF6                     TBLPTR          equ	4086	;# 
   288   000FF6                     TBLPTRL         equ	4086	;# 
   289   000FF7                     TBLPTRH         equ	4087	;# 
   290   000FF8                     TBLPTRU         equ	4088	;# 
   291   000FF9                     PCLAT           equ	4089	;# 
   292   000FF9                     PC              equ	4089	;# 
   293   000FF9                     PCL             equ	4089	;# 
   294   000FFA                     PCLATH          equ	4090	;# 
   295   000FFB                     PCLATU          equ	4091	;# 
   296   000FFC                     STKPTR          equ	4092	;# 
   297   000FFD                     TOS             equ	4093	;# 
   298   000FFD                     TOSL            equ	4093	;# 
   299   000FFE                     TOSH            equ	4094	;# 
   300   000FFF                     TOSU            equ	4095	;# 
   301                           
   302                           	psect	idataBANK0
   303   0040DC                     __pidataBANK0:
   304                           	callstack 0
   305                           
   306                           ;initializer for _init_routines
   307   0040DC  F0                 	db	low _init1
   308   0040DD  40                 	db	high _init1
   309   0040DE  EE                 	db	low _init2
   310   0040DF  40                 	db	high _init2
   311   0040E0  EC                 	db	low _init3
   312   0040E1  40                 	db	high _init3
   313   0040E2  F2                 	db	low _init4
   314   0040E3  40                 	db	high _init4
   315                           
   316                           	psect	idataBANK1
   317   0040E4                     __pidataBANK1:
   318                           	callstack 0
   319                           
   320                           ;initializer for _loop_routines
   321   0040E4  C4                 	db	low _loop1
   322   0040E5  40                 	db	high _loop1
   323   0040E6  B8                 	db	low _loop2
   324   0040E7  40                 	db	high _loop2
   325   0040E8  AC                 	db	low _loop3
   326   0040E9  40                 	db	high _loop3
   327   0040EA  D0                 	db	low _loop4
   328   0040EB  40                 	db	high _loop4
   329   007F92                     _TMR0IF         set	32658
   330   007CF4                     _TXIF           set	31988
   331   007D0C                     _EEIF           set	32012
   332   000F81                     _PORTBbits      set	3969
   333   000F83                     _PORTDbits      set	3971
   334   000F82                     _PORTCbits      set	3970
   335   000FAD                     _TXREG          set	4013
   336   000FA7                     _EECON2         set	4007
   337   000FA8                     _EEDATA         set	4008
   338   000FA6                     _EECON1bits     set	4006
   339   000FA9                     _EEADR          set	4009
   340   000FC3                     _ADRESL         set	4035
   341   000FC4                     _ADRESH         set	4036
   342   000F96                     _TRISEbits      set	3990
   343   000F92                     _TRISAbits      set	3986
   344   000F95                     _TRISDbits      set	3989
   345   000F93                     _TRISBbits      set	3987
   346   000FAB                     _RCSTAbits      set	4011
   347   000FAC                     _TXSTAbits      set	4012
   348   000FB0                     _SPBRGH         set	4016
   349   000FAF                     _SPBRG          set	4015
   350   000FB8                     _BAUDCONbits    set	4024
   351   000F94                     _TRISCbits      set	3988
   352   000FC0                     _ADCON2bits     set	4032
   353   000FC1                     _ADCON1bits     set	4033
   354   000FC2                     _ADCON0bits     set	4034
   355   000FBB                     _CCPR2L         set	4027
   356   000FBE                     _CCPR1L         set	4030
   357   000FCB                     _PR2            set	4043
   358   000FBA                     _CCP2CONbits    set	4026
   359   000FBD                     _CCP1CONbits    set	4029
   360   000FCA                     _T2CONbits      set	4042
   361   000FCE                     _TMR1L          set	4046
   362   000FCF                     _TMR1H          set	4047
   363   000FCD                     _T1CONbits      set	4045
   364   000FD6                     _TMR0L          set	4054
   365   000FD7                     _TMR0H          set	4055
   366   000FD0                     _RCONbits       set	4048
   367   000FF2                     _INTCONbits     set	4082
   368   000FF1                     _INTCON2bits    set	4081
   369   000FD5                     _T0CONbits      set	4053
   370   000F6F                     _UCFGbits       set	3951
   371   000F6D                     _UCONbits       set	3949
   372   000FB4                     _CMCON          set	4020
   373   000FD3                     _OSCCONbits     set	4051
   374                           
   375                           ; #config settings
   376                           
   377                           	psect	cinit
   378   003D42                     __pcinit:
   379                           	callstack 0
   380   003D42                     start_initialization:
   381                           	callstack 0
   382   003D42                     __initialization:
   383                           	callstack 0
   384                           
   385                           ; Initialize objects allocated to BANK1 (8 bytes)
   386                           ; load TBLPTR registers with __pidataBANK1
   387   003D42  0EE4               	movlw	low __pidataBANK1
   388   003D44  6EF6               	movwf	tblptrl,c
   389   003D46  0E40               	movlw	high __pidataBANK1
   390   003D48  6EF7               	movwf	tblptrh,c
   391   003D4A  0E00               	movlw	low (__pidataBANK1 shr (0+16))
   392   003D4C  6EF8               	movwf	tblptru,c
   393   003D4E  EE01  F0C0         	lfsr	0,__pdataBANK1
   394   003D52  EE10 F008          	lfsr	1,8
   395   003D56                     copy_data0:
   396   003D56  0009               	tblrd		*+
   397   003D58  CFF5 FFEE          	movff	tablat,postinc0
   398   003D5C  50E5               	movf	postdec1,w,c
   399   003D5E  50E1               	movf	fsr1l,w,c
   400   003D60  E1FA               	bnz	copy_data0
   401                           
   402                           ; Initialize objects allocated to BANK0 (8 bytes)
   403                           ; load TBLPTR registers with __pidataBANK0
   404   003D62  0EDC               	movlw	low __pidataBANK0
   405   003D64  6EF6               	movwf	tblptrl,c
   406   003D66  0E40               	movlw	high __pidataBANK0
   407   003D68  6EF7               	movwf	tblptrh,c
   408   003D6A  0E00               	movlw	low (__pidataBANK0 shr (0+16))
   409   003D6C  6EF8               	movwf	tblptru,c
   410   003D6E  EE00  F0F6         	lfsr	0,__pdataBANK0
   411   003D72  EE10 F008          	lfsr	1,8
   412   003D76                     copy_data1:
   413   003D76  0009               	tblrd		*+
   414   003D78  CFF5 FFEE          	movff	tablat,postinc0
   415   003D7C  50E5               	movf	postdec1,w,c
   416   003D7E  50E1               	movf	fsr1l,w,c
   417   003D80  E1FA               	bnz	copy_data1
   418                           
   419                           ; Clear objects allocated to BANK2 (256 bytes)
   420   003D82  EE02  F000         	lfsr	0,__pbssBANK2
   421   003D86  EE11 F000          	lfsr	1,256
   422   003D8A                     clear_0:
   423   003D8A  6AEE               	clrf	postinc0,c
   424   003D8C  50E5               	movf	postdec1,w,c
   425   003D8E  50E1               	movf	fsr1l,w,c
   426   003D90  E1FC               	bnz	clear_0
   427   003D92  50E2               	movf	fsr1h,w,c
   428   003D94  E1FA               	bnz	clear_0
   429                           
   430                           ; Clear objects allocated to BANK1 (176 bytes)
   431   003D96  EE01  F000         	lfsr	0,__pbssBANK1
   432   003D9A  0EB0               	movlw	176
   433   003D9C                     clear_1:
   434   003D9C  6AEE               	clrf	postinc0,c
   435   003D9E  06E8               	decf	wreg,f,c
   436   003DA0  E1FD               	bnz	clear_1
   437                           
   438                           ; Clear objects allocated to BANK0 (150 bytes)
   439   003DA2  EE00  F060         	lfsr	0,__pbssBANK0
   440   003DA6  0E96               	movlw	150
   441   003DA8                     clear_2:
   442   003DA8  6AEE               	clrf	postinc0,c
   443   003DAA  06E8               	decf	wreg,f,c
   444   003DAC  E1FD               	bnz	clear_2
   445                           
   446                           ; Clear objects allocated to COMRAM (42 bytes)
   447   003DAE  EE00  F001         	lfsr	0,__pbssCOMRAM
   448   003DB2  0E2A               	movlw	42
   449   003DB4                     clear_3:
   450   003DB4  6AEE               	clrf	postinc0,c
   451   003DB6  06E8               	decf	wreg,f,c
   452   003DB8  E1FD               	bnz	clear_3
   453   003DBA                     end_of_initialization:
   454                           	callstack 0
   455   003DBA                     __end_of__initialization:
   456                           	callstack 0
   457   003DBA  9050               	bcf	int$flags,0,c	;clear compiler interrupt flag (level 1)
   458   003DBC  9250               	bcf	int$flags,1,c	;clear compiler interrupt flag (level 2)
   459   003DBE  0E00               	movlw	low (__Lmediumconst shr (0+16))
   460   003DC0  6EF8               	movwf	tblptru,c
   461   003DC2  0100               	movlb	0
   462   003DC4  EF12  F020         	goto	_main	;jump to C main() function
   463                           
   464                           	psect	bssCOMRAM
   465   000001                     __pbssCOMRAM:
   466                           	callstack 0
   467   000001                     _leds:
   468                           	callstack 0
   469   000001                     	ds	5
   470   000006                     _pwm:
   471                           	callstack 0
   472   000006                     	ds	4
   473   00000A                     _speed_aux:
   474                           	callstack 0
   475   00000A                     	ds	2
   476   00000C                     _flag_press:
   477                           	callstack 0
   478   00000C                     	ds	2
   479   00000E                     _program_count:
   480                           	callstack 0
   481   00000E                     	ds	2
   482   000010                     _robot_state:
   483                           	callstack 0
   484   000010                     	ds	2
   485   000012                     _configure_mode:
   486                           	callstack 0
   487   000012                     	ds	2
   488   000014                     _flag_menu_init_2:
   489                           	callstack 0
   490   000014                     	ds	2
   491   000016                     _flag_menu_init:
   492                           	callstack 0
   493   000016                     	ds	2
   494   000018                     _current_menu:
   495                           	callstack 0
   496   000018                     	ds	2
   497   00001A                     _flag_init:
   498                           	callstack 0
   499   00001A                     	ds	2
   500   00001C                     _status_code:
   501                           	callstack 0
   502   00001C                     	ds	2
   503   00001E                     _mode_counter:
   504                           	callstack 0
   505   00001E                     	ds	2
   506   000020                     _status_next_mode:
   507                           	callstack 0
   508   000020                     	ds	2
   509   000022                     _status_intermitency_counter:
   510                           	callstack 0
   511   000022                     	ds	2
   512   000024                     _status_persisted:
   513                           	callstack 0
   514   000024                     	ds	2
   515   000026                     _status_value:
   516                           	callstack 0
   517   000026                     	ds	2
   518   000028                     _status_mode:
   519                           	callstack 0
   520   000028                     	ds	1
   521   000029                     _int_status:
   522                           	callstack 0
   523   000029                     	ds	1
   524   00002A                     _initial_state:
   525                           	callstack 0
   526   00002A                     	ds	1
   527                           
   528                           	psect	bssBANK0
   529   000060                     __pbssBANK0:
   530                           	callstack 0
   531   000060                     _b_counter:
   532                           	callstack 0
   533   000060                     	ds	40
   534   000088                     _counter:
   535                           	callstack 0
   536   000088                     	ds	40
   537   0000B0                     _combination_state:
   538                           	callstack 0
   539   0000B0                     	ds	10
   540   0000BA                     _iterations:
   541                           	callstack 0
   542   0000BA                     	ds	8
   543   0000C2                     _count_reads:
   544                           	callstack 0
   545   0000C2                     	ds	8
   546   0000CA                     _triple_click_evt:
   547                           	callstack 0
   548   0000CA                     	ds	5
   549   0000CF                     _double_click_evt:
   550                           	callstack 0
   551   0000CF                     	ds	5
   552   0000D4                     _single_click_evt:
   553                           	callstack 0
   554   0000D4                     	ds	5
   555   0000D9                     _b:
   556                           	callstack 0
   557   0000D9                     	ds	5
   558   0000DE                     _release_evt:
   559                           	callstack 0
   560   0000DE                     	ds	5
   561   0000E3                     _press_evt:
   562                           	callstack 0
   563   0000E3                     	ds	5
   564   0000E8                     _b_state:
   565                           	callstack 0
   566   0000E8                     	ds	5
   567   0000ED                     _last_b:
   568                           	callstack 0
   569   0000ED                     	ds	5
   570   0000F2                     _program_aux:
   571                           	callstack 0
   572   0000F2                     	ds	2
   573   0000F4                     _status_final_mode:
   574                           	callstack 0
   575   0000F4                     	ds	2
   576                           
   577                           	psect	dataBANK0
   578   0000F6                     __pdataBANK0:
   579                           	callstack 0
   580   0000F6                     _init_routines:
   581                           	callstack 0
   582   0000F6                     	ds	8
   583                           
   584                           	psect	bssBANK1
   585   000100                     __pbssBANK1:
   586                           	callstack 0
   587   000100                     _sum_read:
   588                           	callstack 0
   589   000100                     	ds	80
   590   000150                     _state_counter:
   591                           	callstack 0
   592   000150                     	ds	40
   593   000178                     _avg_input:
   594                           	callstack 0
   595   000178                     	ds	20
   596   00018C                     _an_input:
   597                           	callstack 0
   598   00018C                     	ds	20
   599   0001A0                     _amount_cycles:
   600                           	callstack 0
   601   0001A0                     	ds	8
   602   0001A8                     _sum_iterations:
   603                           	callstack 0
   604   0001A8                     	ds	8
   605                           
   606                           	psect	dataBANK1
   607   0001C0                     __pdataBANK1:
   608                           	callstack 0
   609   0001C0                     _loop_routines:
   610                           	callstack 0
   611   0001C0                     	ds	8
   612                           
   613                           	psect	bssBANK2
   614   000200                     __pbssBANK2:
   615                           	callstack 0
   616   000200                     _persisted_data:
   617                           	callstack 0
   618   000200                     	ds	256
   619                           
   620                           	psect	cstackBANK1
   621   0001B0                     __pcstackBANK1:
   622                           	callstack 0
   623   0001B0                     ??_read_analog:
   624   0001B0                     ??_loop:
   625                           
   626                           ; 1 bytes @ 0x0
   627   0001B0                     	ds	16
   628                           
   629                           	psect	cstackCOMRAM
   630   00002B                     __pcstackCOMRAM:
   631                           	callstack 0
   632   00002B                     ??_enc:
   633                           
   634                           ; 1 bytes @ 0x0
   635   00002B                     	ds	4
   636   00002F                     enc@i:
   637                           	callstack 0
   638                           
   639                           ; 2 bytes @ 0x4
   640   00002F                     	ds	2
   641   000031                     ?_get_motor_speed:
   642                           	callstack 0
   643   000031                     ?_get_robot_program:
   644                           	callstack 0
   645   000031                     ?___awmod:
   646                           	callstack 0
   647   000031                     ?___aodiv:
   648                           	callstack 0
   649   000031                     ?___aomod:
   650                           	callstack 0
   651   000031                     status_set_mode@next_mode:
   652                           	callstack 0
   653   000031                     status_init@i:
   654                           	callstack 0
   655   000031                     init4@speed:
   656                           	callstack 0
   657   000031                     loop4@speed:
   658                           	callstack 0
   659   000031                     set_motor_speed@speed:
   660                           	callstack 0
   661   000031                     set_robot_program@program:
   662                           	callstack 0
   663   000031                     ___awmod@dividend:
   664                           	callstack 0
   665   000031                     ___aodiv@dividend:
   666                           	callstack 0
   667   000031                     ___aomod@dividend:
   668                           	callstack 0
   669   000031                     ??_read_eeprom:
   670   000031                     ??_write_eeprom:
   671   000031                     ??_init_vars:
   672   000031                     ??_buttons_init:
   673   000031                     ??_buttons_loop:
   674   000031                     
   675                           ; 1 bytes @ 0x6
   676   000031                     	ds	1
   677   000032                     status_set_mode@final_mode:
   678                           	callstack 0
   679                           
   680                           ; 1 bytes @ 0x7
   681   000032                     	ds	1
   682   000033                     status_set_mode@mode:
   683                           	callstack 0
   684   000033                     init_vars@i:
   685                           	callstack 0
   686   000033                     buttons_init@i:
   687                           	callstack 0
   688   000033                     get_motor_speed@speed:
   689                           	callstack 0
   690   000033                     ___awmod@divisor:
   691                           	callstack 0
   692   000033                     ??_get_robot_program:
   693   000033                     ??_set_robot_program:
   694                           
   695                           ; 1 bytes @ 0x8
   696   000033                     	ds	2
   697   000035                     write_eeprom@addr:
   698                           	callstack 0
   699   000035                     ___awmod@counter:
   700                           	callstack 0
   701   000035                     read_eeprom@aux:
   702                           	callstack 0
   703   000035                     get_robot_program@program:
   704                           	callstack 0
   705   000035                     
   706                           ; 1 bytes @ 0xA
   707   000035                     	ds	1
   708   000036                     ___awmod@sign:
   709                           	callstack 0
   710                           
   711                           ; 1 bytes @ 0xB
   712   000036                     	ds	1
   713   000037                     ?___awdiv:
   714                           	callstack 0
   715   000037                     read_eeprom@addr:
   716                           	callstack 0
   717   000037                     ___awdiv@dividend:
   718                           	callstack 0
   719                           
   720                           ; 2 bytes @ 0xC
   721   000037                     	ds	2
   722   000039                     ___awdiv@divisor:
   723                           	callstack 0
   724   000039                     ___aodiv@divisor:
   725                           	callstack 0
   726   000039                     ___aomod@divisor:
   727                           	callstack 0
   728                           
   729                           ; 8 bytes @ 0xE
   730   000039                     	ds	2
   731   00003B                     ___awdiv@counter:
   732                           	callstack 0
   733   00003B                     buttons_loop@click_evt:
   734                           	callstack 0
   735   00003B                     
   736                           ; 1 bytes @ 0x10
   737   00003B                     	ds	1
   738   00003C                     ___awdiv@sign:
   739                           	callstack 0
   740                           
   741                           ; 1 bytes @ 0x11
   742   00003C                     	ds	1
   743   00003D                     ___awdiv@quotient:
   744                           	callstack 0
   745                           
   746                           ; 2 bytes @ 0x12
   747   00003D                     	ds	2
   748   00003F                     ??_update_pwm:
   749   00003F                     ??_status_loop:
   750                           
   751                           ; 1 bytes @ 0x14
   752   00003F                     	ds	1
   753   000040                     update_pwm@pwm0:
   754                           	callstack 0
   755   000040                     buttons_loop@i_1320:
   756                           	callstack 0
   757                           
   758                           ; 2 bytes @ 0x15
   759   000040                     	ds	1
   760   000041                     ___aodiv@counter:
   761                           	callstack 0
   762   000041                     ___aomod@counter:
   763                           	callstack 0
   764   000041                     
   765                           ; 1 bytes @ 0x16
   766   000041                     	ds	1
   767   000042                     ___aodiv@sign:
   768                           	callstack 0
   769   000042                     ___aomod@sign:
   770                           	callstack 0
   771   000042                     update_pwm@pwm1:
   772                           	callstack 0
   773   000042                     buttons_loop@i:
   774                           	callstack 0
   775                           
   776                           ; 2 bytes @ 0x17
   777   000042                     	ds	1
   778   000043                     ___aodiv@quotient:
   779                           	callstack 0
   780                           
   781                           ; 8 bytes @ 0x18
   782   000043                     	ds	5
   783   000048                     status_loop@half_status:
   784                           	callstack 0
   785                           
   786                           ; 2 bytes @ 0x1D
   787   000048                     	ds	2
   788   00004A                     status_loop@show_led:
   789                           	callstack 0
   790                           
   791                           ; 2 bytes @ 0x1F
   792   00004A                     	ds	1
   793   00004B                     read_analog@aux:
   794                           	callstack 0
   795                           
   796                           ; 2 bytes @ 0x20
   797   00004B                     	ds	1
   798   00004C                     status_loop@half_led:
   799                           	callstack 0
   800                           
   801                           ; 2 bytes @ 0x21
   802   00004C                     	ds	1
   803   00004D                     read_analog@i:
   804                           	callstack 0
   805                           
   806                           ; 1 bytes @ 0x22
   807   00004D                     	ds	1
   808   00004E                     status_loop@i:
   809                           	callstack 0
   810                           
   811                           ; 2 bytes @ 0x23
   812   00004E                     	ds	2
   813   000050                     
   814                           ; 1 bytes @ 0x25
   815 ;;
   816 ;;Main: autosize = 0, tempsize = 0, incstack = 0, save=0
   817 ;;
   818 ;; *************** function _main *****************
   819 ;; Defined at:
   820 ;;		line 1246 in file "main.c"
   821 ;; Parameters:    Size  Location     Type
   822 ;;		None
   823 ;; Auto vars:     Size  Location     Type
   824 ;;		None
   825 ;; Return value:  Size  Location     Type
   826 ;;                  1    wreg      void 
   827 ;; Registers used:
   828 ;;		wreg, fsr2l, fsr2h, status,2, status,0, pcl, pclath, pclatu, tosl, prodl, prodh, cstack
   829 ;; Tracked objects:
   830 ;;		On entry : 0/0
   831 ;;		On exit  : 0/0
   832 ;;		Unchanged: 0/0
   833 ;; Data sizes:     COMRAM   BANK0   BANK1   BANK2   BANK3   BANK4   BANK5   BANK6   BANK7
   834 ;;      Params:         0       0       0       0       0       0       0       0       0
   835 ;;      Locals:         0       0       0       0       0       0       0       0       0
   836 ;;      Temps:          0       0       0       0       0       0       0       0       0
   837 ;;      Totals:         0       0       0       0       0       0       0       0       0
   838 ;;Total ram usage:        0 bytes
   839 ;; Hardware stack levels required when called: 3
   840 ;; This function calls:
   841 ;;		_buttons_init
   842 ;;		_buttons_loop
   843 ;;		_config_micro
   844 ;;		_init
   845 ;;		_init_vars
   846 ;;		_loop
   847 ;;		_read_analog
   848 ;;		_status_init
   849 ;;		_status_loop
   850 ;;		_update_pwm
   851 ;; This function is called by:
   852 ;;		Startup code after reset
   853 ;; This function uses a non-reentrant model
   854 ;;
   855                           
   856                           	psect	text0
   857   004024                     __ptext0:
   858                           	callstack 0
   859   004024                     _main:
   860                           	callstack 28
   861   004024                     
   862                           ;main.c: 1247:     config_micro();
   863   004024  EC5B  F01C         	call	_config_micro	;wreg free
   864   004028                     
   865                           ;main.c: 1248:     init_vars();
   866   004028  ECA4  F01D         	call	_init_vars	;wreg free
   867   00402C                     
   868                           ;main.c: 1249:     buttons_init();
   869   00402C  ECD3  F01C         	call	_buttons_init	;wreg free
   870   004030                     
   871                           ;main.c: 1250:     status_init();
   872   004030  EC57  F01F         	call	_status_init	;wreg free
   873   004034                     
   874                           ;main.c: 1251:     init();
   875   004034  EC85  F01F         	call	_init	;wreg free
   876   004038                     l3967:
   877                           
   878                           ;main.c: 1254:         update_pwm();
   879   004038  EC14  F019         	call	_update_pwm	;wreg free
   880   00403C                     
   881                           ;main.c: 1255:         read_analog();
   882   00403C  EC05  F01A         	call	_read_analog	;wreg free
   883   004040                     
   884                           ;main.c: 1256:         buttons_loop();
   885   004040  EC16  F015         	call	_buttons_loop	;wreg free
   886   004044                     
   887                           ;main.c: 1257:         status_loop();
   888   004044  EC6D  F00F         	call	_status_loop	;wreg free
   889   004048                     
   890                           ;main.c: 1258:         loop();
   891   004048  EC01  F004         	call	_loop	;wreg free
   892   00404C  EF1C  F020         	goto	l3967
   893   004050  EF07  F000         	goto	start
   894   004054                     __end_of_main:
   895                           	callstack 0
   896                           
   897 ;; *************** function _update_pwm *****************
   898 ;; Defined at:
   899 ;;		line 340 in file "main.c"
   900 ;; Parameters:    Size  Location     Type
   901 ;;		None
   902 ;; Auto vars:     Size  Location     Type
   903 ;;  pwm1            2   23[COMRAM] int 
   904 ;;  pwm0            2   21[COMRAM] int 
   905 ;; Return value:  Size  Location     Type
   906 ;;                  1    wreg      void 
   907 ;; Registers used:
   908 ;;		wreg, status,2, status,0, cstack
   909 ;; Tracked objects:
   910 ;;		On entry : 0/0
   911 ;;		On exit  : 0/0
   912 ;;		Unchanged: 0/0
   913 ;; Data sizes:     COMRAM   BANK0   BANK1   BANK2   BANK3   BANK4   BANK5   BANK6   BANK7
   914 ;;      Params:         0       0       0       0       0       0       0       0       0
   915 ;;      Locals:         4       0       0       0       0       0       0       0       0
   916 ;;      Temps:          1       0       0       0       0       0       0       0       0
   917 ;;      Totals:         5       0       0       0       0       0       0       0       0
   918 ;;Total ram usage:        5 bytes
   919 ;; Hardware stack levels used: 1
   920 ;; Hardware stack levels required when called: 2
   921 ;; This function calls:
   922 ;;		___awdiv
   923 ;; This function is called by:
   924 ;;		_main
   925 ;; This function uses a non-reentrant model
   926 ;;
   927                           
   928                           	psect	text1
   929   003228                     __ptext1:
   930                           	callstack 0
   931   003228                     _update_pwm:
   932                           	callstack 28
   933   003228                     
   934                           ;main.c: 341:     int pwm0, pwm1;;main.c: 343:     if (pwm[0] > 600){
   935   003228  BE07               	btfsc	(_pwm+1)^0,7,c
   936   00322A  EF20  F019         	goto	u4051
   937   00322E  0E59               	movlw	89
   938   003230  5C06               	subwf	_pwm^0,w,c
   939   003232  0E02               	movlw	2
   940   003234  5807               	subwfb	(_pwm+1)^0,w,c
   941   003236  A0D8               	btfss	status,0,c
   942   003238  EF20  F019         	goto	u4051
   943   00323C  EF22  F019         	goto	u4050
   944   003240                     u4051:
   945   003240  EF28  F019         	goto	l2791
   946   003244                     u4050:
   947   003244                     
   948                           ;main.c: 344:         pwm0 = 600;
   949   003244  0E02               	movlw	2
   950   003246  6E41               	movwf	(update_pwm@pwm0+1)^0,c
   951   003248  0E58               	movlw	88
   952   00324A  6E40               	movwf	update_pwm@pwm0^0,c
   953                           
   954                           ;main.c: 345:     }else if (pwm[0] < -600){
   955   00324C  EF40  F019         	goto	l2795
   956   003250                     l2791:
   957   003250  AE07               	btfss	(_pwm+1)^0,7,c
   958   003252  EF34  F019         	goto	u4061
   959   003256  0EA8               	movlw	168
   960   003258  5C06               	subwf	_pwm^0,w,c
   961   00325A  0EFD               	movlw	253
   962   00325C  5807               	subwfb	(_pwm+1)^0,w,c
   963   00325E  B0D8               	btfsc	status,0,c
   964   003260  EF34  F019         	goto	u4061
   965   003264  EF36  F019         	goto	u4060
   966   003268                     u4061:
   967   003268  EF3C  F019         	goto	l161
   968   00326C                     u4060:
   969   00326C                     
   970                           ;main.c: 346:         pwm0 = -600;
   971   00326C  0EFD               	movlw	253
   972   00326E  6E41               	movwf	(update_pwm@pwm0+1)^0,c
   973   003270  0EA8               	movlw	168
   974   003272  6E40               	movwf	update_pwm@pwm0^0,c
   975                           
   976                           ;main.c: 347:     }else{
   977   003274  EF40  F019         	goto	l2795
   978   003278                     l161:
   979                           
   980                           ;main.c: 348:         pwm0 = pwm[0];
   981   003278  C006  F040         	movff	_pwm,update_pwm@pwm0
   982   00327C  C007  F041         	movff	_pwm+1,update_pwm@pwm0+1
   983   003280                     l2795:
   984                           
   985                           ;main.c: 351:     PORTCbits.RC1 = pwm0 > 0 ? 0 : 1;
   986   003280  BE41               	btfsc	(update_pwm@pwm0+1)^0,7,c
   987   003282  EF4B  F019         	goto	u4071
   988   003286  5041               	movf	(update_pwm@pwm0+1)^0,w,c
   989   003288  E10A               	bnz	u4070
   990   00328A  0440               	decf	update_pwm@pwm0^0,w,c
   991   00328C  A0D8               	btfss	status,0,c
   992   00328E  EF4B  F019         	goto	u4071
   993   003292  EF4F  F019         	goto	u4070
   994   003296                     u4071:
   995   003296  6A3F               	clrf	??_update_pwm^0,c
   996   003298  2A3F               	incf	??_update_pwm^0,f,c
   997   00329A  EF50  F019         	goto	u4088
   998   00329E                     u4070:
   999   00329E  6A3F               	clrf	??_update_pwm^0,c
  1000   0032A0                     u4088:
  1001   0032A0  463F               	rlncf	??_update_pwm^0,f,c
  1002   0032A2  5082               	movf	130,w,c	;volatile
  1003   0032A4  183F               	xorwf	??_update_pwm^0,w,c
  1004   0032A6  0BFD               	andlw	-3
  1005   0032A8  183F               	xorwf	??_update_pwm^0,w,c
  1006   0032AA  6E82               	movwf	130,c	;volatile
  1007                           
  1008                           ;main.c: 352:     PORTCbits.RC0 = pwm0 < 0 ? 0 : 1;
  1009   0032AC  BE41               	btfsc	(update_pwm@pwm0+1)^0,7,c
  1010   0032AE  EF5F  F019         	goto	u4090
  1011   0032B2  EF5B  F019         	goto	u4091
  1012   0032B6                     u4091:
  1013   0032B6  6A3F               	clrf	??_update_pwm^0,c
  1014   0032B8  2A3F               	incf	??_update_pwm^0,f,c
  1015   0032BA  EF60  F019         	goto	u4108
  1016   0032BE                     u4090:
  1017   0032BE  6A3F               	clrf	??_update_pwm^0,c
  1018   0032C0                     u4108:
  1019   0032C0  5082               	movf	130,w,c	;volatile
  1020   0032C2  183F               	xorwf	??_update_pwm^0,w,c
  1021   0032C4  0BFE               	andlw	-2
  1022   0032C6  183F               	xorwf	??_update_pwm^0,w,c
  1023   0032C8  6E82               	movwf	130,c	;volatile
  1024                           
  1025                           ;main.c: 353:     pwm0 = pwm0 > 0 ? pwm0 : (-pwm0);
  1026   0032CA  BE41               	btfsc	(update_pwm@pwm0+1)^0,7,c
  1027   0032CC  EF72  F019         	goto	u4110
  1028   0032D0  5041               	movf	(update_pwm@pwm0+1)^0,w,c
  1029   0032D2  E106               	bnz	u4111
  1030   0032D4  0440               	decf	update_pwm@pwm0^0,w,c
  1031   0032D6  B0D8               	btfsc	status,0,c
  1032   0032D8  EF70  F019         	goto	u4111
  1033   0032DC  EF72  F019         	goto	u4110
  1034   0032E0                     u4111:
  1035   0032E0  EF76  F019         	goto	l2799
  1036   0032E4                     u4110:
  1037   0032E4  6C40               	negf	update_pwm@pwm0^0,c
  1038   0032E6  1E41               	comf	(update_pwm@pwm0+1)^0,f,c
  1039   0032E8  B0D8               	btfsc	status,0,c
  1040   0032EA  2A41               	incf	(update_pwm@pwm0+1)^0,f,c
  1041   0032EC                     l2799:
  1042                           
  1043                           ;main.c: 355:     CCP1CONbits.DC1B = pwm0 % 4;
  1044   0032EC  C040  F03F         	movff	update_pwm@pwm0,??_update_pwm
  1045   0032F0  0E03               	movlw	3
  1046   0032F2  163F               	andwf	??_update_pwm^0,f,c
  1047   0032F4  3A3F               	swapf	??_update_pwm^0,f,c
  1048   0032F6  50BD               	movf	189,w,c	;volatile
  1049   0032F8  183F               	xorwf	??_update_pwm^0,w,c
  1050   0032FA  0BCF               	andlw	-49
  1051   0032FC  183F               	xorwf	??_update_pwm^0,w,c
  1052   0032FE  6EBD               	movwf	189,c	;volatile
  1053   003300                     
  1054                           ;main.c: 356:     CCPR1L = pwm0 / 4;
  1055   003300  C040  F037         	movff	update_pwm@pwm0,___awdiv@dividend
  1056   003304  C041  F038         	movff	update_pwm@pwm0+1,___awdiv@dividend+1
  1057   003308  0E00               	movlw	0
  1058   00330A  6E3A               	movwf	(___awdiv@divisor+1)^0,c
  1059   00330C  0E04               	movlw	4
  1060   00330E  6E39               	movwf	___awdiv@divisor^0,c
  1061   003310  EC43  F01D         	call	___awdiv	;wreg free
  1062   003314  5037               	movf	?___awdiv^0,w,c
  1063   003316  6EBE               	movwf	190,c	;volatile
  1064   003318                     
  1065                           ;main.c: 358:     if (pwm[1] > 600){
  1066   003318  BE09               	btfsc	(_pwm+3)^0,7,c
  1067   00331A  EF98  F019         	goto	u4121
  1068   00331E  0E59               	movlw	89
  1069   003320  5C08               	subwf	(_pwm+2)^0,w,c
  1070   003322  0E02               	movlw	2
  1071   003324  5809               	subwfb	(_pwm+3)^0,w,c
  1072   003326  A0D8               	btfss	status,0,c
  1073   003328  EF98  F019         	goto	u4121
  1074   00332C  EF9A  F019         	goto	u4120
  1075   003330                     u4121:
  1076   003330  EFA0  F019         	goto	l2807
  1077   003334                     u4120:
  1078   003334                     
  1079                           ;main.c: 359:         pwm1 = 600;
  1080   003334  0E02               	movlw	2
  1081   003336  6E43               	movwf	(update_pwm@pwm1+1)^0,c
  1082   003338  0E58               	movlw	88
  1083   00333A  6E42               	movwf	update_pwm@pwm1^0,c
  1084                           
  1085                           ;main.c: 360:     }else if (pwm[1] < -600){
  1086   00333C  EFB8  F019         	goto	l2811
  1087   003340                     l2807:
  1088   003340  AE09               	btfss	(_pwm+3)^0,7,c
  1089   003342  EFAC  F019         	goto	u4131
  1090   003346  0EA8               	movlw	168
  1091   003348  5C08               	subwf	(_pwm+2)^0,w,c
  1092   00334A  0EFD               	movlw	253
  1093   00334C  5809               	subwfb	(_pwm+3)^0,w,c
  1094   00334E  B0D8               	btfsc	status,0,c
  1095   003350  EFAC  F019         	goto	u4131
  1096   003354  EFAE  F019         	goto	u4130
  1097   003358                     u4131:
  1098   003358  EFB4  F019         	goto	l169
  1099   00335C                     u4130:
  1100   00335C                     
  1101                           ;main.c: 361:         pwm1 = -600;
  1102   00335C  0EFD               	movlw	253
  1103   00335E  6E43               	movwf	(update_pwm@pwm1+1)^0,c
  1104   003360  0EA8               	movlw	168
  1105   003362  6E42               	movwf	update_pwm@pwm1^0,c
  1106                           
  1107                           ;main.c: 362:     }else{
  1108   003364  EFB8  F019         	goto	l2811
  1109   003368                     l169:
  1110                           
  1111                           ;main.c: 363:         pwm1 = pwm[1];
  1112   003368  C008  F042         	movff	_pwm+2,update_pwm@pwm1
  1113   00336C  C009  F043         	movff	_pwm+3,update_pwm@pwm1+1
  1114   003370                     l2811:
  1115                           
  1116                           ;main.c: 366:     PORTDbits.RD1 = pwm1 > 0 ? 0 : 1;
  1117   003370  BE43               	btfsc	(update_pwm@pwm1+1)^0,7,c
  1118   003372  EFC3  F019         	goto	u4141
  1119   003376  5043               	movf	(update_pwm@pwm1+1)^0,w,c
  1120   003378  E10A               	bnz	u4140
  1121   00337A  0442               	decf	update_pwm@pwm1^0,w,c
  1122   00337C  A0D8               	btfss	status,0,c
  1123   00337E  EFC3  F019         	goto	u4141
  1124   003382  EFC7  F019         	goto	u4140
  1125   003386                     u4141:
  1126   003386  6A3F               	clrf	??_update_pwm^0,c
  1127   003388  2A3F               	incf	??_update_pwm^0,f,c
  1128   00338A  EFC8  F019         	goto	u4158
  1129   00338E                     u4140:
  1130   00338E  6A3F               	clrf	??_update_pwm^0,c
  1131   003390                     u4158:
  1132   003390  463F               	rlncf	??_update_pwm^0,f,c
  1133   003392  5083               	movf	131,w,c	;volatile
  1134   003394  183F               	xorwf	??_update_pwm^0,w,c
  1135   003396  0BFD               	andlw	-3
  1136   003398  183F               	xorwf	??_update_pwm^0,w,c
  1137   00339A  6E83               	movwf	131,c	;volatile
  1138                           
  1139                           ;main.c: 367:     PORTDbits.RD0 = pwm1 < 0 ? 0 : 1;
  1140   00339C  BE43               	btfsc	(update_pwm@pwm1+1)^0,7,c
  1141   00339E  EFD7  F019         	goto	u4160
  1142   0033A2  EFD3  F019         	goto	u4161
  1143   0033A6                     u4161:
  1144   0033A6  6A3F               	clrf	??_update_pwm^0,c
  1145   0033A8  2A3F               	incf	??_update_pwm^0,f,c
  1146   0033AA  EFD8  F019         	goto	u4178
  1147   0033AE                     u4160:
  1148   0033AE  6A3F               	clrf	??_update_pwm^0,c
  1149   0033B0                     u4178:
  1150   0033B0  5083               	movf	131,w,c	;volatile
  1151   0033B2  183F               	xorwf	??_update_pwm^0,w,c
  1152   0033B4  0BFE               	andlw	-2
  1153   0033B6  183F               	xorwf	??_update_pwm^0,w,c
  1154   0033B8  6E83               	movwf	131,c	;volatile
  1155                           
  1156                           ;main.c: 368:     pwm1 = pwm1 > 0 ? pwm1 : (-pwm1);
  1157   0033BA  BE43               	btfsc	(update_pwm@pwm1+1)^0,7,c
  1158   0033BC  EFEA  F019         	goto	u4180
  1159   0033C0  5043               	movf	(update_pwm@pwm1+1)^0,w,c
  1160   0033C2  E106               	bnz	u4181
  1161   0033C4  0442               	decf	update_pwm@pwm1^0,w,c
  1162   0033C6  B0D8               	btfsc	status,0,c
  1163   0033C8  EFE8  F019         	goto	u4181
  1164   0033CC  EFEA  F019         	goto	u4180
  1165   0033D0                     u4181:
  1166   0033D0  EFEE  F019         	goto	l2815
  1167   0033D4                     u4180:
  1168   0033D4  6C42               	negf	update_pwm@pwm1^0,c
  1169   0033D6  1E43               	comf	(update_pwm@pwm1+1)^0,f,c
  1170   0033D8  B0D8               	btfsc	status,0,c
  1171   0033DA  2A43               	incf	(update_pwm@pwm1+1)^0,f,c
  1172   0033DC                     l2815:
  1173                           
  1174                           ;main.c: 370:     CCP2CONbits.DC2B = pwm1 % 4;
  1175   0033DC  C042  F03F         	movff	update_pwm@pwm1,??_update_pwm
  1176   0033E0  0E03               	movlw	3
  1177   0033E2  163F               	andwf	??_update_pwm^0,f,c
  1178   0033E4  3A3F               	swapf	??_update_pwm^0,f,c
  1179   0033E6  50BA               	movf	186,w,c	;volatile
  1180   0033E8  183F               	xorwf	??_update_pwm^0,w,c
  1181   0033EA  0BCF               	andlw	-49
  1182   0033EC  183F               	xorwf	??_update_pwm^0,w,c
  1183   0033EE  6EBA               	movwf	186,c	;volatile
  1184   0033F0                     
  1185                           ;main.c: 371:     CCPR2L = pwm1 / 4;
  1186   0033F0  C042  F037         	movff	update_pwm@pwm1,___awdiv@dividend
  1187   0033F4  C043  F038         	movff	update_pwm@pwm1+1,___awdiv@dividend+1
  1188   0033F8  0E00               	movlw	0
  1189   0033FA  6E3A               	movwf	(___awdiv@divisor+1)^0,c
  1190   0033FC  0E04               	movlw	4
  1191   0033FE  6E39               	movwf	___awdiv@divisor^0,c
  1192   003400  EC43  F01D         	call	___awdiv	;wreg free
  1193   003404  5037               	movf	?___awdiv^0,w,c
  1194   003406  6EBB               	movwf	187,c	;volatile
  1195   003408  0012               	return		;funcret
  1196   00340A                     __end_of_update_pwm:
  1197                           	callstack 0
  1198                           
  1199 ;; *************** function _status_loop *****************
  1200 ;; Defined at:
  1201 ;;		line 598 in file "main.c"
  1202 ;; Parameters:    Size  Location     Type
  1203 ;;		None
  1204 ;; Auto vars:     Size  Location     Type
  1205 ;;  show_led        2   31[COMRAM] int 
  1206 ;;  i               2   35[COMRAM] int 
  1207 ;;  half_led        2   33[COMRAM] int 
  1208 ;;  half_status     2   29[COMRAM] int 
  1209 ;; Return value:  Size  Location     Type
  1210 ;;                  1    wreg      void 
  1211 ;; Registers used:
  1212 ;;		wreg, fsr2l, fsr2h, status,2, status,0, prodl, prodh, cstack
  1213 ;; Tracked objects:
  1214 ;;		On entry : 0/0
  1215 ;;		On exit  : 0/0
  1216 ;;		Unchanged: 0/0
  1217 ;; Data sizes:     COMRAM   BANK0   BANK1   BANK2   BANK3   BANK4   BANK5   BANK6   BANK7
  1218 ;;      Params:         0       0       0       0       0       0       0       0       0
  1219 ;;      Locals:         8       0       0       0       0       0       0       0       0
  1220 ;;      Temps:          9       0       0       0       0       0       0       0       0
  1221 ;;      Totals:        17       0       0       0       0       0       0       0       0
  1222 ;;Total ram usage:       17 bytes
  1223 ;; Hardware stack levels used: 1
  1224 ;; Hardware stack levels required when called: 2
  1225 ;; This function calls:
  1226 ;;		___awdiv
  1227 ;;		___awmod
  1228 ;;		_status_set_mode
  1229 ;; This function is called by:
  1230 ;;		_main
  1231 ;; This function uses a non-reentrant model
  1232 ;;
  1233                           
  1234                           	psect	text2
  1235   001EDA                     __ptext2:
  1236                           	callstack 0
  1237   001EDA                     _status_loop:
  1238                           	callstack 28
  1239   001EDA                     
  1240                           ;main.c: 599:     if (status_mode == 1 || status_mode == 2){
  1241   001EDA  0428               	decf	_status_mode^0,w,c
  1242   001EDC  B4D8               	btfsc	status,2,c
  1243   001EDE  EF73  F00F         	goto	u4751
  1244   001EE2  EF75  F00F         	goto	u4750
  1245   001EE6                     u4751:
  1246   001EE6  EF7E  F00F         	goto	l3049
  1247   001EEA                     u4750:
  1248   001EEA  0E02               	movlw	2
  1249   001EEC  1828               	xorwf	_status_mode^0,w,c
  1250   001EEE  A4D8               	btfss	status,2,c
  1251   001EF0  EF7C  F00F         	goto	u4761
  1252   001EF4  EF7E  F00F         	goto	u4760
  1253   001EF8                     u4761:
  1254   001EF8  EFCB  F010         	goto	l3107
  1255   001EFC                     u4760:
  1256   001EFC                     l3049:
  1257                           
  1258                           ;main.c: 601:         if (counter[2] >= 10){
  1259   001EFC  0100               	movlb	0	; () banked
  1260   001EFE  BF9F               	btfsc	(_counter+23)& (0+255),7,b
  1261   001F00  EF91  F00F         	goto	u4771
  1262   001F04  519F               	movf	(_counter+23)& (0+255),w,b
  1263   001F06  119E               	iorwf	(_counter+22)& (0+255),w,b
  1264   001F08  119D               	iorwf	(_counter+21)& (0+255),w,b
  1265   001F0A  119C               	iorwf	(_counter+20)& (0+255),w,b
  1266   001F0C  119B               	iorwf	(_counter+19)& (0+255),w,b
  1267   001F0E  119A               	iorwf	(_counter+18)& (0+255),w,b
  1268   001F10  1199               	iorwf	(_counter+17)& (0+255),w,b
  1269   001F12  E109               	bnz	u4770
  1270   001F14  0E0A               	movlw	10
  1271   001F16  5D98               	subwf	(_counter+16)& (0+255),w,b
  1272   001F18  A0D8               	btfss	status,0,c
  1273   001F1A  EF91  F00F         	goto	u4771
  1274   001F1E  EF93  F00F         	goto	u4770
  1275   001F22                     u4771:
  1276   001F22  EFCE  F00F         	goto	l3069
  1277   001F26                     u4770:
  1278   001F26                     
  1279                           ; BSR set to: 0
  1280                           ;main.c: 602:             counter[2] = 0;
  1281   001F26  EE20  F098         	lfsr	2,_counter+16
  1282   001F2A  0E07               	movlw	7
  1283   001F2C                     u4781:
  1284   001F2C  6ADE               	clrf	postinc2,c
  1285   001F2E  06E8               	decf	wreg,f,c
  1286   001F30  E2FD               	bc	u4781
  1287   001F32                     
  1288                           ; BSR set to: 0
  1289                           ;main.c: 603:             status_intermitency_counter ++;
  1290   001F32  4A22               	infsnz	_status_intermitency_counter^0,f,c
  1291   001F34  2A23               	incf	(_status_intermitency_counter+1)^0,f,c
  1292   001F36                     
  1293                           ; BSR set to: 0
  1294                           ;main.c: 604:             if (status_intermitency_counter >= 10){
  1295   001F36  BE23               	btfsc	(_status_intermitency_counter+1)^0,7,c
  1296   001F38  EFA7  F00F         	goto	u4791
  1297   001F3C  5023               	movf	(_status_intermitency_counter+1)^0,w,c
  1298   001F3E  E109               	bnz	u4790
  1299   001F40  0E0A               	movlw	10
  1300   001F42  5C22               	subwf	_status_intermitency_counter^0,w,c
  1301   001F44  A0D8               	btfss	status,0,c
  1302   001F46  EFA7  F00F         	goto	u4791
  1303   001F4A  EFA9  F00F         	goto	u4790
  1304   001F4E                     u4791:
  1305   001F4E  EFAD  F00F         	goto	l3059
  1306   001F52                     u4790:
  1307   001F52                     
  1308                           ; BSR set to: 0
  1309                           ;main.c: 605:                 status_intermitency_counter = 0;
  1310   001F52  0E00               	movlw	0
  1311   001F54  6E23               	movwf	(_status_intermitency_counter+1)^0,c
  1312   001F56  0E00               	movlw	0
  1313   001F58  6E22               	movwf	_status_intermitency_counter^0,c
  1314   001F5A                     l3059:
  1315                           
  1316                           ; BSR set to: 0
  1317                           ;main.c: 609:             if (status_value > 1000){
  1318   001F5A  BE27               	btfsc	(_status_value+1)^0,7,c
  1319   001F5C  EFB9  F00F         	goto	u4801
  1320   001F60  0EE9               	movlw	233
  1321   001F62  5C26               	subwf	_status_value^0,w,c
  1322   001F64  0E03               	movlw	3
  1323   001F66  5827               	subwfb	(_status_value+1)^0,w,c
  1324   001F68  A0D8               	btfss	status,0,c
  1325   001F6A  EFB9  F00F         	goto	u4801
  1326   001F6E  EFBB  F00F         	goto	u4800
  1327   001F72                     u4801:
  1328   001F72  EFBF  F00F         	goto	l3063
  1329   001F76                     u4800:
  1330   001F76                     
  1331                           ; BSR set to: 0
  1332                           ;main.c: 610:                 status_value = 1000;
  1333   001F76  0E03               	movlw	3
  1334   001F78  6E27               	movwf	(_status_value+1)^0,c
  1335   001F7A  0EE8               	movlw	232
  1336   001F7C  6E26               	movwf	_status_value^0,c
  1337   001F7E                     l3063:
  1338                           
  1339                           ; BSR set to: 0
  1340                           ;main.c: 612:             if (status_value < 0){
  1341   001F7E  BE27               	btfsc	(_status_value+1)^0,7,c
  1342   001F80  EFC6  F00F         	goto	u4810
  1343   001F84  EFC4  F00F         	goto	u4811
  1344   001F88                     u4811:
  1345   001F88  EFCA  F00F         	goto	l3067
  1346   001F8C                     u4810:
  1347   001F8C                     
  1348                           ; BSR set to: 0
  1349                           ;main.c: 613:                 status_value = 0;
  1350   001F8C  0E00               	movlw	0
  1351   001F8E  6E27               	movwf	(_status_value+1)^0,c
  1352   001F90  0E00               	movlw	0
  1353   001F92  6E26               	movwf	_status_value^0,c
  1354   001F94                     l3067:
  1355                           
  1356                           ; BSR set to: 0
  1357                           ;main.c: 615:             status_persisted = status_value;
  1358   001F94  C026  F024         	movff	_status_value,_status_persisted
  1359   001F98  C027  F025         	movff	_status_value+1,_status_persisted+1
  1360   001F9C                     l3069:
  1361                           
  1362                           ; BSR set to: 0
  1363                           ;main.c: 620:         int half_status;;main.c: 621:         half_status = (int) (status_
      +                          persisted % 200) * 10 / 200 ;
  1364   001F9C  0E00               	movlw	0
  1365   001F9E  6E34               	movwf	(___awmod@divisor+1)^0,c
  1366   001FA0  0EC8               	movlw	200
  1367   001FA2  6E33               	movwf	___awmod@divisor^0,c
  1368   001FA4  C024  F031         	movff	_status_persisted,___awmod@dividend
  1369   001FA8  C025  F032         	movff	_status_persisted+1,___awmod@dividend+1
  1370   001FAC  ECFC  F01D         	call	___awmod	;wreg free
  1371   001FB0  0E0A               	movlw	10
  1372   001FB2  0231               	mulwf	?___awmod^0,c
  1373   001FB4  CFF3 F03F          	movff	prodl,??_status_loop
  1374   001FB8  CFF4 F040          	movff	prodh,??_status_loop+1
  1375   001FBC  0232               	mulwf	(?___awmod+1)^0,c
  1376   001FBE  50F3               	movf	prodl,w,c
  1377   001FC0  2640               	addwf	(??_status_loop+1)^0,f,c
  1378   001FC2  C03F  F037         	movff	??_status_loop,___awdiv@dividend
  1379   001FC6  C040  F038         	movff	??_status_loop+1,___awdiv@dividend+1
  1380   001FCA  0E00               	movlw	0
  1381   001FCC  6E3A               	movwf	(___awdiv@divisor+1)^0,c
  1382   001FCE  0EC8               	movlw	200
  1383   001FD0  6E39               	movwf	___awdiv@divisor^0,c
  1384   001FD2  EC43  F01D         	call	___awdiv	;wreg free
  1385   001FD6  C037  F048         	movff	?___awdiv,status_loop@half_status
  1386   001FDA  C038  F049         	movff	?___awdiv+1,status_loop@half_status+1
  1387   001FDE                     
  1388                           ;main.c: 623:         if (counter[2] < half_status){
  1389   001FDE  C048  F03F         	movff	status_loop@half_status,??_status_loop
  1390   001FE2  C049  F040         	movff	status_loop@half_status+1,??_status_loop+1
  1391   001FE6  0E00               	movlw	0
  1392   001FE8  BE40               	btfsc	(??_status_loop+1)^0,7,c
  1393   001FEA  0EFF               	movlw	255
  1394   001FEC  6E41               	movwf	(??_status_loop+2)^0,c
  1395   001FEE  6E42               	movwf	(??_status_loop+3)^0,c
  1396   001FF0  6E43               	movwf	(??_status_loop+4)^0,c
  1397   001FF2  6E44               	movwf	(??_status_loop+5)^0,c
  1398   001FF4  6E45               	movwf	(??_status_loop+6)^0,c
  1399   001FF6  6E46               	movwf	(??_status_loop+7)^0,c
  1400   001FF8  503F               	movf	??_status_loop^0,w,c
  1401   001FFA  0100               	movlb	0	; () banked
  1402   001FFC  5D98               	subwf	(_counter+16)& (0+255),w,b
  1403   001FFE  5040               	movf	(??_status_loop+1)^0,w,c
  1404   002000  5999               	subwfb	(_counter+17)& (0+255),w,b
  1405   002002  5041               	movf	(??_status_loop+2)^0,w,c
  1406   002004  599A               	subwfb	(_counter+18)& (0+255),w,b
  1407   002006  5042               	movf	(??_status_loop+3)^0,w,c
  1408   002008  599B               	subwfb	(_counter+19)& (0+255),w,b
  1409   00200A  5043               	movf	(??_status_loop+4)^0,w,c
  1410   00200C  599C               	subwfb	(_counter+20)& (0+255),w,b
  1411   00200E  5044               	movf	(??_status_loop+5)^0,w,c
  1412   002010  599D               	subwfb	(_counter+21)& (0+255),w,b
  1413   002012  5045               	movf	(??_status_loop+6)^0,w,c
  1414   002014  599E               	subwfb	(_counter+22)& (0+255),w,b
  1415   002016  519F               	movf	(_counter+23)& (0+255),w,b
  1416   002018  0A80               	xorlw	128
  1417   00201A  6E47               	movwf	(??_status_loop+8)^0,c
  1418   00201C  5046               	movf	(??_status_loop+7)^0,w,c
  1419   00201E  0A80               	xorlw	128
  1420   002020  5847               	subwfb	(??_status_loop+8)^0,w,c
  1421   002022  B0D8               	btfsc	status,0,c
  1422   002024  EF16  F010         	goto	u4821
  1423   002028  EF18  F010         	goto	u4820
  1424   00202C                     u4821:
  1425   00202C  EF1C  F010         	goto	l304
  1426   002030                     u4820:
  1427   002030                     
  1428                           ; BSR set to: 0
  1429                           ;main.c: 624:             int_status = 1;
  1430   002030  0E01               	movlw	1
  1431   002032  6E29               	movwf	_int_status^0,c
  1432                           
  1433                           ;main.c: 625:         }else{
  1434   002034  EF1D  F010         	goto	l3075
  1435   002038                     l304:
  1436                           
  1437                           ; BSR set to: 0
  1438                           ;main.c: 626:             int_status = 0;
  1439   002038  6A29               	clrf	_int_status^0,c
  1440   00203A                     l3075:
  1441                           
  1442                           ; BSR set to: 0
  1443                           ;main.c: 630:         int half_led;;main.c: 631:         half_led = (int) (status_persis
      +                          ted / 200);
  1444   00203A  C024  F037         	movff	_status_persisted,___awdiv@dividend
  1445   00203E  C025  F038         	movff	_status_persisted+1,___awdiv@dividend+1
  1446   002042  0E00               	movlw	0
  1447   002044  6E3A               	movwf	(___awdiv@divisor+1)^0,c
  1448   002046  0EC8               	movlw	200
  1449   002048  6E39               	movwf	___awdiv@divisor^0,c
  1450   00204A  EC43  F01D         	call	___awdiv	;wreg free
  1451   00204E  C037  F04C         	movff	?___awdiv,status_loop@half_led
  1452   002052  C038  F04D         	movff	?___awdiv+1,status_loop@half_led+1
  1453   002056                     
  1454                           ;main.c: 633:         int i;;main.c: 634:         for (i = 0;i < 5;i++){
  1455   002056  0E00               	movlw	0
  1456   002058  6E4F               	movwf	(status_loop@i+1)^0,c
  1457   00205A  0E00               	movlw	0
  1458   00205C  6E4E               	movwf	status_loop@i^0,c
  1459   00205E                     l3083:
  1460                           
  1461                           ;main.c: 635:             if (i < half_led){
  1462   00205E  504C               	movf	status_loop@half_led^0,w,c
  1463   002060  5C4E               	subwf	status_loop@i^0,w,c
  1464   002062  504F               	movf	(status_loop@i+1)^0,w,c
  1465   002064  0A80               	xorlw	128
  1466   002066  6E3F               	movwf	??_status_loop^0,c
  1467   002068  504D               	movf	(status_loop@half_led+1)^0,w,c
  1468   00206A  0A80               	xorlw	128
  1469   00206C  583F               	subwfb	??_status_loop^0,w,c
  1470   00206E  B0D8               	btfsc	status,0,c
  1471   002070  EF3C  F010         	goto	u4831
  1472   002074  EF3E  F010         	goto	u4830
  1473   002078                     u4831:
  1474   002078  EF46  F010         	goto	l3087
  1475   00207C                     u4830:
  1476   00207C                     
  1477                           ;main.c: 636:                 leds[i] = 1;
  1478   00207C  504E               	movf	status_loop@i^0,w,c
  1479   00207E  0F01               	addlw	low _leds
  1480   002080  6ED9               	movwf	fsr2l,c
  1481   002082  6ADA               	clrf	fsr2h,c
  1482   002084  0E01               	movlw	1
  1483   002086  6EDF               	movwf	indf2,c
  1484                           
  1485                           ;main.c: 637:             }else if (i == half_led){
  1486   002088  EF5F  F010         	goto	l3093
  1487   00208C                     l3087:
  1488   00208C  504C               	movf	status_loop@half_led^0,w,c
  1489   00208E  184E               	xorwf	status_loop@i^0,w,c
  1490   002090  E107               	bnz	u4841
  1491   002092  504D               	movf	(status_loop@half_led+1)^0,w,c
  1492   002094  184F               	xorwf	(status_loop@i+1)^0,w,c
  1493   002096  A4D8               	btfss	status,2,c
  1494   002098  EF50  F010         	goto	u4841
  1495   00209C  EF52  F010         	goto	u4840
  1496   0020A0                     u4841:
  1497   0020A0  EF5A  F010         	goto	l3091
  1498   0020A4                     u4840:
  1499   0020A4                     
  1500                           ;main.c: 638:                 leds[i] = int_status;
  1501   0020A4  504E               	movf	status_loop@i^0,w,c
  1502   0020A6  0F01               	addlw	low _leds
  1503   0020A8  6ED9               	movwf	fsr2l,c
  1504   0020AA  6ADA               	clrf	fsr2h,c
  1505   0020AC  C029  FFDF         	movff	_int_status,indf2
  1506                           
  1507                           ;main.c: 639:             }else{
  1508   0020B0  EF5F  F010         	goto	l3093
  1509   0020B4                     l3091:
  1510                           
  1511                           ;main.c: 640:                 leds[i] = 0;
  1512   0020B4  504E               	movf	status_loop@i^0,w,c
  1513   0020B6  0F01               	addlw	low _leds
  1514   0020B8  6ED9               	movwf	fsr2l,c
  1515   0020BA  6ADA               	clrf	fsr2h,c
  1516   0020BC  6ADF               	clrf	indf2,c
  1517   0020BE                     l3093:
  1518                           
  1519                           ;main.c: 642:         }
  1520   0020BE  4A4E               	infsnz	status_loop@i^0,f,c
  1521   0020C0  2A4F               	incf	(status_loop@i+1)^0,f,c
  1522   0020C2  BE4F               	btfsc	(status_loop@i+1)^0,7,c
  1523   0020C4  EF6D  F010         	goto	u4851
  1524   0020C8  504F               	movf	(status_loop@i+1)^0,w,c
  1525   0020CA  E109               	bnz	u4850
  1526   0020CC  0E05               	movlw	5
  1527   0020CE  5C4E               	subwf	status_loop@i^0,w,c
  1528   0020D0  A0D8               	btfss	status,0,c
  1529   0020D2  EF6D  F010         	goto	u4851
  1530   0020D6  EF6F  F010         	goto	u4850
  1531   0020DA                     u4851:
  1532   0020DA  EF2F  F010         	goto	l3083
  1533   0020DE                     u4850:
  1534   0020DE                     
  1535                           ;main.c: 645:         if (status_mode == 1){
  1536   0020DE  0428               	decf	_status_mode^0,w,c
  1537   0020E0  A4D8               	btfss	status,2,c
  1538   0020E2  EF75  F010         	goto	u4861
  1539   0020E6  EF77  F010         	goto	u4860
  1540   0020EA                     u4861:
  1541   0020EA  EF92  F010         	goto	l3101
  1542   0020EE                     u4860:
  1543   0020EE                     
  1544                           ;main.c: 646:             PORTBbits.RB0 = leds[0];
  1545   0020EE  B001               	btfsc	_leds^0,0,c
  1546   0020F0  D002               	bra	u4875
  1547   0020F2  9081               	bcf	129,0,c	;volatile
  1548   0020F4  D001               	bra	u4876
  1549   0020F6                     u4875:
  1550   0020F6  8081               	bsf	129,0,c	;volatile
  1551   0020F8                     u4876:
  1552                           
  1553                           ;main.c: 647:             PORTBbits.RB1 = leds[1];
  1554   0020F8  B002               	btfsc	(_leds+1)^0,0,c
  1555   0020FA  D002               	bra	u4885
  1556   0020FC  9281               	bcf	129,1,c	;volatile
  1557   0020FE  D001               	bra	u4886
  1558   002100                     u4885:
  1559   002100  8281               	bsf	129,1,c	;volatile
  1560   002102                     u4886:
  1561                           
  1562                           ;main.c: 648:             PORTBbits.RB2 = leds[2];
  1563   002102  B003               	btfsc	(_leds+2)^0,0,c
  1564   002104  D002               	bra	u4895
  1565   002106  9481               	bcf	129,2,c	;volatile
  1566   002108  D001               	bra	u4896
  1567   00210A                     u4895:
  1568   00210A  8481               	bsf	129,2,c	;volatile
  1569   00210C                     u4896:
  1570                           
  1571                           ;main.c: 649:             PORTBbits.RB4 = leds[3];
  1572   00210C  B004               	btfsc	(_leds+3)^0,0,c
  1573   00210E  D002               	bra	u4905
  1574   002110  9881               	bcf	129,4,c	;volatile
  1575   002112  D001               	bra	u4906
  1576   002114                     u4905:
  1577   002114  8881               	bsf	129,4,c	;volatile
  1578   002116                     u4906:
  1579                           
  1580                           ;main.c: 650:             PORTBbits.RB5 = leds[4];
  1581   002116  B005               	btfsc	(_leds+4)^0,0,c
  1582   002118  D002               	bra	u4915
  1583   00211A  9A81               	bcf	129,5,c	;volatile
  1584   00211C  D001               	bra	u4916
  1585   00211E                     u4915:
  1586   00211E  8A81               	bsf	129,5,c	;volatile
  1587   002120                     u4916:
  1588                           
  1589                           ;main.c: 651:         }else if(status_mode == 2){
  1590   002120  EF15  F015         	goto	l351
  1591   002124                     l3101:
  1592   002124  0E02               	movlw	2
  1593   002126  1828               	xorwf	_status_mode^0,w,c
  1594   002128  A4D8               	btfss	status,2,c
  1595   00212A  EF99  F010         	goto	u4921
  1596   00212E  EF9B  F010         	goto	u4920
  1597   002132                     u4921:
  1598   002132  EF15  F015         	goto	l351
  1599   002136                     u4920:
  1600   002136                     
  1601                           ;main.c: 652:             if (status_intermitency_counter >= 2){
  1602   002136  BE23               	btfsc	(_status_intermitency_counter+1)^0,7,c
  1603   002138  EFA7  F010         	goto	u4931
  1604   00213C  5023               	movf	(_status_intermitency_counter+1)^0,w,c
  1605   00213E  E109               	bnz	u4930
  1606   002140  0E02               	movlw	2
  1607   002142  5C22               	subwf	_status_intermitency_counter^0,w,c
  1608   002144  A0D8               	btfss	status,0,c
  1609   002146  EFA7  F010         	goto	u4931
  1610   00214A  EFA9  F010         	goto	u4930
  1611   00214E                     u4931:
  1612   00214E  EFC4  F010         	goto	l315
  1613   002152                     u4930:
  1614   002152                     
  1615                           ;main.c: 653:                 PORTBbits.RB0 = leds[0];
  1616   002152  B001               	btfsc	_leds^0,0,c
  1617   002154  D002               	bra	u4945
  1618   002156  9081               	bcf	129,0,c	;volatile
  1619   002158  D001               	bra	u4946
  1620   00215A                     u4945:
  1621   00215A  8081               	bsf	129,0,c	;volatile
  1622   00215C                     u4946:
  1623                           
  1624                           ;main.c: 654:                 PORTBbits.RB1 = leds[1];
  1625   00215C  B002               	btfsc	(_leds+1)^0,0,c
  1626   00215E  D002               	bra	u4955
  1627   002160  9281               	bcf	129,1,c	;volatile
  1628   002162  D001               	bra	u4956
  1629   002164                     u4955:
  1630   002164  8281               	bsf	129,1,c	;volatile
  1631   002166                     u4956:
  1632                           
  1633                           ;main.c: 655:                 PORTBbits.RB2 = leds[2];
  1634   002166  B003               	btfsc	(_leds+2)^0,0,c
  1635   002168  D002               	bra	u4965
  1636   00216A  9481               	bcf	129,2,c	;volatile
  1637   00216C  D001               	bra	u4966
  1638   00216E                     u4965:
  1639   00216E  8481               	bsf	129,2,c	;volatile
  1640   002170                     u4966:
  1641                           
  1642                           ;main.c: 656:                 PORTBbits.RB4 = leds[3];
  1643   002170  B004               	btfsc	(_leds+3)^0,0,c
  1644   002172  D002               	bra	u4975
  1645   002174  9881               	bcf	129,4,c	;volatile
  1646   002176  D001               	bra	u4976
  1647   002178                     u4975:
  1648   002178  8881               	bsf	129,4,c	;volatile
  1649   00217A                     u4976:
  1650                           
  1651                           ;main.c: 657:                 PORTBbits.RB5 = leds[4];
  1652   00217A  B005               	btfsc	(_leds+4)^0,0,c
  1653   00217C  D002               	bra	u4985
  1654   00217E  9A81               	bcf	129,5,c	;volatile
  1655   002180  D001               	bra	u4986
  1656   002182                     u4985:
  1657   002182  8A81               	bsf	129,5,c	;volatile
  1658   002184                     u4986:
  1659                           
  1660                           ;main.c: 658:             }else{
  1661   002184  EF15  F015         	goto	l351
  1662   002188                     l315:
  1663                           
  1664                           ;main.c: 659:                 PORTBbits.RB0 = 0;
  1665   002188  9081               	bcf	129,0,c	;volatile
  1666                           
  1667                           ;main.c: 660:                 PORTBbits.RB1 = 0;
  1668   00218A  9281               	bcf	129,1,c	;volatile
  1669                           
  1670                           ;main.c: 661:                 PORTBbits.RB2 = 0;
  1671   00218C  9481               	bcf	129,2,c	;volatile
  1672                           
  1673                           ;main.c: 662:                 PORTBbits.RB4 = 0;
  1674   00218E  9881               	bcf	129,4,c	;volatile
  1675                           
  1676                           ;main.c: 663:                 PORTBbits.RB5 = 0;
  1677   002190  9A81               	bcf	129,5,c	;volatile
  1678   002192  EF15  F015         	goto	l351
  1679   002196                     l3107:
  1680   002196  0E07               	movlw	7
  1681   002198  1828               	xorwf	_status_mode^0,w,c
  1682   00219A  B4D8               	btfsc	status,2,c
  1683   00219C  EFD2  F010         	goto	u4991
  1684   0021A0  EFD4  F010         	goto	u4990
  1685   0021A4                     u4991:
  1686   0021A4  EFDD  F010         	goto	l3111
  1687   0021A8                     u4990:
  1688   0021A8  0E08               	movlw	8
  1689   0021AA  1828               	xorwf	_status_mode^0,w,c
  1690   0021AC  A4D8               	btfss	status,2,c
  1691   0021AE  EFDB  F010         	goto	u5001
  1692   0021B2  EFDD  F010         	goto	u5000
  1693   0021B6                     u5001:
  1694   0021B6  EFFC  F011         	goto	l3151
  1695   0021BA                     u5000:
  1696   0021BA                     l3111:
  1697                           
  1698                           ;main.c: 669:         if (counter[2] >= 10){
  1699   0021BA  0100               	movlb	0	; () banked
  1700   0021BC  BF9F               	btfsc	(_counter+23)& (0+255),7,b
  1701   0021BE  EFF0  F010         	goto	u5011
  1702   0021C2  519F               	movf	(_counter+23)& (0+255),w,b
  1703   0021C4  119E               	iorwf	(_counter+22)& (0+255),w,b
  1704   0021C6  119D               	iorwf	(_counter+21)& (0+255),w,b
  1705   0021C8  119C               	iorwf	(_counter+20)& (0+255),w,b
  1706   0021CA  119B               	iorwf	(_counter+19)& (0+255),w,b
  1707   0021CC  119A               	iorwf	(_counter+18)& (0+255),w,b
  1708   0021CE  1199               	iorwf	(_counter+17)& (0+255),w,b
  1709   0021D0  E109               	bnz	u5010
  1710   0021D2  0E0A               	movlw	10
  1711   0021D4  5D98               	subwf	(_counter+16)& (0+255),w,b
  1712   0021D6  A0D8               	btfss	status,0,c
  1713   0021D8  EFF0  F010         	goto	u5011
  1714   0021DC  EFF2  F010         	goto	u5010
  1715   0021E0                     u5011:
  1716   0021E0  EF2D  F011         	goto	l3131
  1717   0021E4                     u5010:
  1718   0021E4                     
  1719                           ; BSR set to: 0
  1720                           ;main.c: 670:             counter[2] = 0;
  1721   0021E4  EE20  F098         	lfsr	2,_counter+16
  1722   0021E8  0E07               	movlw	7
  1723   0021EA                     u5021:
  1724   0021EA  6ADE               	clrf	postinc2,c
  1725   0021EC  06E8               	decf	wreg,f,c
  1726   0021EE  E2FD               	bc	u5021
  1727   0021F0                     
  1728                           ; BSR set to: 0
  1729                           ;main.c: 671:             status_intermitency_counter ++;
  1730   0021F0  4A22               	infsnz	_status_intermitency_counter^0,f,c
  1731   0021F2  2A23               	incf	(_status_intermitency_counter+1)^0,f,c
  1732   0021F4                     
  1733                           ; BSR set to: 0
  1734                           ;main.c: 672:             if (status_intermitency_counter >= 10){
  1735   0021F4  BE23               	btfsc	(_status_intermitency_counter+1)^0,7,c
  1736   0021F6  EF06  F011         	goto	u5031
  1737   0021FA  5023               	movf	(_status_intermitency_counter+1)^0,w,c
  1738   0021FC  E109               	bnz	u5030
  1739   0021FE  0E0A               	movlw	10
  1740   002200  5C22               	subwf	_status_intermitency_counter^0,w,c
  1741   002202  A0D8               	btfss	status,0,c
  1742   002204  EF06  F011         	goto	u5031
  1743   002208  EF08  F011         	goto	u5030
  1744   00220C                     u5031:
  1745   00220C  EF0C  F011         	goto	l3121
  1746   002210                     u5030:
  1747   002210                     
  1748                           ; BSR set to: 0
  1749                           ;main.c: 673:                 status_intermitency_counter = 0;
  1750   002210  0E00               	movlw	0
  1751   002212  6E23               	movwf	(_status_intermitency_counter+1)^0,c
  1752   002214  0E00               	movlw	0
  1753   002216  6E22               	movwf	_status_intermitency_counter^0,c
  1754   002218                     l3121:
  1755                           
  1756                           ; BSR set to: 0
  1757                           ;main.c: 677:             if (status_value >= 32){
  1758   002218  BE27               	btfsc	(_status_value+1)^0,7,c
  1759   00221A  EF18  F011         	goto	u5041
  1760   00221E  5027               	movf	(_status_value+1)^0,w,c
  1761   002220  E109               	bnz	u5040
  1762   002222  0E20               	movlw	32
  1763   002224  5C26               	subwf	_status_value^0,w,c
  1764   002226  A0D8               	btfss	status,0,c
  1765   002228  EF18  F011         	goto	u5041
  1766   00222C  EF1A  F011         	goto	u5040
  1767   002230                     u5041:
  1768   002230  EF1E  F011         	goto	l3125
  1769   002234                     u5040:
  1770   002234                     
  1771                           ; BSR set to: 0
  1772                           ;main.c: 678:                 status_value = 31;
  1773   002234  0E00               	movlw	0
  1774   002236  6E27               	movwf	(_status_value+1)^0,c
  1775   002238  0E1F               	movlw	31
  1776   00223A  6E26               	movwf	_status_value^0,c
  1777   00223C                     l3125:
  1778                           
  1779                           ; BSR set to: 0
  1780                           ;main.c: 680:             if (status_value < 0){
  1781   00223C  BE27               	btfsc	(_status_value+1)^0,7,c
  1782   00223E  EF25  F011         	goto	u5050
  1783   002242  EF23  F011         	goto	u5051
  1784   002246                     u5051:
  1785   002246  EF29  F011         	goto	l3129
  1786   00224A                     u5050:
  1787   00224A                     
  1788                           ; BSR set to: 0
  1789                           ;main.c: 681:                 status_value = 0;
  1790   00224A  0E00               	movlw	0
  1791   00224C  6E27               	movwf	(_status_value+1)^0,c
  1792   00224E  0E00               	movlw	0
  1793   002250  6E26               	movwf	_status_value^0,c
  1794   002252                     l3129:
  1795                           
  1796                           ; BSR set to: 0
  1797                           ;main.c: 683:             status_persisted = status_value;
  1798   002252  C026  F024         	movff	_status_value,_status_persisted
  1799   002256  C027  F025         	movff	_status_value+1,_status_persisted+1
  1800   00225A                     l3131:
  1801                           
  1802                           ; BSR set to: 0
  1803                           ;main.c: 687:         leds[0] = (status_persisted % 32 >= 16);
  1804   00225A  0E1F               	movlw	31
  1805   00225C  1424               	andwf	_status_persisted^0,w,c
  1806   00225E  6E3F               	movwf	??_status_loop^0,c
  1807   002260  0E00               	movlw	0
  1808   002262  1425               	andwf	(_status_persisted+1)^0,w,c
  1809   002264  6E40               	movwf	(??_status_loop+1)^0,c
  1810   002266  BE40               	btfsc	(??_status_loop+1)^0,7,c
  1811   002268  EF42  F011         	goto	u5060
  1812   00226C  5040               	movf	(??_status_loop+1)^0,w,c
  1813   00226E  E107               	bnz	u5061
  1814   002270  0E10               	movlw	16
  1815   002272  5C3F               	subwf	??_status_loop^0,w,c
  1816   002274  B0D8               	btfsc	status,0,c
  1817   002276  EF3F  F011         	goto	u5061
  1818   00227A  EF42  F011         	goto	u5060
  1819   00227E                     u5061:
  1820   00227E  0E01               	movlw	1
  1821   002280  EF43  F011         	goto	u5070
  1822   002284                     u5060:
  1823   002284  0E00               	movlw	0
  1824   002286                     u5070:
  1825   002286  6E01               	movwf	_leds^0,c
  1826   002288                     
  1827                           ; BSR set to: 0
  1828                           ;main.c: 688:         leds[1] = (status_persisted % 16 >= 8);
  1829   002288  0E0F               	movlw	15
  1830   00228A  1424               	andwf	_status_persisted^0,w,c
  1831   00228C  6E3F               	movwf	??_status_loop^0,c
  1832   00228E  0E00               	movlw	0
  1833   002290  1425               	andwf	(_status_persisted+1)^0,w,c
  1834   002292  6E40               	movwf	(??_status_loop+1)^0,c
  1835   002294  BE40               	btfsc	(??_status_loop+1)^0,7,c
  1836   002296  EF59  F011         	goto	u5080
  1837   00229A  5040               	movf	(??_status_loop+1)^0,w,c
  1838   00229C  E107               	bnz	u5081
  1839   00229E  0E08               	movlw	8
  1840   0022A0  5C3F               	subwf	??_status_loop^0,w,c
  1841   0022A2  B0D8               	btfsc	status,0,c
  1842   0022A4  EF56  F011         	goto	u5081
  1843   0022A8  EF59  F011         	goto	u5080
  1844   0022AC                     u5081:
  1845   0022AC  0E01               	movlw	1
  1846   0022AE  EF5A  F011         	goto	u5090
  1847   0022B2                     u5080:
  1848   0022B2  0E00               	movlw	0
  1849   0022B4                     u5090:
  1850   0022B4  6E02               	movwf	(_leds+1)^0,c
  1851   0022B6                     
  1852                           ; BSR set to: 0
  1853                           ;main.c: 689:         leds[2] = (status_persisted % 8 >= 4);
  1854   0022B6  0E07               	movlw	7
  1855   0022B8  1424               	andwf	_status_persisted^0,w,c
  1856   0022BA  6E3F               	movwf	??_status_loop^0,c
  1857   0022BC  0E00               	movlw	0
  1858   0022BE  1425               	andwf	(_status_persisted+1)^0,w,c
  1859   0022C0  6E40               	movwf	(??_status_loop+1)^0,c
  1860   0022C2  BE40               	btfsc	(??_status_loop+1)^0,7,c
  1861   0022C4  EF70  F011         	goto	u5100
  1862   0022C8  5040               	movf	(??_status_loop+1)^0,w,c
  1863   0022CA  E107               	bnz	u5101
  1864   0022CC  0E04               	movlw	4
  1865   0022CE  5C3F               	subwf	??_status_loop^0,w,c
  1866   0022D0  B0D8               	btfsc	status,0,c
  1867   0022D2  EF6D  F011         	goto	u5101
  1868   0022D6  EF70  F011         	goto	u5100
  1869   0022DA                     u5101:
  1870   0022DA  0E01               	movlw	1
  1871   0022DC  EF71  F011         	goto	u5110
  1872   0022E0                     u5100:
  1873   0022E0  0E00               	movlw	0
  1874   0022E2                     u5110:
  1875   0022E2  6E03               	movwf	(_leds+2)^0,c
  1876   0022E4                     
  1877                           ; BSR set to: 0
  1878                           ;main.c: 690:         leds[3] = (status_persisted % 4 >= 2);
  1879   0022E4  0E03               	movlw	3
  1880   0022E6  1424               	andwf	_status_persisted^0,w,c
  1881   0022E8  6E3F               	movwf	??_status_loop^0,c
  1882   0022EA  0E00               	movlw	0
  1883   0022EC  1425               	andwf	(_status_persisted+1)^0,w,c
  1884   0022EE  6E40               	movwf	(??_status_loop+1)^0,c
  1885   0022F0  BE40               	btfsc	(??_status_loop+1)^0,7,c
  1886   0022F2  EF87  F011         	goto	u5120
  1887   0022F6  5040               	movf	(??_status_loop+1)^0,w,c
  1888   0022F8  E107               	bnz	u5121
  1889   0022FA  0E02               	movlw	2
  1890   0022FC  5C3F               	subwf	??_status_loop^0,w,c
  1891   0022FE  B0D8               	btfsc	status,0,c
  1892   002300  EF84  F011         	goto	u5121
  1893   002304  EF87  F011         	goto	u5120
  1894   002308                     u5121:
  1895   002308  0E01               	movlw	1
  1896   00230A  EF88  F011         	goto	u5130
  1897   00230E                     u5120:
  1898   00230E  0E00               	movlw	0
  1899   002310                     u5130:
  1900   002310  6E04               	movwf	(_leds+3)^0,c
  1901   002312                     
  1902                           ; BSR set to: 0
  1903                           ;main.c: 691:         leds[4] = (status_persisted % 2 >= 1);
  1904   002312  0E01               	movlw	1
  1905   002314  1424               	andwf	_status_persisted^0,w,c
  1906   002316  6E3F               	movwf	??_status_loop^0,c
  1907   002318  0E00               	movlw	0
  1908   00231A  1425               	andwf	(_status_persisted+1)^0,w,c
  1909   00231C  6E40               	movwf	(??_status_loop+1)^0,c
  1910   00231E  BE40               	btfsc	(??_status_loop+1)^0,7,c
  1911   002320  EF9D  F011         	goto	u5140
  1912   002324  5040               	movf	(??_status_loop+1)^0,w,c
  1913   002326  E106               	bnz	u5141
  1914   002328  043F               	decf	??_status_loop^0,w,c
  1915   00232A  B0D8               	btfsc	status,0,c
  1916   00232C  EF9A  F011         	goto	u5141
  1917   002330  EF9D  F011         	goto	u5140
  1918   002334                     u5141:
  1919   002334  0E01               	movlw	1
  1920   002336  EF9E  F011         	goto	u5150
  1921   00233A                     u5140:
  1922   00233A  0E00               	movlw	0
  1923   00233C                     u5150:
  1924   00233C  6E05               	movwf	(_leds+4)^0,c
  1925   00233E                     
  1926                           ; BSR set to: 0
  1927                           ;main.c: 694:         if (status_mode == 7){
  1928   00233E  0E07               	movlw	7
  1929   002340  1828               	xorwf	_status_mode^0,w,c
  1930   002342  A4D8               	btfss	status,2,c
  1931   002344  EFA6  F011         	goto	u5161
  1932   002348  EFA8  F011         	goto	u5160
  1933   00234C                     u5161:
  1934   00234C  EFC3  F011         	goto	l3145
  1935   002350                     u5160:
  1936   002350                     
  1937                           ; BSR set to: 0
  1938                           ;main.c: 695:             PORTBbits.RB0 = leds[0];
  1939   002350  B001               	btfsc	_leds^0,0,c
  1940   002352  D002               	bra	u5175
  1941   002354  9081               	bcf	129,0,c	;volatile
  1942   002356  D001               	bra	u5176
  1943   002358                     u5175:
  1944   002358  8081               	bsf	129,0,c	;volatile
  1945   00235A                     u5176:
  1946                           
  1947                           ;main.c: 696:             PORTBbits.RB1 = leds[1];
  1948   00235A  B002               	btfsc	(_leds+1)^0,0,c
  1949   00235C  D002               	bra	u5185
  1950   00235E  9281               	bcf	129,1,c	;volatile
  1951   002360  D001               	bra	u5186
  1952   002362                     u5185:
  1953   002362  8281               	bsf	129,1,c	;volatile
  1954   002364                     u5186:
  1955                           
  1956                           ;main.c: 697:             PORTBbits.RB2 = leds[2];
  1957   002364  B003               	btfsc	(_leds+2)^0,0,c
  1958   002366  D002               	bra	u5195
  1959   002368  9481               	bcf	129,2,c	;volatile
  1960   00236A  D001               	bra	u5196
  1961   00236C                     u5195:
  1962   00236C  8481               	bsf	129,2,c	;volatile
  1963   00236E                     u5196:
  1964                           
  1965                           ;main.c: 698:             PORTBbits.RB4 = leds[3];
  1966   00236E  B004               	btfsc	(_leds+3)^0,0,c
  1967   002370  D002               	bra	u5205
  1968   002372  9881               	bcf	129,4,c	;volatile
  1969   002374  D001               	bra	u5206
  1970   002376                     u5205:
  1971   002376  8881               	bsf	129,4,c	;volatile
  1972   002378                     u5206:
  1973                           
  1974                           ;main.c: 699:             PORTBbits.RB5 = leds[4];
  1975   002378  B005               	btfsc	(_leds+4)^0,0,c
  1976   00237A  D002               	bra	u5215
  1977   00237C  9A81               	bcf	129,5,c	;volatile
  1978   00237E  D001               	bra	u5216
  1979   002380                     u5215:
  1980   002380  8A81               	bsf	129,5,c	;volatile
  1981   002382                     u5216:
  1982                           
  1983                           ;main.c: 700:         }else if(status_mode == 8){
  1984   002382  EF15  F015         	goto	l351
  1985   002386                     l3145:
  1986                           
  1987                           ; BSR set to: 0
  1988   002386  0E08               	movlw	8
  1989   002388  1828               	xorwf	_status_mode^0,w,c
  1990   00238A  A4D8               	btfss	status,2,c
  1991   00238C  EFCA  F011         	goto	u5221
  1992   002390  EFCC  F011         	goto	u5220
  1993   002394                     u5221:
  1994   002394  EF15  F015         	goto	l351
  1995   002398                     u5220:
  1996   002398                     
  1997                           ; BSR set to: 0
  1998                           ;main.c: 701:             if (status_intermitency_counter >= 2){
  1999   002398  BE23               	btfsc	(_status_intermitency_counter+1)^0,7,c
  2000   00239A  EFD8  F011         	goto	u5231
  2001   00239E  5023               	movf	(_status_intermitency_counter+1)^0,w,c
  2002   0023A0  E109               	bnz	u5230
  2003   0023A2  0E02               	movlw	2
  2004   0023A4  5C22               	subwf	_status_intermitency_counter^0,w,c
  2005   0023A6  A0D8               	btfss	status,0,c
  2006   0023A8  EFD8  F011         	goto	u5231
  2007   0023AC  EFDA  F011         	goto	u5230
  2008   0023B0                     u5231:
  2009   0023B0  EFF5  F011         	goto	l328
  2010   0023B4                     u5230:
  2011   0023B4                     
  2012                           ; BSR set to: 0
  2013                           ;main.c: 702:                 PORTBbits.RB0 = leds[0];
  2014   0023B4  B001               	btfsc	_leds^0,0,c
  2015   0023B6  D002               	bra	u5245
  2016   0023B8  9081               	bcf	129,0,c	;volatile
  2017   0023BA  D001               	bra	u5246
  2018   0023BC                     u5245:
  2019   0023BC  8081               	bsf	129,0,c	;volatile
  2020   0023BE                     u5246:
  2021                           
  2022                           ;main.c: 703:                 PORTBbits.RB1 = leds[1];
  2023   0023BE  B002               	btfsc	(_leds+1)^0,0,c
  2024   0023C0  D002               	bra	u5255
  2025   0023C2  9281               	bcf	129,1,c	;volatile
  2026   0023C4  D001               	bra	u5256
  2027   0023C6                     u5255:
  2028   0023C6  8281               	bsf	129,1,c	;volatile
  2029   0023C8                     u5256:
  2030                           
  2031                           ;main.c: 704:                 PORTBbits.RB2 = leds[2];
  2032   0023C8  B003               	btfsc	(_leds+2)^0,0,c
  2033   0023CA  D002               	bra	u5265
  2034   0023CC  9481               	bcf	129,2,c	;volatile
  2035   0023CE  D001               	bra	u5266
  2036   0023D0                     u5265:
  2037   0023D0  8481               	bsf	129,2,c	;volatile
  2038   0023D2                     u5266:
  2039                           
  2040                           ;main.c: 705:                 PORTBbits.RB4 = leds[3];
  2041   0023D2  B004               	btfsc	(_leds+3)^0,0,c
  2042   0023D4  D002               	bra	u5275
  2043   0023D6  9881               	bcf	129,4,c	;volatile
  2044   0023D8  D001               	bra	u5276
  2045   0023DA                     u5275:
  2046   0023DA  8881               	bsf	129,4,c	;volatile
  2047   0023DC                     u5276:
  2048                           
  2049                           ;main.c: 706:                 PORTBbits.RB5 = leds[4];
  2050   0023DC  B005               	btfsc	(_leds+4)^0,0,c
  2051   0023DE  D002               	bra	u5285
  2052   0023E0  9A81               	bcf	129,5,c	;volatile
  2053   0023E2  D001               	bra	u5286
  2054   0023E4                     u5285:
  2055   0023E4  8A81               	bsf	129,5,c	;volatile
  2056   0023E6                     u5286:
  2057                           
  2058                           ;main.c: 707:             }else{
  2059   0023E6  EF15  F015         	goto	l351
  2060   0023EA                     l328:
  2061                           
  2062                           ; BSR set to: 0
  2063                           ;main.c: 708:                 PORTBbits.RB0 = 0;
  2064   0023EA  9081               	bcf	129,0,c	;volatile
  2065                           
  2066                           ;main.c: 709:                 PORTBbits.RB1 = 0;
  2067   0023EC  9281               	bcf	129,1,c	;volatile
  2068                           
  2069                           ;main.c: 710:                 PORTBbits.RB2 = 0;
  2070   0023EE  9481               	bcf	129,2,c	;volatile
  2071                           
  2072                           ;main.c: 711:                 PORTBbits.RB4 = 0;
  2073   0023F0  9881               	bcf	129,4,c	;volatile
  2074                           
  2075                           ;main.c: 712:                 PORTBbits.RB5 = 0;
  2076   0023F2  9A81               	bcf	129,5,c	;volatile
  2077   0023F4  EF15  F015         	goto	l351
  2078   0023F8                     l3151:
  2079   0023F8  0E03               	movlw	3
  2080   0023FA  1828               	xorwf	_status_mode^0,w,c
  2081   0023FC  A4D8               	btfss	status,2,c
  2082   0023FE  EF03  F012         	goto	u5291
  2083   002402  EF05  F012         	goto	u5290
  2084   002406                     u5291:
  2085   002406  EFB8  F012         	goto	l3167
  2086   00240A                     u5290:
  2087   00240A                     
  2088                           ;main.c: 716:         if (counter[2] >= 20){
  2089   00240A  0100               	movlb	0	; () banked
  2090   00240C  BF9F               	btfsc	(_counter+23)& (0+255),7,b
  2091   00240E  EF18  F012         	goto	u5301
  2092   002412  519F               	movf	(_counter+23)& (0+255),w,b
  2093   002414  119E               	iorwf	(_counter+22)& (0+255),w,b
  2094   002416  119D               	iorwf	(_counter+21)& (0+255),w,b
  2095   002418  119C               	iorwf	(_counter+20)& (0+255),w,b
  2096   00241A  119B               	iorwf	(_counter+19)& (0+255),w,b
  2097   00241C  119A               	iorwf	(_counter+18)& (0+255),w,b
  2098   00241E  1199               	iorwf	(_counter+17)& (0+255),w,b
  2099   002420  E109               	bnz	u5300
  2100   002422  0E14               	movlw	20
  2101   002424  5D98               	subwf	(_counter+16)& (0+255),w,b
  2102   002426  A0D8               	btfss	status,0,c
  2103   002428  EF18  F012         	goto	u5301
  2104   00242C  EF1A  F012         	goto	u5300
  2105   002430                     u5301:
  2106   002430  EF20  F012         	goto	l3157
  2107   002434                     u5300:
  2108   002434                     
  2109                           ; BSR set to: 0
  2110                           ;main.c: 717:             counter[2] = 0;
  2111   002434  EE20  F098         	lfsr	2,_counter+16
  2112   002438  0E07               	movlw	7
  2113   00243A                     u5311:
  2114   00243A  6ADE               	clrf	postinc2,c
  2115   00243C  06E8               	decf	wreg,f,c
  2116   00243E  E2FD               	bc	u5311
  2117   002440                     l3157:
  2118                           
  2119                           ; BSR set to: 0
  2120                           ;main.c: 720:         PORTBbits.RB0 = counter[2] >= 10;
  2121   002440  BF9F               	btfsc	(_counter+23)& (0+255),7,b
  2122   002442  EF36  F012         	goto	u5320
  2123   002446  519F               	movf	(_counter+23)& (0+255),w,b
  2124   002448  119E               	iorwf	(_counter+22)& (0+255),w,b
  2125   00244A  119D               	iorwf	(_counter+21)& (0+255),w,b
  2126   00244C  119C               	iorwf	(_counter+20)& (0+255),w,b
  2127   00244E  119B               	iorwf	(_counter+19)& (0+255),w,b
  2128   002450  119A               	iorwf	(_counter+18)& (0+255),w,b
  2129   002452  1199               	iorwf	(_counter+17)& (0+255),w,b
  2130   002454  E107               	bnz	u5321
  2131   002456  0E0A               	movlw	10
  2132   002458  5D98               	subwf	(_counter+16)& (0+255),w,b
  2133   00245A  B0D8               	btfsc	status,0,c
  2134   00245C  EF32  F012         	goto	u5321
  2135   002460  EF36  F012         	goto	u5320
  2136   002464                     u5321:
  2137   002464  6A3F               	clrf	??_status_loop^0,c
  2138   002466  2A3F               	incf	??_status_loop^0,f,c
  2139   002468  EF37  F012         	goto	u5338
  2140   00246C                     u5320:
  2141   00246C  6A3F               	clrf	??_status_loop^0,c
  2142   00246E                     u5338:
  2143   00246E  5081               	movf	129,w,c	;volatile
  2144   002470  183F               	xorwf	??_status_loop^0,w,c
  2145   002472  0BFE               	andlw	-2
  2146   002474  183F               	xorwf	??_status_loop^0,w,c
  2147   002476  6E81               	movwf	129,c	;volatile
  2148   002478                     
  2149                           ;main.c: 721:         PORTBbits.RB1 = counter[2] < 10;
  2150   002478  0100               	movlb	0	; () banked
  2151   00247A  BF9F               	btfsc	(_counter+23)& (0+255),7,b
  2152   00247C  EF4F  F012         	goto	u5341
  2153   002480  519F               	movf	(_counter+23)& (0+255),w,b
  2154   002482  119E               	iorwf	(_counter+22)& (0+255),w,b
  2155   002484  119D               	iorwf	(_counter+21)& (0+255),w,b
  2156   002486  119C               	iorwf	(_counter+20)& (0+255),w,b
  2157   002488  119B               	iorwf	(_counter+19)& (0+255),w,b
  2158   00248A  119A               	iorwf	(_counter+18)& (0+255),w,b
  2159   00248C  1199               	iorwf	(_counter+17)& (0+255),w,b
  2160   00248E  E10B               	bnz	u5340
  2161   002490  0E0A               	movlw	10
  2162   002492  5D98               	subwf	(_counter+16)& (0+255),w,b
  2163   002494  A0D8               	btfss	status,0,c
  2164   002496  EF4F  F012         	goto	u5341
  2165   00249A  EF53  F012         	goto	u5340
  2166   00249E                     u5341:
  2167   00249E  6A3F               	clrf	??_status_loop^0,c
  2168   0024A0  2A3F               	incf	??_status_loop^0,f,c
  2169   0024A2  EF54  F012         	goto	u5358
  2170   0024A6                     u5340:
  2171   0024A6  6A3F               	clrf	??_status_loop^0,c
  2172   0024A8                     u5358:
  2173   0024A8  463F               	rlncf	??_status_loop^0,f,c
  2174   0024AA  5081               	movf	129,w,c	;volatile
  2175   0024AC  183F               	xorwf	??_status_loop^0,w,c
  2176   0024AE  0BFD               	andlw	-3
  2177   0024B0  183F               	xorwf	??_status_loop^0,w,c
  2178   0024B2  6E81               	movwf	129,c	;volatile
  2179   0024B4                     
  2180                           ;main.c: 722:         PORTBbits.RB2 = counter[2] >= 10;
  2181   0024B4  0100               	movlb	0	; () banked
  2182   0024B6  BF9F               	btfsc	(_counter+23)& (0+255),7,b
  2183   0024B8  EF71  F012         	goto	u5360
  2184   0024BC  519F               	movf	(_counter+23)& (0+255),w,b
  2185   0024BE  119E               	iorwf	(_counter+22)& (0+255),w,b
  2186   0024C0  119D               	iorwf	(_counter+21)& (0+255),w,b
  2187   0024C2  119C               	iorwf	(_counter+20)& (0+255),w,b
  2188   0024C4  119B               	iorwf	(_counter+19)& (0+255),w,b
  2189   0024C6  119A               	iorwf	(_counter+18)& (0+255),w,b
  2190   0024C8  1199               	iorwf	(_counter+17)& (0+255),w,b
  2191   0024CA  E107               	bnz	u5361
  2192   0024CC  0E0A               	movlw	10
  2193   0024CE  5D98               	subwf	(_counter+16)& (0+255),w,b
  2194   0024D0  B0D8               	btfsc	status,0,c
  2195   0024D2  EF6D  F012         	goto	u5361
  2196   0024D6  EF71  F012         	goto	u5360
  2197   0024DA                     u5361:
  2198   0024DA  6A3F               	clrf	??_status_loop^0,c
  2199   0024DC  2A3F               	incf	??_status_loop^0,f,c
  2200   0024DE  EF72  F012         	goto	u5378
  2201   0024E2                     u5360:
  2202   0024E2  6A3F               	clrf	??_status_loop^0,c
  2203   0024E4                     u5378:
  2204   0024E4  463F               	rlncf	??_status_loop^0,f,c
  2205   0024E6  463F               	rlncf	??_status_loop^0,f,c
  2206   0024E8  5081               	movf	129,w,c	;volatile
  2207   0024EA  183F               	xorwf	??_status_loop^0,w,c
  2208   0024EC  0BFB               	andlw	-5
  2209   0024EE  183F               	xorwf	??_status_loop^0,w,c
  2210   0024F0  6E81               	movwf	129,c	;volatile
  2211   0024F2                     
  2212                           ;main.c: 723:         PORTBbits.RB4 = counter[2] < 10;
  2213   0024F2  0100               	movlb	0	; () banked
  2214   0024F4  BF9F               	btfsc	(_counter+23)& (0+255),7,b
  2215   0024F6  EF8C  F012         	goto	u5381
  2216   0024FA  519F               	movf	(_counter+23)& (0+255),w,b
  2217   0024FC  119E               	iorwf	(_counter+22)& (0+255),w,b
  2218   0024FE  119D               	iorwf	(_counter+21)& (0+255),w,b
  2219   002500  119C               	iorwf	(_counter+20)& (0+255),w,b
  2220   002502  119B               	iorwf	(_counter+19)& (0+255),w,b
  2221   002504  119A               	iorwf	(_counter+18)& (0+255),w,b
  2222   002506  1199               	iorwf	(_counter+17)& (0+255),w,b
  2223   002508  E10B               	bnz	u5380
  2224   00250A  0E0A               	movlw	10
  2225   00250C  5D98               	subwf	(_counter+16)& (0+255),w,b
  2226   00250E  A0D8               	btfss	status,0,c
  2227   002510  EF8C  F012         	goto	u5381
  2228   002514  EF90  F012         	goto	u5380
  2229   002518                     u5381:
  2230   002518  6A3F               	clrf	??_status_loop^0,c
  2231   00251A  2A3F               	incf	??_status_loop^0,f,c
  2232   00251C  EF91  F012         	goto	u5398
  2233   002520                     u5380:
  2234   002520  6A3F               	clrf	??_status_loop^0,c
  2235   002522                     u5398:
  2236   002522  3A3F               	swapf	??_status_loop^0,f,c
  2237   002524  5081               	movf	129,w,c	;volatile
  2238   002526  183F               	xorwf	??_status_loop^0,w,c
  2239   002528  0BEF               	andlw	-17
  2240   00252A  183F               	xorwf	??_status_loop^0,w,c
  2241   00252C  6E81               	movwf	129,c	;volatile
  2242   00252E                     
  2243                           ;main.c: 724:         PORTBbits.RB5 = counter[2] >= 10;
  2244   00252E  0100               	movlb	0	; () banked
  2245   002530  BF9F               	btfsc	(_counter+23)& (0+255),7,b
  2246   002532  EFAE  F012         	goto	u5400
  2247   002536  519F               	movf	(_counter+23)& (0+255),w,b
  2248   002538  119E               	iorwf	(_counter+22)& (0+255),w,b
  2249   00253A  119D               	iorwf	(_counter+21)& (0+255),w,b
  2250   00253C  119C               	iorwf	(_counter+20)& (0+255),w,b
  2251   00253E  119B               	iorwf	(_counter+19)& (0+255),w,b
  2252   002540  119A               	iorwf	(_counter+18)& (0+255),w,b
  2253   002542  1199               	iorwf	(_counter+17)& (0+255),w,b
  2254   002544  E107               	bnz	u5401
  2255   002546  0E0A               	movlw	10
  2256   002548  5D98               	subwf	(_counter+16)& (0+255),w,b
  2257   00254A  B0D8               	btfsc	status,0,c
  2258   00254C  EFAA  F012         	goto	u5401
  2259   002550  EFAE  F012         	goto	u5400
  2260   002554                     u5401:
  2261   002554  6A3F               	clrf	??_status_loop^0,c
  2262   002556  2A3F               	incf	??_status_loop^0,f,c
  2263   002558  EFAF  F012         	goto	u5418
  2264   00255C                     u5400:
  2265   00255C  6A3F               	clrf	??_status_loop^0,c
  2266   00255E                     u5418:
  2267   00255E  3A3F               	swapf	??_status_loop^0,f,c
  2268   002560  463F               	rlncf	??_status_loop^0,f,c
  2269   002562  5081               	movf	129,w,c	;volatile
  2270   002564  183F               	xorwf	??_status_loop^0,w,c
  2271   002566  0BDF               	andlw	-33
  2272   002568  183F               	xorwf	??_status_loop^0,w,c
  2273   00256A  6E81               	movwf	129,c	;volatile
  2274                           
  2275                           ;main.c: 725:     }else if(status_mode == 4){
  2276   00256C  EF15  F015         	goto	l351
  2277   002570                     l3167:
  2278   002570  0E04               	movlw	4
  2279   002572  1828               	xorwf	_status_mode^0,w,c
  2280   002574  A4D8               	btfss	status,2,c
  2281   002576  EFBF  F012         	goto	u5421
  2282   00257A  EFC1  F012         	goto	u5420
  2283   00257E                     u5421:
  2284   00257E  EF53  F013         	goto	l3189
  2285   002582                     u5420:
  2286   002582                     
  2287                           ;main.c: 726:         if (counter[2] >= 20){
  2288   002582  0100               	movlb	0	; () banked
  2289   002584  BF9F               	btfsc	(_counter+23)& (0+255),7,b
  2290   002586  EFD4  F012         	goto	u5431
  2291   00258A  519F               	movf	(_counter+23)& (0+255),w,b
  2292   00258C  119E               	iorwf	(_counter+22)& (0+255),w,b
  2293   00258E  119D               	iorwf	(_counter+21)& (0+255),w,b
  2294   002590  119C               	iorwf	(_counter+20)& (0+255),w,b
  2295   002592  119B               	iorwf	(_counter+19)& (0+255),w,b
  2296   002594  119A               	iorwf	(_counter+18)& (0+255),w,b
  2297   002596  1199               	iorwf	(_counter+17)& (0+255),w,b
  2298   002598  E109               	bnz	u5430
  2299   00259A  0E14               	movlw	20
  2300   00259C  5D98               	subwf	(_counter+16)& (0+255),w,b
  2301   00259E  A0D8               	btfss	status,0,c
  2302   0025A0  EFD4  F012         	goto	u5431
  2303   0025A4  EFD6  F012         	goto	u5430
  2304   0025A8                     u5431:
  2305   0025A8  EFF3  F012         	goto	l3179
  2306   0025AC                     u5430:
  2307   0025AC                     
  2308                           ; BSR set to: 0
  2309                           ;main.c: 727:             counter[2] = 0;
  2310   0025AC  EE20  F098         	lfsr	2,_counter+16
  2311   0025B0  0E07               	movlw	7
  2312   0025B2                     u5441:
  2313   0025B2  6ADE               	clrf	postinc2,c
  2314   0025B4  06E8               	decf	wreg,f,c
  2315   0025B6  E2FD               	bc	u5441
  2316   0025B8                     
  2317                           ; BSR set to: 0
  2318                           ;main.c: 728:             mode_counter ++;
  2319   0025B8  4A1E               	infsnz	_mode_counter^0,f,c
  2320   0025BA  2A1F               	incf	(_mode_counter+1)^0,f,c
  2321   0025BC                     
  2322                           ; BSR set to: 0
  2323                           ;main.c: 729:             if (mode_counter >= 5){
  2324   0025BC  BE1F               	btfsc	(_mode_counter+1)^0,7,c
  2325   0025BE  EFEA  F012         	goto	u5451
  2326   0025C2  501F               	movf	(_mode_counter+1)^0,w,c
  2327   0025C4  E109               	bnz	u5450
  2328   0025C6  0E05               	movlw	5
  2329   0025C8  5C1E               	subwf	_mode_counter^0,w,c
  2330   0025CA  A0D8               	btfss	status,0,c
  2331   0025CC  EFEA  F012         	goto	u5451
  2332   0025D0  EFEC  F012         	goto	u5450
  2333   0025D4                     u5451:
  2334   0025D4  EFF3  F012         	goto	l3179
  2335   0025D8                     u5450:
  2336   0025D8                     
  2337                           ; BSR set to: 0
  2338                           ;main.c: 730:                 status_set_mode(status_next_mode , 0, -1);
  2339   0025D8  0E00               	movlw	0
  2340   0025DA  6E31               	movwf	status_set_mode@next_mode^0,c
  2341   0025DC  0EFF               	movlw	255
  2342   0025DE  6E32               	movwf	status_set_mode@final_mode^0,c
  2343   0025E0  5020               	movf	_status_next_mode^0,w,c
  2344   0025E2  ECF9  F01F         	call	_status_set_mode
  2345   0025E6                     l3179:
  2346                           
  2347                           ;main.c: 733:         PORTBbits.RB0 = (mode_counter == 0);
  2348   0025E6  501E               	movf	_mode_counter^0,w,c
  2349   0025E8  101F               	iorwf	(_mode_counter+1)^0,w,c
  2350   0025EA  B4D8               	btfsc	status,2,c
  2351   0025EC  EFFA  F012         	goto	u5461
  2352   0025F0  EFFE  F012         	goto	u5460
  2353   0025F4                     u5461:
  2354   0025F4  6A3F               	clrf	??_status_loop^0,c
  2355   0025F6  2A3F               	incf	??_status_loop^0,f,c
  2356   0025F8  EFFF  F012         	goto	u5478
  2357   0025FC                     u5460:
  2358   0025FC  6A3F               	clrf	??_status_loop^0,c
  2359   0025FE                     u5478:
  2360   0025FE  5081               	movf	129,w,c	;volatile
  2361   002600  183F               	xorwf	??_status_loop^0,w,c
  2362   002602  0BFE               	andlw	-2
  2363   002604  183F               	xorwf	??_status_loop^0,w,c
  2364   002606  6E81               	movwf	129,c	;volatile
  2365   002608                     
  2366                           ;main.c: 734:         PORTBbits.RB1 = (mode_counter == 1);
  2367   002608  041E               	decf	_mode_counter^0,w,c
  2368   00260A  101F               	iorwf	(_mode_counter+1)^0,w,c
  2369   00260C  B4D8               	btfsc	status,2,c
  2370   00260E  EF0B  F013         	goto	u5481
  2371   002612  EF0F  F013         	goto	u5480
  2372   002616                     u5481:
  2373   002616  6A3F               	clrf	??_status_loop^0,c
  2374   002618  2A3F               	incf	??_status_loop^0,f,c
  2375   00261A  EF10  F013         	goto	u5498
  2376   00261E                     u5480:
  2377   00261E  6A3F               	clrf	??_status_loop^0,c
  2378   002620                     u5498:
  2379   002620  463F               	rlncf	??_status_loop^0,f,c
  2380   002622  5081               	movf	129,w,c	;volatile
  2381   002624  183F               	xorwf	??_status_loop^0,w,c
  2382   002626  0BFD               	andlw	-3
  2383   002628  183F               	xorwf	??_status_loop^0,w,c
  2384   00262A  6E81               	movwf	129,c	;volatile
  2385   00262C                     
  2386                           ;main.c: 735:         PORTBbits.RB2 = (mode_counter == 2);
  2387   00262C  0E02               	movlw	2
  2388   00262E  181E               	xorwf	_mode_counter^0,w,c
  2389   002630  101F               	iorwf	(_mode_counter+1)^0,w,c
  2390   002632  B4D8               	btfsc	status,2,c
  2391   002634  EF1E  F013         	goto	u5501
  2392   002638  EF22  F013         	goto	u5500
  2393   00263C                     u5501:
  2394   00263C  6A3F               	clrf	??_status_loop^0,c
  2395   00263E  2A3F               	incf	??_status_loop^0,f,c
  2396   002640  EF23  F013         	goto	u5518
  2397   002644                     u5500:
  2398   002644  6A3F               	clrf	??_status_loop^0,c
  2399   002646                     u5518:
  2400   002646  463F               	rlncf	??_status_loop^0,f,c
  2401   002648  463F               	rlncf	??_status_loop^0,f,c
  2402   00264A  5081               	movf	129,w,c	;volatile
  2403   00264C  183F               	xorwf	??_status_loop^0,w,c
  2404   00264E  0BFB               	andlw	-5
  2405   002650  183F               	xorwf	??_status_loop^0,w,c
  2406   002652  6E81               	movwf	129,c	;volatile
  2407   002654                     
  2408                           ;main.c: 736:         PORTBbits.RB4 = (mode_counter == 3);
  2409   002654  0E03               	movlw	3
  2410   002656  181E               	xorwf	_mode_counter^0,w,c
  2411   002658  101F               	iorwf	(_mode_counter+1)^0,w,c
  2412   00265A  B4D8               	btfsc	status,2,c
  2413   00265C  EF32  F013         	goto	u5521
  2414   002660  EF36  F013         	goto	u5520
  2415   002664                     u5521:
  2416   002664  6A3F               	clrf	??_status_loop^0,c
  2417   002666  2A3F               	incf	??_status_loop^0,f,c
  2418   002668  EF37  F013         	goto	u5538
  2419   00266C                     u5520:
  2420   00266C  6A3F               	clrf	??_status_loop^0,c
  2421   00266E                     u5538:
  2422   00266E  3A3F               	swapf	??_status_loop^0,f,c
  2423   002670  5081               	movf	129,w,c	;volatile
  2424   002672  183F               	xorwf	??_status_loop^0,w,c
  2425   002674  0BEF               	andlw	-17
  2426   002676  183F               	xorwf	??_status_loop^0,w,c
  2427   002678  6E81               	movwf	129,c	;volatile
  2428   00267A                     
  2429                           ;main.c: 737:         PORTBbits.RB5 = (mode_counter == 4);
  2430   00267A  0E04               	movlw	4
  2431   00267C  181E               	xorwf	_mode_counter^0,w,c
  2432   00267E  101F               	iorwf	(_mode_counter+1)^0,w,c
  2433   002680  B4D8               	btfsc	status,2,c
  2434   002682  EF45  F013         	goto	u5541
  2435   002686  EF49  F013         	goto	u5540
  2436   00268A                     u5541:
  2437   00268A  6A3F               	clrf	??_status_loop^0,c
  2438   00268C  2A3F               	incf	??_status_loop^0,f,c
  2439   00268E  EF4A  F013         	goto	u5558
  2440   002692                     u5540:
  2441   002692  6A3F               	clrf	??_status_loop^0,c
  2442   002694                     u5558:
  2443   002694  3A3F               	swapf	??_status_loop^0,f,c
  2444   002696  463F               	rlncf	??_status_loop^0,f,c
  2445   002698  5081               	movf	129,w,c	;volatile
  2446   00269A  183F               	xorwf	??_status_loop^0,w,c
  2447   00269C  0BDF               	andlw	-33
  2448   00269E  183F               	xorwf	??_status_loop^0,w,c
  2449   0026A0  6E81               	movwf	129,c	;volatile
  2450                           
  2451                           ;main.c: 739:     }else if(status_mode == 5){
  2452   0026A2  EF15  F015         	goto	l351
  2453   0026A6                     l3189:
  2454   0026A6  0E05               	movlw	5
  2455   0026A8  1828               	xorwf	_status_mode^0,w,c
  2456   0026AA  A4D8               	btfss	status,2,c
  2457   0026AC  EF5A  F013         	goto	u5561
  2458   0026B0  EF5C  F013         	goto	u5560
  2459   0026B4                     u5561:
  2460   0026B4  EFEE  F013         	goto	l3211
  2461   0026B8                     u5560:
  2462   0026B8                     
  2463                           ;main.c: 740:         if (counter[2] >= 20){
  2464   0026B8  0100               	movlb	0	; () banked
  2465   0026BA  BF9F               	btfsc	(_counter+23)& (0+255),7,b
  2466   0026BC  EF6F  F013         	goto	u5571
  2467   0026C0  519F               	movf	(_counter+23)& (0+255),w,b
  2468   0026C2  119E               	iorwf	(_counter+22)& (0+255),w,b
  2469   0026C4  119D               	iorwf	(_counter+21)& (0+255),w,b
  2470   0026C6  119C               	iorwf	(_counter+20)& (0+255),w,b
  2471   0026C8  119B               	iorwf	(_counter+19)& (0+255),w,b
  2472   0026CA  119A               	iorwf	(_counter+18)& (0+255),w,b
  2473   0026CC  1199               	iorwf	(_counter+17)& (0+255),w,b
  2474   0026CE  E109               	bnz	u5570
  2475   0026D0  0E14               	movlw	20
  2476   0026D2  5D98               	subwf	(_counter+16)& (0+255),w,b
  2477   0026D4  A0D8               	btfss	status,0,c
  2478   0026D6  EF6F  F013         	goto	u5571
  2479   0026DA  EF71  F013         	goto	u5570
  2480   0026DE                     u5571:
  2481   0026DE  EF8E  F013         	goto	l3201
  2482   0026E2                     u5570:
  2483   0026E2                     
  2484                           ; BSR set to: 0
  2485                           ;main.c: 741:             counter[2] = 0;
  2486   0026E2  EE20  F098         	lfsr	2,_counter+16
  2487   0026E6  0E07               	movlw	7
  2488   0026E8                     u5581:
  2489   0026E8  6ADE               	clrf	postinc2,c
  2490   0026EA  06E8               	decf	wreg,f,c
  2491   0026EC  E2FD               	bc	u5581
  2492   0026EE                     
  2493                           ; BSR set to: 0
  2494                           ;main.c: 742:             mode_counter ++;
  2495   0026EE  4A1E               	infsnz	_mode_counter^0,f,c
  2496   0026F0  2A1F               	incf	(_mode_counter+1)^0,f,c
  2497   0026F2                     
  2498                           ; BSR set to: 0
  2499                           ;main.c: 743:             if (mode_counter >= 5){
  2500   0026F2  BE1F               	btfsc	(_mode_counter+1)^0,7,c
  2501   0026F4  EF85  F013         	goto	u5591
  2502   0026F8  501F               	movf	(_mode_counter+1)^0,w,c
  2503   0026FA  E109               	bnz	u5590
  2504   0026FC  0E05               	movlw	5
  2505   0026FE  5C1E               	subwf	_mode_counter^0,w,c
  2506   002700  A0D8               	btfss	status,0,c
  2507   002702  EF85  F013         	goto	u5591
  2508   002706  EF87  F013         	goto	u5590
  2509   00270A                     u5591:
  2510   00270A  EF8E  F013         	goto	l3201
  2511   00270E                     u5590:
  2512   00270E                     
  2513                           ; BSR set to: 0
  2514                           ;main.c: 744:                 status_set_mode(status_next_mode , 0, -1);
  2515   00270E  0E00               	movlw	0
  2516   002710  6E31               	movwf	status_set_mode@next_mode^0,c
  2517   002712  0EFF               	movlw	255
  2518   002714  6E32               	movwf	status_set_mode@final_mode^0,c
  2519   002716  5020               	movf	_status_next_mode^0,w,c
  2520   002718  ECF9  F01F         	call	_status_set_mode
  2521   00271C                     l3201:
  2522                           
  2523                           ;main.c: 747:         PORTBbits.RB0 = (mode_counter == 4);
  2524   00271C  0E04               	movlw	4
  2525   00271E  181E               	xorwf	_mode_counter^0,w,c
  2526   002720  101F               	iorwf	(_mode_counter+1)^0,w,c
  2527   002722  B4D8               	btfsc	status,2,c
  2528   002724  EF96  F013         	goto	u5601
  2529   002728  EF9A  F013         	goto	u5600
  2530   00272C                     u5601:
  2531   00272C  6A3F               	clrf	??_status_loop^0,c
  2532   00272E  2A3F               	incf	??_status_loop^0,f,c
  2533   002730  EF9B  F013         	goto	u5618
  2534   002734                     u5600:
  2535   002734  6A3F               	clrf	??_status_loop^0,c
  2536   002736                     u5618:
  2537   002736  5081               	movf	129,w,c	;volatile
  2538   002738  183F               	xorwf	??_status_loop^0,w,c
  2539   00273A  0BFE               	andlw	-2
  2540   00273C  183F               	xorwf	??_status_loop^0,w,c
  2541   00273E  6E81               	movwf	129,c	;volatile
  2542   002740                     
  2543                           ;main.c: 748:         PORTBbits.RB1 = (mode_counter == 3);
  2544   002740  0E03               	movlw	3
  2545   002742  181E               	xorwf	_mode_counter^0,w,c
  2546   002744  101F               	iorwf	(_mode_counter+1)^0,w,c
  2547   002746  B4D8               	btfsc	status,2,c
  2548   002748  EFA8  F013         	goto	u5621
  2549   00274C  EFAC  F013         	goto	u5620
  2550   002750                     u5621:
  2551   002750  6A3F               	clrf	??_status_loop^0,c
  2552   002752  2A3F               	incf	??_status_loop^0,f,c
  2553   002754  EFAD  F013         	goto	u5638
  2554   002758                     u5620:
  2555   002758  6A3F               	clrf	??_status_loop^0,c
  2556   00275A                     u5638:
  2557   00275A  463F               	rlncf	??_status_loop^0,f,c
  2558   00275C  5081               	movf	129,w,c	;volatile
  2559   00275E  183F               	xorwf	??_status_loop^0,w,c
  2560   002760  0BFD               	andlw	-3
  2561   002762  183F               	xorwf	??_status_loop^0,w,c
  2562   002764  6E81               	movwf	129,c	;volatile
  2563   002766                     
  2564                           ;main.c: 749:         PORTBbits.RB2 = (mode_counter == 2);
  2565   002766  0E02               	movlw	2
  2566   002768  181E               	xorwf	_mode_counter^0,w,c
  2567   00276A  101F               	iorwf	(_mode_counter+1)^0,w,c
  2568   00276C  B4D8               	btfsc	status,2,c
  2569   00276E  EFBB  F013         	goto	u5641
  2570   002772  EFBF  F013         	goto	u5640
  2571   002776                     u5641:
  2572   002776  6A3F               	clrf	??_status_loop^0,c
  2573   002778  2A3F               	incf	??_status_loop^0,f,c
  2574   00277A  EFC0  F013         	goto	u5658
  2575   00277E                     u5640:
  2576   00277E  6A3F               	clrf	??_status_loop^0,c
  2577   002780                     u5658:
  2578   002780  463F               	rlncf	??_status_loop^0,f,c
  2579   002782  463F               	rlncf	??_status_loop^0,f,c
  2580   002784  5081               	movf	129,w,c	;volatile
  2581   002786  183F               	xorwf	??_status_loop^0,w,c
  2582   002788  0BFB               	andlw	-5
  2583   00278A  183F               	xorwf	??_status_loop^0,w,c
  2584   00278C  6E81               	movwf	129,c	;volatile
  2585   00278E                     
  2586                           ;main.c: 750:         PORTBbits.RB4 = (mode_counter == 1);
  2587   00278E  041E               	decf	_mode_counter^0,w,c
  2588   002790  101F               	iorwf	(_mode_counter+1)^0,w,c
  2589   002792  B4D8               	btfsc	status,2,c
  2590   002794  EFCE  F013         	goto	u5661
  2591   002798  EFD2  F013         	goto	u5660
  2592   00279C                     u5661:
  2593   00279C  6A3F               	clrf	??_status_loop^0,c
  2594   00279E  2A3F               	incf	??_status_loop^0,f,c
  2595   0027A0  EFD3  F013         	goto	u5678
  2596   0027A4                     u5660:
  2597   0027A4  6A3F               	clrf	??_status_loop^0,c
  2598   0027A6                     u5678:
  2599   0027A6  3A3F               	swapf	??_status_loop^0,f,c
  2600   0027A8  5081               	movf	129,w,c	;volatile
  2601   0027AA  183F               	xorwf	??_status_loop^0,w,c
  2602   0027AC  0BEF               	andlw	-17
  2603   0027AE  183F               	xorwf	??_status_loop^0,w,c
  2604   0027B0  6E81               	movwf	129,c	;volatile
  2605   0027B2                     
  2606                           ;main.c: 751:         PORTBbits.RB5 = (mode_counter == 0);
  2607   0027B2  501E               	movf	_mode_counter^0,w,c
  2608   0027B4  101F               	iorwf	(_mode_counter+1)^0,w,c
  2609   0027B6  B4D8               	btfsc	status,2,c
  2610   0027B8  EFE0  F013         	goto	u5681
  2611   0027BC  EFE4  F013         	goto	u5680
  2612   0027C0                     u5681:
  2613   0027C0  6A3F               	clrf	??_status_loop^0,c
  2614   0027C2  2A3F               	incf	??_status_loop^0,f,c
  2615   0027C4  EFE5  F013         	goto	u5698
  2616   0027C8                     u5680:
  2617   0027C8  6A3F               	clrf	??_status_loop^0,c
  2618   0027CA                     u5698:
  2619   0027CA  3A3F               	swapf	??_status_loop^0,f,c
  2620   0027CC  463F               	rlncf	??_status_loop^0,f,c
  2621   0027CE  5081               	movf	129,w,c	;volatile
  2622   0027D0  183F               	xorwf	??_status_loop^0,w,c
  2623   0027D2  0BDF               	andlw	-33
  2624   0027D4  183F               	xorwf	??_status_loop^0,w,c
  2625   0027D6  6E81               	movwf	129,c	;volatile
  2626                           
  2627                           ;main.c: 753:     }else if(status_mode == 6){
  2628   0027D8  EF15  F015         	goto	l351
  2629   0027DC                     l3211:
  2630   0027DC  0E06               	movlw	6
  2631   0027DE  1828               	xorwf	_status_mode^0,w,c
  2632   0027E0  A4D8               	btfss	status,2,c
  2633   0027E2  EFF5  F013         	goto	u5701
  2634   0027E6  EFF7  F013         	goto	u5700
  2635   0027EA                     u5701:
  2636   0027EA  EF15  F015         	goto	l351
  2637   0027EE                     u5700:
  2638   0027EE                     
  2639                           ;main.c: 754:         if (counter[2] >= 10){
  2640   0027EE  0100               	movlb	0	; () banked
  2641   0027F0  BF9F               	btfsc	(_counter+23)& (0+255),7,b
  2642   0027F2  EF0A  F014         	goto	u5711
  2643   0027F6  519F               	movf	(_counter+23)& (0+255),w,b
  2644   0027F8  119E               	iorwf	(_counter+22)& (0+255),w,b
  2645   0027FA  119D               	iorwf	(_counter+21)& (0+255),w,b
  2646   0027FC  119C               	iorwf	(_counter+20)& (0+255),w,b
  2647   0027FE  119B               	iorwf	(_counter+19)& (0+255),w,b
  2648   002800  119A               	iorwf	(_counter+18)& (0+255),w,b
  2649   002802  1199               	iorwf	(_counter+17)& (0+255),w,b
  2650   002804  E109               	bnz	u5710
  2651   002806  0E0A               	movlw	10
  2652   002808  5D98               	subwf	(_counter+16)& (0+255),w,b
  2653   00280A  A0D8               	btfss	status,0,c
  2654   00280C  EF0A  F014         	goto	u5711
  2655   002810  EF0C  F014         	goto	u5710
  2656   002814                     u5711:
  2657   002814  EF3D  F014         	goto	l3229
  2658   002818                     u5710:
  2659   002818                     
  2660                           ; BSR set to: 0
  2661                           ;main.c: 755:             counter[2] = 0;
  2662   002818  EE20  F098         	lfsr	2,_counter+16
  2663   00281C  0E07               	movlw	7
  2664   00281E                     u5721:
  2665   00281E  6ADE               	clrf	postinc2,c
  2666   002820  06E8               	decf	wreg,f,c
  2667   002822  E2FD               	bc	u5721
  2668   002824                     
  2669                           ; BSR set to: 0
  2670                           ;main.c: 756:             status_intermitency_counter ++;
  2671   002824  4A22               	infsnz	_status_intermitency_counter^0,f,c
  2672   002826  2A23               	incf	(_status_intermitency_counter+1)^0,f,c
  2673   002828                     
  2674                           ; BSR set to: 0
  2675                           ;main.c: 757:             if (status_intermitency_counter >= 10){
  2676   002828  BE23               	btfsc	(_status_intermitency_counter+1)^0,7,c
  2677   00282A  EF20  F014         	goto	u5731
  2678   00282E  5023               	movf	(_status_intermitency_counter+1)^0,w,c
  2679   002830  E109               	bnz	u5730
  2680   002832  0E0A               	movlw	10
  2681   002834  5C22               	subwf	_status_intermitency_counter^0,w,c
  2682   002836  A0D8               	btfss	status,0,c
  2683   002838  EF20  F014         	goto	u5731
  2684   00283C  EF22  F014         	goto	u5730
  2685   002840                     u5731:
  2686   002840  EF26  F014         	goto	l3223
  2687   002844                     u5730:
  2688   002844                     
  2689                           ; BSR set to: 0
  2690                           ;main.c: 758:                 status_intermitency_counter = 0;
  2691   002844  0E00               	movlw	0
  2692   002846  6E23               	movwf	(_status_intermitency_counter+1)^0,c
  2693   002848  0E00               	movlw	0
  2694   00284A  6E22               	movwf	_status_intermitency_counter^0,c
  2695   00284C                     l3223:
  2696                           
  2697                           ; BSR set to: 0
  2698                           ;main.c: 760:             mode_counter ++;
  2699   00284C  4A1E               	infsnz	_mode_counter^0,f,c
  2700   00284E  2A1F               	incf	(_mode_counter+1)^0,f,c
  2701   002850                     
  2702                           ; BSR set to: 0
  2703                           ;main.c: 761:             if (mode_counter >= 20){
  2704   002850  BE1F               	btfsc	(_mode_counter+1)^0,7,c
  2705   002852  EF34  F014         	goto	u5741
  2706   002856  501F               	movf	(_mode_counter+1)^0,w,c
  2707   002858  E109               	bnz	u5740
  2708   00285A  0E14               	movlw	20
  2709   00285C  5C1E               	subwf	_mode_counter^0,w,c
  2710   00285E  A0D8               	btfss	status,0,c
  2711   002860  EF34  F014         	goto	u5741
  2712   002864  EF36  F014         	goto	u5740
  2713   002868                     u5741:
  2714   002868  EF3D  F014         	goto	l3229
  2715   00286C                     u5740:
  2716   00286C                     
  2717                           ; BSR set to: 0
  2718                           ;main.c: 762:                 status_set_mode(status_next_mode, status_final_mode, -1);
  2719   00286C  C0F4  F031         	movff	_status_final_mode,status_set_mode@next_mode
  2720   002870  0EFF               	movlw	255
  2721   002872  6E32               	movwf	status_set_mode@final_mode^0,c
  2722   002874  5020               	movf	_status_next_mode^0,w,c
  2723   002876  ECF9  F01F         	call	_status_set_mode
  2724   00287A                     l3229:
  2725                           
  2726                           ;main.c: 765:         int show_led;;main.c: 766:         show_led = status_intermitency_
      +                          counter >= 2;
  2727   00287A  BE23               	btfsc	(_status_intermitency_counter+1)^0,7,c
  2728   00287C  EF4C  F014         	goto	u5750
  2729   002880  5023               	movf	(_status_intermitency_counter+1)^0,w,c
  2730   002882  E107               	bnz	u5751
  2731   002884  0E02               	movlw	2
  2732   002886  5C22               	subwf	_status_intermitency_counter^0,w,c
  2733   002888  B0D8               	btfsc	status,0,c
  2734   00288A  EF49  F014         	goto	u5751
  2735   00288E  EF4C  F014         	goto	u5750
  2736   002892                     u5751:
  2737   002892  0E01               	movlw	1
  2738   002894  EF4D  F014         	goto	u5760
  2739   002898                     u5750:
  2740   002898  0E00               	movlw	0
  2741   00289A                     u5760:
  2742   00289A  6E4A               	movwf	status_loop@show_led^0,c
  2743   00289C  6A4B               	clrf	(status_loop@show_led+1)^0,c
  2744   00289E                     
  2745                           ;main.c: 767:         if (status_code >= 32){
  2746   00289E  BE1D               	btfsc	(_status_code+1)^0,7,c
  2747   0028A0  EF5B  F014         	goto	u5771
  2748   0028A4  501D               	movf	(_status_code+1)^0,w,c
  2749   0028A6  E109               	bnz	u5770
  2750   0028A8  0E20               	movlw	32
  2751   0028AA  5C1C               	subwf	_status_code^0,w,c
  2752   0028AC  A0D8               	btfss	status,0,c
  2753   0028AE  EF5B  F014         	goto	u5771
  2754   0028B2  EF5D  F014         	goto	u5770
  2755   0028B6                     u5771:
  2756   0028B6  EF63  F014         	goto	l3235
  2757   0028BA                     u5770:
  2758   0028BA                     
  2759                           ;main.c: 768:             status_code = 32;
  2760   0028BA  0E00               	movlw	0
  2761   0028BC  6E1D               	movwf	(_status_code+1)^0,c
  2762   0028BE  0E20               	movlw	32
  2763   0028C0  6E1C               	movwf	_status_code^0,c
  2764                           
  2765                           ;main.c: 769:         }else if (status_code <= 0){
  2766   0028C2  EF74  F014         	goto	l3239
  2767   0028C6                     l3235:
  2768   0028C6  BE1D               	btfsc	(_status_code+1)^0,7,c
  2769   0028C8  EF70  F014         	goto	u5780
  2770   0028CC  501D               	movf	(_status_code+1)^0,w,c
  2771   0028CE  E106               	bnz	u5781
  2772   0028D0  041C               	decf	_status_code^0,w,c
  2773   0028D2  B0D8               	btfsc	status,0,c
  2774   0028D4  EF6E  F014         	goto	u5781
  2775   0028D8  EF70  F014         	goto	u5780
  2776   0028DC                     u5781:
  2777   0028DC  EF74  F014         	goto	l3239
  2778   0028E0                     u5780:
  2779   0028E0                     
  2780                           ;main.c: 770:             status_code = 1;
  2781   0028E0  0E00               	movlw	0
  2782   0028E2  6E1D               	movwf	(_status_code+1)^0,c
  2783   0028E4  0E01               	movlw	1
  2784   0028E6  6E1C               	movwf	_status_code^0,c
  2785   0028E8                     l3239:
  2786                           
  2787                           ;main.c: 772:         if (show_led){
  2788   0028E8  504A               	movf	status_loop@show_led^0,w,c
  2789   0028EA  104B               	iorwf	(status_loop@show_led+1)^0,w,c
  2790   0028EC  B4D8               	btfsc	status,2,c
  2791   0028EE  EF7B  F014         	goto	u5791
  2792   0028F2  EF7D  F014         	goto	u5790
  2793   0028F6                     u5791:
  2794   0028F6  EF10  F015         	goto	l349
  2795   0028FA                     u5790:
  2796   0028FA                     
  2797                           ;main.c: 773:             PORTBbits.RB0 = (status_code % 32 >= 16);
  2798   0028FA  0E1F               	movlw	31
  2799   0028FC  141C               	andwf	_status_code^0,w,c
  2800   0028FE  6E3F               	movwf	??_status_loop^0,c
  2801   002900  0E00               	movlw	0
  2802   002902  141D               	andwf	(_status_code+1)^0,w,c
  2803   002904  6E40               	movwf	(??_status_loop+1)^0,c
  2804   002906  BE40               	btfsc	(??_status_loop+1)^0,7,c
  2805   002908  EF93  F014         	goto	u5800
  2806   00290C  5040               	movf	(??_status_loop+1)^0,w,c
  2807   00290E  E107               	bnz	u5801
  2808   002910  0E10               	movlw	16
  2809   002912  5C3F               	subwf	??_status_loop^0,w,c
  2810   002914  B0D8               	btfsc	status,0,c
  2811   002916  EF8F  F014         	goto	u5801
  2812   00291A  EF93  F014         	goto	u5800
  2813   00291E                     u5801:
  2814   00291E  6A41               	clrf	(??_status_loop+2)^0,c
  2815   002920  2A41               	incf	(??_status_loop+2)^0,f,c
  2816   002922  EF94  F014         	goto	u5818
  2817   002926                     u5800:
  2818   002926  6A41               	clrf	(??_status_loop+2)^0,c
  2819   002928                     u5818:
  2820   002928  5081               	movf	129,w,c	;volatile
  2821   00292A  1841               	xorwf	(??_status_loop+2)^0,w,c
  2822   00292C  0BFE               	andlw	-2
  2823   00292E  1841               	xorwf	(??_status_loop+2)^0,w,c
  2824   002930  6E81               	movwf	129,c	;volatile
  2825                           
  2826                           ;main.c: 774:             PORTBbits.RB1 = (status_code % 16 >= 8);
  2827   002932  0E0F               	movlw	15
  2828   002934  141C               	andwf	_status_code^0,w,c
  2829   002936  6E3F               	movwf	??_status_loop^0,c
  2830   002938  0E00               	movlw	0
  2831   00293A  141D               	andwf	(_status_code+1)^0,w,c
  2832   00293C  6E40               	movwf	(??_status_loop+1)^0,c
  2833   00293E  BE40               	btfsc	(??_status_loop+1)^0,7,c
  2834   002940  EFAF  F014         	goto	u5820
  2835   002944  5040               	movf	(??_status_loop+1)^0,w,c
  2836   002946  E107               	bnz	u5821
  2837   002948  0E08               	movlw	8
  2838   00294A  5C3F               	subwf	??_status_loop^0,w,c
  2839   00294C  B0D8               	btfsc	status,0,c
  2840   00294E  EFAB  F014         	goto	u5821
  2841   002952  EFAF  F014         	goto	u5820
  2842   002956                     u5821:
  2843   002956  6A41               	clrf	(??_status_loop+2)^0,c
  2844   002958  2A41               	incf	(??_status_loop+2)^0,f,c
  2845   00295A  EFB0  F014         	goto	u5838
  2846   00295E                     u5820:
  2847   00295E  6A41               	clrf	(??_status_loop+2)^0,c
  2848   002960                     u5838:
  2849   002960  4641               	rlncf	(??_status_loop+2)^0,f,c
  2850   002962  5081               	movf	129,w,c	;volatile
  2851   002964  1841               	xorwf	(??_status_loop+2)^0,w,c
  2852   002966  0BFD               	andlw	-3
  2853   002968  1841               	xorwf	(??_status_loop+2)^0,w,c
  2854   00296A  6E81               	movwf	129,c	;volatile
  2855                           
  2856                           ;main.c: 775:             PORTBbits.RB2 = (status_code % 8 >= 4);
  2857   00296C  0E07               	movlw	7
  2858   00296E  141C               	andwf	_status_code^0,w,c
  2859   002970  6E3F               	movwf	??_status_loop^0,c
  2860   002972  0E00               	movlw	0
  2861   002974  141D               	andwf	(_status_code+1)^0,w,c
  2862   002976  6E40               	movwf	(??_status_loop+1)^0,c
  2863   002978  BE40               	btfsc	(??_status_loop+1)^0,7,c
  2864   00297A  EFCC  F014         	goto	u5840
  2865   00297E  5040               	movf	(??_status_loop+1)^0,w,c
  2866   002980  E107               	bnz	u5841
  2867   002982  0E04               	movlw	4
  2868   002984  5C3F               	subwf	??_status_loop^0,w,c
  2869   002986  B0D8               	btfsc	status,0,c
  2870   002988  EFC8  F014         	goto	u5841
  2871   00298C  EFCC  F014         	goto	u5840
  2872   002990                     u5841:
  2873   002990  6A41               	clrf	(??_status_loop+2)^0,c
  2874   002992  2A41               	incf	(??_status_loop+2)^0,f,c
  2875   002994  EFCD  F014         	goto	u5858
  2876   002998                     u5840:
  2877   002998  6A41               	clrf	(??_status_loop+2)^0,c
  2878   00299A                     u5858:
  2879   00299A  4641               	rlncf	(??_status_loop+2)^0,f,c
  2880   00299C  4641               	rlncf	(??_status_loop+2)^0,f,c
  2881   00299E  5081               	movf	129,w,c	;volatile
  2882   0029A0  1841               	xorwf	(??_status_loop+2)^0,w,c
  2883   0029A2  0BFB               	andlw	-5
  2884   0029A4  1841               	xorwf	(??_status_loop+2)^0,w,c
  2885   0029A6  6E81               	movwf	129,c	;volatile
  2886                           
  2887                           ;main.c: 776:             PORTBbits.RB4 = (status_code % 4 >= 2);
  2888   0029A8  0E03               	movlw	3
  2889   0029AA  141C               	andwf	_status_code^0,w,c
  2890   0029AC  6E3F               	movwf	??_status_loop^0,c
  2891   0029AE  0E00               	movlw	0
  2892   0029B0  141D               	andwf	(_status_code+1)^0,w,c
  2893   0029B2  6E40               	movwf	(??_status_loop+1)^0,c
  2894   0029B4  BE40               	btfsc	(??_status_loop+1)^0,7,c
  2895   0029B6  EFEA  F014         	goto	u5860
  2896   0029BA  5040               	movf	(??_status_loop+1)^0,w,c
  2897   0029BC  E107               	bnz	u5861
  2898   0029BE  0E02               	movlw	2
  2899   0029C0  5C3F               	subwf	??_status_loop^0,w,c
  2900   0029C2  B0D8               	btfsc	status,0,c
  2901   0029C4  EFE6  F014         	goto	u5861
  2902   0029C8  EFEA  F014         	goto	u5860
  2903   0029CC                     u5861:
  2904   0029CC  6A41               	clrf	(??_status_loop+2)^0,c
  2905   0029CE  2A41               	incf	(??_status_loop+2)^0,f,c
  2906   0029D0  EFEB  F014         	goto	u5878
  2907   0029D4                     u5860:
  2908   0029D4  6A41               	clrf	(??_status_loop+2)^0,c
  2909   0029D6                     u5878:
  2910   0029D6  3A41               	swapf	(??_status_loop+2)^0,f,c
  2911   0029D8  5081               	movf	129,w,c	;volatile
  2912   0029DA  1841               	xorwf	(??_status_loop+2)^0,w,c
  2913   0029DC  0BEF               	andlw	-17
  2914   0029DE  1841               	xorwf	(??_status_loop+2)^0,w,c
  2915   0029E0  6E81               	movwf	129,c	;volatile
  2916                           
  2917                           ;main.c: 777:             PORTBbits.RB5 = (status_code % 2 >= 1);
  2918   0029E2  0E01               	movlw	1
  2919   0029E4  141C               	andwf	_status_code^0,w,c
  2920   0029E6  6E3F               	movwf	??_status_loop^0,c
  2921   0029E8  0E00               	movlw	0
  2922   0029EA  141D               	andwf	(_status_code+1)^0,w,c
  2923   0029EC  6E40               	movwf	(??_status_loop+1)^0,c
  2924   0029EE  BE40               	btfsc	(??_status_loop+1)^0,7,c
  2925   0029F0  EF06  F015         	goto	u5880
  2926   0029F4  5040               	movf	(??_status_loop+1)^0,w,c
  2927   0029F6  E106               	bnz	u5881
  2928   0029F8  043F               	decf	??_status_loop^0,w,c
  2929   0029FA  B0D8               	btfsc	status,0,c
  2930   0029FC  EF02  F015         	goto	u5881
  2931   002A00  EF06  F015         	goto	u5880
  2932   002A04                     u5881:
  2933   002A04  6A41               	clrf	(??_status_loop+2)^0,c
  2934   002A06  2A41               	incf	(??_status_loop+2)^0,f,c
  2935   002A08  EF07  F015         	goto	u5898
  2936   002A0C                     u5880:
  2937   002A0C  6A41               	clrf	(??_status_loop+2)^0,c
  2938   002A0E                     u5898:
  2939   002A0E  3A41               	swapf	(??_status_loop+2)^0,f,c
  2940   002A10  4641               	rlncf	(??_status_loop+2)^0,f,c
  2941   002A12  5081               	movf	129,w,c	;volatile
  2942   002A14  1841               	xorwf	(??_status_loop+2)^0,w,c
  2943   002A16  0BDF               	andlw	-33
  2944   002A18  1841               	xorwf	(??_status_loop+2)^0,w,c
  2945   002A1A  6E81               	movwf	129,c	;volatile
  2946                           
  2947                           ;main.c: 778:         }else{
  2948   002A1C  EF15  F015         	goto	l351
  2949   002A20                     l349:
  2950                           
  2951                           ;main.c: 779:             PORTBbits.RB0 = 0;
  2952   002A20  9081               	bcf	129,0,c	;volatile
  2953                           
  2954                           ;main.c: 780:             PORTBbits.RB1 = 0;
  2955   002A22  9281               	bcf	129,1,c	;volatile
  2956                           
  2957                           ;main.c: 781:             PORTBbits.RB2 = 0;
  2958   002A24  9481               	bcf	129,2,c	;volatile
  2959                           
  2960                           ;main.c: 782:             PORTBbits.RB4 = 0;
  2961   002A26  9881               	bcf	129,4,c	;volatile
  2962                           
  2963                           ;main.c: 783:             PORTBbits.RB5 = 0;
  2964   002A28  9A81               	bcf	129,5,c	;volatile
  2965   002A2A                     l351:
  2966   002A2A  0012               	return		;funcret
  2967   002A2C                     __end_of_status_loop:
  2968                           	callstack 0
  2969                           
  2970 ;; *************** function ___awmod *****************
  2971 ;; Defined at:
  2972 ;;		line 7 in file "C:\Program Files\Microchip\xc8\v3.00\pic\sources\c99\common\awmod.c"
  2973 ;; Parameters:    Size  Location     Type
  2974 ;;  dividend        2    6[COMRAM] int 
  2975 ;;  divisor         2    8[COMRAM] int 
  2976 ;; Auto vars:     Size  Location     Type
  2977 ;;  sign            1   11[COMRAM] unsigned char 
  2978 ;;  counter         1   10[COMRAM] unsigned char 
  2979 ;; Return value:  Size  Location     Type
  2980 ;;                  2    6[COMRAM] int 
  2981 ;; Registers used:
  2982 ;;		wreg, status,2, status,0
  2983 ;; Tracked objects:
  2984 ;;		On entry : 0/0
  2985 ;;		On exit  : 0/0
  2986 ;;		Unchanged: 0/0
  2987 ;; Data sizes:     COMRAM   BANK0   BANK1   BANK2   BANK3   BANK4   BANK5   BANK6   BANK7
  2988 ;;      Params:         4       0       0       0       0       0       0       0       0
  2989 ;;      Locals:         2       0       0       0       0       0       0       0       0
  2990 ;;      Temps:          0       0       0       0       0       0       0       0       0
  2991 ;;      Totals:         6       0       0       0       0       0       0       0       0
  2992 ;;Total ram usage:        6 bytes
  2993 ;; Hardware stack levels used: 1
  2994 ;; Hardware stack levels required when called: 1
  2995 ;; This function calls:
  2996 ;;		Nothing
  2997 ;; This function is called by:
  2998 ;;		_status_loop
  2999 ;; This function uses a non-reentrant model
  3000 ;;
  3001                           
  3002                           	psect	text3
  3003   003BF8                     __ptext3:
  3004                           	callstack 0
  3005   003BF8                     ___awmod:
  3006                           	callstack 28
  3007   003BF8  6A36               	clrf	___awmod@sign^0,c
  3008   003BFA  BE32               	btfsc	(___awmod@dividend+1)^0,7,c
  3009   003BFC  EF04  F01E         	goto	u3880
  3010   003C00  EF02  F01E         	goto	u3881
  3011   003C04                     u3881:
  3012   003C04  EF0A  F01E         	goto	l2693
  3013   003C08                     u3880:
  3014   003C08  6C31               	negf	___awmod@dividend^0,c
  3015   003C0A  1E32               	comf	(___awmod@dividend+1)^0,f,c
  3016   003C0C  B0D8               	btfsc	status,0,c
  3017   003C0E  2A32               	incf	(___awmod@dividend+1)^0,f,c
  3018   003C10  0E01               	movlw	1
  3019   003C12  6E36               	movwf	___awmod@sign^0,c
  3020   003C14                     l2693:
  3021   003C14  BE34               	btfsc	(___awmod@divisor+1)^0,7,c
  3022   003C16  EF11  F01E         	goto	u3890
  3023   003C1A  EF0F  F01E         	goto	u3891
  3024   003C1E                     u3891:
  3025   003C1E  EF15  F01E         	goto	l2697
  3026   003C22                     u3890:
  3027   003C22  6C33               	negf	___awmod@divisor^0,c
  3028   003C24  1E34               	comf	(___awmod@divisor+1)^0,f,c
  3029   003C26  B0D8               	btfsc	status,0,c
  3030   003C28  2A34               	incf	(___awmod@divisor+1)^0,f,c
  3031   003C2A                     l2697:
  3032   003C2A  5033               	movf	___awmod@divisor^0,w,c
  3033   003C2C  1034               	iorwf	(___awmod@divisor+1)^0,w,c
  3034   003C2E  B4D8               	btfsc	status,2,c
  3035   003C30  EF1C  F01E         	goto	u3901
  3036   003C34  EF1E  F01E         	goto	u3900
  3037   003C38                     u3901:
  3038   003C38  EF42  F01E         	goto	l2713
  3039   003C3C                     u3900:
  3040   003C3C  0E01               	movlw	1
  3041   003C3E  6E35               	movwf	___awmod@counter^0,c
  3042   003C40  EF26  F01E         	goto	l2703
  3043   003C44                     l2701:
  3044   003C44  90D8               	bcf	status,0,c
  3045   003C46  3633               	rlcf	___awmod@divisor^0,f,c
  3046   003C48  3634               	rlcf	(___awmod@divisor+1)^0,f,c
  3047   003C4A  2A35               	incf	___awmod@counter^0,f,c
  3048   003C4C                     l2703:
  3049   003C4C  AE34               	btfss	(___awmod@divisor+1)^0,7,c
  3050   003C4E  EF2B  F01E         	goto	u3911
  3051   003C52  EF2D  F01E         	goto	u3910
  3052   003C56                     u3911:
  3053   003C56  EF22  F01E         	goto	l2701
  3054   003C5A                     u3910:
  3055   003C5A                     l2705:
  3056   003C5A  5033               	movf	___awmod@divisor^0,w,c
  3057   003C5C  5C31               	subwf	___awmod@dividend^0,w,c
  3058   003C5E  5034               	movf	(___awmod@divisor+1)^0,w,c
  3059   003C60  5832               	subwfb	(___awmod@dividend+1)^0,w,c
  3060   003C62  A0D8               	btfss	status,0,c
  3061   003C64  EF36  F01E         	goto	u3921
  3062   003C68  EF38  F01E         	goto	u3920
  3063   003C6C                     u3921:
  3064   003C6C  EF3C  F01E         	goto	l2709
  3065   003C70                     u3920:
  3066   003C70  5033               	movf	___awmod@divisor^0,w,c
  3067   003C72  5E31               	subwf	___awmod@dividend^0,f,c
  3068   003C74  5034               	movf	(___awmod@divisor+1)^0,w,c
  3069   003C76  5A32               	subwfb	(___awmod@dividend+1)^0,f,c
  3070   003C78                     l2709:
  3071   003C78  90D8               	bcf	status,0,c
  3072   003C7A  3234               	rrcf	(___awmod@divisor+1)^0,f,c
  3073   003C7C  3233               	rrcf	___awmod@divisor^0,f,c
  3074   003C7E  2E35               	decfsz	___awmod@counter^0,f,c
  3075   003C80  EF2D  F01E         	goto	l2705
  3076   003C84                     l2713:
  3077   003C84  5036               	movf	___awmod@sign^0,w,c
  3078   003C86  B4D8               	btfsc	status,2,c
  3079   003C88  EF48  F01E         	goto	u3931
  3080   003C8C  EF4A  F01E         	goto	u3930
  3081   003C90                     u3931:
  3082   003C90  EF4E  F01E         	goto	l2717
  3083   003C94                     u3930:
  3084   003C94  6C31               	negf	___awmod@dividend^0,c
  3085   003C96  1E32               	comf	(___awmod@dividend+1)^0,f,c
  3086   003C98  B0D8               	btfsc	status,0,c
  3087   003C9A  2A32               	incf	(___awmod@dividend+1)^0,f,c
  3088   003C9C                     l2717:
  3089   003C9C  C031  F031         	movff	___awmod@dividend,?___awmod
  3090   003CA0  C032  F032         	movff	___awmod@dividend+1,?___awmod+1
  3091   003CA4  0012               	return		;funcret
  3092   003CA6                     __end_of___awmod:
  3093                           	callstack 0
  3094                           
  3095 ;; *************** function _status_init *****************
  3096 ;; Defined at:
  3097 ;;		line 574 in file "main.c"
  3098 ;; Parameters:    Size  Location     Type
  3099 ;;		None
  3100 ;; Auto vars:     Size  Location     Type
  3101 ;;  i               2    6[COMRAM] int 
  3102 ;; Return value:  Size  Location     Type
  3103 ;;                  1    wreg      void 
  3104 ;; Registers used:
  3105 ;;		wreg, fsr2l, fsr2h, status,2, status,0
  3106 ;; Tracked objects:
  3107 ;;		On entry : 0/0
  3108 ;;		On exit  : 0/0
  3109 ;;		Unchanged: 0/0
  3110 ;; Data sizes:     COMRAM   BANK0   BANK1   BANK2   BANK3   BANK4   BANK5   BANK6   BANK7
  3111 ;;      Params:         0       0       0       0       0       0       0       0       0
  3112 ;;      Locals:         2       0       0       0       0       0       0       0       0
  3113 ;;      Temps:          0       0       0       0       0       0       0       0       0
  3114 ;;      Totals:         2       0       0       0       0       0       0       0       0
  3115 ;;Total ram usage:        2 bytes
  3116 ;; Hardware stack levels used: 1
  3117 ;; Hardware stack levels required when called: 1
  3118 ;; This function calls:
  3119 ;;		Nothing
  3120 ;; This function is called by:
  3121 ;;		_main
  3122 ;; This function uses a non-reentrant model
  3123 ;;
  3124                           
  3125                           	psect	text4
  3126   003EAE                     __ptext4:
  3127                           	callstack 0
  3128   003EAE                     _status_init:
  3129                           	callstack 29
  3130   003EAE                     
  3131                           ;main.c: 575:     status_value = 0;
  3132   003EAE  0E00               	movlw	0
  3133   003EB0  6E27               	movwf	(_status_value+1)^0,c
  3134   003EB2  0E00               	movlw	0
  3135   003EB4  6E26               	movwf	_status_value^0,c
  3136   003EB6                     
  3137                           ;main.c: 576:     status_mode = 0;
  3138   003EB6  6A28               	clrf	_status_mode^0,c
  3139   003EB8                     
  3140                           ;main.c: 577:     int_status = 0;
  3141   003EB8  6A29               	clrf	_int_status^0,c
  3142                           
  3143                           ;main.c: 578:     status_intermitency_counter = 0;
  3144   003EBA  0E00               	movlw	0
  3145   003EBC  6E23               	movwf	(_status_intermitency_counter+1)^0,c
  3146   003EBE  0E00               	movlw	0
  3147   003EC0  6E22               	movwf	_status_intermitency_counter^0,c
  3148                           
  3149                           ;main.c: 579:     mode_counter = 0;
  3150   003EC2  0E00               	movlw	0
  3151   003EC4  6E1F               	movwf	(_mode_counter+1)^0,c
  3152   003EC6  0E00               	movlw	0
  3153   003EC8  6E1E               	movwf	_mode_counter^0,c
  3154   003ECA                     
  3155                           ;main.c: 581:     counter[2] = 0;
  3156   003ECA  EE20  F098         	lfsr	2,_counter+16
  3157   003ECE  0E07               	movlw	7
  3158   003ED0                     u4731:
  3159   003ED0  6ADE               	clrf	postinc2,c
  3160   003ED2  06E8               	decf	wreg,f,c
  3161   003ED4  E2FD               	bc	u4731
  3162   003ED6                     
  3163                           ;main.c: 583:     int i;;main.c: 584:     for (i = 0;i < 5;i++){
  3164   003ED6  0E00               	movlw	0
  3165   003ED8  6E32               	movwf	(status_init@i+1)^0,c
  3166   003EDA  0E00               	movlw	0
  3167   003EDC  6E31               	movwf	status_init@i^0,c
  3168   003EDE                     l3039:
  3169                           
  3170                           ;main.c: 585:         leds[i] = 0;
  3171   003EDE  5031               	movf	status_init@i^0,w,c
  3172   003EE0  0F01               	addlw	low _leds
  3173   003EE2  6ED9               	movwf	fsr2l,c
  3174   003EE4  6ADA               	clrf	fsr2h,c
  3175   003EE6  6ADF               	clrf	indf2,c
  3176   003EE8                     
  3177                           ;main.c: 586:     }
  3178   003EE8  4A31               	infsnz	status_init@i^0,f,c
  3179   003EEA  2A32               	incf	(status_init@i+1)^0,f,c
  3180   003EEC  BE32               	btfsc	(status_init@i+1)^0,7,c
  3181   003EEE  EF82  F01F         	goto	u4741
  3182   003EF2  5032               	movf	(status_init@i+1)^0,w,c
  3183   003EF4  E109               	bnz	u4740
  3184   003EF6  0E05               	movlw	5
  3185   003EF8  5C31               	subwf	status_init@i^0,w,c
  3186   003EFA  A0D8               	btfss	status,0,c
  3187   003EFC  EF82  F01F         	goto	u4741
  3188   003F00  EF84  F01F         	goto	u4740
  3189   003F04                     u4741:
  3190   003F04  EF6F  F01F         	goto	l3039
  3191   003F08                     u4740:
  3192   003F08  0012               	return		;funcret
  3193   003F0A                     __end_of_status_init:
  3194                           	callstack 0
  3195                           
  3196 ;; *************** function _read_analog *****************
  3197 ;; Defined at:
  3198 ;;		line 223 in file "main.c"
  3199 ;; Parameters:    Size  Location     Type
  3200 ;;		None
  3201 ;; Auto vars:     Size  Location     Type
  3202 ;;  aux             2   32[COMRAM] unsigned int 
  3203 ;;  i               1   34[COMRAM] unsigned char 
  3204 ;; Return value:  Size  Location     Type
  3205 ;;                  1    wreg      void 
  3206 ;; Registers used:
  3207 ;;		wreg, fsr2l, fsr2h, status,2, status,0, prodl, prodh, cstack
  3208 ;; Tracked objects:
  3209 ;;		On entry : 0/0
  3210 ;;		On exit  : 0/0
  3211 ;;		Unchanged: 0/0
  3212 ;; Data sizes:     COMRAM   BANK0   BANK1   BANK2   BANK3   BANK4   BANK5   BANK6   BANK7
  3213 ;;      Params:         0       0       0       0       0       0       0       0       0
  3214 ;;      Locals:         3       0       0       0       0       0       0       0       0
  3215 ;;      Temps:          0       0      16       0       0       0       0       0       0
  3216 ;;      Totals:         3       0      16       0       0       0       0       0       0
  3217 ;;Total ram usage:       19 bytes
  3218 ;; Hardware stack levels used: 1
  3219 ;; Hardware stack levels required when called: 2
  3220 ;; This function calls:
  3221 ;;		___aodiv
  3222 ;;		___awdiv
  3223 ;; This function is called by:
  3224 ;;		_main
  3225 ;; This function uses a non-reentrant model
  3226 ;;
  3227                           
  3228                           	psect	text5
  3229   00340A                     __ptext5:
  3230                           	callstack 0
  3231   00340A                     _read_analog:
  3232                           	callstack 28
  3233   00340A                     
  3234                           ;main.c: 224:     unsigned int aux;;main.c: 225:     unsigned char i;;main.c: 226:     f
      +                          or (i=0;i<=5;i++){
  3235   00340A  6A4D               	clrf	read_analog@i^0,c
  3236   00340C                     l3605:
  3237                           
  3238                           ;main.c: 227:         ADCON0bits.CHS=i;
  3239   00340C  C04D  F1B0         	movff	read_analog@i,??_read_analog
  3240   003410  0101               	movlb	1	; () banked
  3241   003412  47B0               	rlncf	??_read_analog& (0+255),f,b
  3242   003414  47B0               	rlncf	??_read_analog& (0+255),f,b
  3243   003416  50C2               	movf	194,w,c	;volatile
  3244   003418  19B0               	xorwf	??_read_analog& (0+255),w,b
  3245   00341A  0BC3               	andlw	-61
  3246   00341C  19B0               	xorwf	??_read_analog& (0+255),w,b
  3247   00341E  6EC2               	movwf	194,c	;volatile
  3248   003420                     
  3249                           ; BSR set to: 1
  3250                           ;main.c: 228:         ADCON0bits.GODONE=1;
  3251   003420  82C2               	bsf	194,1,c	;volatile
  3252   003422                     l112:
  3253   003422  B2C2               	btfsc	194,1,c	;volatile
  3254   003424  EF16  F01A         	goto	u7121
  3255   003428  EF18  F01A         	goto	u7120
  3256   00342C                     u7121:
  3257   00342C  EF11  F01A         	goto	l112
  3258   003430                     u7120:
  3259   003430                     
  3260                           ;main.c: 230:         aux=ADRESH*4;
  3261   003430  50C4               	movf	196,w,c	;volatile
  3262   003432  0D04               	mullw	4
  3263   003434  CFF3 F04B          	movff	prodl,read_analog@aux
  3264   003438  CFF4 F04C          	movff	prodh,read_analog@aux+1
  3265   00343C                     
  3266                           ;main.c: 231:         aux=aux+ADRESL/64;
  3267   00343C  CFC3 F037          	movff	4035,___awdiv@dividend	;volatile
  3268   003440  6A38               	clrf	(___awdiv@dividend+1)^0,c
  3269   003442  0E00               	movlw	0
  3270   003444  6E3A               	movwf	(___awdiv@divisor+1)^0,c
  3271   003446  0E40               	movlw	64
  3272   003448  6E39               	movwf	___awdiv@divisor^0,c
  3273   00344A  EC43  F01D         	call	___awdiv	;wreg free
  3274   00344E  504B               	movf	read_analog@aux^0,w,c
  3275   003450  2437               	addwf	?___awdiv^0,w,c
  3276   003452  6E4B               	movwf	read_analog@aux^0,c
  3277   003454  504C               	movf	(read_analog@aux+1)^0,w,c
  3278   003456  2038               	addwfc	(?___awdiv+1)^0,w,c
  3279   003458  6E4C               	movwf	(read_analog@aux+1)^0,c
  3280   00345A                     
  3281                           ;main.c: 232:         an_input[i]=aux;
  3282   00345A  504D               	movf	read_analog@i^0,w,c
  3283   00345C  0D02               	mullw	2
  3284   00345E  0E8C               	movlw	low _an_input
  3285   003460  24F3               	addwf	243,w,c
  3286   003462  6ED9               	movwf	fsr2l,c
  3287   003464  0E01               	movlw	high _an_input
  3288   003466  20F4               	addwfc	prodh,w,c
  3289   003468  6EDA               	movwf	fsr2h,c
  3290   00346A  C04B  FFDE         	movff	read_analog@aux,postinc2
  3291   00346E  C04C  FFDD         	movff	read_analog@aux+1,postdec2
  3292   003472                     
  3293                           ;main.c: 233:         sum_read[i]+=aux;
  3294   003472  504D               	movf	read_analog@i^0,w,c
  3295   003474  0D08               	mullw	8
  3296   003476  0E00               	movlw	low _sum_read
  3297   003478  24F3               	addwf	243,w,c
  3298   00347A  6ED9               	movwf	fsr2l,c
  3299   00347C  0E01               	movlw	high _sum_read
  3300   00347E  20F4               	addwfc	prodh,w,c
  3301   003480  6EDA               	movwf	fsr2h,c
  3302   003482  504B               	movf	read_analog@aux^0,w,c
  3303   003484  26DE               	addwf	postinc2,f,c
  3304   003486  504C               	movf	(read_analog@aux+1)^0,w,c
  3305   003488  22DE               	addwfc	postinc2,f,c
  3306   00348A  0E00               	movlw	0
  3307   00348C  22DE               	addwfc	postinc2,f,c
  3308   00348E  22DE               	addwfc	postinc2,f,c
  3309   003490  22DE               	addwfc	postinc2,f,c
  3310   003492  22DE               	addwfc	postinc2,f,c
  3311   003494  22DE               	addwfc	postinc2,f,c
  3312   003496  22DE               	addwfc	postinc2,f,c
  3313   003498                     
  3314                           ;main.c: 234:     }
  3315   003498  2A4D               	incf	read_analog@i^0,f,c
  3316   00349A  0E05               	movlw	5
  3317   00349C  644D               	cpfsgt	read_analog@i^0,c
  3318   00349E  EF53  F01A         	goto	u7131
  3319   0034A2  EF55  F01A         	goto	u7130
  3320   0034A6                     u7131:
  3321   0034A6  EF06  F01A         	goto	l3605
  3322   0034AA                     u7130:
  3323   0034AA                     
  3324                           ;main.c: 235:     count_reads ++;
  3325   0034AA  0E01               	movlw	1
  3326   0034AC  0100               	movlb	0	; () banked
  3327   0034AE  27C2               	addwf	_count_reads& (0+255),f,b
  3328   0034B0  0E00               	movlw	0
  3329   0034B2  23C3               	addwfc	(_count_reads+1)& (0+255),f,b
  3330   0034B4  23C4               	addwfc	(_count_reads+2)& (0+255),f,b
  3331   0034B6  23C5               	addwfc	(_count_reads+3)& (0+255),f,b
  3332   0034B8  23C6               	addwfc	(_count_reads+4)& (0+255),f,b
  3333   0034BA  23C7               	addwfc	(_count_reads+5)& (0+255),f,b
  3334   0034BC  23C8               	addwfc	(_count_reads+6)& (0+255),f,b
  3335   0034BE  23C9               	addwfc	(_count_reads+7)& (0+255),f,b
  3336                           
  3337                           ;main.c: 236:     if (count_reads >= 25){
  3338   0034C0  BFC9               	btfsc	(_count_reads+7)& (0+255),7,b
  3339   0034C2  EF72  F01A         	goto	u7141
  3340   0034C6  51C9               	movf	(_count_reads+7)& (0+255),w,b
  3341   0034C8  11C8               	iorwf	(_count_reads+6)& (0+255),w,b
  3342   0034CA  11C7               	iorwf	(_count_reads+5)& (0+255),w,b
  3343   0034CC  11C6               	iorwf	(_count_reads+4)& (0+255),w,b
  3344   0034CE  11C5               	iorwf	(_count_reads+3)& (0+255),w,b
  3345   0034D0  11C4               	iorwf	(_count_reads+2)& (0+255),w,b
  3346   0034D2  11C3               	iorwf	(_count_reads+1)& (0+255),w,b
  3347   0034D4  E109               	bnz	u7140
  3348   0034D6  0E19               	movlw	25
  3349   0034D8  5DC2               	subwf	_count_reads& (0+255),w,b
  3350   0034DA  A0D8               	btfss	status,0,c
  3351   0034DC  EF72  F01A         	goto	u7141
  3352   0034E0  EF74  F01A         	goto	u7140
  3353   0034E4                     u7141:
  3354   0034E4  EFE6  F01A         	goto	l118
  3355   0034E8                     u7140:
  3356   0034E8                     
  3357                           ; BSR set to: 0
  3358                           ;main.c: 237:         for (i=0;i<=5;i++){
  3359   0034E8  6A4D               	clrf	read_analog@i^0,c
  3360   0034EA                     l3629:
  3361                           
  3362                           ;main.c: 238:             avg_input[i] = sum_read[i] / count_reads;
  3363   0034EA  504D               	movf	read_analog@i^0,w,c
  3364   0034EC  0D08               	mullw	8
  3365   0034EE  0E00               	movlw	low _sum_read
  3366   0034F0  24F3               	addwf	243,w,c
  3367   0034F2  6ED9               	movwf	fsr2l,c
  3368   0034F4  0E01               	movlw	high _sum_read
  3369   0034F6  20F4               	addwfc	prodh,w,c
  3370   0034F8  6EDA               	movwf	fsr2h,c
  3371   0034FA  CFDE F1B0          	movff	postinc2,??_read_analog
  3372   0034FE  CFDE F1B1          	movff	postinc2,??_read_analog+1
  3373   003502  CFDE F1B2          	movff	postinc2,??_read_analog+2
  3374   003506  CFDE F1B3          	movff	postinc2,??_read_analog+3
  3375   00350A  CFDE F1B4          	movff	postinc2,??_read_analog+4
  3376   00350E  CFDE F1B5          	movff	postinc2,??_read_analog+5
  3377   003512  CFDE F1B6          	movff	postinc2,??_read_analog+6
  3378   003516  CFDE F1B7          	movff	postinc2,??_read_analog+7
  3379   00351A  C1B0  F031         	movff	??_read_analog,___aodiv@dividend
  3380   00351E  C1B1  F032         	movff	??_read_analog+1,___aodiv@dividend+1
  3381   003522  C1B2  F033         	movff	??_read_analog+2,___aodiv@dividend+2
  3382   003526  C1B3  F034         	movff	??_read_analog+3,___aodiv@dividend+3
  3383   00352A  C1B4  F035         	movff	??_read_analog+4,___aodiv@dividend+4
  3384   00352E  C1B5  F036         	movff	??_read_analog+5,___aodiv@dividend+5
  3385   003532  C1B6  F037         	movff	??_read_analog+6,___aodiv@dividend+6
  3386   003536  C1B7  F038         	movff	??_read_analog+7,___aodiv@dividend+7
  3387   00353A  C0C2  F039         	movff	_count_reads,___aodiv@divisor
  3388   00353E  C0C3  F03A         	movff	_count_reads+1,___aodiv@divisor+1
  3389   003542  C0C4  F03B         	movff	_count_reads+2,___aodiv@divisor+2
  3390   003546  C0C5  F03C         	movff	_count_reads+3,___aodiv@divisor+3
  3391   00354A  C0C6  F03D         	movff	_count_reads+4,___aodiv@divisor+4
  3392   00354E  C0C7  F03E         	movff	_count_reads+5,___aodiv@divisor+5
  3393   003552  C0C8  F03F         	movff	_count_reads+6,___aodiv@divisor+6
  3394   003556  C0C9  F040         	movff	_count_reads+7,___aodiv@divisor+7
  3395   00355A  ECE7  F01A         	call	___aodiv	;wreg free
  3396   00355E  C031  F1B8         	movff	?___aodiv,??_read_analog+8
  3397   003562  C032  F1B9         	movff	?___aodiv+1,??_read_analog+9
  3398   003566  C033  F1BA         	movff	?___aodiv+2,??_read_analog+10
  3399   00356A  C034  F1BB         	movff	?___aodiv+3,??_read_analog+11
  3400   00356E  C035  F1BC         	movff	?___aodiv+4,??_read_analog+12
  3401   003572  C036  F1BD         	movff	?___aodiv+5,??_read_analog+13
  3402   003576  C037  F1BE         	movff	?___aodiv+6,??_read_analog+14
  3403   00357A  C038  F1BF         	movff	?___aodiv+7,??_read_analog+15
  3404   00357E  504D               	movf	read_analog@i^0,w,c
  3405   003580  0D02               	mullw	2
  3406   003582  0E78               	movlw	low _avg_input
  3407   003584  24F3               	addwf	243,w,c
  3408   003586  6ED9               	movwf	fsr2l,c
  3409   003588  0E01               	movlw	high _avg_input
  3410   00358A  20F4               	addwfc	prodh,w,c
  3411   00358C  6EDA               	movwf	fsr2h,c
  3412   00358E  C1B8  FFDE         	movff	??_read_analog+8,postinc2
  3413   003592  C1B9  FFDD         	movff	??_read_analog+9,postdec2
  3414   003596                     
  3415                           ;main.c: 239:             sum_read[i] = 0;
  3416   003596  504D               	movf	read_analog@i^0,w,c
  3417   003598  0D08               	mullw	8
  3418   00359A  0E00               	movlw	low _sum_read
  3419   00359C  24F3               	addwf	243,w,c
  3420   00359E  6ED9               	movwf	fsr2l,c
  3421   0035A0  0E01               	movlw	high _sum_read
  3422   0035A2  20F4               	addwfc	prodh,w,c
  3423   0035A4  6EDA               	movwf	fsr2h,c
  3424   0035A6  0E07               	movlw	7
  3425   0035A8                     u7151:
  3426   0035A8  6ADE               	clrf	postinc2,c
  3427   0035AA  06E8               	decf	wreg,f,c
  3428   0035AC  E2FD               	bc	u7151
  3429   0035AE                     
  3430                           ;main.c: 240:         }
  3431   0035AE  2A4D               	incf	read_analog@i^0,f,c
  3432   0035B0  0E05               	movlw	5
  3433   0035B2  644D               	cpfsgt	read_analog@i^0,c
  3434   0035B4  EFDE  F01A         	goto	u7161
  3435   0035B8  EFE0  F01A         	goto	u7160
  3436   0035BC                     u7161:
  3437   0035BC  EF75  F01A         	goto	l3629
  3438   0035C0                     u7160:
  3439   0035C0                     
  3440                           ;main.c: 241:         count_reads = 0;
  3441   0035C0  EE20  F0C2         	lfsr	2,_count_reads
  3442   0035C4  0E07               	movlw	7
  3443   0035C6                     u7171:
  3444   0035C6  6ADE               	clrf	postinc2,c
  3445   0035C8  06E8               	decf	wreg,f,c
  3446   0035CA  E2FD               	bc	u7171
  3447   0035CC                     l118:
  3448   0035CC  0012               	return		;funcret
  3449   0035CE                     __end_of_read_analog:
  3450                           	callstack 0
  3451                           
  3452 ;; *************** function ___awdiv *****************
  3453 ;; Defined at:
  3454 ;;		line 7 in file "C:\Program Files\Microchip\xc8\v3.00\pic\sources\c99\common\awdiv.c"
  3455 ;; Parameters:    Size  Location     Type
  3456 ;;  dividend        2   12[COMRAM] int 
  3457 ;;  divisor         2   14[COMRAM] int 
  3458 ;; Auto vars:     Size  Location     Type
  3459 ;;  quotient        2   18[COMRAM] int 
  3460 ;;  sign            1   17[COMRAM] unsigned char 
  3461 ;;  counter         1   16[COMRAM] unsigned char 
  3462 ;; Return value:  Size  Location     Type
  3463 ;;                  2   12[COMRAM] int 
  3464 ;; Registers used:
  3465 ;;		wreg, status,2, status,0
  3466 ;; Tracked objects:
  3467 ;;		On entry : 0/0
  3468 ;;		On exit  : 0/0
  3469 ;;		Unchanged: 0/0
  3470 ;; Data sizes:     COMRAM   BANK0   BANK1   BANK2   BANK3   BANK4   BANK5   BANK6   BANK7
  3471 ;;      Params:         4       0       0       0       0       0       0       0       0
  3472 ;;      Locals:         4       0       0       0       0       0       0       0       0
  3473 ;;      Temps:          0       0       0       0       0       0       0       0       0
  3474 ;;      Totals:         8       0       0       0       0       0       0       0       0
  3475 ;;Total ram usage:        8 bytes
  3476 ;; Hardware stack levels used: 1
  3477 ;; Hardware stack levels required when called: 1
  3478 ;; This function calls:
  3479 ;;		Nothing
  3480 ;; This function is called by:
  3481 ;;		_read_analog
  3482 ;;		_update_pwm
  3483 ;;		_status_loop
  3484 ;; This function uses a non-reentrant model
  3485 ;;
  3486                           
  3487                           	psect	text6
  3488   003A86                     __ptext6:
  3489                           	callstack 0
  3490   003A86                     ___awdiv:
  3491                           	callstack 28
  3492   003A86  6A3C               	clrf	___awdiv@sign^0,c
  3493   003A88  BE3A               	btfsc	(___awdiv@divisor+1)^0,7,c
  3494   003A8A  EF4B  F01D         	goto	u3820
  3495   003A8E  EF49  F01D         	goto	u3821
  3496   003A92                     u3821:
  3497   003A92  EF51  F01D         	goto	l2649
  3498   003A96                     u3820:
  3499   003A96  6C39               	negf	___awdiv@divisor^0,c
  3500   003A98  1E3A               	comf	(___awdiv@divisor+1)^0,f,c
  3501   003A9A  B0D8               	btfsc	status,0,c
  3502   003A9C  2A3A               	incf	(___awdiv@divisor+1)^0,f,c
  3503   003A9E  0E01               	movlw	1
  3504   003AA0  6E3C               	movwf	___awdiv@sign^0,c
  3505   003AA2                     l2649:
  3506   003AA2  BE38               	btfsc	(___awdiv@dividend+1)^0,7,c
  3507   003AA4  EF58  F01D         	goto	u3830
  3508   003AA8  EF56  F01D         	goto	u3831
  3509   003AAC                     u3831:
  3510   003AAC  EF5E  F01D         	goto	l2655
  3511   003AB0                     u3830:
  3512   003AB0  6C37               	negf	___awdiv@dividend^0,c
  3513   003AB2  1E38               	comf	(___awdiv@dividend+1)^0,f,c
  3514   003AB4  B0D8               	btfsc	status,0,c
  3515   003AB6  2A38               	incf	(___awdiv@dividend+1)^0,f,c
  3516   003AB8  0E01               	movlw	1
  3517   003ABA  1A3C               	xorwf	___awdiv@sign^0,f,c
  3518   003ABC                     l2655:
  3519   003ABC  0E00               	movlw	0
  3520   003ABE  6E3E               	movwf	(___awdiv@quotient+1)^0,c
  3521   003AC0  0E00               	movlw	0
  3522   003AC2  6E3D               	movwf	___awdiv@quotient^0,c
  3523   003AC4  5039               	movf	___awdiv@divisor^0,w,c
  3524   003AC6  103A               	iorwf	(___awdiv@divisor+1)^0,w,c
  3525   003AC8  B4D8               	btfsc	status,2,c
  3526   003ACA  EF69  F01D         	goto	u3841
  3527   003ACE  EF6B  F01D         	goto	u3840
  3528   003AD2                     u3841:
  3529   003AD2  EF93  F01D         	goto	l2677
  3530   003AD6                     u3840:
  3531   003AD6  0E01               	movlw	1
  3532   003AD8  6E3B               	movwf	___awdiv@counter^0,c
  3533   003ADA  EF73  F01D         	goto	l2663
  3534   003ADE                     l2661:
  3535   003ADE  90D8               	bcf	status,0,c
  3536   003AE0  3639               	rlcf	___awdiv@divisor^0,f,c
  3537   003AE2  363A               	rlcf	(___awdiv@divisor+1)^0,f,c
  3538   003AE4  2A3B               	incf	___awdiv@counter^0,f,c
  3539   003AE6                     l2663:
  3540   003AE6  AE3A               	btfss	(___awdiv@divisor+1)^0,7,c
  3541   003AE8  EF78  F01D         	goto	u3851
  3542   003AEC  EF7A  F01D         	goto	u3850
  3543   003AF0                     u3851:
  3544   003AF0  EF6F  F01D         	goto	l2661
  3545   003AF4                     u3850:
  3546   003AF4                     l2665:
  3547   003AF4  90D8               	bcf	status,0,c
  3548   003AF6  363D               	rlcf	___awdiv@quotient^0,f,c
  3549   003AF8  363E               	rlcf	(___awdiv@quotient+1)^0,f,c
  3550   003AFA  5039               	movf	___awdiv@divisor^0,w,c
  3551   003AFC  5C37               	subwf	___awdiv@dividend^0,w,c
  3552   003AFE  503A               	movf	(___awdiv@divisor+1)^0,w,c
  3553   003B00  5838               	subwfb	(___awdiv@dividend+1)^0,w,c
  3554   003B02  A0D8               	btfss	status,0,c
  3555   003B04  EF86  F01D         	goto	u3861
  3556   003B08  EF88  F01D         	goto	u3860
  3557   003B0C                     u3861:
  3558   003B0C  EF8D  F01D         	goto	l2673
  3559   003B10                     u3860:
  3560   003B10  5039               	movf	___awdiv@divisor^0,w,c
  3561   003B12  5E37               	subwf	___awdiv@dividend^0,f,c
  3562   003B14  503A               	movf	(___awdiv@divisor+1)^0,w,c
  3563   003B16  5A38               	subwfb	(___awdiv@dividend+1)^0,f,c
  3564   003B18  803D               	bsf	___awdiv@quotient^0,0,c
  3565   003B1A                     l2673:
  3566   003B1A  90D8               	bcf	status,0,c
  3567   003B1C  323A               	rrcf	(___awdiv@divisor+1)^0,f,c
  3568   003B1E  3239               	rrcf	___awdiv@divisor^0,f,c
  3569   003B20  2E3B               	decfsz	___awdiv@counter^0,f,c
  3570   003B22  EF7A  F01D         	goto	l2665
  3571   003B26                     l2677:
  3572   003B26  503C               	movf	___awdiv@sign^0,w,c
  3573   003B28  B4D8               	btfsc	status,2,c
  3574   003B2A  EF99  F01D         	goto	u3871
  3575   003B2E  EF9B  F01D         	goto	u3870
  3576   003B32                     u3871:
  3577   003B32  EF9F  F01D         	goto	l2681
  3578   003B36                     u3870:
  3579   003B36  6C3D               	negf	___awdiv@quotient^0,c
  3580   003B38  1E3E               	comf	(___awdiv@quotient+1)^0,f,c
  3581   003B3A  B0D8               	btfsc	status,0,c
  3582   003B3C  2A3E               	incf	(___awdiv@quotient+1)^0,f,c
  3583   003B3E                     l2681:
  3584   003B3E  C03D  F037         	movff	___awdiv@quotient,?___awdiv
  3585   003B42  C03E  F038         	movff	___awdiv@quotient+1,?___awdiv+1
  3586   003B46  0012               	return		;funcret
  3587   003B48                     __end_of___awdiv:
  3588                           	callstack 0
  3589                           
  3590 ;; *************** function _loop *****************
  3591 ;; Defined at:
  3592 ;;		line 926 in file "main.c"
  3593 ;; Parameters:    Size  Location     Type
  3594 ;;		None
  3595 ;; Auto vars:     Size  Location     Type
  3596 ;;		None
  3597 ;; Return value:  Size  Location     Type
  3598 ;;                  1    wreg      void 
  3599 ;; Registers used:
  3600 ;;		wreg, fsr2l, fsr2h, status,2, status,0, pcl, pclath, pclatu, tosl, prodl, prodh, cstack
  3601 ;; Tracked objects:
  3602 ;;		On entry : 0/0
  3603 ;;		On exit  : 0/0
  3604 ;;		Unchanged: 0/0
  3605 ;; Data sizes:     COMRAM   BANK0   BANK1   BANK2   BANK3   BANK4   BANK5   BANK6   BANK7
  3606 ;;      Params:         0       0       0       0       0       0       0       0       0
  3607 ;;      Locals:         0       0       0       0       0       0       0       0       0
  3608 ;;      Temps:          0       0      16       0       0       0       0       0       0
  3609 ;;      Totals:         0       0      16       0       0       0       0       0       0
  3610 ;;Total ram usage:       16 bytes
  3611 ;; Hardware stack levels used: 1
  3612 ;; Hardware stack levels required when called: 2
  3613 ;; This function calls:
  3614 ;;		___aodiv
  3615 ;;		___aomod
  3616 ;;		_get_motor_speed
  3617 ;;		_get_robot_program
  3618 ;;		_init1
  3619 ;;		_init2
  3620 ;;		_init3
  3621 ;;		_init4
  3622 ;;		_loop1
  3623 ;;		_loop2
  3624 ;;		_loop3
  3625 ;;		_loop4
  3626 ;;		_read_eeprom
  3627 ;;		_set_motor_speed
  3628 ;;		_set_robot_program
  3629 ;;		_status_set_mode
  3630 ;;		_write_eeprom
  3631 ;; This function is called by:
  3632 ;;		_main
  3633 ;; This function uses a non-reentrant model
  3634 ;;
  3635                           
  3636                           	psect	text7
  3637   000802                     __ptext7:
  3638                           	callstack 0
  3639   000802                     _loop:
  3640                           	callstack 28
  3641   000802                     
  3642                           ;main.c: 927:     if (!flag_init && !initial_state){
  3643   000802  501A               	movf	_flag_init^0,w,c
  3644   000804  101B               	iorwf	(_flag_init+1)^0,w,c
  3645   000806  A4D8               	btfss	status,2,c
  3646   000808  EF08  F004         	goto	u7181
  3647   00080C  EF0A  F004         	goto	u7180
  3648   000810                     u7181:
  3649   000810  EF29  F004         	goto	l3649
  3650   000814                     u7180:
  3651   000814  502A               	movf	_initial_state^0,w,c
  3652   000816  A4D8               	btfss	status,2,c
  3653   000818  EF10  F004         	goto	u7191
  3654   00081C  EF12  F004         	goto	u7190
  3655   000820                     u7191:
  3656   000820  EF29  F004         	goto	l3649
  3657   000824                     u7190:
  3658   000824                     
  3659                           ;main.c: 928:         pwm[0] = 0;
  3660   000824  0E00               	movlw	0
  3661   000826  6E07               	movwf	(_pwm+1)^0,c
  3662   000828  0E00               	movlw	0
  3663   00082A  6E06               	movwf	_pwm^0,c
  3664                           
  3665                           ;main.c: 929:         pwm[1] = 0;
  3666   00082C  0E00               	movlw	0
  3667   00082E  6E09               	movwf	(_pwm+3)^0,c
  3668   000830  0E00               	movlw	0
  3669   000832  6E08               	movwf	(_pwm+2)^0,c
  3670                           
  3671                           ;main.c: 931:         flag_init = 1;
  3672   000834  0E00               	movlw	0
  3673   000836  6E1B               	movwf	(_flag_init+1)^0,c
  3674   000838  0E01               	movlw	1
  3675   00083A  6E1A               	movwf	_flag_init^0,c
  3676   00083C                     
  3677                           ;main.c: 936:         read_eeprom();
  3678   00083C  EC26  F01F         	call	_read_eeprom	;wreg free
  3679   000840                     
  3680                           ;main.c: 938:         status_set_mode( 4 , 0 , -1);
  3681   000840  0E00               	movlw	0
  3682   000842  6E31               	movwf	status_set_mode@next_mode^0,c
  3683   000844  0EFF               	movlw	255
  3684   000846  6E32               	movwf	status_set_mode@final_mode^0,c
  3685   000848  0E04               	movlw	4
  3686   00084A  ECF9  F01F         	call	_status_set_mode
  3687                           
  3688                           ;main.c: 940:     }else if (flag_init == 1 && robot_state == 0){
  3689   00084E  EF6C  F00F         	goto	l507
  3690   000852                     l3649:
  3691   000852  041A               	decf	_flag_init^0,w,c
  3692   000854  101B               	iorwf	(_flag_init+1)^0,w,c
  3693   000856  A4D8               	btfss	status,2,c
  3694   000858  EF30  F004         	goto	u7201
  3695   00085C  EF32  F004         	goto	u7200
  3696   000860                     u7201:
  3697   000860  EF51  F004         	goto	l3657
  3698   000864                     u7200:
  3699   000864  5010               	movf	_robot_state^0,w,c
  3700   000866  1011               	iorwf	(_robot_state+1)^0,w,c
  3701   000868  A4D8               	btfss	status,2,c
  3702   00086A  EF39  F004         	goto	u7211
  3703   00086E  EF3B  F004         	goto	u7210
  3704   000872                     u7211:
  3705   000872  EF51  F004         	goto	l3657
  3706   000876                     u7210:
  3707   000876                     
  3708                           ;main.c: 941:         if (status_mode == 0){
  3709   000876  5028               	movf	_status_mode^0,w,c
  3710   000878  A4D8               	btfss	status,2,c
  3711   00087A  EF41  F004         	goto	u7221
  3712   00087E  EF43  F004         	goto	u7220
  3713   000882                     u7221:
  3714   000882  EF6C  F00F         	goto	l507
  3715   000886                     u7220:
  3716   000886                     
  3717                           ;main.c: 948:             robot_state = 1;
  3718   000886  0E00               	movlw	0
  3719   000888  6E11               	movwf	(_robot_state+1)^0,c
  3720   00088A  0E01               	movlw	1
  3721   00088C  6E10               	movwf	_robot_state^0,c
  3722                           
  3723                           ;main.c: 949:             current_menu = 1;
  3724   00088E  0E00               	movlw	0
  3725   000890  6E19               	movwf	(_current_menu+1)^0,c
  3726   000892  0E01               	movlw	1
  3727   000894  6E18               	movwf	_current_menu^0,c
  3728                           
  3729                           ;main.c: 950:             flag_menu_init = 1;
  3730   000896  0E00               	movlw	0
  3731   000898  6E17               	movwf	(_flag_menu_init+1)^0,c
  3732   00089A  0E01               	movlw	1
  3733   00089C  6E16               	movwf	_flag_menu_init^0,c
  3734   00089E  EF6C  F00F         	goto	l507
  3735   0008A2                     l3657:
  3736   0008A2  0410               	decf	_robot_state^0,w,c
  3737   0008A4  1011               	iorwf	(_robot_state+1)^0,w,c
  3738   0008A6  A4D8               	btfss	status,2,c
  3739   0008A8  EF58  F004         	goto	u7231
  3740   0008AC  EF5A  F004         	goto	u7230
  3741   0008B0                     u7231:
  3742   0008B0  EF46  F008         	goto	l3837
  3743   0008B4                     u7230:
  3744   0008B4                     
  3745                           ;main.c: 955:         if (flag_menu_init){
  3746   0008B4  5016               	movf	_flag_menu_init^0,w,c
  3747   0008B6  1017               	iorwf	(_flag_menu_init+1)^0,w,c
  3748   0008B8  B4D8               	btfsc	status,2,c
  3749   0008BA  EF61  F004         	goto	u7241
  3750   0008BE  EF63  F004         	goto	u7240
  3751   0008C2                     u7241:
  3752   0008C2  EF76  F004         	goto	l3667
  3753   0008C6                     u7240:
  3754   0008C6                     
  3755                           ;main.c: 957:             flag_menu_init = 0;
  3756   0008C6  0E00               	movlw	0
  3757   0008C8  6E17               	movwf	(_flag_menu_init+1)^0,c
  3758   0008CA  0E00               	movlw	0
  3759   0008CC  6E16               	movwf	_flag_menu_init^0,c
  3760                           
  3761                           ;main.c: 958:             flag_menu_init_2 = 1;
  3762   0008CE  0E00               	movlw	0
  3763   0008D0  6E15               	movwf	(_flag_menu_init_2+1)^0,c
  3764   0008D2  0E01               	movlw	1
  3765   0008D4  6E14               	movwf	_flag_menu_init_2^0,c
  3766   0008D6                     
  3767                           ;main.c: 959:             status_code = current_menu;
  3768   0008D6  C018  F01C         	movff	_current_menu,_status_code
  3769   0008DA  C019  F01D         	movff	_current_menu+1,_status_code+1
  3770   0008DE                     
  3771                           ;main.c: 960:             status_set_mode( 6, 4, 0);
  3772   0008DE  0E04               	movlw	4
  3773   0008E0  6E31               	movwf	status_set_mode@next_mode^0,c
  3774   0008E2  0E00               	movlw	0
  3775   0008E4  6E32               	movwf	status_set_mode@final_mode^0,c
  3776   0008E6  0E06               	movlw	6
  3777   0008E8  ECF9  F01F         	call	_status_set_mode
  3778   0008EC                     l3667:
  3779                           
  3780                           ;main.c: 964:         if (current_menu == 1){
  3781   0008EC  0418               	decf	_current_menu^0,w,c
  3782   0008EE  1019               	iorwf	(_current_menu+1)^0,w,c
  3783   0008F0  A4D8               	btfss	status,2,c
  3784   0008F2  EF7D  F004         	goto	u7251
  3785   0008F6  EF7F  F004         	goto	u7250
  3786   0008FA                     u7251:
  3787   0008FA  EF4F  F005         	goto	l3707
  3788   0008FE                     u7250:
  3789   0008FE                     
  3790                           ;main.c: 966:             if (configure_mode == 0){
  3791   0008FE  5012               	movf	_configure_mode^0,w,c
  3792   000900  1013               	iorwf	(_configure_mode+1)^0,w,c
  3793   000902  A4D8               	btfss	status,2,c
  3794   000904  EF86  F004         	goto	u7261
  3795   000908  EF88  F004         	goto	u7260
  3796   00090C                     u7261:
  3797   00090C  EFBE  F004         	goto	l3687
  3798   000910                     u7260:
  3799   000910                     
  3800                           ;main.c: 967:                 if (flag_menu_init_2){
  3801   000910  5014               	movf	_flag_menu_init_2^0,w,c
  3802   000912  1015               	iorwf	(_flag_menu_init_2+1)^0,w,c
  3803   000914  B4D8               	btfsc	status,2,c
  3804   000916  EF8F  F004         	goto	u7271
  3805   00091A  EF91  F004         	goto	u7270
  3806   00091E                     u7271:
  3807   00091E  EFAA  F004         	goto	l3681
  3808   000922                     u7270:
  3809   000922                     
  3810                           ;main.c: 968:                     if (status_mode == 0){
  3811   000922  5028               	movf	_status_mode^0,w,c
  3812   000924  A4D8               	btfss	status,2,c
  3813   000926  EF97  F004         	goto	u7281
  3814   00092A  EF99  F004         	goto	u7280
  3815   00092E                     u7281:
  3816   00092E  EFAA  F004         	goto	l3681
  3817   000932                     u7280:
  3818   000932                     
  3819                           ;main.c: 969:                         flag_menu_init_2 = 0;
  3820   000932  0E00               	movlw	0
  3821   000934  6E15               	movwf	(_flag_menu_init_2+1)^0,c
  3822   000936  0E00               	movlw	0
  3823   000938  6E14               	movwf	_flag_menu_init_2^0,c
  3824   00093A                     
  3825                           ;main.c: 971:                         status_value = get_motor_speed();
  3826   00093A  EC2A  F020         	call	_get_motor_speed	;wreg free
  3827   00093E  C031  F026         	movff	?_get_motor_speed,_status_value
  3828   000942  C032  F027         	movff	?_get_motor_speed+1,_status_value+1
  3829   000946                     
  3830                           ;main.c: 972:                         status_set_mode( 1, 0, -1);
  3831   000946  0E00               	movlw	0
  3832   000948  6E31               	movwf	status_set_mode@next_mode^0,c
  3833   00094A  0EFF               	movlw	255
  3834   00094C  6E32               	movwf	status_set_mode@final_mode^0,c
  3835   00094E  0E01               	movlw	1
  3836   000950  ECF9  F01F         	call	_status_set_mode
  3837   000954                     l3681:
  3838                           
  3839                           ;main.c: 976:                 if (double_click_evt[0]){
  3840   000954  0100               	movlb	0	; () banked
  3841   000956  51CF               	movf	_double_click_evt& (0+255),w,b
  3842   000958  B4D8               	btfsc	status,2,c
  3843   00095A  EFB1  F004         	goto	u7291
  3844   00095E  EFB3  F004         	goto	u7290
  3845   000962                     u7291:
  3846   000962  EFE6  F007         	goto	l3815
  3847   000966                     u7290:
  3848   000966                     l3683:
  3849                           
  3850                           ; BSR set to: 0
  3851                           ;main.c: 978:                     double_click_evt[0] = 0;
  3852   000966  6BCF               	clrf	_double_click_evt& (0+255),b
  3853   000968                     
  3854                           ; BSR set to: 0
  3855                           ;main.c: 979:                     configure_mode = 1;
  3856   000968  0E00               	movlw	0
  3857   00096A  6E13               	movwf	(_configure_mode+1)^0,c
  3858   00096C  0E01               	movlw	1
  3859   00096E  6E12               	movwf	_configure_mode^0,c
  3860                           
  3861                           ;main.c: 980:                     flag_menu_init_2 = 1;
  3862   000970  0E00               	movlw	0
  3863   000972  6E15               	movwf	(_flag_menu_init_2+1)^0,c
  3864   000974  0E01               	movlw	1
  3865   000976  6E14               	movwf	_flag_menu_init_2^0,c
  3866   000978  EFE6  F007         	goto	l3815
  3867   00097C                     l3687:
  3868   00097C  0412               	decf	_configure_mode^0,w,c
  3869   00097E  1013               	iorwf	(_configure_mode+1)^0,w,c
  3870   000980  A4D8               	btfss	status,2,c
  3871   000982  EFC5  F004         	goto	u7301
  3872   000986  EFC7  F004         	goto	u7300
  3873   00098A                     u7301:
  3874   00098A  EFE6  F007         	goto	l3815
  3875   00098E                     u7300:
  3876   00098E                     
  3877                           ;main.c: 984:                 if (flag_menu_init_2){
  3878   00098E  5014               	movf	_flag_menu_init_2^0,w,c
  3879   000990  1015               	iorwf	(_flag_menu_init_2+1)^0,w,c
  3880   000992  B4D8               	btfsc	status,2,c
  3881   000994  EFCE  F004         	goto	u7311
  3882   000998  EFD0  F004         	goto	u7310
  3883   00099C                     u7311:
  3884   00099C  EFDF  F004         	goto	l3695
  3885   0009A0                     u7310:
  3886   0009A0                     
  3887                           ;main.c: 985:                     flag_menu_init_2 = 0;
  3888   0009A0  0E00               	movlw	0
  3889   0009A2  6E15               	movwf	(_flag_menu_init_2+1)^0,c
  3890   0009A4  0E00               	movlw	0
  3891   0009A6  6E14               	movwf	_flag_menu_init_2^0,c
  3892                           
  3893                           ;main.c: 988:                     status_code = 1;
  3894   0009A8  0E00               	movlw	0
  3895   0009AA  6E1D               	movwf	(_status_code+1)^0,c
  3896   0009AC  0E01               	movlw	1
  3897   0009AE  6E1C               	movwf	_status_code^0,c
  3898   0009B0                     
  3899                           ;main.c: 989:                     status_set_mode( 2, 0, -1);
  3900   0009B0  0E00               	movlw	0
  3901   0009B2  6E31               	movwf	status_set_mode@next_mode^0,c
  3902   0009B4  0EFF               	movlw	255
  3903   0009B6  6E32               	movwf	status_set_mode@final_mode^0,c
  3904   0009B8  0E02               	movlw	2
  3905   0009BA  ECF9  F01F         	call	_status_set_mode
  3906   0009BE                     l3695:
  3907                           
  3908                           ;main.c: 992:                 status_value = (long long) avg_input[0] * (long long) 1024
      +                           / (long long) 1000;
  3909   0009BE  C178  F1B0         	movff	_avg_input,??_loop
  3910   0009C2  C179  F1B1         	movff	_avg_input+1,??_loop+1
  3911   0009C6  0E00               	movlw	0
  3912   0009C8  0101               	movlb	1	; () banked
  3913   0009CA  BFB1               	btfsc	(??_loop+1)& (0+255),7,b
  3914   0009CC  0EFF               	movlw	255
  3915   0009CE  6FB2               	movwf	(??_loop+2)& (0+255),b
  3916   0009D0  6FB3               	movwf	(??_loop+3)& (0+255),b
  3917   0009D2  6FB4               	movwf	(??_loop+4)& (0+255),b
  3918   0009D4  6FB5               	movwf	(??_loop+5)& (0+255),b
  3919   0009D6  6FB6               	movwf	(??_loop+6)& (0+255),b
  3920   0009D8  6FB7               	movwf	(??_loop+7)& (0+255),b
  3921   0009DA  0E0A               	movlw	10
  3922   0009DC                     u7325:
  3923   0009DC  90D8               	bcf	status,0,c
  3924   0009DE  37B0               	rlcf	??_loop& (0+255),f,b
  3925   0009E0  37B1               	rlcf	(??_loop+1)& (0+255),f,b
  3926   0009E2  37B2               	rlcf	(??_loop+2)& (0+255),f,b
  3927   0009E4  37B3               	rlcf	(??_loop+3)& (0+255),f,b
  3928   0009E6  37B4               	rlcf	(??_loop+4)& (0+255),f,b
  3929   0009E8  37B5               	rlcf	(??_loop+5)& (0+255),f,b
  3930   0009EA  37B6               	rlcf	(??_loop+6)& (0+255),f,b
  3931   0009EC  37B7               	rlcf	(??_loop+7)& (0+255),f,b
  3932   0009EE  2EE8               	decfsz	wreg,f,c
  3933   0009F0  EFEE  F004         	goto	u7325
  3934   0009F4  C1B0  F031         	movff	??_loop,___aodiv@dividend
  3935   0009F8  C1B1  F032         	movff	??_loop+1,___aodiv@dividend+1
  3936   0009FC  C1B2  F033         	movff	??_loop+2,___aodiv@dividend+2
  3937   000A00  C1B3  F034         	movff	??_loop+3,___aodiv@dividend+3
  3938   000A04  C1B4  F035         	movff	??_loop+4,___aodiv@dividend+4
  3939   000A08  C1B5  F036         	movff	??_loop+5,___aodiv@dividend+5
  3940   000A0C  C1B6  F037         	movff	??_loop+6,___aodiv@dividend+6
  3941   000A10  C1B7  F038         	movff	??_loop+7,___aodiv@dividend+7
  3942   000A14  0EE8               	movlw	232
  3943   000A16  6E39               	movwf	___aodiv@divisor^0,c
  3944   000A18  0E03               	movlw	3
  3945   000A1A  6E3A               	movwf	(___aodiv@divisor+1)^0,c
  3946   000A1C  0E00               	movlw	0
  3947   000A1E  6E3B               	movwf	(___aodiv@divisor+2)^0,c
  3948   000A20  0E00               	movlw	0
  3949   000A22  6E3C               	movwf	(___aodiv@divisor+3)^0,c
  3950   000A24  0E00               	movlw	0
  3951   000A26  6E3D               	movwf	(___aodiv@divisor+4)^0,c
  3952   000A28  0E00               	movlw	0
  3953   000A2A  6E3E               	movwf	(___aodiv@divisor+5)^0,c
  3954   000A2C  0E00               	movlw	0
  3955   000A2E  6E3F               	movwf	(___aodiv@divisor+6)^0,c
  3956   000A30  0E00               	movlw	0
  3957   000A32  6E40               	movwf	(___aodiv@divisor+7)^0,c
  3958   000A34  ECE7  F01A         	call	___aodiv	;wreg free
  3959   000A38  C031  F1B8         	movff	?___aodiv,??_loop+8
  3960   000A3C  C032  F1B9         	movff	?___aodiv+1,??_loop+9
  3961   000A40  C033  F1BA         	movff	?___aodiv+2,??_loop+10
  3962   000A44  C034  F1BB         	movff	?___aodiv+3,??_loop+11
  3963   000A48  C035  F1BC         	movff	?___aodiv+4,??_loop+12
  3964   000A4C  C036  F1BD         	movff	?___aodiv+5,??_loop+13
  3965   000A50  C037  F1BE         	movff	?___aodiv+6,??_loop+14
  3966   000A54  C038  F1BF         	movff	?___aodiv+7,??_loop+15
  3967   000A58  C1B8  F026         	movff	??_loop+8,_status_value
  3968   000A5C  C1B9  F027         	movff	??_loop+9,_status_value+1
  3969                           
  3970                           ;main.c: 994:                 if (double_click_evt[0]){
  3971   000A60  0100               	movlb	0	; () banked
  3972   000A62  51CF               	movf	_double_click_evt& (0+255),w,b
  3973   000A64  B4D8               	btfsc	status,2,c
  3974   000A66  EF37  F005         	goto	u7331
  3975   000A6A  EF39  F005         	goto	u7330
  3976   000A6E                     u7331:
  3977   000A6E  EF4D  F005         	goto	l437
  3978   000A72                     u7330:
  3979   000A72                     
  3980                           ; BSR set to: 0
  3981                           ;main.c: 996:                     set_motor_speed(status_value);
  3982   000A72  C026  F031         	movff	_status_value,set_motor_speed@speed
  3983   000A76  C027  F032         	movff	_status_value+1,set_motor_speed@speed+1
  3984   000A7A  EC42  F020         	call	_set_motor_speed	;wreg free
  3985   000A7E                     l3699:
  3986                           
  3987                           ;main.c: 997:                     write_eeprom();
  3988   000A7E  EC53  F01E         	call	_write_eeprom	;wreg free
  3989   000A82                     
  3990                           ;main.c: 1000:                     double_click_evt[0] = 0;
  3991   000A82  0100               	movlb	0	; () banked
  3992   000A84  6BCF               	clrf	_double_click_evt& (0+255),b
  3993   000A86                     
  3994                           ; BSR set to: 0
  3995                           ;main.c: 1001:                     configure_mode = 0;
  3996   000A86  0E00               	movlw	0
  3997   000A88  6E13               	movwf	(_configure_mode+1)^0,c
  3998   000A8A  0E00               	movlw	0
  3999   000A8C  6E12               	movwf	_configure_mode^0,c
  4000   000A8E                     
  4001                           ; BSR set to: 0
  4002                           ;main.c: 1002:                     flag_menu_init = 1;
  4003   000A8E  0E00               	movlw	0
  4004   000A90  6E17               	movwf	(_flag_menu_init+1)^0,c
  4005   000A92  0E01               	movlw	1
  4006   000A94  6E16               	movwf	_flag_menu_init^0,c
  4007   000A96  EFE6  F007         	goto	l3815
  4008   000A9A                     l437:
  4009                           
  4010                           ; BSR set to: 0
  4011                           ;main.c: 1007:         }else if (current_menu == 2){
  4012   000A9A  EFE6  F007         	goto	l3815
  4013   000A9E                     l3707:
  4014   000A9E  0E02               	movlw	2
  4015   000AA0  1818               	xorwf	_current_menu^0,w,c
  4016   000AA2  1019               	iorwf	(_current_menu+1)^0,w,c
  4017   000AA4  A4D8               	btfss	status,2,c
  4018   000AA6  EF57  F005         	goto	u7341
  4019   000AAA  EF59  F005         	goto	u7340
  4020   000AAE                     u7341:
  4021   000AAE  EF07  F006         	goto	l3765
  4022   000AB2                     u7340:
  4023   000AB2                     
  4024                           ;main.c: 1009:             if (configure_mode == 0){
  4025   000AB2  5012               	movf	_configure_mode^0,w,c
  4026   000AB4  1013               	iorwf	(_configure_mode+1)^0,w,c
  4027   000AB6  A4D8               	btfss	status,2,c
  4028   000AB8  EF60  F005         	goto	u7351
  4029   000ABC  EF62  F005         	goto	u7350
  4030   000AC0                     u7351:
  4031   000AC0  EF8F  F005         	goto	l3727
  4032   000AC4                     u7350:
  4033   000AC4                     
  4034                           ;main.c: 1010:                 if (flag_menu_init_2){
  4035   000AC4  5014               	movf	_flag_menu_init_2^0,w,c
  4036   000AC6  1015               	iorwf	(_flag_menu_init_2+1)^0,w,c
  4037   000AC8  B4D8               	btfsc	status,2,c
  4038   000ACA  EF69  F005         	goto	u7361
  4039   000ACE  EF6B  F005         	goto	u7360
  4040   000AD2                     u7361:
  4041   000AD2  EF84  F005         	goto	l3721
  4042   000AD6                     u7360:
  4043   000AD6                     
  4044                           ;main.c: 1011:                     if (status_mode == 0){
  4045   000AD6  5028               	movf	_status_mode^0,w,c
  4046   000AD8  A4D8               	btfss	status,2,c
  4047   000ADA  EF71  F005         	goto	u7371
  4048   000ADE  EF73  F005         	goto	u7370
  4049   000AE2                     u7371:
  4050   000AE2  EF84  F005         	goto	l3721
  4051   000AE6                     u7370:
  4052   000AE6                     
  4053                           ;main.c: 1012:                         flag_menu_init_2 = 0;
  4054   000AE6  0E00               	movlw	0
  4055   000AE8  6E15               	movwf	(_flag_menu_init_2+1)^0,c
  4056   000AEA  0E00               	movlw	0
  4057   000AEC  6E14               	movwf	_flag_menu_init_2^0,c
  4058   000AEE                     
  4059                           ;main.c: 1014:                         status_value = get_robot_program();
  4060   000AEE  ECAF  F01F         	call	_get_robot_program	;wreg free
  4061   000AF2  C031  F026         	movff	?_get_robot_program,_status_value
  4062   000AF6  C032  F027         	movff	?_get_robot_program+1,_status_value+1
  4063   000AFA                     
  4064                           ;main.c: 1015:                         status_set_mode( 7, 0, -1);
  4065   000AFA  0E00               	movlw	0
  4066   000AFC  6E31               	movwf	status_set_mode@next_mode^0,c
  4067   000AFE  0EFF               	movlw	255
  4068   000B00  6E32               	movwf	status_set_mode@final_mode^0,c
  4069   000B02  0E07               	movlw	7
  4070   000B04  ECF9  F01F         	call	_status_set_mode
  4071   000B08                     l3721:
  4072                           
  4073                           ;main.c: 1019:                 if (double_click_evt[0]){
  4074   000B08  0100               	movlb	0	; () banked
  4075   000B0A  51CF               	movf	_double_click_evt& (0+255),w,b
  4076   000B0C  B4D8               	btfsc	status,2,c
  4077   000B0E  EF8B  F005         	goto	u7381
  4078   000B12  EF8D  F005         	goto	u7380
  4079   000B16                     u7381:
  4080   000B16  EFE6  F007         	goto	l3815
  4081   000B1A                     u7380:
  4082   000B1A  EFB3  F004         	goto	l3683
  4083   000B1E                     l3727:
  4084   000B1E  0412               	decf	_configure_mode^0,w,c
  4085   000B20  1013               	iorwf	(_configure_mode+1)^0,w,c
  4086   000B22  A4D8               	btfss	status,2,c
  4087   000B24  EF96  F005         	goto	u7391
  4088   000B28  EF98  F005         	goto	u7390
  4089   000B2C                     u7391:
  4090   000B2C  EFE6  F007         	goto	l3815
  4091   000B30                     u7390:
  4092   000B30                     
  4093                           ;main.c: 1027:                 if (flag_menu_init_2){
  4094   000B30  5014               	movf	_flag_menu_init_2^0,w,c
  4095   000B32  1015               	iorwf	(_flag_menu_init_2+1)^0,w,c
  4096   000B34  B4D8               	btfsc	status,2,c
  4097   000B36  EF9F  F005         	goto	u7401
  4098   000B3A  EFA1  F005         	goto	u7400
  4099   000B3E                     u7401:
  4100   000B3E  EFB0  F005         	goto	l3735
  4101   000B42                     u7400:
  4102   000B42                     
  4103                           ;main.c: 1028:                     flag_menu_init_2 = 0;
  4104   000B42  0E00               	movlw	0
  4105   000B44  6E15               	movwf	(_flag_menu_init_2+1)^0,c
  4106   000B46  0E00               	movlw	0
  4107   000B48  6E14               	movwf	_flag_menu_init_2^0,c
  4108                           
  4109                           ;main.c: 1030:                     status_code = 2;
  4110   000B4A  0E00               	movlw	0
  4111   000B4C  6E1D               	movwf	(_status_code+1)^0,c
  4112   000B4E  0E02               	movlw	2
  4113   000B50  6E1C               	movwf	_status_code^0,c
  4114   000B52                     
  4115                           ;main.c: 1031:                     status_set_mode( 8, 0, -1);
  4116   000B52  0E00               	movlw	0
  4117   000B54  6E31               	movwf	status_set_mode@next_mode^0,c
  4118   000B56  0EFF               	movlw	255
  4119   000B58  6E32               	movwf	status_set_mode@final_mode^0,c
  4120   000B5A  0E08               	movlw	8
  4121   000B5C  ECF9  F01F         	call	_status_set_mode
  4122   000B60                     l3735:
  4123                           
  4124                           ;main.c: 1034:                 if (single_click_evt[1]){
  4125   000B60  0100               	movlb	0	; () banked
  4126   000B62  51D5               	movf	(_single_click_evt+1)& (0+255),w,b
  4127   000B64  B4D8               	btfsc	status,2,c
  4128   000B66  EFB7  F005         	goto	u7411
  4129   000B6A  EFB9  F005         	goto	u7410
  4130   000B6E                     u7411:
  4131   000B6E  EFD6  F005         	goto	l450
  4132   000B72                     u7410:
  4133   000B72                     
  4134                           ; BSR set to: 0
  4135                           ;main.c: 1035:                     single_click_evt[1] = 0;
  4136   000B72  6BD5               	clrf	(_single_click_evt+1)& (0+255),b
  4137   000B74                     
  4138                           ; BSR set to: 0
  4139                           ;main.c: 1036:                     status_value ++;
  4140   000B74  4A26               	infsnz	_status_value^0,f,c
  4141   000B76  2A27               	incf	(_status_value+1)^0,f,c
  4142   000B78                     
  4143                           ; BSR set to: 0
  4144                           ;main.c: 1037:                     if (status_value >= program_count+1){
  4145   000B78  0E01               	movlw	1
  4146   000B7A  240E               	addwf	_program_count^0,w,c
  4147   000B7C  0101               	movlb	1	; () banked
  4148   000B7E  6FB0               	movwf	??_loop& (0+255),b
  4149   000B80  0E00               	movlw	0
  4150   000B82  200F               	addwfc	(_program_count+1)^0,w,c
  4151   000B84  6FB1               	movwf	(??_loop+1)& (0+255),b
  4152   000B86  51B0               	movf	??_loop& (0+255),w,b
  4153   000B88  5C26               	subwf	_status_value^0,w,c
  4154   000B8A  5027               	movf	(_status_value+1)^0,w,c
  4155   000B8C  0A80               	xorlw	128
  4156   000B8E  6FB2               	movwf	(??_loop+2)& (0+255),b
  4157   000B90  51B1               	movf	(??_loop+1)& (0+255),w,b
  4158   000B92  0A80               	xorlw	128
  4159   000B94  59B2               	subwfb	(??_loop+2)& (0+255),w,b
  4160   000B96  A0D8               	btfss	status,0,c
  4161   000B98  EFD0  F005         	goto	u7421
  4162   000B9C  EFD2  F005         	goto	u7420
  4163   000BA0                     u7421:
  4164   000BA0  EFD6  F005         	goto	l450
  4165   000BA4                     u7420:
  4166   000BA4                     
  4167                           ; BSR set to: 1
  4168                           ;main.c: 1038:                         status_value = 1;
  4169   000BA4  0E00               	movlw	0
  4170   000BA6  6E27               	movwf	(_status_value+1)^0,c
  4171   000BA8  0E01               	movlw	1
  4172   000BAA  6E26               	movwf	_status_value^0,c
  4173   000BAC                     l450:
  4174                           
  4175                           ;main.c: 1041:                 if (single_click_evt[0]){
  4176   000BAC  0100               	movlb	0	; () banked
  4177   000BAE  51D4               	movf	_single_click_evt& (0+255),w,b
  4178   000BB0  B4D8               	btfsc	status,2,c
  4179   000BB2  EFDD  F005         	goto	u7431
  4180   000BB6  EFDF  F005         	goto	u7430
  4181   000BBA                     u7431:
  4182   000BBA  EFF7  F005         	goto	l3753
  4183   000BBE                     u7430:
  4184   000BBE                     
  4185                           ; BSR set to: 0
  4186                           ;main.c: 1042:                     single_click_evt[0] = 0;
  4187   000BBE  6BD4               	clrf	_single_click_evt& (0+255),b
  4188   000BC0                     
  4189                           ; BSR set to: 0
  4190                           ;main.c: 1043:                     if (status_value <= 1){
  4191   000BC0  BE27               	btfsc	(_status_value+1)^0,7,c
  4192   000BC2  EFEE  F005         	goto	u7440
  4193   000BC6  5027               	movf	(_status_value+1)^0,w,c
  4194   000BC8  E107               	bnz	u7441
  4195   000BCA  0E02               	movlw	2
  4196   000BCC  5C26               	subwf	_status_value^0,w,c
  4197   000BCE  B0D8               	btfsc	status,0,c
  4198   000BD0  EFEC  F005         	goto	u7441
  4199   000BD4  EFEE  F005         	goto	u7440
  4200   000BD8                     u7441:
  4201   000BD8  EFF4  F005         	goto	l3751
  4202   000BDC                     u7440:
  4203   000BDC                     
  4204                           ; BSR set to: 0
  4205                           ;main.c: 1044:                         status_value = program_count;
  4206   000BDC  C00E  F026         	movff	_program_count,_status_value
  4207   000BE0  C00F  F027         	movff	_program_count+1,_status_value+1
  4208                           
  4209                           ;main.c: 1045:                     }else{
  4210   000BE4  EFF7  F005         	goto	l3753
  4211   000BE8                     l3751:
  4212                           
  4213                           ; BSR set to: 0
  4214                           ;main.c: 1046:                         status_value --;
  4215   000BE8  0626               	decf	_status_value^0,f,c
  4216   000BEA  A0D8               	btfss	status,0,c
  4217   000BEC  0627               	decf	(_status_value+1)^0,f,c
  4218   000BEE                     l3753:
  4219                           
  4220                           ; BSR set to: 0
  4221                           ;main.c: 1049:                 if (double_click_evt[0]){
  4222   000BEE  51CF               	movf	_double_click_evt& (0+255),w,b
  4223   000BF0  B4D8               	btfsc	status,2,c
  4224   000BF2  EFFD  F005         	goto	u7451
  4225   000BF6  EFFF  F005         	goto	u7450
  4226   000BFA                     u7451:
  4227   000BFA  EF4D  F005         	goto	l437
  4228   000BFE                     u7450:
  4229   000BFE                     
  4230                           ; BSR set to: 0
  4231                           ;main.c: 1051:                     set_robot_program(status_value);
  4232   000BFE  C026  F031         	movff	_status_value,set_robot_program@program
  4233   000C02  C027  F032         	movff	_status_value+1,set_robot_program@program+1
  4234   000C06  ECD6  F01F         	call	_set_robot_program	;wreg free
  4235   000C0A  EF3F  F005         	goto	l3699
  4236   000C0E                     l3765:
  4237   000C0E  0E03               	movlw	3
  4238   000C10  1818               	xorwf	_current_menu^0,w,c
  4239   000C12  1019               	iorwf	(_current_menu+1)^0,w,c
  4240   000C14  A4D8               	btfss	status,2,c
  4241   000C16  EF0F  F006         	goto	u7461
  4242   000C1A  EF11  F006         	goto	u7460
  4243   000C1E                     u7461:
  4244   000C1E  EF34  F006         	goto	l3771
  4245   000C22                     u7460:
  4246   000C22                     
  4247                           ;main.c: 1062:             if (status_mode == 0){
  4248   000C22  5028               	movf	_status_mode^0,w,c
  4249   000C24  A4D8               	btfss	status,2,c
  4250   000C26  EF17  F006         	goto	u7471
  4251   000C2A  EF19  F006         	goto	u7470
  4252   000C2E                     u7471:
  4253   000C2E  EFE6  F007         	goto	l3815
  4254   000C32                     u7470:
  4255   000C32                     
  4256                           ;main.c: 1063:                 PORTBbits.RB0 = PORTDbits.RD7;
  4257   000C32  AE83               	btfss	131,7,c	;volatile
  4258   000C34  D002               	bra	u7485
  4259   000C36  8081               	bsf	129,0,c	;volatile
  4260   000C38  D001               	bra	u7487
  4261   000C3A                     u7485:
  4262   000C3A  9081               	bcf	129,0,c	;volatile
  4263   000C3C                     u7487:
  4264                           
  4265                           ;main.c: 1064:                 PORTBbits.RB1 = PORTDbits.RD6;
  4266   000C3C  AC83               	btfss	131,6,c	;volatile
  4267   000C3E  D002               	bra	u7495
  4268   000C40  8281               	bsf	129,1,c	;volatile
  4269   000C42  D001               	bra	u7497
  4270   000C44                     u7495:
  4271   000C44  9281               	bcf	129,1,c	;volatile
  4272   000C46                     u7497:
  4273                           
  4274                           ;main.c: 1065:                 PORTBbits.RB2 = PORTDbits.RD5;
  4275   000C46  AA83               	btfss	131,5,c	;volatile
  4276   000C48  D002               	bra	u7505
  4277   000C4A  8481               	bsf	129,2,c	;volatile
  4278   000C4C  D001               	bra	u7507
  4279   000C4E                     u7505:
  4280   000C4E  9481               	bcf	129,2,c	;volatile
  4281   000C50                     u7507:
  4282                           
  4283                           ;main.c: 1066:                 PORTBbits.RB4 = PORTDbits.RD4;
  4284   000C50  A883               	btfss	131,4,c	;volatile
  4285   000C52  D002               	bra	u7515
  4286   000C54  8881               	bsf	129,4,c	;volatile
  4287   000C56  D001               	bra	u7517
  4288   000C58                     u7515:
  4289   000C58  9881               	bcf	129,4,c	;volatile
  4290   000C5A                     u7517:
  4291                           
  4292                           ;main.c: 1067:                 PORTBbits.RB5 = PORTCbits.RC5;
  4293   000C5A  AA82               	btfss	130,5,c	;volatile
  4294   000C5C  D002               	bra	u7525
  4295   000C5E  8A81               	bsf	129,5,c	;volatile
  4296   000C60  D001               	bra	u7527
  4297   000C62                     u7525:
  4298   000C62  9A81               	bcf	129,5,c	;volatile
  4299   000C64                     u7527:
  4300   000C64  EFE6  F007         	goto	l3815
  4301   000C68                     l3771:
  4302   000C68  0E04               	movlw	4
  4303   000C6A  1818               	xorwf	_current_menu^0,w,c
  4304   000C6C  1019               	iorwf	(_current_menu+1)^0,w,c
  4305   000C6E  A4D8               	btfss	status,2,c
  4306   000C70  EF3C  F006         	goto	u7531
  4307   000C74  EF3E  F006         	goto	u7530
  4308   000C78                     u7531:
  4309   000C78  EF00  F007         	goto	l3785
  4310   000C7C                     u7530:
  4311   000C7C                     
  4312                           ;main.c: 1070:             if (flag_menu_init_2){
  4313   000C7C  5014               	movf	_flag_menu_init_2^0,w,c
  4314   000C7E  1015               	iorwf	(_flag_menu_init_2+1)^0,w,c
  4315   000C80  B4D8               	btfsc	status,2,c
  4316   000C82  EF45  F006         	goto	u7541
  4317   000C86  EF47  F006         	goto	u7540
  4318   000C8A                     u7541:
  4319   000C8A  EFAD  F006         	goto	l3783
  4320   000C8E                     u7540:
  4321   000C8E                     
  4322                           ;main.c: 1071:                 if (status_mode == 0){
  4323   000C8E  5028               	movf	_status_mode^0,w,c
  4324   000C90  A4D8               	btfss	status,2,c
  4325   000C92  EF4D  F006         	goto	u7551
  4326   000C96  EF4F  F006         	goto	u7550
  4327   000C9A                     u7551:
  4328   000C9A  EFE6  F007         	goto	l3815
  4329   000C9E                     u7550:
  4330   000C9E                     
  4331                           ;main.c: 1072:                     flag_menu_init_2 = 0;
  4332   000C9E  0E00               	movlw	0
  4333   000CA0  6E15               	movwf	(_flag_menu_init_2+1)^0,c
  4334   000CA2  0E00               	movlw	0
  4335   000CA4  6E14               	movwf	_flag_menu_init_2^0,c
  4336   000CA6                     
  4337                           ;main.c: 1074:                     status_value = (long long) avg_input[2] * (long long)
      +                           1024 / (long long) 1000;
  4338   000CA6  C17C  F1B0         	movff	_avg_input+4,??_loop
  4339   000CAA  C17D  F1B1         	movff	_avg_input+5,??_loop+1
  4340   000CAE  0E00               	movlw	0
  4341   000CB0  0101               	movlb	1	; () banked
  4342   000CB2  BFB1               	btfsc	(??_loop+1)& (0+255),7,b
  4343   000CB4  0EFF               	movlw	255
  4344   000CB6  6FB2               	movwf	(??_loop+2)& (0+255),b
  4345   000CB8  6FB3               	movwf	(??_loop+3)& (0+255),b
  4346   000CBA  6FB4               	movwf	(??_loop+4)& (0+255),b
  4347   000CBC  6FB5               	movwf	(??_loop+5)& (0+255),b
  4348   000CBE  6FB6               	movwf	(??_loop+6)& (0+255),b
  4349   000CC0  6FB7               	movwf	(??_loop+7)& (0+255),b
  4350   000CC2  0E0A               	movlw	10
  4351   000CC4                     u7565:
  4352   000CC4  90D8               	bcf	status,0,c
  4353   000CC6  37B0               	rlcf	??_loop& (0+255),f,b
  4354   000CC8  37B1               	rlcf	(??_loop+1)& (0+255),f,b
  4355   000CCA  37B2               	rlcf	(??_loop+2)& (0+255),f,b
  4356   000CCC  37B3               	rlcf	(??_loop+3)& (0+255),f,b
  4357   000CCE  37B4               	rlcf	(??_loop+4)& (0+255),f,b
  4358   000CD0  37B5               	rlcf	(??_loop+5)& (0+255),f,b
  4359   000CD2  37B6               	rlcf	(??_loop+6)& (0+255),f,b
  4360   000CD4  37B7               	rlcf	(??_loop+7)& (0+255),f,b
  4361   000CD6  2EE8               	decfsz	wreg,f,c
  4362   000CD8  EF62  F006         	goto	u7565
  4363   000CDC  C1B0  F031         	movff	??_loop,___aodiv@dividend
  4364   000CE0  C1B1  F032         	movff	??_loop+1,___aodiv@dividend+1
  4365   000CE4  C1B2  F033         	movff	??_loop+2,___aodiv@dividend+2
  4366   000CE8  C1B3  F034         	movff	??_loop+3,___aodiv@dividend+3
  4367   000CEC  C1B4  F035         	movff	??_loop+4,___aodiv@dividend+4
  4368   000CF0  C1B5  F036         	movff	??_loop+5,___aodiv@dividend+5
  4369   000CF4  C1B6  F037         	movff	??_loop+6,___aodiv@dividend+6
  4370   000CF8  C1B7  F038         	movff	??_loop+7,___aodiv@dividend+7
  4371   000CFC  0EE8               	movlw	232
  4372   000CFE  6E39               	movwf	___aodiv@divisor^0,c
  4373   000D00  0E03               	movlw	3
  4374   000D02  6E3A               	movwf	(___aodiv@divisor+1)^0,c
  4375   000D04  0E00               	movlw	0
  4376   000D06  6E3B               	movwf	(___aodiv@divisor+2)^0,c
  4377   000D08  0E00               	movlw	0
  4378   000D0A  6E3C               	movwf	(___aodiv@divisor+3)^0,c
  4379   000D0C  0E00               	movlw	0
  4380   000D0E  6E3D               	movwf	(___aodiv@divisor+4)^0,c
  4381   000D10  0E00               	movlw	0
  4382   000D12  6E3E               	movwf	(___aodiv@divisor+5)^0,c
  4383   000D14  0E00               	movlw	0
  4384   000D16  6E3F               	movwf	(___aodiv@divisor+6)^0,c
  4385   000D18  0E00               	movlw	0
  4386   000D1A  6E40               	movwf	(___aodiv@divisor+7)^0,c
  4387   000D1C  ECE7  F01A         	call	___aodiv	;wreg free
  4388   000D20  C031  F1B8         	movff	?___aodiv,??_loop+8
  4389   000D24  C032  F1B9         	movff	?___aodiv+1,??_loop+9
  4390   000D28  C033  F1BA         	movff	?___aodiv+2,??_loop+10
  4391   000D2C  C034  F1BB         	movff	?___aodiv+3,??_loop+11
  4392   000D30  C035  F1BC         	movff	?___aodiv+4,??_loop+12
  4393   000D34  C036  F1BD         	movff	?___aodiv+5,??_loop+13
  4394   000D38  C037  F1BE         	movff	?___aodiv+6,??_loop+14
  4395   000D3C  C038  F1BF         	movff	?___aodiv+7,??_loop+15
  4396   000D40  C1B8  F026         	movff	??_loop+8,_status_value
  4397   000D44  C1B9  F027         	movff	??_loop+9,_status_value+1
  4398   000D48                     
  4399                           ;main.c: 1075:                     status_set_mode( 1, 0, -1);
  4400   000D48  0E00               	movlw	0
  4401   000D4A  6E31               	movwf	status_set_mode@next_mode^0,c
  4402   000D4C  0EFF               	movlw	255
  4403   000D4E  6E32               	movwf	status_set_mode@final_mode^0,c
  4404   000D50  0E01               	movlw	1
  4405   000D52  ECF9  F01F         	call	_status_set_mode
  4406   000D56  EFE6  F007         	goto	l3815
  4407   000D5A                     l3783:
  4408                           
  4409                           ;main.c: 1078:                 status_value = (long long) avg_input[2] * (long long) 102
      +                          4 / (long long) 1000;
  4410   000D5A  C17C  F1B0         	movff	_avg_input+4,??_loop
  4411   000D5E  C17D  F1B1         	movff	_avg_input+5,??_loop+1
  4412   000D62  0E00               	movlw	0
  4413   000D64  0101               	movlb	1	; () banked
  4414   000D66  BFB1               	btfsc	(??_loop+1)& (0+255),7,b
  4415   000D68  0EFF               	movlw	255
  4416   000D6A  6FB2               	movwf	(??_loop+2)& (0+255),b
  4417   000D6C  6FB3               	movwf	(??_loop+3)& (0+255),b
  4418   000D6E  6FB4               	movwf	(??_loop+4)& (0+255),b
  4419   000D70  6FB5               	movwf	(??_loop+5)& (0+255),b
  4420   000D72  6FB6               	movwf	(??_loop+6)& (0+255),b
  4421   000D74  6FB7               	movwf	(??_loop+7)& (0+255),b
  4422   000D76  0E0A               	movlw	10
  4423   000D78                     u7575:
  4424   000D78  90D8               	bcf	status,0,c
  4425   000D7A  37B0               	rlcf	??_loop& (0+255),f,b
  4426   000D7C  37B1               	rlcf	(??_loop+1)& (0+255),f,b
  4427   000D7E  37B2               	rlcf	(??_loop+2)& (0+255),f,b
  4428   000D80  37B3               	rlcf	(??_loop+3)& (0+255),f,b
  4429   000D82  37B4               	rlcf	(??_loop+4)& (0+255),f,b
  4430   000D84  37B5               	rlcf	(??_loop+5)& (0+255),f,b
  4431   000D86  37B6               	rlcf	(??_loop+6)& (0+255),f,b
  4432   000D88  37B7               	rlcf	(??_loop+7)& (0+255),f,b
  4433   000D8A  2EE8               	decfsz	wreg,f,c
  4434   000D8C  EFBC  F006         	goto	u7575
  4435   000D90  C1B0  F031         	movff	??_loop,___aodiv@dividend
  4436   000D94  C1B1  F032         	movff	??_loop+1,___aodiv@dividend+1
  4437   000D98  C1B2  F033         	movff	??_loop+2,___aodiv@dividend+2
  4438   000D9C  C1B3  F034         	movff	??_loop+3,___aodiv@dividend+3
  4439   000DA0  C1B4  F035         	movff	??_loop+4,___aodiv@dividend+4
  4440   000DA4  C1B5  F036         	movff	??_loop+5,___aodiv@dividend+5
  4441   000DA8  C1B6  F037         	movff	??_loop+6,___aodiv@dividend+6
  4442   000DAC  C1B7  F038         	movff	??_loop+7,___aodiv@dividend+7
  4443   000DB0  0EE8               	movlw	232
  4444   000DB2  6E39               	movwf	___aodiv@divisor^0,c
  4445   000DB4  0E03               	movlw	3
  4446   000DB6  6E3A               	movwf	(___aodiv@divisor+1)^0,c
  4447   000DB8  0E00               	movlw	0
  4448   000DBA  6E3B               	movwf	(___aodiv@divisor+2)^0,c
  4449   000DBC  0E00               	movlw	0
  4450   000DBE  6E3C               	movwf	(___aodiv@divisor+3)^0,c
  4451   000DC0  0E00               	movlw	0
  4452   000DC2  6E3D               	movwf	(___aodiv@divisor+4)^0,c
  4453   000DC4  0E00               	movlw	0
  4454   000DC6  6E3E               	movwf	(___aodiv@divisor+5)^0,c
  4455   000DC8  0E00               	movlw	0
  4456   000DCA  6E3F               	movwf	(___aodiv@divisor+6)^0,c
  4457   000DCC  0E00               	movlw	0
  4458   000DCE  6E40               	movwf	(___aodiv@divisor+7)^0,c
  4459   000DD0  ECE7  F01A         	call	___aodiv	;wreg free
  4460   000DD4  C031  F1B8         	movff	?___aodiv,??_loop+8
  4461   000DD8  C032  F1B9         	movff	?___aodiv+1,??_loop+9
  4462   000DDC  C033  F1BA         	movff	?___aodiv+2,??_loop+10
  4463   000DE0  C034  F1BB         	movff	?___aodiv+3,??_loop+11
  4464   000DE4  C035  F1BC         	movff	?___aodiv+4,??_loop+12
  4465   000DE8  C036  F1BD         	movff	?___aodiv+5,??_loop+13
  4466   000DEC  C037  F1BE         	movff	?___aodiv+6,??_loop+14
  4467   000DF0  C038  F1BF         	movff	?___aodiv+7,??_loop+15
  4468   000DF4  C1B8  F026         	movff	??_loop+8,_status_value
  4469   000DF8  C1B9  F027         	movff	??_loop+9,_status_value+1
  4470   000DFC  EFE6  F007         	goto	l3815
  4471   000E00                     l3785:
  4472   000E00  0E05               	movlw	5
  4473   000E02  1818               	xorwf	_current_menu^0,w,c
  4474   000E04  1019               	iorwf	(_current_menu+1)^0,w,c
  4475   000E06  A4D8               	btfss	status,2,c
  4476   000E08  EF08  F007         	goto	u7581
  4477   000E0C  EF0A  F007         	goto	u7580
  4478   000E10                     u7581:
  4479   000E10  EFCC  F007         	goto	l3799
  4480   000E14                     u7580:
  4481   000E14                     
  4482                           ;main.c: 1081:            if (flag_menu_init_2){
  4483   000E14  5014               	movf	_flag_menu_init_2^0,w,c
  4484   000E16  1015               	iorwf	(_flag_menu_init_2+1)^0,w,c
  4485   000E18  B4D8               	btfsc	status,2,c
  4486   000E1A  EF11  F007         	goto	u7591
  4487   000E1E  EF13  F007         	goto	u7590
  4488   000E22                     u7591:
  4489   000E22  EF79  F007         	goto	l3797
  4490   000E26                     u7590:
  4491   000E26                     
  4492                           ;main.c: 1082:                 if (status_mode == 0){
  4493   000E26  5028               	movf	_status_mode^0,w,c
  4494   000E28  A4D8               	btfss	status,2,c
  4495   000E2A  EF19  F007         	goto	u7601
  4496   000E2E  EF1B  F007         	goto	u7600
  4497   000E32                     u7601:
  4498   000E32  EFE6  F007         	goto	l3815
  4499   000E36                     u7600:
  4500   000E36                     
  4501                           ;main.c: 1083:                     flag_menu_init_2 = 0;
  4502   000E36  0E00               	movlw	0
  4503   000E38  6E15               	movwf	(_flag_menu_init_2+1)^0,c
  4504   000E3A  0E00               	movlw	0
  4505   000E3C  6E14               	movwf	_flag_menu_init_2^0,c
  4506   000E3E                     
  4507                           ;main.c: 1085:                     status_value = (long long) avg_input[3] * (long long)
      +                           1024 / (long long) 1000;
  4508   000E3E  C17E  F1B0         	movff	_avg_input+6,??_loop
  4509   000E42  C17F  F1B1         	movff	_avg_input+7,??_loop+1
  4510   000E46  0E00               	movlw	0
  4511   000E48  0101               	movlb	1	; () banked
  4512   000E4A  BFB1               	btfsc	(??_loop+1)& (0+255),7,b
  4513   000E4C  0EFF               	movlw	255
  4514   000E4E  6FB2               	movwf	(??_loop+2)& (0+255),b
  4515   000E50  6FB3               	movwf	(??_loop+3)& (0+255),b
  4516   000E52  6FB4               	movwf	(??_loop+4)& (0+255),b
  4517   000E54  6FB5               	movwf	(??_loop+5)& (0+255),b
  4518   000E56  6FB6               	movwf	(??_loop+6)& (0+255),b
  4519   000E58  6FB7               	movwf	(??_loop+7)& (0+255),b
  4520   000E5A  0E0A               	movlw	10
  4521   000E5C                     u7615:
  4522   000E5C  90D8               	bcf	status,0,c
  4523   000E5E  37B0               	rlcf	??_loop& (0+255),f,b
  4524   000E60  37B1               	rlcf	(??_loop+1)& (0+255),f,b
  4525   000E62  37B2               	rlcf	(??_loop+2)& (0+255),f,b
  4526   000E64  37B3               	rlcf	(??_loop+3)& (0+255),f,b
  4527   000E66  37B4               	rlcf	(??_loop+4)& (0+255),f,b
  4528   000E68  37B5               	rlcf	(??_loop+5)& (0+255),f,b
  4529   000E6A  37B6               	rlcf	(??_loop+6)& (0+255),f,b
  4530   000E6C  37B7               	rlcf	(??_loop+7)& (0+255),f,b
  4531   000E6E  2EE8               	decfsz	wreg,f,c
  4532   000E70  EF2E  F007         	goto	u7615
  4533   000E74  C1B0  F031         	movff	??_loop,___aodiv@dividend
  4534   000E78  C1B1  F032         	movff	??_loop+1,___aodiv@dividend+1
  4535   000E7C  C1B2  F033         	movff	??_loop+2,___aodiv@dividend+2
  4536   000E80  C1B3  F034         	movff	??_loop+3,___aodiv@dividend+3
  4537   000E84  C1B4  F035         	movff	??_loop+4,___aodiv@dividend+4
  4538   000E88  C1B5  F036         	movff	??_loop+5,___aodiv@dividend+5
  4539   000E8C  C1B6  F037         	movff	??_loop+6,___aodiv@dividend+6
  4540   000E90  C1B7  F038         	movff	??_loop+7,___aodiv@dividend+7
  4541   000E94  0EE8               	movlw	232
  4542   000E96  6E39               	movwf	___aodiv@divisor^0,c
  4543   000E98  0E03               	movlw	3
  4544   000E9A  6E3A               	movwf	(___aodiv@divisor+1)^0,c
  4545   000E9C  0E00               	movlw	0
  4546   000E9E  6E3B               	movwf	(___aodiv@divisor+2)^0,c
  4547   000EA0  0E00               	movlw	0
  4548   000EA2  6E3C               	movwf	(___aodiv@divisor+3)^0,c
  4549   000EA4  0E00               	movlw	0
  4550   000EA6  6E3D               	movwf	(___aodiv@divisor+4)^0,c
  4551   000EA8  0E00               	movlw	0
  4552   000EAA  6E3E               	movwf	(___aodiv@divisor+5)^0,c
  4553   000EAC  0E00               	movlw	0
  4554   000EAE  6E3F               	movwf	(___aodiv@divisor+6)^0,c
  4555   000EB0  0E00               	movlw	0
  4556   000EB2  6E40               	movwf	(___aodiv@divisor+7)^0,c
  4557   000EB4  ECE7  F01A         	call	___aodiv	;wreg free
  4558   000EB8  C031  F1B8         	movff	?___aodiv,??_loop+8
  4559   000EBC  C032  F1B9         	movff	?___aodiv+1,??_loop+9
  4560   000EC0  C033  F1BA         	movff	?___aodiv+2,??_loop+10
  4561   000EC4  C034  F1BB         	movff	?___aodiv+3,??_loop+11
  4562   000EC8  C035  F1BC         	movff	?___aodiv+4,??_loop+12
  4563   000ECC  C036  F1BD         	movff	?___aodiv+5,??_loop+13
  4564   000ED0  C037  F1BE         	movff	?___aodiv+6,??_loop+14
  4565   000ED4  C038  F1BF         	movff	?___aodiv+7,??_loop+15
  4566   000ED8  C1B8  F026         	movff	??_loop+8,_status_value
  4567   000EDC  C1B9  F027         	movff	??_loop+9,_status_value+1
  4568   000EE0                     
  4569                           ;main.c: 1086:                     status_set_mode( 1, 0, -1);
  4570   000EE0  0E00               	movlw	0
  4571   000EE2  6E31               	movwf	status_set_mode@next_mode^0,c
  4572   000EE4  0EFF               	movlw	255
  4573   000EE6  6E32               	movwf	status_set_mode@final_mode^0,c
  4574   000EE8  0E01               	movlw	1
  4575   000EEA  ECF9  F01F         	call	_status_set_mode
  4576   000EEE  EFE6  F007         	goto	l3815
  4577   000EF2                     l3797:
  4578                           
  4579                           ;main.c: 1089:                 status_value = (long long) avg_input[3] * (long long) 102
      +                          4 / (long long) 1000;
  4580   000EF2  C17E  F1B0         	movff	_avg_input+6,??_loop
  4581   000EF6  C17F  F1B1         	movff	_avg_input+7,??_loop+1
  4582   000EFA  0E00               	movlw	0
  4583   000EFC  0101               	movlb	1	; () banked
  4584   000EFE  BFB1               	btfsc	(??_loop+1)& (0+255),7,b
  4585   000F00  0EFF               	movlw	255
  4586   000F02  6FB2               	movwf	(??_loop+2)& (0+255),b
  4587   000F04  6FB3               	movwf	(??_loop+3)& (0+255),b
  4588   000F06  6FB4               	movwf	(??_loop+4)& (0+255),b
  4589   000F08  6FB5               	movwf	(??_loop+5)& (0+255),b
  4590   000F0A  6FB6               	movwf	(??_loop+6)& (0+255),b
  4591   000F0C  6FB7               	movwf	(??_loop+7)& (0+255),b
  4592   000F0E  0E0A               	movlw	10
  4593   000F10                     u7625:
  4594   000F10  90D8               	bcf	status,0,c
  4595   000F12  37B0               	rlcf	??_loop& (0+255),f,b
  4596   000F14  37B1               	rlcf	(??_loop+1)& (0+255),f,b
  4597   000F16  37B2               	rlcf	(??_loop+2)& (0+255),f,b
  4598   000F18  37B3               	rlcf	(??_loop+3)& (0+255),f,b
  4599   000F1A  37B4               	rlcf	(??_loop+4)& (0+255),f,b
  4600   000F1C  37B5               	rlcf	(??_loop+5)& (0+255),f,b
  4601   000F1E  37B6               	rlcf	(??_loop+6)& (0+255),f,b
  4602   000F20  37B7               	rlcf	(??_loop+7)& (0+255),f,b
  4603   000F22  2EE8               	decfsz	wreg,f,c
  4604   000F24  EF88  F007         	goto	u7625
  4605   000F28  C1B0  F031         	movff	??_loop,___aodiv@dividend
  4606   000F2C  C1B1  F032         	movff	??_loop+1,___aodiv@dividend+1
  4607   000F30  C1B2  F033         	movff	??_loop+2,___aodiv@dividend+2
  4608   000F34  C1B3  F034         	movff	??_loop+3,___aodiv@dividend+3
  4609   000F38  C1B4  F035         	movff	??_loop+4,___aodiv@dividend+4
  4610   000F3C  C1B5  F036         	movff	??_loop+5,___aodiv@dividend+5
  4611   000F40  C1B6  F037         	movff	??_loop+6,___aodiv@dividend+6
  4612   000F44  C1B7  F038         	movff	??_loop+7,___aodiv@dividend+7
  4613   000F48  0EE8               	movlw	232
  4614   000F4A  6E39               	movwf	___aodiv@divisor^0,c
  4615   000F4C  0E03               	movlw	3
  4616   000F4E  6E3A               	movwf	(___aodiv@divisor+1)^0,c
  4617   000F50  0E00               	movlw	0
  4618   000F52  6E3B               	movwf	(___aodiv@divisor+2)^0,c
  4619   000F54  0E00               	movlw	0
  4620   000F56  6E3C               	movwf	(___aodiv@divisor+3)^0,c
  4621   000F58  0E00               	movlw	0
  4622   000F5A  6E3D               	movwf	(___aodiv@divisor+4)^0,c
  4623   000F5C  0E00               	movlw	0
  4624   000F5E  6E3E               	movwf	(___aodiv@divisor+5)^0,c
  4625   000F60  0E00               	movlw	0
  4626   000F62  6E3F               	movwf	(___aodiv@divisor+6)^0,c
  4627   000F64  0E00               	movlw	0
  4628   000F66  6E40               	movwf	(___aodiv@divisor+7)^0,c
  4629   000F68  ECE7  F01A         	call	___aodiv	;wreg free
  4630   000F6C  C031  F1B8         	movff	?___aodiv,??_loop+8
  4631   000F70  C032  F1B9         	movff	?___aodiv+1,??_loop+9
  4632   000F74  C033  F1BA         	movff	?___aodiv+2,??_loop+10
  4633   000F78  C034  F1BB         	movff	?___aodiv+3,??_loop+11
  4634   000F7C  C035  F1BC         	movff	?___aodiv+4,??_loop+12
  4635   000F80  C036  F1BD         	movff	?___aodiv+5,??_loop+13
  4636   000F84  C037  F1BE         	movff	?___aodiv+6,??_loop+14
  4637   000F88  C038  F1BF         	movff	?___aodiv+7,??_loop+15
  4638   000F8C  C1B8  F026         	movff	??_loop+8,_status_value
  4639   000F90  C1B9  F027         	movff	??_loop+9,_status_value+1
  4640   000F94  EFE6  F007         	goto	l3815
  4641   000F98                     l3799:
  4642                           
  4643                           ;main.c: 1092:             if (flag_menu_init_2){
  4644   000F98  5014               	movf	_flag_menu_init_2^0,w,c
  4645   000F9A  1015               	iorwf	(_flag_menu_init_2+1)^0,w,c
  4646   000F9C  B4D8               	btfsc	status,2,c
  4647   000F9E  EFD3  F007         	goto	u7631
  4648   000FA2  EFD5  F007         	goto	u7630
  4649   000FA6                     u7631:
  4650   000FA6  EFE6  F007         	goto	l3815
  4651   000FAA                     u7630:
  4652   000FAA                     
  4653                           ;main.c: 1093:                 if (status_mode == 0){
  4654   000FAA  5028               	movf	_status_mode^0,w,c
  4655   000FAC  A4D8               	btfss	status,2,c
  4656   000FAE  EFDB  F007         	goto	u7641
  4657   000FB2  EFDD  F007         	goto	u7640
  4658   000FB6                     u7641:
  4659   000FB6  EFE6  F007         	goto	l3815
  4660   000FBA                     u7640:
  4661   000FBA                     
  4662                           ;main.c: 1094:                     flag_menu_init_2 = 0;
  4663   000FBA  0E00               	movlw	0
  4664   000FBC  6E15               	movwf	(_flag_menu_init_2+1)^0,c
  4665   000FBE  0E00               	movlw	0
  4666   000FC0  6E14               	movwf	_flag_menu_init_2^0,c
  4667   000FC2                     
  4668                           ;main.c: 1096:                     PORTBbits.RB0 = 1;
  4669   000FC2  8081               	bsf	129,0,c	;volatile
  4670   000FC4                     
  4671                           ;main.c: 1097:                     PORTBbits.RB1 = 1;
  4672   000FC4  8281               	bsf	129,1,c	;volatile
  4673   000FC6                     
  4674                           ;main.c: 1098:                     PORTBbits.RB2 = 1;
  4675   000FC6  8481               	bsf	129,2,c	;volatile
  4676   000FC8                     
  4677                           ;main.c: 1099:                     PORTBbits.RB4 = 1;
  4678   000FC8  8881               	bsf	129,4,c	;volatile
  4679   000FCA                     
  4680                           ;main.c: 1100:                     PORTBbits.RB5 = 1;
  4681   000FCA  8A81               	bsf	129,5,c	;volatile
  4682   000FCC                     l3815:
  4683                           
  4684                           ;main.c: 1106:         if (configure_mode == 0){
  4685   000FCC  5012               	movf	_configure_mode^0,w,c
  4686   000FCE  1013               	iorwf	(_configure_mode+1)^0,w,c
  4687   000FD0  A4D8               	btfss	status,2,c
  4688   000FD2  EFED  F007         	goto	u7651
  4689   000FD6  EFEF  F007         	goto	u7650
  4690   000FDA                     u7651:
  4691   000FDA  EF6C  F00F         	goto	l507
  4692   000FDE                     u7650:
  4693   000FDE                     
  4694                           ;main.c: 1107:             if (single_click_evt[0]){
  4695   000FDE  0100               	movlb	0	; () banked
  4696   000FE0  51D4               	movf	_single_click_evt& (0+255),w,b
  4697   000FE2  B4D8               	btfsc	status,2,c
  4698   000FE4  EFF6  F007         	goto	u7661
  4699   000FE8  EFF8  F007         	goto	u7660
  4700   000FEC                     u7661:
  4701   000FEC  EF11  F008         	goto	l473
  4702   000FF0                     u7660:
  4703   000FF0                     
  4704                           ; BSR set to: 0
  4705                           ;main.c: 1108:                 single_click_evt[0] = 0;
  4706   000FF0  6BD4               	clrf	_single_click_evt& (0+255),b
  4707   000FF2                     
  4708                           ; BSR set to: 0
  4709                           ;main.c: 1110:                 current_menu ++;
  4710   000FF2  4A18               	infsnz	_current_menu^0,f,c
  4711   000FF4  2A19               	incf	(_current_menu+1)^0,f,c
  4712   000FF6                     
  4713                           ; BSR set to: 0
  4714                           ;main.c: 1111:                 if (current_menu >= 6){
  4715   000FF6  BE19               	btfsc	(_current_menu+1)^0,7,c
  4716   000FF8  EF07  F008         	goto	u7671
  4717   000FFC  5019               	movf	(_current_menu+1)^0,w,c
  4718   000FFE  E109               	bnz	u7670
  4719   001000  0E06               	movlw	6
  4720   001002  5C18               	subwf	_current_menu^0,w,c
  4721   001004  A0D8               	btfss	status,0,c
  4722   001006  EF07  F008         	goto	u7671
  4723   00100A  EF09  F008         	goto	u7670
  4724   00100E                     u7671:
  4725   00100E  EF0D  F008         	goto	l474
  4726   001012                     u7670:
  4727   001012                     
  4728                           ; BSR set to: 0
  4729                           ;main.c: 1112:                     current_menu = 1;
  4730   001012  0E00               	movlw	0
  4731   001014  6E19               	movwf	(_current_menu+1)^0,c
  4732   001016  0E01               	movlw	1
  4733   001018  6E18               	movwf	_current_menu^0,c
  4734   00101A                     l474:
  4735                           
  4736                           ; BSR set to: 0
  4737                           ;main.c: 1114:                 flag_menu_init = 1;
  4738   00101A  0E00               	movlw	0
  4739   00101C  6E17               	movwf	(_flag_menu_init+1)^0,c
  4740   00101E  0E01               	movlw	1
  4741   001020  6E16               	movwf	_flag_menu_init^0,c
  4742   001022                     l473:
  4743                           
  4744                           ; BSR set to: 0
  4745                           ;main.c: 1116:             if (single_click_evt[1]){
  4746   001022  51D5               	movf	(_single_click_evt+1)& (0+255),w,b
  4747   001024  B4D8               	btfsc	status,2,c
  4748   001026  EF17  F008         	goto	u7681
  4749   00102A  EF19  F008         	goto	u7680
  4750   00102E                     u7681:
  4751   00102E  EF32  F008         	goto	l475
  4752   001032                     u7680:
  4753   001032                     
  4754                           ; BSR set to: 0
  4755                           ;main.c: 1117:                 single_click_evt[1] = 0;
  4756   001032  6BD5               	clrf	(_single_click_evt+1)& (0+255),b
  4757   001034                     
  4758                           ; BSR set to: 0
  4759                           ;main.c: 1119:                 current_menu --;
  4760   001034  0618               	decf	_current_menu^0,f,c
  4761   001036  A0D8               	btfss	status,0,c
  4762   001038  0619               	decf	(_current_menu+1)^0,f,c
  4763   00103A                     
  4764                           ; BSR set to: 0
  4765                           ;main.c: 1120:                 if (current_menu <= 0){
  4766   00103A  BE19               	btfsc	(_current_menu+1)^0,7,c
  4767   00103C  EF2A  F008         	goto	u7690
  4768   001040  5019               	movf	(_current_menu+1)^0,w,c
  4769   001042  E106               	bnz	u7691
  4770   001044  0418               	decf	_current_menu^0,w,c
  4771   001046  B0D8               	btfsc	status,0,c
  4772   001048  EF28  F008         	goto	u7691
  4773   00104C  EF2A  F008         	goto	u7690
  4774   001050                     u7691:
  4775   001050  EF2E  F008         	goto	l476
  4776   001054                     u7690:
  4777   001054                     
  4778                           ; BSR set to: 0
  4779                           ;main.c: 1121:                     current_menu = 5;
  4780   001054  0E00               	movlw	0
  4781   001056  6E19               	movwf	(_current_menu+1)^0,c
  4782   001058  0E05               	movlw	5
  4783   00105A  6E18               	movwf	_current_menu^0,c
  4784   00105C                     l476:
  4785                           
  4786                           ; BSR set to: 0
  4787                           ;main.c: 1123:                 flag_menu_init = 1;
  4788   00105C  0E00               	movlw	0
  4789   00105E  6E17               	movwf	(_flag_menu_init+1)^0,c
  4790   001060  0E01               	movlw	1
  4791   001062  6E16               	movwf	_flag_menu_init^0,c
  4792   001064                     l475:
  4793                           
  4794                           ; BSR set to: 0
  4795                           ;main.c: 1125:             if (double_click_evt[1]){
  4796   001064  51D0               	movf	(_double_click_evt+1)& (0+255),w,b
  4797   001066  B4D8               	btfsc	status,2,c
  4798   001068  EF38  F008         	goto	u7701
  4799   00106C  EF3A  F008         	goto	u7700
  4800   001070                     u7701:
  4801   001070  EF6C  F00F         	goto	l507
  4802   001074                     u7700:
  4803   001074                     
  4804                           ; BSR set to: 0
  4805                           ;main.c: 1127:                 robot_state = 2;
  4806   001074  0E00               	movlw	0
  4807   001076  6E11               	movwf	(_robot_state+1)^0,c
  4808   001078  0E02               	movlw	2
  4809   00107A  6E10               	movwf	_robot_state^0,c
  4810                           
  4811                           ;main.c: 1128:                 flag_menu_init = 1;
  4812   00107C  0E00               	movlw	0
  4813   00107E  6E17               	movwf	(_flag_menu_init+1)^0,c
  4814   001080  0E01               	movlw	1
  4815   001082  6E16               	movwf	_flag_menu_init^0,c
  4816   001084  EF6C  F00F         	goto	l507
  4817   001088                     l472:
  4818                           
  4819                           ;main.c: 1131:     }else if (robot_state == 2){
  4820   001088  EF6C  F00F         	goto	l507
  4821   00108C                     l3837:
  4822   00108C  0E02               	movlw	2
  4823   00108E  1810               	xorwf	_robot_state^0,w,c
  4824   001090  1011               	iorwf	(_robot_state+1)^0,w,c
  4825   001092  A4D8               	btfss	status,2,c
  4826   001094  EF4E  F008         	goto	u7711
  4827   001098  EF50  F008         	goto	u7710
  4828   00109C                     u7711:
  4829   00109C  EF34  F00E         	goto	l3921
  4830   0010A0                     u7710:
  4831   0010A0                     
  4832                           ;main.c: 1132:         if (flag_menu_init){
  4833   0010A0  5016               	movf	_flag_menu_init^0,w,c
  4834   0010A2  1017               	iorwf	(_flag_menu_init+1)^0,w,c
  4835   0010A4  B4D8               	btfsc	status,2,c
  4836   0010A6  EF57  F008         	goto	u7721
  4837   0010AA  EF59  F008         	goto	u7720
  4838   0010AE                     u7721:
  4839   0010AE  EF6F  F008         	goto	l3847
  4840   0010B2                     u7720:
  4841   0010B2                     
  4842                           ;main.c: 1133:             counter[3] = 0;
  4843   0010B2  EE20  F0A0         	lfsr	2,_counter+24
  4844   0010B6  0E07               	movlw	7
  4845   0010B8                     u7731:
  4846   0010B8  6ADE               	clrf	postinc2,c
  4847   0010BA  06E8               	decf	wreg,f,c
  4848   0010BC  E2FD               	bc	u7731
  4849                           
  4850                           ;main.c: 1134:             counter[4] = 0;
  4851   0010BE  EE20  F0A8         	lfsr	2,_counter+32
  4852   0010C2  0E07               	movlw	7
  4853   0010C4                     u7741:
  4854   0010C4  6ADE               	clrf	postinc2,c
  4855   0010C6  06E8               	decf	wreg,f,c
  4856   0010C8  E2FD               	bc	u7741
  4857   0010CA                     
  4858                           ;main.c: 1135:             flag_menu_init = 0;
  4859   0010CA  0E00               	movlw	0
  4860   0010CC  6E17               	movwf	(_flag_menu_init+1)^0,c
  4861   0010CE  0E00               	movlw	0
  4862   0010D0  6E16               	movwf	_flag_menu_init^0,c
  4863   0010D2                     
  4864                           ;main.c: 1136:             flag_press = 0;
  4865   0010D2  0E00               	movlw	0
  4866   0010D4  6E0D               	movwf	(_flag_press+1)^0,c
  4867   0010D6  0E00               	movlw	0
  4868   0010D8  6E0C               	movwf	_flag_press^0,c
  4869                           
  4870                           ;main.c: 1137:         }else{
  4871   0010DA  EF6C  F00F         	goto	l507
  4872   0010DE                     l3847:
  4873                           
  4874                           ;main.c: 1138:             if (flag_press == 0){
  4875   0010DE  500C               	movf	_flag_press^0,w,c
  4876   0010E0  100D               	iorwf	(_flag_press+1)^0,w,c
  4877   0010E2  A4D8               	btfss	status,2,c
  4878   0010E4  EF76  F008         	goto	u7751
  4879   0010E8  EF78  F008         	goto	u7750
  4880   0010EC                     u7751:
  4881   0010EC  EF3A  F00A         	goto	l3869
  4882   0010F0                     u7750:
  4883   0010F0                     
  4884                           ;main.c: 1139:                 status_mode = 0;
  4885   0010F0  6A28               	clrf	_status_mode^0,c
  4886   0010F2                     
  4887                           ;main.c: 1140:                 PORTBbits.RB0 = counter[4] % 20 >= 10;
  4888   0010F2  C0A8  F031         	movff	_counter+32,___aomod@dividend
  4889   0010F6  C0A9  F032         	movff	_counter+33,___aomod@dividend+1
  4890   0010FA  C0AA  F033         	movff	_counter+34,___aomod@dividend+2
  4891   0010FE  C0AB  F034         	movff	_counter+35,___aomod@dividend+3
  4892   001102  C0AC  F035         	movff	_counter+36,___aomod@dividend+4
  4893   001106  C0AD  F036         	movff	_counter+37,___aomod@dividend+5
  4894   00110A  C0AE  F037         	movff	_counter+38,___aomod@dividend+6
  4895   00110E  C0AF  F038         	movff	_counter+39,___aomod@dividend+7
  4896   001112  0E14               	movlw	20
  4897   001114  6E39               	movwf	___aomod@divisor^0,c
  4898   001116  0E00               	movlw	0
  4899   001118  6E3A               	movwf	(___aomod@divisor+1)^0,c
  4900   00111A  0E00               	movlw	0
  4901   00111C  6E3B               	movwf	(___aomod@divisor+2)^0,c
  4902   00111E  0E00               	movlw	0
  4903   001120  6E3C               	movwf	(___aomod@divisor+3)^0,c
  4904   001122  0E00               	movlw	0
  4905   001124  6E3D               	movwf	(___aomod@divisor+4)^0,c
  4906   001126  0E00               	movlw	0
  4907   001128  6E3E               	movwf	(___aomod@divisor+5)^0,c
  4908   00112A  0E00               	movlw	0
  4909   00112C  6E3F               	movwf	(___aomod@divisor+6)^0,c
  4910   00112E  0E00               	movlw	0
  4911   001130  6E40               	movwf	(___aomod@divisor+7)^0,c
  4912   001132  ECAA  F01B         	call	___aomod	;wreg free
  4913   001136  C031  F1B0         	movff	?___aomod,??_loop
  4914   00113A  C032  F1B1         	movff	?___aomod+1,??_loop+1
  4915   00113E  C033  F1B2         	movff	?___aomod+2,??_loop+2
  4916   001142  C034  F1B3         	movff	?___aomod+3,??_loop+3
  4917   001146  C035  F1B4         	movff	?___aomod+4,??_loop+4
  4918   00114A  C036  F1B5         	movff	?___aomod+5,??_loop+5
  4919   00114E  C037  F1B6         	movff	?___aomod+6,??_loop+6
  4920   001152  C038  F1B7         	movff	?___aomod+7,??_loop+7
  4921   001156  0101               	movlb	1	; () banked
  4922   001158  BFB7               	btfsc	(??_loop+7)& (0+255),7,b
  4923   00115A  EFC2  F008         	goto	u7760
  4924   00115E  51B7               	movf	(??_loop+7)& (0+255),w,b
  4925   001160  11B6               	iorwf	(??_loop+6)& (0+255),w,b
  4926   001162  11B5               	iorwf	(??_loop+5)& (0+255),w,b
  4927   001164  11B4               	iorwf	(??_loop+4)& (0+255),w,b
  4928   001166  11B3               	iorwf	(??_loop+3)& (0+255),w,b
  4929   001168  11B2               	iorwf	(??_loop+2)& (0+255),w,b
  4930   00116A  11B1               	iorwf	(??_loop+1)& (0+255),w,b
  4931   00116C  E107               	bnz	u7761
  4932   00116E  0E0A               	movlw	10
  4933   001170  5DB0               	subwf	??_loop& (0+255),w,b
  4934   001172  B0D8               	btfsc	status,0,c
  4935   001174  EFBE  F008         	goto	u7761
  4936   001178  EFC2  F008         	goto	u7760
  4937   00117C                     u7761:
  4938   00117C  6BB8               	clrf	(??_loop+8)& (0+255),b
  4939   00117E  2BB8               	incf	(??_loop+8)& (0+255),f,b
  4940   001180  EFC4  F008         	goto	u7778
  4941   001184                     u7760:
  4942   001184  0101               	movlb	1	; () banked
  4943   001186  6BB8               	clrf	(??_loop+8)& (0+255),b
  4944   001188                     u7778:
  4945   001188  5081               	movf	129,w,c	;volatile
  4946   00118A  19B8               	xorwf	(??_loop+8)& (0+255),w,b
  4947   00118C  0BFE               	andlw	-2
  4948   00118E  19B8               	xorwf	(??_loop+8)& (0+255),w,b
  4949   001190  6E81               	movwf	129,c	;volatile
  4950                           
  4951                           ;main.c: 1141:                 PORTBbits.RB1 = counter[4] % 20 < 10;
  4952   001192  C0A8  F031         	movff	_counter+32,___aomod@dividend
  4953   001196  C0A9  F032         	movff	_counter+33,___aomod@dividend+1
  4954   00119A  C0AA  F033         	movff	_counter+34,___aomod@dividend+2
  4955   00119E  C0AB  F034         	movff	_counter+35,___aomod@dividend+3
  4956   0011A2  C0AC  F035         	movff	_counter+36,___aomod@dividend+4
  4957   0011A6  C0AD  F036         	movff	_counter+37,___aomod@dividend+5
  4958   0011AA  C0AE  F037         	movff	_counter+38,___aomod@dividend+6
  4959   0011AE  C0AF  F038         	movff	_counter+39,___aomod@dividend+7
  4960   0011B2  0E14               	movlw	20
  4961   0011B4  6E39               	movwf	___aomod@divisor^0,c
  4962   0011B6  0E00               	movlw	0
  4963   0011B8  6E3A               	movwf	(___aomod@divisor+1)^0,c
  4964   0011BA  0E00               	movlw	0
  4965   0011BC  6E3B               	movwf	(___aomod@divisor+2)^0,c
  4966   0011BE  0E00               	movlw	0
  4967   0011C0  6E3C               	movwf	(___aomod@divisor+3)^0,c
  4968   0011C2  0E00               	movlw	0
  4969   0011C4  6E3D               	movwf	(___aomod@divisor+4)^0,c
  4970   0011C6  0E00               	movlw	0
  4971   0011C8  6E3E               	movwf	(___aomod@divisor+5)^0,c
  4972   0011CA  0E00               	movlw	0
  4973   0011CC  6E3F               	movwf	(___aomod@divisor+6)^0,c
  4974   0011CE  0E00               	movlw	0
  4975   0011D0  6E40               	movwf	(___aomod@divisor+7)^0,c
  4976   0011D2  ECAA  F01B         	call	___aomod	;wreg free
  4977   0011D6  C031  F1B0         	movff	?___aomod,??_loop
  4978   0011DA  C032  F1B1         	movff	?___aomod+1,??_loop+1
  4979   0011DE  C033  F1B2         	movff	?___aomod+2,??_loop+2
  4980   0011E2  C034  F1B3         	movff	?___aomod+3,??_loop+3
  4981   0011E6  C035  F1B4         	movff	?___aomod+4,??_loop+4
  4982   0011EA  C036  F1B5         	movff	?___aomod+5,??_loop+5
  4983   0011EE  C037  F1B6         	movff	?___aomod+6,??_loop+6
  4984   0011F2  C038  F1B7         	movff	?___aomod+7,??_loop+7
  4985   0011F6  0101               	movlb	1	; () banked
  4986   0011F8  BFB7               	btfsc	(??_loop+7)& (0+255),7,b
  4987   0011FA  EF0E  F009         	goto	u7781
  4988   0011FE  51B7               	movf	(??_loop+7)& (0+255),w,b
  4989   001200  11B6               	iorwf	(??_loop+6)& (0+255),w,b
  4990   001202  11B5               	iorwf	(??_loop+5)& (0+255),w,b
  4991   001204  11B4               	iorwf	(??_loop+4)& (0+255),w,b
  4992   001206  11B3               	iorwf	(??_loop+3)& (0+255),w,b
  4993   001208  11B2               	iorwf	(??_loop+2)& (0+255),w,b
  4994   00120A  11B1               	iorwf	(??_loop+1)& (0+255),w,b
  4995   00120C  E10B               	bnz	u7780
  4996   00120E  0E0A               	movlw	10
  4997   001210  5DB0               	subwf	??_loop& (0+255),w,b
  4998   001212  A0D8               	btfss	status,0,c
  4999   001214  EF0E  F009         	goto	u7781
  5000   001218  EF12  F009         	goto	u7780
  5001   00121C                     u7781:
  5002   00121C  6BB8               	clrf	(??_loop+8)& (0+255),b
  5003   00121E  2BB8               	incf	(??_loop+8)& (0+255),f,b
  5004   001220  EF14  F009         	goto	u7798
  5005   001224                     u7780:
  5006   001224  0101               	movlb	1	; () banked
  5007   001226  6BB8               	clrf	(??_loop+8)& (0+255),b
  5008   001228                     u7798:
  5009   001228  47B8               	rlncf	(??_loop+8)& (0+255),f,b
  5010   00122A  5081               	movf	129,w,c	;volatile
  5011   00122C  19B8               	xorwf	(??_loop+8)& (0+255),w,b
  5012   00122E  0BFD               	andlw	-3
  5013   001230  19B8               	xorwf	(??_loop+8)& (0+255),w,b
  5014   001232  6E81               	movwf	129,c	;volatile
  5015                           
  5016                           ;main.c: 1142:                 PORTBbits.RB2 = counter[4] % 20 >= 10;
  5017   001234  C0A8  F031         	movff	_counter+32,___aomod@dividend
  5018   001238  C0A9  F032         	movff	_counter+33,___aomod@dividend+1
  5019   00123C  C0AA  F033         	movff	_counter+34,___aomod@dividend+2
  5020   001240  C0AB  F034         	movff	_counter+35,___aomod@dividend+3
  5021   001244  C0AC  F035         	movff	_counter+36,___aomod@dividend+4
  5022   001248  C0AD  F036         	movff	_counter+37,___aomod@dividend+5
  5023   00124C  C0AE  F037         	movff	_counter+38,___aomod@dividend+6
  5024   001250  C0AF  F038         	movff	_counter+39,___aomod@dividend+7
  5025   001254  0E14               	movlw	20
  5026   001256  6E39               	movwf	___aomod@divisor^0,c
  5027   001258  0E00               	movlw	0
  5028   00125A  6E3A               	movwf	(___aomod@divisor+1)^0,c
  5029   00125C  0E00               	movlw	0
  5030   00125E  6E3B               	movwf	(___aomod@divisor+2)^0,c
  5031   001260  0E00               	movlw	0
  5032   001262  6E3C               	movwf	(___aomod@divisor+3)^0,c
  5033   001264  0E00               	movlw	0
  5034   001266  6E3D               	movwf	(___aomod@divisor+4)^0,c
  5035   001268  0E00               	movlw	0
  5036   00126A  6E3E               	movwf	(___aomod@divisor+5)^0,c
  5037   00126C  0E00               	movlw	0
  5038   00126E  6E3F               	movwf	(___aomod@divisor+6)^0,c
  5039   001270  0E00               	movlw	0
  5040   001272  6E40               	movwf	(___aomod@divisor+7)^0,c
  5041   001274  ECAA  F01B         	call	___aomod	;wreg free
  5042   001278  C031  F1B0         	movff	?___aomod,??_loop
  5043   00127C  C032  F1B1         	movff	?___aomod+1,??_loop+1
  5044   001280  C033  F1B2         	movff	?___aomod+2,??_loop+2
  5045   001284  C034  F1B3         	movff	?___aomod+3,??_loop+3
  5046   001288  C035  F1B4         	movff	?___aomod+4,??_loop+4
  5047   00128C  C036  F1B5         	movff	?___aomod+5,??_loop+5
  5048   001290  C037  F1B6         	movff	?___aomod+6,??_loop+6
  5049   001294  C038  F1B7         	movff	?___aomod+7,??_loop+7
  5050   001298  0101               	movlb	1	; () banked
  5051   00129A  BFB7               	btfsc	(??_loop+7)& (0+255),7,b
  5052   00129C  EF63  F009         	goto	u7800
  5053   0012A0  51B7               	movf	(??_loop+7)& (0+255),w,b
  5054   0012A2  11B6               	iorwf	(??_loop+6)& (0+255),w,b
  5055   0012A4  11B5               	iorwf	(??_loop+5)& (0+255),w,b
  5056   0012A6  11B4               	iorwf	(??_loop+4)& (0+255),w,b
  5057   0012A8  11B3               	iorwf	(??_loop+3)& (0+255),w,b
  5058   0012AA  11B2               	iorwf	(??_loop+2)& (0+255),w,b
  5059   0012AC  11B1               	iorwf	(??_loop+1)& (0+255),w,b
  5060   0012AE  E107               	bnz	u7801
  5061   0012B0  0E0A               	movlw	10
  5062   0012B2  5DB0               	subwf	??_loop& (0+255),w,b
  5063   0012B4  B0D8               	btfsc	status,0,c
  5064   0012B6  EF5F  F009         	goto	u7801
  5065   0012BA  EF63  F009         	goto	u7800
  5066   0012BE                     u7801:
  5067   0012BE  6BB8               	clrf	(??_loop+8)& (0+255),b
  5068   0012C0  2BB8               	incf	(??_loop+8)& (0+255),f,b
  5069   0012C2  EF65  F009         	goto	u7818
  5070   0012C6                     u7800:
  5071   0012C6  0101               	movlb	1	; () banked
  5072   0012C8  6BB8               	clrf	(??_loop+8)& (0+255),b
  5073   0012CA                     u7818:
  5074   0012CA  47B8               	rlncf	(??_loop+8)& (0+255),f,b
  5075   0012CC  47B8               	rlncf	(??_loop+8)& (0+255),f,b
  5076   0012CE  5081               	movf	129,w,c	;volatile
  5077   0012D0  19B8               	xorwf	(??_loop+8)& (0+255),w,b
  5078   0012D2  0BFB               	andlw	-5
  5079   0012D4  19B8               	xorwf	(??_loop+8)& (0+255),w,b
  5080   0012D6  6E81               	movwf	129,c	;volatile
  5081                           
  5082                           ;main.c: 1143:                 PORTBbits.RB4 = counter[4] % 20 < 10;
  5083   0012D8  C0A8  F031         	movff	_counter+32,___aomod@dividend
  5084   0012DC  C0A9  F032         	movff	_counter+33,___aomod@dividend+1
  5085   0012E0  C0AA  F033         	movff	_counter+34,___aomod@dividend+2
  5086   0012E4  C0AB  F034         	movff	_counter+35,___aomod@dividend+3
  5087   0012E8  C0AC  F035         	movff	_counter+36,___aomod@dividend+4
  5088   0012EC  C0AD  F036         	movff	_counter+37,___aomod@dividend+5
  5089   0012F0  C0AE  F037         	movff	_counter+38,___aomod@dividend+6
  5090   0012F4  C0AF  F038         	movff	_counter+39,___aomod@dividend+7
  5091   0012F8  0E14               	movlw	20
  5092   0012FA  6E39               	movwf	___aomod@divisor^0,c
  5093   0012FC  0E00               	movlw	0
  5094   0012FE  6E3A               	movwf	(___aomod@divisor+1)^0,c
  5095   001300  0E00               	movlw	0
  5096   001302  6E3B               	movwf	(___aomod@divisor+2)^0,c
  5097   001304  0E00               	movlw	0
  5098   001306  6E3C               	movwf	(___aomod@divisor+3)^0,c
  5099   001308  0E00               	movlw	0
  5100   00130A  6E3D               	movwf	(___aomod@divisor+4)^0,c
  5101   00130C  0E00               	movlw	0
  5102   00130E  6E3E               	movwf	(___aomod@divisor+5)^0,c
  5103   001310  0E00               	movlw	0
  5104   001312  6E3F               	movwf	(___aomod@divisor+6)^0,c
  5105   001314  0E00               	movlw	0
  5106   001316  6E40               	movwf	(___aomod@divisor+7)^0,c
  5107   001318  ECAA  F01B         	call	___aomod	;wreg free
  5108   00131C  C031  F1B0         	movff	?___aomod,??_loop
  5109   001320  C032  F1B1         	movff	?___aomod+1,??_loop+1
  5110   001324  C033  F1B2         	movff	?___aomod+2,??_loop+2
  5111   001328  C034  F1B3         	movff	?___aomod+3,??_loop+3
  5112   00132C  C035  F1B4         	movff	?___aomod+4,??_loop+4
  5113   001330  C036  F1B5         	movff	?___aomod+5,??_loop+5
  5114   001334  C037  F1B6         	movff	?___aomod+6,??_loop+6
  5115   001338  C038  F1B7         	movff	?___aomod+7,??_loop+7
  5116   00133C  0101               	movlb	1	; () banked
  5117   00133E  BFB7               	btfsc	(??_loop+7)& (0+255),7,b
  5118   001340  EFB1  F009         	goto	u7821
  5119   001344  51B7               	movf	(??_loop+7)& (0+255),w,b
  5120   001346  11B6               	iorwf	(??_loop+6)& (0+255),w,b
  5121   001348  11B5               	iorwf	(??_loop+5)& (0+255),w,b
  5122   00134A  11B4               	iorwf	(??_loop+4)& (0+255),w,b
  5123   00134C  11B3               	iorwf	(??_loop+3)& (0+255),w,b
  5124   00134E  11B2               	iorwf	(??_loop+2)& (0+255),w,b
  5125   001350  11B1               	iorwf	(??_loop+1)& (0+255),w,b
  5126   001352  E10B               	bnz	u7820
  5127   001354  0E0A               	movlw	10
  5128   001356  5DB0               	subwf	??_loop& (0+255),w,b
  5129   001358  A0D8               	btfss	status,0,c
  5130   00135A  EFB1  F009         	goto	u7821
  5131   00135E  EFB5  F009         	goto	u7820
  5132   001362                     u7821:
  5133   001362  6BB8               	clrf	(??_loop+8)& (0+255),b
  5134   001364  2BB8               	incf	(??_loop+8)& (0+255),f,b
  5135   001366  EFB7  F009         	goto	u7838
  5136   00136A                     u7820:
  5137   00136A  0101               	movlb	1	; () banked
  5138   00136C  6BB8               	clrf	(??_loop+8)& (0+255),b
  5139   00136E                     u7838:
  5140   00136E  3BB8               	swapf	(??_loop+8)& (0+255),f,b
  5141   001370  5081               	movf	129,w,c	;volatile
  5142   001372  19B8               	xorwf	(??_loop+8)& (0+255),w,b
  5143   001374  0BEF               	andlw	-17
  5144   001376  19B8               	xorwf	(??_loop+8)& (0+255),w,b
  5145   001378  6E81               	movwf	129,c	;volatile
  5146                           
  5147                           ;main.c: 1144:                 PORTBbits.RB5 = counter[4] % 20 >= 10;
  5148   00137A  C0A8  F031         	movff	_counter+32,___aomod@dividend
  5149   00137E  C0A9  F032         	movff	_counter+33,___aomod@dividend+1
  5150   001382  C0AA  F033         	movff	_counter+34,___aomod@dividend+2
  5151   001386  C0AB  F034         	movff	_counter+35,___aomod@dividend+3
  5152   00138A  C0AC  F035         	movff	_counter+36,___aomod@dividend+4
  5153   00138E  C0AD  F036         	movff	_counter+37,___aomod@dividend+5
  5154   001392  C0AE  F037         	movff	_counter+38,___aomod@dividend+6
  5155   001396  C0AF  F038         	movff	_counter+39,___aomod@dividend+7
  5156   00139A  0E14               	movlw	20
  5157   00139C  6E39               	movwf	___aomod@divisor^0,c
  5158   00139E  0E00               	movlw	0
  5159   0013A0  6E3A               	movwf	(___aomod@divisor+1)^0,c
  5160   0013A2  0E00               	movlw	0
  5161   0013A4  6E3B               	movwf	(___aomod@divisor+2)^0,c
  5162   0013A6  0E00               	movlw	0
  5163   0013A8  6E3C               	movwf	(___aomod@divisor+3)^0,c
  5164   0013AA  0E00               	movlw	0
  5165   0013AC  6E3D               	movwf	(___aomod@divisor+4)^0,c
  5166   0013AE  0E00               	movlw	0
  5167   0013B0  6E3E               	movwf	(___aomod@divisor+5)^0,c
  5168   0013B2  0E00               	movlw	0
  5169   0013B4  6E3F               	movwf	(___aomod@divisor+6)^0,c
  5170   0013B6  0E00               	movlw	0
  5171   0013B8  6E40               	movwf	(___aomod@divisor+7)^0,c
  5172   0013BA  ECAA  F01B         	call	___aomod	;wreg free
  5173   0013BE  C031  F1B0         	movff	?___aomod,??_loop
  5174   0013C2  C032  F1B1         	movff	?___aomod+1,??_loop+1
  5175   0013C6  C033  F1B2         	movff	?___aomod+2,??_loop+2
  5176   0013CA  C034  F1B3         	movff	?___aomod+3,??_loop+3
  5177   0013CE  C035  F1B4         	movff	?___aomod+4,??_loop+4
  5178   0013D2  C036  F1B5         	movff	?___aomod+5,??_loop+5
  5179   0013D6  C037  F1B6         	movff	?___aomod+6,??_loop+6
  5180   0013DA  C038  F1B7         	movff	?___aomod+7,??_loop+7
  5181   0013DE  0101               	movlb	1	; () banked
  5182   0013E0  BFB7               	btfsc	(??_loop+7)& (0+255),7,b
  5183   0013E2  EF06  F00A         	goto	u7840
  5184   0013E6  51B7               	movf	(??_loop+7)& (0+255),w,b
  5185   0013E8  11B6               	iorwf	(??_loop+6)& (0+255),w,b
  5186   0013EA  11B5               	iorwf	(??_loop+5)& (0+255),w,b
  5187   0013EC  11B4               	iorwf	(??_loop+4)& (0+255),w,b
  5188   0013EE  11B3               	iorwf	(??_loop+3)& (0+255),w,b
  5189   0013F0  11B2               	iorwf	(??_loop+2)& (0+255),w,b
  5190   0013F2  11B1               	iorwf	(??_loop+1)& (0+255),w,b
  5191   0013F4  E107               	bnz	u7841
  5192   0013F6  0E0A               	movlw	10
  5193   0013F8  5DB0               	subwf	??_loop& (0+255),w,b
  5194   0013FA  B0D8               	btfsc	status,0,c
  5195   0013FC  EF02  F00A         	goto	u7841
  5196   001400  EF06  F00A         	goto	u7840
  5197   001404                     u7841:
  5198   001404  6BB8               	clrf	(??_loop+8)& (0+255),b
  5199   001406  2BB8               	incf	(??_loop+8)& (0+255),f,b
  5200   001408  EF08  F00A         	goto	u7858
  5201   00140C                     u7840:
  5202   00140C  0101               	movlb	1	; () banked
  5203   00140E  6BB8               	clrf	(??_loop+8)& (0+255),b
  5204   001410                     u7858:
  5205   001410  3BB8               	swapf	(??_loop+8)& (0+255),f,b
  5206   001412  47B8               	rlncf	(??_loop+8)& (0+255),f,b
  5207   001414  5081               	movf	129,w,c	;volatile
  5208   001416  19B8               	xorwf	(??_loop+8)& (0+255),w,b
  5209   001418  0BDF               	andlw	-33
  5210   00141A  19B8               	xorwf	(??_loop+8)& (0+255),w,b
  5211   00141C  6E81               	movwf	129,c	;volatile
  5212   00141E                     
  5213                           ; BSR set to: 1
  5214                           ;main.c: 1146:                 if (counter[4] >= 200){
  5215   00141E  0100               	movlb	0	; () banked
  5216   001420  BFAF               	btfsc	(_counter+39)& (0+255),7,b
  5217   001422  EF22  F00A         	goto	u7861
  5218   001426  51AF               	movf	(_counter+39)& (0+255),w,b
  5219   001428  11AE               	iorwf	(_counter+38)& (0+255),w,b
  5220   00142A  11AD               	iorwf	(_counter+37)& (0+255),w,b
  5221   00142C  11AC               	iorwf	(_counter+36)& (0+255),w,b
  5222   00142E  11AB               	iorwf	(_counter+35)& (0+255),w,b
  5223   001430  11AA               	iorwf	(_counter+34)& (0+255),w,b
  5224   001432  11A9               	iorwf	(_counter+33)& (0+255),w,b
  5225   001434  E109               	bnz	u7860
  5226   001436  0EC8               	movlw	200
  5227   001438  5DA8               	subwf	(_counter+32)& (0+255),w,b
  5228   00143A  A0D8               	btfss	status,0,c
  5229   00143C  EF22  F00A         	goto	u7861
  5230   001440  EF24  F00A         	goto	u7860
  5231   001444                     u7861:
  5232   001444  EF6C  F00F         	goto	l507
  5233   001448                     u7860:
  5234   001448                     
  5235                           ; BSR set to: 0
  5236                           ;main.c: 1147:                     flag_press = 1;
  5237   001448  0E00               	movlw	0
  5238   00144A  6E0D               	movwf	(_flag_press+1)^0,c
  5239   00144C  0E01               	movlw	1
  5240   00144E  6E0C               	movwf	_flag_press^0,c
  5241   001450                     
  5242                           ; BSR set to: 0
  5243                           ;main.c: 1148:                     counter[4] = 0;
  5244   001450  EE20  F0A8         	lfsr	2,_counter+32
  5245   001454  0E07               	movlw	7
  5246   001456                     u7871:
  5247   001456  6ADE               	clrf	postinc2,c
  5248   001458  06E8               	decf	wreg,f,c
  5249   00145A  E2FD               	bc	u7871
  5250   00145C                     
  5251                           ; BSR set to: 0
  5252                           ;main.c: 1149:                     counter[3] = 0;
  5253   00145C  EE20  F0A0         	lfsr	2,_counter+24
  5254   001460  0E07               	movlw	7
  5255   001462                     u7881:
  5256   001462  6ADE               	clrf	postinc2,c
  5257   001464  06E8               	decf	wreg,f,c
  5258   001466  E2FD               	bc	u7881
  5259   001468                     
  5260                           ; BSR set to: 0
  5261                           ;main.c: 1150:                     press_evt[0] = 0;
  5262   001468  6BE3               	clrf	_press_evt& (0+255),b
  5263   00146A                     
  5264                           ; BSR set to: 0
  5265                           ;main.c: 1151:                     release_evt[0] = 0;
  5266   00146A  6BDE               	clrf	_release_evt& (0+255),b
  5267   00146C                     
  5268                           ; BSR set to: 0
  5269                           ;main.c: 1152:                     press_evt[1] = 0;
  5270   00146C  6BE4               	clrf	(_press_evt+1)& (0+255),b
  5271   00146E                     
  5272                           ; BSR set to: 0
  5273                           ;main.c: 1153:                     release_evt[1] = 0;
  5274   00146E  6BDF               	clrf	(_release_evt+1)& (0+255),b
  5275   001470  EF6C  F00F         	goto	l507
  5276   001474                     l3869:
  5277   001474  040C               	decf	_flag_press^0,w,c
  5278   001476  100D               	iorwf	(_flag_press+1)^0,w,c
  5279   001478  A4D8               	btfss	status,2,c
  5280   00147A  EF41  F00A         	goto	u7891
  5281   00147E  EF43  F00A         	goto	u7890
  5282   001482                     u7891:
  5283   001482  EFFF  F00D         	goto	l3907
  5284   001486                     u7890:
  5285   001486                     
  5286                           ;main.c: 1159:                 if (counter[3] <= 100){
  5287   001486  0100               	movlb	0	; () banked
  5288   001488  BFA7               	btfsc	(_counter+31)& (0+255),7,b
  5289   00148A  EF58  F00A         	goto	u7900
  5290   00148E  51A7               	movf	(_counter+31)& (0+255),w,b
  5291   001490  11A6               	iorwf	(_counter+30)& (0+255),w,b
  5292   001492  11A5               	iorwf	(_counter+29)& (0+255),w,b
  5293   001494  11A4               	iorwf	(_counter+28)& (0+255),w,b
  5294   001496  11A3               	iorwf	(_counter+27)& (0+255),w,b
  5295   001498  11A2               	iorwf	(_counter+26)& (0+255),w,b
  5296   00149A  11A1               	iorwf	(_counter+25)& (0+255),w,b
  5297   00149C  E107               	bnz	u7901
  5298   00149E  0E65               	movlw	101
  5299   0014A0  5DA0               	subwf	(_counter+24)& (0+255),w,b
  5300   0014A2  B0D8               	btfsc	status,0,c
  5301   0014A4  EF56  F00A         	goto	u7901
  5302   0014A8  EF58  F00A         	goto	u7900
  5303   0014AC                     u7901:
  5304   0014AC  EFF1  F00B         	goto	l3877
  5305   0014B0                     u7900:
  5306   0014B0                     
  5307                           ; BSR set to: 0
  5308                           ;main.c: 1160:                     status_mode = 0;
  5309   0014B0  6A28               	clrf	_status_mode^0,c
  5310   0014B2                     
  5311                           ; BSR set to: 0
  5312                           ;main.c: 1161:                     PORTBbits.RB0 = counter[3] % 10 >= 5;
  5313   0014B2  C0A0  F031         	movff	_counter+24,___aomod@dividend
  5314   0014B6  C0A1  F032         	movff	_counter+25,___aomod@dividend+1
  5315   0014BA  C0A2  F033         	movff	_counter+26,___aomod@dividend+2
  5316   0014BE  C0A3  F034         	movff	_counter+27,___aomod@dividend+3
  5317   0014C2  C0A4  F035         	movff	_counter+28,___aomod@dividend+4
  5318   0014C6  C0A5  F036         	movff	_counter+29,___aomod@dividend+5
  5319   0014CA  C0A6  F037         	movff	_counter+30,___aomod@dividend+6
  5320   0014CE  C0A7  F038         	movff	_counter+31,___aomod@dividend+7
  5321   0014D2  0E0A               	movlw	10
  5322   0014D4  6E39               	movwf	___aomod@divisor^0,c
  5323   0014D6  0E00               	movlw	0
  5324   0014D8  6E3A               	movwf	(___aomod@divisor+1)^0,c
  5325   0014DA  0E00               	movlw	0
  5326   0014DC  6E3B               	movwf	(___aomod@divisor+2)^0,c
  5327   0014DE  0E00               	movlw	0
  5328   0014E0  6E3C               	movwf	(___aomod@divisor+3)^0,c
  5329   0014E2  0E00               	movlw	0
  5330   0014E4  6E3D               	movwf	(___aomod@divisor+4)^0,c
  5331   0014E6  0E00               	movlw	0
  5332   0014E8  6E3E               	movwf	(___aomod@divisor+5)^0,c
  5333   0014EA  0E00               	movlw	0
  5334   0014EC  6E3F               	movwf	(___aomod@divisor+6)^0,c
  5335   0014EE  0E00               	movlw	0
  5336   0014F0  6E40               	movwf	(___aomod@divisor+7)^0,c
  5337   0014F2  ECAA  F01B         	call	___aomod	;wreg free
  5338   0014F6  C031  F1B0         	movff	?___aomod,??_loop
  5339   0014FA  C032  F1B1         	movff	?___aomod+1,??_loop+1
  5340   0014FE  C033  F1B2         	movff	?___aomod+2,??_loop+2
  5341   001502  C034  F1B3         	movff	?___aomod+3,??_loop+3
  5342   001506  C035  F1B4         	movff	?___aomod+4,??_loop+4
  5343   00150A  C036  F1B5         	movff	?___aomod+5,??_loop+5
  5344   00150E  C037  F1B6         	movff	?___aomod+6,??_loop+6
  5345   001512  C038  F1B7         	movff	?___aomod+7,??_loop+7
  5346   001516  0101               	movlb	1	; () banked
  5347   001518  BFB7               	btfsc	(??_loop+7)& (0+255),7,b
  5348   00151A  EFA2  F00A         	goto	u7910
  5349   00151E  51B7               	movf	(??_loop+7)& (0+255),w,b
  5350   001520  11B6               	iorwf	(??_loop+6)& (0+255),w,b
  5351   001522  11B5               	iorwf	(??_loop+5)& (0+255),w,b
  5352   001524  11B4               	iorwf	(??_loop+4)& (0+255),w,b
  5353   001526  11B3               	iorwf	(??_loop+3)& (0+255),w,b
  5354   001528  11B2               	iorwf	(??_loop+2)& (0+255),w,b
  5355   00152A  11B1               	iorwf	(??_loop+1)& (0+255),w,b
  5356   00152C  E107               	bnz	u7911
  5357   00152E  0E05               	movlw	5
  5358   001530  5DB0               	subwf	??_loop& (0+255),w,b
  5359   001532  B0D8               	btfsc	status,0,c
  5360   001534  EF9E  F00A         	goto	u7911
  5361   001538  EFA2  F00A         	goto	u7910
  5362   00153C                     u7911:
  5363   00153C  6BB8               	clrf	(??_loop+8)& (0+255),b
  5364   00153E  2BB8               	incf	(??_loop+8)& (0+255),f,b
  5365   001540  EFA4  F00A         	goto	u7928
  5366   001544                     u7910:
  5367   001544  0101               	movlb	1	; () banked
  5368   001546  6BB8               	clrf	(??_loop+8)& (0+255),b
  5369   001548                     u7928:
  5370   001548  5081               	movf	129,w,c	;volatile
  5371   00154A  19B8               	xorwf	(??_loop+8)& (0+255),w,b
  5372   00154C  0BFE               	andlw	-2
  5373   00154E  19B8               	xorwf	(??_loop+8)& (0+255),w,b
  5374   001550  6E81               	movwf	129,c	;volatile
  5375                           
  5376                           ;main.c: 1162:                     PORTBbits.RB1 = counter[3] % 10 < 5;
  5377   001552  C0A0  F031         	movff	_counter+24,___aomod@dividend
  5378   001556  C0A1  F032         	movff	_counter+25,___aomod@dividend+1
  5379   00155A  C0A2  F033         	movff	_counter+26,___aomod@dividend+2
  5380   00155E  C0A3  F034         	movff	_counter+27,___aomod@dividend+3
  5381   001562  C0A4  F035         	movff	_counter+28,___aomod@dividend+4
  5382   001566  C0A5  F036         	movff	_counter+29,___aomod@dividend+5
  5383   00156A  C0A6  F037         	movff	_counter+30,___aomod@dividend+6
  5384   00156E  C0A7  F038         	movff	_counter+31,___aomod@dividend+7
  5385   001572  0E0A               	movlw	10
  5386   001574  6E39               	movwf	___aomod@divisor^0,c
  5387   001576  0E00               	movlw	0
  5388   001578  6E3A               	movwf	(___aomod@divisor+1)^0,c
  5389   00157A  0E00               	movlw	0
  5390   00157C  6E3B               	movwf	(___aomod@divisor+2)^0,c
  5391   00157E  0E00               	movlw	0
  5392   001580  6E3C               	movwf	(___aomod@divisor+3)^0,c
  5393   001582  0E00               	movlw	0
  5394   001584  6E3D               	movwf	(___aomod@divisor+4)^0,c
  5395   001586  0E00               	movlw	0
  5396   001588  6E3E               	movwf	(___aomod@divisor+5)^0,c
  5397   00158A  0E00               	movlw	0
  5398   00158C  6E3F               	movwf	(___aomod@divisor+6)^0,c
  5399   00158E  0E00               	movlw	0
  5400   001590  6E40               	movwf	(___aomod@divisor+7)^0,c
  5401   001592  ECAA  F01B         	call	___aomod	;wreg free
  5402   001596  C031  F1B0         	movff	?___aomod,??_loop
  5403   00159A  C032  F1B1         	movff	?___aomod+1,??_loop+1
  5404   00159E  C033  F1B2         	movff	?___aomod+2,??_loop+2
  5405   0015A2  C034  F1B3         	movff	?___aomod+3,??_loop+3
  5406   0015A6  C035  F1B4         	movff	?___aomod+4,??_loop+4
  5407   0015AA  C036  F1B5         	movff	?___aomod+5,??_loop+5
  5408   0015AE  C037  F1B6         	movff	?___aomod+6,??_loop+6
  5409   0015B2  C038  F1B7         	movff	?___aomod+7,??_loop+7
  5410   0015B6  0101               	movlb	1	; () banked
  5411   0015B8  BFB7               	btfsc	(??_loop+7)& (0+255),7,b
  5412   0015BA  EFEE  F00A         	goto	u7931
  5413   0015BE  51B7               	movf	(??_loop+7)& (0+255),w,b
  5414   0015C0  11B6               	iorwf	(??_loop+6)& (0+255),w,b
  5415   0015C2  11B5               	iorwf	(??_loop+5)& (0+255),w,b
  5416   0015C4  11B4               	iorwf	(??_loop+4)& (0+255),w,b
  5417   0015C6  11B3               	iorwf	(??_loop+3)& (0+255),w,b
  5418   0015C8  11B2               	iorwf	(??_loop+2)& (0+255),w,b
  5419   0015CA  11B1               	iorwf	(??_loop+1)& (0+255),w,b
  5420   0015CC  E10B               	bnz	u7930
  5421   0015CE  0E05               	movlw	5
  5422   0015D0  5DB0               	subwf	??_loop& (0+255),w,b
  5423   0015D2  A0D8               	btfss	status,0,c
  5424   0015D4  EFEE  F00A         	goto	u7931
  5425   0015D8  EFF2  F00A         	goto	u7930
  5426   0015DC                     u7931:
  5427   0015DC  6BB8               	clrf	(??_loop+8)& (0+255),b
  5428   0015DE  2BB8               	incf	(??_loop+8)& (0+255),f,b
  5429   0015E0  EFF4  F00A         	goto	u7948
  5430   0015E4                     u7930:
  5431   0015E4  0101               	movlb	1	; () banked
  5432   0015E6  6BB8               	clrf	(??_loop+8)& (0+255),b
  5433   0015E8                     u7948:
  5434   0015E8  47B8               	rlncf	(??_loop+8)& (0+255),f,b
  5435   0015EA  5081               	movf	129,w,c	;volatile
  5436   0015EC  19B8               	xorwf	(??_loop+8)& (0+255),w,b
  5437   0015EE  0BFD               	andlw	-3
  5438   0015F0  19B8               	xorwf	(??_loop+8)& (0+255),w,b
  5439   0015F2  6E81               	movwf	129,c	;volatile
  5440                           
  5441                           ;main.c: 1163:                     PORTBbits.RB2 = counter[3] % 10 >= 5;
  5442   0015F4  C0A0  F031         	movff	_counter+24,___aomod@dividend
  5443   0015F8  C0A1  F032         	movff	_counter+25,___aomod@dividend+1
  5444   0015FC  C0A2  F033         	movff	_counter+26,___aomod@dividend+2
  5445   001600  C0A3  F034         	movff	_counter+27,___aomod@dividend+3
  5446   001604  C0A4  F035         	movff	_counter+28,___aomod@dividend+4
  5447   001608  C0A5  F036         	movff	_counter+29,___aomod@dividend+5
  5448   00160C  C0A6  F037         	movff	_counter+30,___aomod@dividend+6
  5449   001610  C0A7  F038         	movff	_counter+31,___aomod@dividend+7
  5450   001614  0E0A               	movlw	10
  5451   001616  6E39               	movwf	___aomod@divisor^0,c
  5452   001618  0E00               	movlw	0
  5453   00161A  6E3A               	movwf	(___aomod@divisor+1)^0,c
  5454   00161C  0E00               	movlw	0
  5455   00161E  6E3B               	movwf	(___aomod@divisor+2)^0,c
  5456   001620  0E00               	movlw	0
  5457   001622  6E3C               	movwf	(___aomod@divisor+3)^0,c
  5458   001624  0E00               	movlw	0
  5459   001626  6E3D               	movwf	(___aomod@divisor+4)^0,c
  5460   001628  0E00               	movlw	0
  5461   00162A  6E3E               	movwf	(___aomod@divisor+5)^0,c
  5462   00162C  0E00               	movlw	0
  5463   00162E  6E3F               	movwf	(___aomod@divisor+6)^0,c
  5464   001630  0E00               	movlw	0
  5465   001632  6E40               	movwf	(___aomod@divisor+7)^0,c
  5466   001634  ECAA  F01B         	call	___aomod	;wreg free
  5467   001638  C031  F1B0         	movff	?___aomod,??_loop
  5468   00163C  C032  F1B1         	movff	?___aomod+1,??_loop+1
  5469   001640  C033  F1B2         	movff	?___aomod+2,??_loop+2
  5470   001644  C034  F1B3         	movff	?___aomod+3,??_loop+3
  5471   001648  C035  F1B4         	movff	?___aomod+4,??_loop+4
  5472   00164C  C036  F1B5         	movff	?___aomod+5,??_loop+5
  5473   001650  C037  F1B6         	movff	?___aomod+6,??_loop+6
  5474   001654  C038  F1B7         	movff	?___aomod+7,??_loop+7
  5475   001658  0101               	movlb	1	; () banked
  5476   00165A  BFB7               	btfsc	(??_loop+7)& (0+255),7,b
  5477   00165C  EF43  F00B         	goto	u7950
  5478   001660  51B7               	movf	(??_loop+7)& (0+255),w,b
  5479   001662  11B6               	iorwf	(??_loop+6)& (0+255),w,b
  5480   001664  11B5               	iorwf	(??_loop+5)& (0+255),w,b
  5481   001666  11B4               	iorwf	(??_loop+4)& (0+255),w,b
  5482   001668  11B3               	iorwf	(??_loop+3)& (0+255),w,b
  5483   00166A  11B2               	iorwf	(??_loop+2)& (0+255),w,b
  5484   00166C  11B1               	iorwf	(??_loop+1)& (0+255),w,b
  5485   00166E  E107               	bnz	u7951
  5486   001670  0E05               	movlw	5
  5487   001672  5DB0               	subwf	??_loop& (0+255),w,b
  5488   001674  B0D8               	btfsc	status,0,c
  5489   001676  EF3F  F00B         	goto	u7951
  5490   00167A  EF43  F00B         	goto	u7950
  5491   00167E                     u7951:
  5492   00167E  6BB8               	clrf	(??_loop+8)& (0+255),b
  5493   001680  2BB8               	incf	(??_loop+8)& (0+255),f,b
  5494   001682  EF45  F00B         	goto	u7968
  5495   001686                     u7950:
  5496   001686  0101               	movlb	1	; () banked
  5497   001688  6BB8               	clrf	(??_loop+8)& (0+255),b
  5498   00168A                     u7968:
  5499   00168A  47B8               	rlncf	(??_loop+8)& (0+255),f,b
  5500   00168C  47B8               	rlncf	(??_loop+8)& (0+255),f,b
  5501   00168E  5081               	movf	129,w,c	;volatile
  5502   001690  19B8               	xorwf	(??_loop+8)& (0+255),w,b
  5503   001692  0BFB               	andlw	-5
  5504   001694  19B8               	xorwf	(??_loop+8)& (0+255),w,b
  5505   001696  6E81               	movwf	129,c	;volatile
  5506                           
  5507                           ;main.c: 1164:                     PORTBbits.RB4 = counter[3] % 10 < 5;
  5508   001698  C0A0  F031         	movff	_counter+24,___aomod@dividend
  5509   00169C  C0A1  F032         	movff	_counter+25,___aomod@dividend+1
  5510   0016A0  C0A2  F033         	movff	_counter+26,___aomod@dividend+2
  5511   0016A4  C0A3  F034         	movff	_counter+27,___aomod@dividend+3
  5512   0016A8  C0A4  F035         	movff	_counter+28,___aomod@dividend+4
  5513   0016AC  C0A5  F036         	movff	_counter+29,___aomod@dividend+5
  5514   0016B0  C0A6  F037         	movff	_counter+30,___aomod@dividend+6
  5515   0016B4  C0A7  F038         	movff	_counter+31,___aomod@dividend+7
  5516   0016B8  0E0A               	movlw	10
  5517   0016BA  6E39               	movwf	___aomod@divisor^0,c
  5518   0016BC  0E00               	movlw	0
  5519   0016BE  6E3A               	movwf	(___aomod@divisor+1)^0,c
  5520   0016C0  0E00               	movlw	0
  5521   0016C2  6E3B               	movwf	(___aomod@divisor+2)^0,c
  5522   0016C4  0E00               	movlw	0
  5523   0016C6  6E3C               	movwf	(___aomod@divisor+3)^0,c
  5524   0016C8  0E00               	movlw	0
  5525   0016CA  6E3D               	movwf	(___aomod@divisor+4)^0,c
  5526   0016CC  0E00               	movlw	0
  5527   0016CE  6E3E               	movwf	(___aomod@divisor+5)^0,c
  5528   0016D0  0E00               	movlw	0
  5529   0016D2  6E3F               	movwf	(___aomod@divisor+6)^0,c
  5530   0016D4  0E00               	movlw	0
  5531   0016D6  6E40               	movwf	(___aomod@divisor+7)^0,c
  5532   0016D8  ECAA  F01B         	call	___aomod	;wreg free
  5533   0016DC  C031  F1B0         	movff	?___aomod,??_loop
  5534   0016E0  C032  F1B1         	movff	?___aomod+1,??_loop+1
  5535   0016E4  C033  F1B2         	movff	?___aomod+2,??_loop+2
  5536   0016E8  C034  F1B3         	movff	?___aomod+3,??_loop+3
  5537   0016EC  C035  F1B4         	movff	?___aomod+4,??_loop+4
  5538   0016F0  C036  F1B5         	movff	?___aomod+5,??_loop+5
  5539   0016F4  C037  F1B6         	movff	?___aomod+6,??_loop+6
  5540   0016F8  C038  F1B7         	movff	?___aomod+7,??_loop+7
  5541   0016FC  0101               	movlb	1	; () banked
  5542   0016FE  BFB7               	btfsc	(??_loop+7)& (0+255),7,b
  5543   001700  EF91  F00B         	goto	u7971
  5544   001704  51B7               	movf	(??_loop+7)& (0+255),w,b
  5545   001706  11B6               	iorwf	(??_loop+6)& (0+255),w,b
  5546   001708  11B5               	iorwf	(??_loop+5)& (0+255),w,b
  5547   00170A  11B4               	iorwf	(??_loop+4)& (0+255),w,b
  5548   00170C  11B3               	iorwf	(??_loop+3)& (0+255),w,b
  5549   00170E  11B2               	iorwf	(??_loop+2)& (0+255),w,b
  5550   001710  11B1               	iorwf	(??_loop+1)& (0+255),w,b
  5551   001712  E10B               	bnz	u7970
  5552   001714  0E05               	movlw	5
  5553   001716  5DB0               	subwf	??_loop& (0+255),w,b
  5554   001718  A0D8               	btfss	status,0,c
  5555   00171A  EF91  F00B         	goto	u7971
  5556   00171E  EF95  F00B         	goto	u7970
  5557   001722                     u7971:
  5558   001722  6BB8               	clrf	(??_loop+8)& (0+255),b
  5559   001724  2BB8               	incf	(??_loop+8)& (0+255),f,b
  5560   001726  EF97  F00B         	goto	u7988
  5561   00172A                     u7970:
  5562   00172A  0101               	movlb	1	; () banked
  5563   00172C  6BB8               	clrf	(??_loop+8)& (0+255),b
  5564   00172E                     u7988:
  5565   00172E  3BB8               	swapf	(??_loop+8)& (0+255),f,b
  5566   001730  5081               	movf	129,w,c	;volatile
  5567   001732  19B8               	xorwf	(??_loop+8)& (0+255),w,b
  5568   001734  0BEF               	andlw	-17
  5569   001736  19B8               	xorwf	(??_loop+8)& (0+255),w,b
  5570   001738  6E81               	movwf	129,c	;volatile
  5571                           
  5572                           ;main.c: 1165:                     PORTBbits.RB5 = counter[3] % 10 >= 5;
  5573   00173A  C0A0  F031         	movff	_counter+24,___aomod@dividend
  5574   00173E  C0A1  F032         	movff	_counter+25,___aomod@dividend+1
  5575   001742  C0A2  F033         	movff	_counter+26,___aomod@dividend+2
  5576   001746  C0A3  F034         	movff	_counter+27,___aomod@dividend+3
  5577   00174A  C0A4  F035         	movff	_counter+28,___aomod@dividend+4
  5578   00174E  C0A5  F036         	movff	_counter+29,___aomod@dividend+5
  5579   001752  C0A6  F037         	movff	_counter+30,___aomod@dividend+6
  5580   001756  C0A7  F038         	movff	_counter+31,___aomod@dividend+7
  5581   00175A  0E0A               	movlw	10
  5582   00175C  6E39               	movwf	___aomod@divisor^0,c
  5583   00175E  0E00               	movlw	0
  5584   001760  6E3A               	movwf	(___aomod@divisor+1)^0,c
  5585   001762  0E00               	movlw	0
  5586   001764  6E3B               	movwf	(___aomod@divisor+2)^0,c
  5587   001766  0E00               	movlw	0
  5588   001768  6E3C               	movwf	(___aomod@divisor+3)^0,c
  5589   00176A  0E00               	movlw	0
  5590   00176C  6E3D               	movwf	(___aomod@divisor+4)^0,c
  5591   00176E  0E00               	movlw	0
  5592   001770  6E3E               	movwf	(___aomod@divisor+5)^0,c
  5593   001772  0E00               	movlw	0
  5594   001774  6E3F               	movwf	(___aomod@divisor+6)^0,c
  5595   001776  0E00               	movlw	0
  5596   001778  6E40               	movwf	(___aomod@divisor+7)^0,c
  5597   00177A  ECAA  F01B         	call	___aomod	;wreg free
  5598   00177E  C031  F1B0         	movff	?___aomod,??_loop
  5599   001782  C032  F1B1         	movff	?___aomod+1,??_loop+1
  5600   001786  C033  F1B2         	movff	?___aomod+2,??_loop+2
  5601   00178A  C034  F1B3         	movff	?___aomod+3,??_loop+3
  5602   00178E  C035  F1B4         	movff	?___aomod+4,??_loop+4
  5603   001792  C036  F1B5         	movff	?___aomod+5,??_loop+5
  5604   001796  C037  F1B6         	movff	?___aomod+6,??_loop+6
  5605   00179A  C038  F1B7         	movff	?___aomod+7,??_loop+7
  5606   00179E  0101               	movlb	1	; () banked
  5607   0017A0  BFB7               	btfsc	(??_loop+7)& (0+255),7,b
  5608   0017A2  EFE6  F00B         	goto	u7990
  5609   0017A6  51B7               	movf	(??_loop+7)& (0+255),w,b
  5610   0017A8  11B6               	iorwf	(??_loop+6)& (0+255),w,b
  5611   0017AA  11B5               	iorwf	(??_loop+5)& (0+255),w,b
  5612   0017AC  11B4               	iorwf	(??_loop+4)& (0+255),w,b
  5613   0017AE  11B3               	iorwf	(??_loop+3)& (0+255),w,b
  5614   0017B0  11B2               	iorwf	(??_loop+2)& (0+255),w,b
  5615   0017B2  11B1               	iorwf	(??_loop+1)& (0+255),w,b
  5616   0017B4  E107               	bnz	u7991
  5617   0017B6  0E05               	movlw	5
  5618   0017B8  5DB0               	subwf	??_loop& (0+255),w,b
  5619   0017BA  B0D8               	btfsc	status,0,c
  5620   0017BC  EFE2  F00B         	goto	u7991
  5621   0017C0  EFE6  F00B         	goto	u7990
  5622   0017C4                     u7991:
  5623   0017C4  6BB8               	clrf	(??_loop+8)& (0+255),b
  5624   0017C6  2BB8               	incf	(??_loop+8)& (0+255),f,b
  5625   0017C8  EFE8  F00B         	goto	u8008
  5626   0017CC                     u7990:
  5627   0017CC  0101               	movlb	1	; () banked
  5628   0017CE  6BB8               	clrf	(??_loop+8)& (0+255),b
  5629   0017D0                     u8008:
  5630   0017D0  3BB8               	swapf	(??_loop+8)& (0+255),f,b
  5631   0017D2  47B8               	rlncf	(??_loop+8)& (0+255),f,b
  5632   0017D4  5081               	movf	129,w,c	;volatile
  5633   0017D6  19B8               	xorwf	(??_loop+8)& (0+255),w,b
  5634   0017D8  0BDF               	andlw	-33
  5635   0017DA  19B8               	xorwf	(??_loop+8)& (0+255),w,b
  5636   0017DC  6E81               	movwf	129,c	;volatile
  5637                           
  5638                           ;main.c: 1166:                 }else if(counter[3] <= 200){
  5639   0017DE  EFE2  F00D         	goto	l3897
  5640   0017E2                     l3877:
  5641                           
  5642                           ; BSR set to: 0
  5643   0017E2  BFA7               	btfsc	(_counter+31)& (0+255),7,b
  5644   0017E4  EF05  F00C         	goto	u8010
  5645   0017E8  51A7               	movf	(_counter+31)& (0+255),w,b
  5646   0017EA  11A6               	iorwf	(_counter+30)& (0+255),w,b
  5647   0017EC  11A5               	iorwf	(_counter+29)& (0+255),w,b
  5648   0017EE  11A4               	iorwf	(_counter+28)& (0+255),w,b
  5649   0017F0  11A3               	iorwf	(_counter+27)& (0+255),w,b
  5650   0017F2  11A2               	iorwf	(_counter+26)& (0+255),w,b
  5651   0017F4  11A1               	iorwf	(_counter+25)& (0+255),w,b
  5652   0017F6  E107               	bnz	u8011
  5653   0017F8  0EC9               	movlw	201
  5654   0017FA  5DA0               	subwf	(_counter+24)& (0+255),w,b
  5655   0017FC  B0D8               	btfsc	status,0,c
  5656   0017FE  EF03  F00C         	goto	u8011
  5657   001802  EF05  F00C         	goto	u8010
  5658   001806                     u8011:
  5659   001806  EF0F  F00C         	goto	l3883
  5660   00180A                     u8010:
  5661   00180A                     
  5662                           ; BSR set to: 0
  5663                           ;main.c: 1168:                     status_mode = 1;
  5664   00180A  0E01               	movlw	1
  5665   00180C  6E28               	movwf	_status_mode^0,c
  5666   00180E                     
  5667                           ; BSR set to: 0
  5668                           ;main.c: 1169:                     status_value = get_motor_speed();
  5669   00180E  EC2A  F020         	call	_get_motor_speed	;wreg free
  5670   001812  C031  F026         	movff	?_get_motor_speed,_status_value
  5671   001816  C032  F027         	movff	?_get_motor_speed+1,_status_value+1
  5672                           
  5673                           ;main.c: 1170:                 }else if(counter[3] <= 300){
  5674   00181A  EFE2  F00D         	goto	l3897
  5675   00181E                     l3883:
  5676                           
  5677                           ; BSR set to: 0
  5678   00181E  BFA7               	btfsc	(_counter+31)& (0+255),7,b
  5679   001820  EF24  F00C         	goto	u8020
  5680   001824  51A7               	movf	(_counter+31)& (0+255),w,b
  5681   001826  11A6               	iorwf	(_counter+30)& (0+255),w,b
  5682   001828  11A5               	iorwf	(_counter+29)& (0+255),w,b
  5683   00182A  11A4               	iorwf	(_counter+28)& (0+255),w,b
  5684   00182C  11A3               	iorwf	(_counter+27)& (0+255),w,b
  5685   00182E  11A2               	iorwf	(_counter+26)& (0+255),w,b
  5686   001830  E109               	bnz	u8021
  5687   001832  0E2D               	movlw	45
  5688   001834  5DA0               	subwf	(_counter+24)& (0+255),w,b
  5689   001836  0E01               	movlw	1
  5690   001838  59A1               	subwfb	(_counter+25)& (0+255),w,b
  5691   00183A  B0D8               	btfsc	status,0,c
  5692   00183C  EF22  F00C         	goto	u8021
  5693   001840  EF24  F00C         	goto	u8020
  5694   001844                     u8021:
  5695   001844  EFBD  F00D         	goto	l3889
  5696   001848                     u8020:
  5697   001848                     
  5698                           ; BSR set to: 0
  5699                           ;main.c: 1171:                     status_mode = 0;
  5700   001848  6A28               	clrf	_status_mode^0,c
  5701   00184A                     
  5702                           ; BSR set to: 0
  5703                           ;main.c: 1172:                     PORTBbits.RB0 = counter[3] % 10 >= 5;
  5704   00184A  C0A0  F031         	movff	_counter+24,___aomod@dividend
  5705   00184E  C0A1  F032         	movff	_counter+25,___aomod@dividend+1
  5706   001852  C0A2  F033         	movff	_counter+26,___aomod@dividend+2
  5707   001856  C0A3  F034         	movff	_counter+27,___aomod@dividend+3
  5708   00185A  C0A4  F035         	movff	_counter+28,___aomod@dividend+4
  5709   00185E  C0A5  F036         	movff	_counter+29,___aomod@dividend+5
  5710   001862  C0A6  F037         	movff	_counter+30,___aomod@dividend+6
  5711   001866  C0A7  F038         	movff	_counter+31,___aomod@dividend+7
  5712   00186A  0E0A               	movlw	10
  5713   00186C  6E39               	movwf	___aomod@divisor^0,c
  5714   00186E  0E00               	movlw	0
  5715   001870  6E3A               	movwf	(___aomod@divisor+1)^0,c
  5716   001872  0E00               	movlw	0
  5717   001874  6E3B               	movwf	(___aomod@divisor+2)^0,c
  5718   001876  0E00               	movlw	0
  5719   001878  6E3C               	movwf	(___aomod@divisor+3)^0,c
  5720   00187A  0E00               	movlw	0
  5721   00187C  6E3D               	movwf	(___aomod@divisor+4)^0,c
  5722   00187E  0E00               	movlw	0
  5723   001880  6E3E               	movwf	(___aomod@divisor+5)^0,c
  5724   001882  0E00               	movlw	0
  5725   001884  6E3F               	movwf	(___aomod@divisor+6)^0,c
  5726   001886  0E00               	movlw	0
  5727   001888  6E40               	movwf	(___aomod@divisor+7)^0,c
  5728   00188A  ECAA  F01B         	call	___aomod	;wreg free
  5729   00188E  C031  F1B0         	movff	?___aomod,??_loop
  5730   001892  C032  F1B1         	movff	?___aomod+1,??_loop+1
  5731   001896  C033  F1B2         	movff	?___aomod+2,??_loop+2
  5732   00189A  C034  F1B3         	movff	?___aomod+3,??_loop+3
  5733   00189E  C035  F1B4         	movff	?___aomod+4,??_loop+4
  5734   0018A2  C036  F1B5         	movff	?___aomod+5,??_loop+5
  5735   0018A6  C037  F1B6         	movff	?___aomod+6,??_loop+6
  5736   0018AA  C038  F1B7         	movff	?___aomod+7,??_loop+7
  5737   0018AE  0101               	movlb	1	; () banked
  5738   0018B0  BFB7               	btfsc	(??_loop+7)& (0+255),7,b
  5739   0018B2  EF6E  F00C         	goto	u8030
  5740   0018B6  51B7               	movf	(??_loop+7)& (0+255),w,b
  5741   0018B8  11B6               	iorwf	(??_loop+6)& (0+255),w,b
  5742   0018BA  11B5               	iorwf	(??_loop+5)& (0+255),w,b
  5743   0018BC  11B4               	iorwf	(??_loop+4)& (0+255),w,b
  5744   0018BE  11B3               	iorwf	(??_loop+3)& (0+255),w,b
  5745   0018C0  11B2               	iorwf	(??_loop+2)& (0+255),w,b
  5746   0018C2  11B1               	iorwf	(??_loop+1)& (0+255),w,b
  5747   0018C4  E107               	bnz	u8031
  5748   0018C6  0E05               	movlw	5
  5749   0018C8  5DB0               	subwf	??_loop& (0+255),w,b
  5750   0018CA  B0D8               	btfsc	status,0,c
  5751   0018CC  EF6A  F00C         	goto	u8031
  5752   0018D0  EF6E  F00C         	goto	u8030
  5753   0018D4                     u8031:
  5754   0018D4  6BB8               	clrf	(??_loop+8)& (0+255),b
  5755   0018D6  2BB8               	incf	(??_loop+8)& (0+255),f,b
  5756   0018D8  EF70  F00C         	goto	u8048
  5757   0018DC                     u8030:
  5758   0018DC  0101               	movlb	1	; () banked
  5759   0018DE  6BB8               	clrf	(??_loop+8)& (0+255),b
  5760   0018E0                     u8048:
  5761   0018E0  5081               	movf	129,w,c	;volatile
  5762   0018E2  19B8               	xorwf	(??_loop+8)& (0+255),w,b
  5763   0018E4  0BFE               	andlw	-2
  5764   0018E6  19B8               	xorwf	(??_loop+8)& (0+255),w,b
  5765   0018E8  6E81               	movwf	129,c	;volatile
  5766                           
  5767                           ;main.c: 1173:                     PORTBbits.RB1 = counter[3] % 10 < 5;
  5768   0018EA  C0A0  F031         	movff	_counter+24,___aomod@dividend
  5769   0018EE  C0A1  F032         	movff	_counter+25,___aomod@dividend+1
  5770   0018F2  C0A2  F033         	movff	_counter+26,___aomod@dividend+2
  5771   0018F6  C0A3  F034         	movff	_counter+27,___aomod@dividend+3
  5772   0018FA  C0A4  F035         	movff	_counter+28,___aomod@dividend+4
  5773   0018FE  C0A5  F036         	movff	_counter+29,___aomod@dividend+5
  5774   001902  C0A6  F037         	movff	_counter+30,___aomod@dividend+6
  5775   001906  C0A7  F038         	movff	_counter+31,___aomod@dividend+7
  5776   00190A  0E0A               	movlw	10
  5777   00190C  6E39               	movwf	___aomod@divisor^0,c
  5778   00190E  0E00               	movlw	0
  5779   001910  6E3A               	movwf	(___aomod@divisor+1)^0,c
  5780   001912  0E00               	movlw	0
  5781   001914  6E3B               	movwf	(___aomod@divisor+2)^0,c
  5782   001916  0E00               	movlw	0
  5783   001918  6E3C               	movwf	(___aomod@divisor+3)^0,c
  5784   00191A  0E00               	movlw	0
  5785   00191C  6E3D               	movwf	(___aomod@divisor+4)^0,c
  5786   00191E  0E00               	movlw	0
  5787   001920  6E3E               	movwf	(___aomod@divisor+5)^0,c
  5788   001922  0E00               	movlw	0
  5789   001924  6E3F               	movwf	(___aomod@divisor+6)^0,c
  5790   001926  0E00               	movlw	0
  5791   001928  6E40               	movwf	(___aomod@divisor+7)^0,c
  5792   00192A  ECAA  F01B         	call	___aomod	;wreg free
  5793   00192E  C031  F1B0         	movff	?___aomod,??_loop
  5794   001932  C032  F1B1         	movff	?___aomod+1,??_loop+1
  5795   001936  C033  F1B2         	movff	?___aomod+2,??_loop+2
  5796   00193A  C034  F1B3         	movff	?___aomod+3,??_loop+3
  5797   00193E  C035  F1B4         	movff	?___aomod+4,??_loop+4
  5798   001942  C036  F1B5         	movff	?___aomod+5,??_loop+5
  5799   001946  C037  F1B6         	movff	?___aomod+6,??_loop+6
  5800   00194A  C038  F1B7         	movff	?___aomod+7,??_loop+7
  5801   00194E  0101               	movlb	1	; () banked
  5802   001950  BFB7               	btfsc	(??_loop+7)& (0+255),7,b
  5803   001952  EFBA  F00C         	goto	u8051
  5804   001956  51B7               	movf	(??_loop+7)& (0+255),w,b
  5805   001958  11B6               	iorwf	(??_loop+6)& (0+255),w,b
  5806   00195A  11B5               	iorwf	(??_loop+5)& (0+255),w,b
  5807   00195C  11B4               	iorwf	(??_loop+4)& (0+255),w,b
  5808   00195E  11B3               	iorwf	(??_loop+3)& (0+255),w,b
  5809   001960  11B2               	iorwf	(??_loop+2)& (0+255),w,b
  5810   001962  11B1               	iorwf	(??_loop+1)& (0+255),w,b
  5811   001964  E10B               	bnz	u8050
  5812   001966  0E05               	movlw	5
  5813   001968  5DB0               	subwf	??_loop& (0+255),w,b
  5814   00196A  A0D8               	btfss	status,0,c
  5815   00196C  EFBA  F00C         	goto	u8051
  5816   001970  EFBE  F00C         	goto	u8050
  5817   001974                     u8051:
  5818   001974  6BB8               	clrf	(??_loop+8)& (0+255),b
  5819   001976  2BB8               	incf	(??_loop+8)& (0+255),f,b
  5820   001978  EFC0  F00C         	goto	u8068
  5821   00197C                     u8050:
  5822   00197C  0101               	movlb	1	; () banked
  5823   00197E  6BB8               	clrf	(??_loop+8)& (0+255),b
  5824   001980                     u8068:
  5825   001980  47B8               	rlncf	(??_loop+8)& (0+255),f,b
  5826   001982  5081               	movf	129,w,c	;volatile
  5827   001984  19B8               	xorwf	(??_loop+8)& (0+255),w,b
  5828   001986  0BFD               	andlw	-3
  5829   001988  19B8               	xorwf	(??_loop+8)& (0+255),w,b
  5830   00198A  6E81               	movwf	129,c	;volatile
  5831                           
  5832                           ;main.c: 1174:                     PORTBbits.RB2 = counter[3] % 10 >= 5;
  5833   00198C  C0A0  F031         	movff	_counter+24,___aomod@dividend
  5834   001990  C0A1  F032         	movff	_counter+25,___aomod@dividend+1
  5835   001994  C0A2  F033         	movff	_counter+26,___aomod@dividend+2
  5836   001998  C0A3  F034         	movff	_counter+27,___aomod@dividend+3
  5837   00199C  C0A4  F035         	movff	_counter+28,___aomod@dividend+4
  5838   0019A0  C0A5  F036         	movff	_counter+29,___aomod@dividend+5
  5839   0019A4  C0A6  F037         	movff	_counter+30,___aomod@dividend+6
  5840   0019A8  C0A7  F038         	movff	_counter+31,___aomod@dividend+7
  5841   0019AC  0E0A               	movlw	10
  5842   0019AE  6E39               	movwf	___aomod@divisor^0,c
  5843   0019B0  0E00               	movlw	0
  5844   0019B2  6E3A               	movwf	(___aomod@divisor+1)^0,c
  5845   0019B4  0E00               	movlw	0
  5846   0019B6  6E3B               	movwf	(___aomod@divisor+2)^0,c
  5847   0019B8  0E00               	movlw	0
  5848   0019BA  6E3C               	movwf	(___aomod@divisor+3)^0,c
  5849   0019BC  0E00               	movlw	0
  5850   0019BE  6E3D               	movwf	(___aomod@divisor+4)^0,c
  5851   0019C0  0E00               	movlw	0
  5852   0019C2  6E3E               	movwf	(___aomod@divisor+5)^0,c
  5853   0019C4  0E00               	movlw	0
  5854   0019C6  6E3F               	movwf	(___aomod@divisor+6)^0,c
  5855   0019C8  0E00               	movlw	0
  5856   0019CA  6E40               	movwf	(___aomod@divisor+7)^0,c
  5857   0019CC  ECAA  F01B         	call	___aomod	;wreg free
  5858   0019D0  C031  F1B0         	movff	?___aomod,??_loop
  5859   0019D4  C032  F1B1         	movff	?___aomod+1,??_loop+1
  5860   0019D8  C033  F1B2         	movff	?___aomod+2,??_loop+2
  5861   0019DC  C034  F1B3         	movff	?___aomod+3,??_loop+3
  5862   0019E0  C035  F1B4         	movff	?___aomod+4,??_loop+4
  5863   0019E4  C036  F1B5         	movff	?___aomod+5,??_loop+5
  5864   0019E8  C037  F1B6         	movff	?___aomod+6,??_loop+6
  5865   0019EC  C038  F1B7         	movff	?___aomod+7,??_loop+7
  5866   0019F0  0101               	movlb	1	; () banked
  5867   0019F2  BFB7               	btfsc	(??_loop+7)& (0+255),7,b
  5868   0019F4  EF0F  F00D         	goto	u8070
  5869   0019F8  51B7               	movf	(??_loop+7)& (0+255),w,b
  5870   0019FA  11B6               	iorwf	(??_loop+6)& (0+255),w,b
  5871   0019FC  11B5               	iorwf	(??_loop+5)& (0+255),w,b
  5872   0019FE  11B4               	iorwf	(??_loop+4)& (0+255),w,b
  5873   001A00  11B3               	iorwf	(??_loop+3)& (0+255),w,b
  5874   001A02  11B2               	iorwf	(??_loop+2)& (0+255),w,b
  5875   001A04  11B1               	iorwf	(??_loop+1)& (0+255),w,b
  5876   001A06  E107               	bnz	u8071
  5877   001A08  0E05               	movlw	5
  5878   001A0A  5DB0               	subwf	??_loop& (0+255),w,b
  5879   001A0C  B0D8               	btfsc	status,0,c
  5880   001A0E  EF0B  F00D         	goto	u8071
  5881   001A12  EF0F  F00D         	goto	u8070
  5882   001A16                     u8071:
  5883   001A16  6BB8               	clrf	(??_loop+8)& (0+255),b
  5884   001A18  2BB8               	incf	(??_loop+8)& (0+255),f,b
  5885   001A1A  EF11  F00D         	goto	u8088
  5886   001A1E                     u8070:
  5887   001A1E  0101               	movlb	1	; () banked
  5888   001A20  6BB8               	clrf	(??_loop+8)& (0+255),b
  5889   001A22                     u8088:
  5890   001A22  47B8               	rlncf	(??_loop+8)& (0+255),f,b
  5891   001A24  47B8               	rlncf	(??_loop+8)& (0+255),f,b
  5892   001A26  5081               	movf	129,w,c	;volatile
  5893   001A28  19B8               	xorwf	(??_loop+8)& (0+255),w,b
  5894   001A2A  0BFB               	andlw	-5
  5895   001A2C  19B8               	xorwf	(??_loop+8)& (0+255),w,b
  5896   001A2E  6E81               	movwf	129,c	;volatile
  5897                           
  5898                           ;main.c: 1175:                     PORTBbits.RB4 = counter[3] % 10 < 5;
  5899   001A30  C0A0  F031         	movff	_counter+24,___aomod@dividend
  5900   001A34  C0A1  F032         	movff	_counter+25,___aomod@dividend+1
  5901   001A38  C0A2  F033         	movff	_counter+26,___aomod@dividend+2
  5902   001A3C  C0A3  F034         	movff	_counter+27,___aomod@dividend+3
  5903   001A40  C0A4  F035         	movff	_counter+28,___aomod@dividend+4
  5904   001A44  C0A5  F036         	movff	_counter+29,___aomod@dividend+5
  5905   001A48  C0A6  F037         	movff	_counter+30,___aomod@dividend+6
  5906   001A4C  C0A7  F038         	movff	_counter+31,___aomod@dividend+7
  5907   001A50  0E0A               	movlw	10
  5908   001A52  6E39               	movwf	___aomod@divisor^0,c
  5909   001A54  0E00               	movlw	0
  5910   001A56  6E3A               	movwf	(___aomod@divisor+1)^0,c
  5911   001A58  0E00               	movlw	0
  5912   001A5A  6E3B               	movwf	(___aomod@divisor+2)^0,c
  5913   001A5C  0E00               	movlw	0
  5914   001A5E  6E3C               	movwf	(___aomod@divisor+3)^0,c
  5915   001A60  0E00               	movlw	0
  5916   001A62  6E3D               	movwf	(___aomod@divisor+4)^0,c
  5917   001A64  0E00               	movlw	0
  5918   001A66  6E3E               	movwf	(___aomod@divisor+5)^0,c
  5919   001A68  0E00               	movlw	0
  5920   001A6A  6E3F               	movwf	(___aomod@divisor+6)^0,c
  5921   001A6C  0E00               	movlw	0
  5922   001A6E  6E40               	movwf	(___aomod@divisor+7)^0,c
  5923   001A70  ECAA  F01B         	call	___aomod	;wreg free
  5924   001A74  C031  F1B0         	movff	?___aomod,??_loop
  5925   001A78  C032  F1B1         	movff	?___aomod+1,??_loop+1
  5926   001A7C  C033  F1B2         	movff	?___aomod+2,??_loop+2
  5927   001A80  C034  F1B3         	movff	?___aomod+3,??_loop+3
  5928   001A84  C035  F1B4         	movff	?___aomod+4,??_loop+4
  5929   001A88  C036  F1B5         	movff	?___aomod+5,??_loop+5
  5930   001A8C  C037  F1B6         	movff	?___aomod+6,??_loop+6
  5931   001A90  C038  F1B7         	movff	?___aomod+7,??_loop+7
  5932   001A94  0101               	movlb	1	; () banked
  5933   001A96  BFB7               	btfsc	(??_loop+7)& (0+255),7,b
  5934   001A98  EF5D  F00D         	goto	u8091
  5935   001A9C  51B7               	movf	(??_loop+7)& (0+255),w,b
  5936   001A9E  11B6               	iorwf	(??_loop+6)& (0+255),w,b
  5937   001AA0  11B5               	iorwf	(??_loop+5)& (0+255),w,b
  5938   001AA2  11B4               	iorwf	(??_loop+4)& (0+255),w,b
  5939   001AA4  11B3               	iorwf	(??_loop+3)& (0+255),w,b
  5940   001AA6  11B2               	iorwf	(??_loop+2)& (0+255),w,b
  5941   001AA8  11B1               	iorwf	(??_loop+1)& (0+255),w,b
  5942   001AAA  E10B               	bnz	u8090
  5943   001AAC  0E05               	movlw	5
  5944   001AAE  5DB0               	subwf	??_loop& (0+255),w,b
  5945   001AB0  A0D8               	btfss	status,0,c
  5946   001AB2  EF5D  F00D         	goto	u8091
  5947   001AB6  EF61  F00D         	goto	u8090
  5948   001ABA                     u8091:
  5949   001ABA  6BB8               	clrf	(??_loop+8)& (0+255),b
  5950   001ABC  2BB8               	incf	(??_loop+8)& (0+255),f,b
  5951   001ABE  EF63  F00D         	goto	u8108
  5952   001AC2                     u8090:
  5953   001AC2  0101               	movlb	1	; () banked
  5954   001AC4  6BB8               	clrf	(??_loop+8)& (0+255),b
  5955   001AC6                     u8108:
  5956   001AC6  3BB8               	swapf	(??_loop+8)& (0+255),f,b
  5957   001AC8  5081               	movf	129,w,c	;volatile
  5958   001ACA  19B8               	xorwf	(??_loop+8)& (0+255),w,b
  5959   001ACC  0BEF               	andlw	-17
  5960   001ACE  19B8               	xorwf	(??_loop+8)& (0+255),w,b
  5961   001AD0  6E81               	movwf	129,c	;volatile
  5962                           
  5963                           ;main.c: 1176:                     PORTBbits.RB5 = counter[3] % 10 >= 5;
  5964   001AD2  C0A0  F031         	movff	_counter+24,___aomod@dividend
  5965   001AD6  C0A1  F032         	movff	_counter+25,___aomod@dividend+1
  5966   001ADA  C0A2  F033         	movff	_counter+26,___aomod@dividend+2
  5967   001ADE  C0A3  F034         	movff	_counter+27,___aomod@dividend+3
  5968   001AE2  C0A4  F035         	movff	_counter+28,___aomod@dividend+4
  5969   001AE6  C0A5  F036         	movff	_counter+29,___aomod@dividend+5
  5970   001AEA  C0A6  F037         	movff	_counter+30,___aomod@dividend+6
  5971   001AEE  C0A7  F038         	movff	_counter+31,___aomod@dividend+7
  5972   001AF2  0E0A               	movlw	10
  5973   001AF4  6E39               	movwf	___aomod@divisor^0,c
  5974   001AF6  0E00               	movlw	0
  5975   001AF8  6E3A               	movwf	(___aomod@divisor+1)^0,c
  5976   001AFA  0E00               	movlw	0
  5977   001AFC  6E3B               	movwf	(___aomod@divisor+2)^0,c
  5978   001AFE  0E00               	movlw	0
  5979   001B00  6E3C               	movwf	(___aomod@divisor+3)^0,c
  5980   001B02  0E00               	movlw	0
  5981   001B04  6E3D               	movwf	(___aomod@divisor+4)^0,c
  5982   001B06  0E00               	movlw	0
  5983   001B08  6E3E               	movwf	(___aomod@divisor+5)^0,c
  5984   001B0A  0E00               	movlw	0
  5985   001B0C  6E3F               	movwf	(___aomod@divisor+6)^0,c
  5986   001B0E  0E00               	movlw	0
  5987   001B10  6E40               	movwf	(___aomod@divisor+7)^0,c
  5988   001B12  ECAA  F01B         	call	___aomod	;wreg free
  5989   001B16  C031  F1B0         	movff	?___aomod,??_loop
  5990   001B1A  C032  F1B1         	movff	?___aomod+1,??_loop+1
  5991   001B1E  C033  F1B2         	movff	?___aomod+2,??_loop+2
  5992   001B22  C034  F1B3         	movff	?___aomod+3,??_loop+3
  5993   001B26  C035  F1B4         	movff	?___aomod+4,??_loop+4
  5994   001B2A  C036  F1B5         	movff	?___aomod+5,??_loop+5
  5995   001B2E  C037  F1B6         	movff	?___aomod+6,??_loop+6
  5996   001B32  C038  F1B7         	movff	?___aomod+7,??_loop+7
  5997   001B36  0101               	movlb	1	; () banked
  5998   001B38  BFB7               	btfsc	(??_loop+7)& (0+255),7,b
  5999   001B3A  EFB2  F00D         	goto	u8110
  6000   001B3E  51B7               	movf	(??_loop+7)& (0+255),w,b
  6001   001B40  11B6               	iorwf	(??_loop+6)& (0+255),w,b
  6002   001B42  11B5               	iorwf	(??_loop+5)& (0+255),w,b
  6003   001B44  11B4               	iorwf	(??_loop+4)& (0+255),w,b
  6004   001B46  11B3               	iorwf	(??_loop+3)& (0+255),w,b
  6005   001B48  11B2               	iorwf	(??_loop+2)& (0+255),w,b
  6006   001B4A  11B1               	iorwf	(??_loop+1)& (0+255),w,b
  6007   001B4C  E107               	bnz	u8111
  6008   001B4E  0E05               	movlw	5
  6009   001B50  5DB0               	subwf	??_loop& (0+255),w,b
  6010   001B52  B0D8               	btfsc	status,0,c
  6011   001B54  EFAE  F00D         	goto	u8111
  6012   001B58  EFB2  F00D         	goto	u8110
  6013   001B5C                     u8111:
  6014   001B5C  6BB8               	clrf	(??_loop+8)& (0+255),b
  6015   001B5E  2BB8               	incf	(??_loop+8)& (0+255),f,b
  6016   001B60  EFB4  F00D         	goto	u8128
  6017   001B64                     u8110:
  6018   001B64  0101               	movlb	1	; () banked
  6019   001B66  6BB8               	clrf	(??_loop+8)& (0+255),b
  6020   001B68                     u8128:
  6021   001B68  3BB8               	swapf	(??_loop+8)& (0+255),f,b
  6022   001B6A  47B8               	rlncf	(??_loop+8)& (0+255),f,b
  6023   001B6C  5081               	movf	129,w,c	;volatile
  6024   001B6E  19B8               	xorwf	(??_loop+8)& (0+255),w,b
  6025   001B70  0BDF               	andlw	-33
  6026   001B72  19B8               	xorwf	(??_loop+8)& (0+255),w,b
  6027   001B74  6E81               	movwf	129,c	;volatile
  6028                           
  6029                           ;main.c: 1177:                 }else if (counter[3] <= 400){
  6030   001B76  EFE2  F00D         	goto	l3897
  6031   001B7A                     l3889:
  6032                           
  6033                           ; BSR set to: 0
  6034   001B7A  BFA7               	btfsc	(_counter+31)& (0+255),7,b
  6035   001B7C  EFD2  F00D         	goto	u8130
  6036   001B80  51A7               	movf	(_counter+31)& (0+255),w,b
  6037   001B82  11A6               	iorwf	(_counter+30)& (0+255),w,b
  6038   001B84  11A5               	iorwf	(_counter+29)& (0+255),w,b
  6039   001B86  11A4               	iorwf	(_counter+28)& (0+255),w,b
  6040   001B88  11A3               	iorwf	(_counter+27)& (0+255),w,b
  6041   001B8A  11A2               	iorwf	(_counter+26)& (0+255),w,b
  6042   001B8C  E109               	bnz	u8131
  6043   001B8E  0E91               	movlw	145
  6044   001B90  5DA0               	subwf	(_counter+24)& (0+255),w,b
  6045   001B92  0E01               	movlw	1
  6046   001B94  59A1               	subwfb	(_counter+25)& (0+255),w,b
  6047   001B96  B0D8               	btfsc	status,0,c
  6048   001B98  EFD0  F00D         	goto	u8131
  6049   001B9C  EFD2  F00D         	goto	u8130
  6050   001BA0                     u8131:
  6051   001BA0  EFDC  F00D         	goto	l3895
  6052   001BA4                     u8130:
  6053   001BA4                     
  6054                           ; BSR set to: 0
  6055                           ;main.c: 1179:                     status_mode = 7;
  6056   001BA4  0E07               	movlw	7
  6057   001BA6  6E28               	movwf	_status_mode^0,c
  6058   001BA8                     
  6059                           ; BSR set to: 0
  6060                           ;main.c: 1180:                     status_value = get_robot_program();
  6061   001BA8  ECAF  F01F         	call	_get_robot_program	;wreg free
  6062   001BAC  C031  F026         	movff	?_get_robot_program,_status_value
  6063   001BB0  C032  F027         	movff	?_get_robot_program+1,_status_value+1
  6064                           
  6065                           ;main.c: 1181:                 }else{
  6066   001BB4  EFE2  F00D         	goto	l3897
  6067   001BB8                     l3895:
  6068                           
  6069                           ; BSR set to: 0
  6070                           ;main.c: 1182:                     counter[3] = 0;
  6071   001BB8  EE20  F0A0         	lfsr	2,_counter+24
  6072   001BBC  0E07               	movlw	7
  6073   001BBE                     u8141:
  6074   001BBE  6ADE               	clrf	postinc2,c
  6075   001BC0  06E8               	decf	wreg,f,c
  6076   001BC2  E2FD               	bc	u8141
  6077   001BC4                     l3897:
  6078                           
  6079                           ;main.c: 1184:                 if (press_evt[0]){
  6080   001BC4  0100               	movlb	0	; () banked
  6081   001BC6  51E3               	movf	_press_evt& (0+255),w,b
  6082   001BC8  B4D8               	btfsc	status,2,c
  6083   001BCA  EFE9  F00D         	goto	u8151
  6084   001BCE  EFEB  F00D         	goto	u8150
  6085   001BD2                     u8151:
  6086   001BD2  EFF0  F00D         	goto	l494
  6087   001BD6                     u8150:
  6088   001BD6                     
  6089                           ; BSR set to: 0
  6090                           ;main.c: 1185:                     flag_press = 2;
  6091   001BD6  0E00               	movlw	0
  6092   001BD8  6E0D               	movwf	(_flag_press+1)^0,c
  6093   001BDA  0E02               	movlw	2
  6094   001BDC  6E0C               	movwf	_flag_press^0,c
  6095   001BDE                     
  6096                           ; BSR set to: 0
  6097                           ;main.c: 1186:                     press_evt[0] = 0;
  6098   001BDE  6BE3               	clrf	_press_evt& (0+255),b
  6099   001BE0                     l494:
  6100                           
  6101                           ; BSR set to: 0
  6102                           ;main.c: 1188:                 if (press_evt[1]){
  6103   001BE0  51E4               	movf	(_press_evt+1)& (0+255),w,b
  6104   001BE2  B4D8               	btfsc	status,2,c
  6105   001BE4  EFF6  F00D         	goto	u8161
  6106   001BE8  EFF8  F00D         	goto	u8160
  6107   001BEC                     u8161:
  6108   001BEC  EF6C  F00F         	goto	l507
  6109   001BF0                     u8160:
  6110   001BF0                     
  6111                           ; BSR set to: 0
  6112                           ;main.c: 1189:                     flag_press = 2;
  6113   001BF0  0E00               	movlw	0
  6114   001BF2  6E0D               	movwf	(_flag_press+1)^0,c
  6115   001BF4  0E02               	movlw	2
  6116   001BF6  6E0C               	movwf	_flag_press^0,c
  6117   001BF8                     
  6118                           ; BSR set to: 0
  6119                           ;main.c: 1190:                     press_evt[1] = 0;
  6120   001BF8  6BE4               	clrf	(_press_evt+1)& (0+255),b
  6121   001BFA  EF6C  F00F         	goto	l507
  6122   001BFE                     l3907:
  6123   001BFE  0E02               	movlw	2
  6124   001C00  180C               	xorwf	_flag_press^0,w,c
  6125   001C02  100D               	iorwf	(_flag_press+1)^0,w,c
  6126   001C04  A4D8               	btfss	status,2,c
  6127   001C06  EF07  F00E         	goto	u8171
  6128   001C0A  EF09  F00E         	goto	u8170
  6129   001C0E                     u8171:
  6130   001C0E  EF44  F008         	goto	l472
  6131   001C12                     u8170:
  6132   001C12                     
  6133                           ;main.c: 1193:                 status_mode = 0;
  6134   001C12  6A28               	clrf	_status_mode^0,c
  6135                           
  6136                           ;main.c: 1194:                 PORTBbits.RB0 = 1;
  6137   001C14  8081               	bsf	129,0,c	;volatile
  6138                           
  6139                           ;main.c: 1195:                 PORTBbits.RB1 = 1;
  6140   001C16  8281               	bsf	129,1,c	;volatile
  6141                           
  6142                           ;main.c: 1196:                 PORTBbits.RB2 = 1;
  6143   001C18  8481               	bsf	129,2,c	;volatile
  6144                           
  6145                           ;main.c: 1197:                 PORTBbits.RB4 = 1;
  6146   001C1A  8881               	bsf	129,4,c	;volatile
  6147                           
  6148                           ;main.c: 1198:                 PORTBbits.RB5 = 1;
  6149   001C1C  8A81               	bsf	129,5,c	;volatile
  6150   001C1E                     
  6151                           ;main.c: 1199:                 if (release_evt[0]){
  6152   001C1E  0100               	movlb	0	; () banked
  6153   001C20  51DE               	movf	_release_evt& (0+255),w,b
  6154   001C22  B4D8               	btfsc	status,2,c
  6155   001C24  EF16  F00E         	goto	u8181
  6156   001C28  EF18  F00E         	goto	u8180
  6157   001C2C                     u8181:
  6158   001C2C  EF21  F00E         	goto	l498
  6159   001C30                     u8180:
  6160   001C30                     
  6161                           ; BSR set to: 0
  6162                           ;main.c: 1200:                     release_evt[0] = 0;
  6163   001C30  6BDE               	clrf	_release_evt& (0+255),b
  6164   001C32                     
  6165                           ; BSR set to: 0
  6166                           ;main.c: 1201:                     robot_state = 3;
  6167   001C32  0E00               	movlw	0
  6168   001C34  6E11               	movwf	(_robot_state+1)^0,c
  6169   001C36  0E03               	movlw	3
  6170   001C38  6E10               	movwf	_robot_state^0,c
  6171                           
  6172                           ;main.c: 1202:                     flag_menu_init = 1;
  6173   001C3A  0E00               	movlw	0
  6174   001C3C  6E17               	movwf	(_flag_menu_init+1)^0,c
  6175   001C3E  0E01               	movlw	1
  6176   001C40  6E16               	movwf	_flag_menu_init^0,c
  6177   001C42                     l498:
  6178                           
  6179                           ; BSR set to: 0
  6180                           ;main.c: 1204:                 if (release_evt[1]){
  6181   001C42  51DF               	movf	(_release_evt+1)& (0+255),w,b
  6182   001C44  B4D8               	btfsc	status,2,c
  6183   001C46  EF27  F00E         	goto	u8191
  6184   001C4A  EF29  F00E         	goto	u8190
  6185   001C4E                     u8191:
  6186   001C4E  EF44  F008         	goto	l472
  6187   001C52                     u8190:
  6188   001C52                     
  6189                           ; BSR set to: 0
  6190                           ;main.c: 1205:                     release_evt[1] = 0;
  6191   001C52  6BDF               	clrf	(_release_evt+1)& (0+255),b
  6192   001C54                     
  6193                           ; BSR set to: 0
  6194                           ;main.c: 1206:                     robot_state = 3;
  6195   001C54  0E00               	movlw	0
  6196   001C56  6E11               	movwf	(_robot_state+1)^0,c
  6197   001C58  0E03               	movlw	3
  6198   001C5A  6E10               	movwf	_robot_state^0,c
  6199                           
  6200                           ;main.c: 1207:                     flag_menu_init = 1;
  6201   001C5C  0E00               	movlw	0
  6202   001C5E  6E17               	movwf	(_flag_menu_init+1)^0,c
  6203   001C60  0E01               	movlw	1
  6204   001C62  6E16               	movwf	_flag_menu_init^0,c
  6205   001C64  EF6C  F00F         	goto	l507
  6206   001C68                     l3921:
  6207   001C68  0E03               	movlw	3
  6208   001C6A  1810               	xorwf	_robot_state^0,w,c
  6209   001C6C  1011               	iorwf	(_robot_state+1)^0,w,c
  6210   001C6E  A4D8               	btfss	status,2,c
  6211   001C70  EF3C  F00E         	goto	u8201
  6212   001C74  EF3E  F00E         	goto	u8200
  6213   001C78                     u8201:
  6214   001C78  EF16  F00F         	goto	l3945
  6215   001C7C                     u8200:
  6216   001C7C                     
  6217                           ;main.c: 1213:         if (flag_menu_init){
  6218   001C7C  5016               	movf	_flag_menu_init^0,w,c
  6219   001C7E  1017               	iorwf	(_flag_menu_init+1)^0,w,c
  6220   001C80  B4D8               	btfsc	status,2,c
  6221   001C82  EF45  F00E         	goto	u8211
  6222   001C86  EF47  F00E         	goto	u8210
  6223   001C8A                     u8211:
  6224   001C8A  EF51  F00E         	goto	l3929
  6225   001C8E                     u8210:
  6226   001C8E                     
  6227                           ;main.c: 1214:             counter[3] = 0;
  6228   001C8E  EE20  F0A0         	lfsr	2,_counter+24
  6229   001C92  0E07               	movlw	7
  6230   001C94                     u8221:
  6231   001C94  6ADE               	clrf	postinc2,c
  6232   001C96  06E8               	decf	wreg,f,c
  6233   001C98  E2FD               	bc	u8221
  6234   001C9A                     
  6235                           ;main.c: 1215:             flag_menu_init = 0;
  6236   001C9A  0E00               	movlw	0
  6237   001C9C  6E17               	movwf	(_flag_menu_init+1)^0,c
  6238   001C9E  0E00               	movlw	0
  6239   001CA0  6E16               	movwf	_flag_menu_init^0,c
  6240   001CA2                     l3929:
  6241                           
  6242                           ;main.c: 1217:         status_mode = 0;
  6243   001CA2  6A28               	clrf	_status_mode^0,c
  6244   001CA4                     
  6245                           ;main.c: 1218:         PORTBbits.RB0 = counter[3] >= 100;
  6246   001CA4  0100               	movlb	0	; () banked
  6247   001CA6  BFA7               	btfsc	(_counter+31)& (0+255),7,b
  6248   001CA8  EF6A  F00E         	goto	u8230
  6249   001CAC  51A7               	movf	(_counter+31)& (0+255),w,b
  6250   001CAE  11A6               	iorwf	(_counter+30)& (0+255),w,b
  6251   001CB0  11A5               	iorwf	(_counter+29)& (0+255),w,b
  6252   001CB2  11A4               	iorwf	(_counter+28)& (0+255),w,b
  6253   001CB4  11A3               	iorwf	(_counter+27)& (0+255),w,b
  6254   001CB6  11A2               	iorwf	(_counter+26)& (0+255),w,b
  6255   001CB8  11A1               	iorwf	(_counter+25)& (0+255),w,b
  6256   001CBA  E107               	bnz	u8231
  6257   001CBC  0E64               	movlw	100
  6258   001CBE  5DA0               	subwf	(_counter+24)& (0+255),w,b
  6259   001CC0  B0D8               	btfsc	status,0,c
  6260   001CC2  EF65  F00E         	goto	u8231
  6261   001CC6  EF6A  F00E         	goto	u8230
  6262   001CCA                     u8231:
  6263   001CCA  0101               	movlb	1	; () banked
  6264   001CCC  6BB0               	clrf	??_loop& (0+255),b
  6265   001CCE  2BB0               	incf	??_loop& (0+255),f,b
  6266   001CD0  EF6C  F00E         	goto	u8248
  6267   001CD4                     u8230:
  6268   001CD4  0101               	movlb	1	; () banked
  6269   001CD6  6BB0               	clrf	??_loop& (0+255),b
  6270   001CD8                     u8248:
  6271   001CD8  5081               	movf	129,w,c	;volatile
  6272   001CDA  19B0               	xorwf	??_loop& (0+255),w,b
  6273   001CDC  0BFE               	andlw	-2
  6274   001CDE  19B0               	xorwf	??_loop& (0+255),w,b
  6275   001CE0  6E81               	movwf	129,c	;volatile
  6276   001CE2                     
  6277                           ; BSR set to: 1
  6278                           ;main.c: 1219:         PORTBbits.RB1 = counter[3] >= 200;
  6279   001CE2  0100               	movlb	0	; () banked
  6280   001CE4  BFA7               	btfsc	(_counter+31)& (0+255),7,b
  6281   001CE6  EF89  F00E         	goto	u8250
  6282   001CEA  51A7               	movf	(_counter+31)& (0+255),w,b
  6283   001CEC  11A6               	iorwf	(_counter+30)& (0+255),w,b
  6284   001CEE  11A5               	iorwf	(_counter+29)& (0+255),w,b
  6285   001CF0  11A4               	iorwf	(_counter+28)& (0+255),w,b
  6286   001CF2  11A3               	iorwf	(_counter+27)& (0+255),w,b
  6287   001CF4  11A2               	iorwf	(_counter+26)& (0+255),w,b
  6288   001CF6  11A1               	iorwf	(_counter+25)& (0+255),w,b
  6289   001CF8  E107               	bnz	u8251
  6290   001CFA  0EC8               	movlw	200
  6291   001CFC  5DA0               	subwf	(_counter+24)& (0+255),w,b
  6292   001CFE  B0D8               	btfsc	status,0,c
  6293   001D00  EF84  F00E         	goto	u8251
  6294   001D04  EF89  F00E         	goto	u8250
  6295   001D08                     u8251:
  6296   001D08  0101               	movlb	1	; () banked
  6297   001D0A  6BB0               	clrf	??_loop& (0+255),b
  6298   001D0C  2BB0               	incf	??_loop& (0+255),f,b
  6299   001D0E  EF8B  F00E         	goto	u8268
  6300   001D12                     u8250:
  6301   001D12  0101               	movlb	1	; () banked
  6302   001D14  6BB0               	clrf	??_loop& (0+255),b
  6303   001D16                     u8268:
  6304   001D16  47B0               	rlncf	??_loop& (0+255),f,b
  6305   001D18  5081               	movf	129,w,c	;volatile
  6306   001D1A  19B0               	xorwf	??_loop& (0+255),w,b
  6307   001D1C  0BFD               	andlw	-3
  6308   001D1E  19B0               	xorwf	??_loop& (0+255),w,b
  6309   001D20  6E81               	movwf	129,c	;volatile
  6310   001D22                     
  6311                           ; BSR set to: 1
  6312                           ;main.c: 1220:         PORTBbits.RB2 = counter[3] >= 300;
  6313   001D22  0100               	movlb	0	; () banked
  6314   001D24  BFA7               	btfsc	(_counter+31)& (0+255),7,b
  6315   001D26  EFAA  F00E         	goto	u8270
  6316   001D2A  51A7               	movf	(_counter+31)& (0+255),w,b
  6317   001D2C  11A6               	iorwf	(_counter+30)& (0+255),w,b
  6318   001D2E  11A5               	iorwf	(_counter+29)& (0+255),w,b
  6319   001D30  11A4               	iorwf	(_counter+28)& (0+255),w,b
  6320   001D32  11A3               	iorwf	(_counter+27)& (0+255),w,b
  6321   001D34  11A2               	iorwf	(_counter+26)& (0+255),w,b
  6322   001D36  E109               	bnz	u8271
  6323   001D38  0E2C               	movlw	44
  6324   001D3A  5DA0               	subwf	(_counter+24)& (0+255),w,b
  6325   001D3C  0E01               	movlw	1
  6326   001D3E  59A1               	subwfb	(_counter+25)& (0+255),w,b
  6327   001D40  B0D8               	btfsc	status,0,c
  6328   001D42  EFA5  F00E         	goto	u8271
  6329   001D46  EFAA  F00E         	goto	u8270
  6330   001D4A                     u8271:
  6331   001D4A  0101               	movlb	1	; () banked
  6332   001D4C  6BB0               	clrf	??_loop& (0+255),b
  6333   001D4E  2BB0               	incf	??_loop& (0+255),f,b
  6334   001D50  EFAC  F00E         	goto	u8288
  6335   001D54                     u8270:
  6336   001D54  0101               	movlb	1	; () banked
  6337   001D56  6BB0               	clrf	??_loop& (0+255),b
  6338   001D58                     u8288:
  6339   001D58  47B0               	rlncf	??_loop& (0+255),f,b
  6340   001D5A  47B0               	rlncf	??_loop& (0+255),f,b
  6341   001D5C  5081               	movf	129,w,c	;volatile
  6342   001D5E  19B0               	xorwf	??_loop& (0+255),w,b
  6343   001D60  0BFB               	andlw	-5
  6344   001D62  19B0               	xorwf	??_loop& (0+255),w,b
  6345   001D64  6E81               	movwf	129,c	;volatile
  6346   001D66                     
  6347                           ; BSR set to: 1
  6348                           ;main.c: 1221:         PORTBbits.RB4 = counter[3] >= 400;
  6349   001D66  0100               	movlb	0	; () banked
  6350   001D68  BFA7               	btfsc	(_counter+31)& (0+255),7,b
  6351   001D6A  EFCC  F00E         	goto	u8290
  6352   001D6E  51A7               	movf	(_counter+31)& (0+255),w,b
  6353   001D70  11A6               	iorwf	(_counter+30)& (0+255),w,b
  6354   001D72  11A5               	iorwf	(_counter+29)& (0+255),w,b
  6355   001D74  11A4               	iorwf	(_counter+28)& (0+255),w,b
  6356   001D76  11A3               	iorwf	(_counter+27)& (0+255),w,b
  6357   001D78  11A2               	iorwf	(_counter+26)& (0+255),w,b
  6358   001D7A  E109               	bnz	u8291
  6359   001D7C  0E90               	movlw	144
  6360   001D7E  5DA0               	subwf	(_counter+24)& (0+255),w,b
  6361   001D80  0E01               	movlw	1
  6362   001D82  59A1               	subwfb	(_counter+25)& (0+255),w,b
  6363   001D84  B0D8               	btfsc	status,0,c
  6364   001D86  EFC7  F00E         	goto	u8291
  6365   001D8A  EFCC  F00E         	goto	u8290
  6366   001D8E                     u8291:
  6367   001D8E  0101               	movlb	1	; () banked
  6368   001D90  6BB0               	clrf	??_loop& (0+255),b
  6369   001D92  2BB0               	incf	??_loop& (0+255),f,b
  6370   001D94  EFCE  F00E         	goto	u8308
  6371   001D98                     u8290:
  6372   001D98  0101               	movlb	1	; () banked
  6373   001D9A  6BB0               	clrf	??_loop& (0+255),b
  6374   001D9C                     u8308:
  6375   001D9C  3BB0               	swapf	??_loop& (0+255),f,b
  6376   001D9E  5081               	movf	129,w,c	;volatile
  6377   001DA0  19B0               	xorwf	??_loop& (0+255),w,b
  6378   001DA2  0BEF               	andlw	-17
  6379   001DA4  19B0               	xorwf	??_loop& (0+255),w,b
  6380   001DA6  6E81               	movwf	129,c	;volatile
  6381   001DA8                     
  6382                           ; BSR set to: 1
  6383                           ;main.c: 1222:         PORTBbits.RB5 = counter[3] >= 500;
  6384   001DA8  0100               	movlb	0	; () banked
  6385   001DAA  BFA7               	btfsc	(_counter+31)& (0+255),7,b
  6386   001DAC  EFED  F00E         	goto	u8310
  6387   001DB0  51A7               	movf	(_counter+31)& (0+255),w,b
  6388   001DB2  11A6               	iorwf	(_counter+30)& (0+255),w,b
  6389   001DB4  11A5               	iorwf	(_counter+29)& (0+255),w,b
  6390   001DB6  11A4               	iorwf	(_counter+28)& (0+255),w,b
  6391   001DB8  11A3               	iorwf	(_counter+27)& (0+255),w,b
  6392   001DBA  11A2               	iorwf	(_counter+26)& (0+255),w,b
  6393   001DBC  E109               	bnz	u8311
  6394   001DBE  0EF4               	movlw	244
  6395   001DC0  5DA0               	subwf	(_counter+24)& (0+255),w,b
  6396   001DC2  0E01               	movlw	1
  6397   001DC4  59A1               	subwfb	(_counter+25)& (0+255),w,b
  6398   001DC6  B0D8               	btfsc	status,0,c
  6399   001DC8  EFE8  F00E         	goto	u8311
  6400   001DCC  EFED  F00E         	goto	u8310
  6401   001DD0                     u8311:
  6402   001DD0  0101               	movlb	1	; () banked
  6403   001DD2  6BB0               	clrf	??_loop& (0+255),b
  6404   001DD4  2BB0               	incf	??_loop& (0+255),f,b
  6405   001DD6  EFEF  F00E         	goto	u8328
  6406   001DDA                     u8310:
  6407   001DDA  0101               	movlb	1	; () banked
  6408   001DDC  6BB0               	clrf	??_loop& (0+255),b
  6409   001DDE                     u8328:
  6410   001DDE  3BB0               	swapf	??_loop& (0+255),f,b
  6411   001DE0  47B0               	rlncf	??_loop& (0+255),f,b
  6412   001DE2  5081               	movf	129,w,c	;volatile
  6413   001DE4  19B0               	xorwf	??_loop& (0+255),w,b
  6414   001DE6  0BDF               	andlw	-33
  6415   001DE8  19B0               	xorwf	??_loop& (0+255),w,b
  6416   001DEA  6E81               	movwf	129,c	;volatile
  6417   001DEC                     
  6418                           ; BSR set to: 1
  6419                           ;main.c: 1224:         if (counter[3] >= 500){
  6420   001DEC  0100               	movlb	0	; () banked
  6421   001DEE  BFA7               	btfsc	(_counter+31)& (0+255),7,b
  6422   001DF0  EF0A  F00F         	goto	u8331
  6423   001DF4  51A7               	movf	(_counter+31)& (0+255),w,b
  6424   001DF6  11A6               	iorwf	(_counter+30)& (0+255),w,b
  6425   001DF8  11A5               	iorwf	(_counter+29)& (0+255),w,b
  6426   001DFA  11A4               	iorwf	(_counter+28)& (0+255),w,b
  6427   001DFC  11A3               	iorwf	(_counter+27)& (0+255),w,b
  6428   001DFE  11A2               	iorwf	(_counter+26)& (0+255),w,b
  6429   001E00  E10B               	bnz	u8330
  6430   001E02  0EF4               	movlw	244
  6431   001E04  5DA0               	subwf	(_counter+24)& (0+255),w,b
  6432   001E06  0E01               	movlw	1
  6433   001E08  59A1               	subwfb	(_counter+25)& (0+255),w,b
  6434   001E0A  A0D8               	btfss	status,0,c
  6435   001E0C  EF0A  F00F         	goto	u8331
  6436   001E10  EF0C  F00F         	goto	u8330
  6437   001E14                     u8331:
  6438   001E14  EF44  F008         	goto	l472
  6439   001E18                     u8330:
  6440   001E18                     
  6441                           ; BSR set to: 0
  6442                           ;main.c: 1225:             robot_state = 4;
  6443   001E18  0E00               	movlw	0
  6444   001E1A  6E11               	movwf	(_robot_state+1)^0,c
  6445   001E1C  0E04               	movlw	4
  6446   001E1E  6E10               	movwf	_robot_state^0,c
  6447                           
  6448                           ;main.c: 1226:             flag_menu_init = 1;
  6449   001E20  0E00               	movlw	0
  6450   001E22  6E17               	movwf	(_flag_menu_init+1)^0,c
  6451   001E24  0E01               	movlw	1
  6452   001E26  6E16               	movwf	_flag_menu_init^0,c
  6453   001E28  EF6C  F00F         	goto	l507
  6454   001E2C                     l3945:
  6455   001E2C  0E04               	movlw	4
  6456   001E2E  1810               	xorwf	_robot_state^0,w,c
  6457   001E30  1011               	iorwf	(_robot_state+1)^0,w,c
  6458   001E32  A4D8               	btfss	status,2,c
  6459   001E34  EF1E  F00F         	goto	u8341
  6460   001E38  EF20  F00F         	goto	u8340
  6461   001E3C                     u8341:
  6462   001E3C  EF44  F008         	goto	l472
  6463   001E40                     u8340:
  6464   001E40                     
  6465                           ;main.c: 1229:         if (flag_menu_init){
  6466   001E40  5016               	movf	_flag_menu_init^0,w,c
  6467   001E42  1017               	iorwf	(_flag_menu_init+1)^0,w,c
  6468   001E44  B4D8               	btfsc	status,2,c
  6469   001E46  EF27  F00F         	goto	u8351
  6470   001E4A  EF29  F00F         	goto	u8350
  6471   001E4E                     u8351:
  6472   001E4E  EF51  F00F         	goto	l3955
  6473   001E52                     u8350:
  6474   001E52                     
  6475                           ;main.c: 1230:             speed_aux = get_motor_speed();
  6476   001E52  EC2A  F020         	call	_get_motor_speed	;wreg free
  6477   001E56  C031  F00A         	movff	?_get_motor_speed,_speed_aux
  6478   001E5A  C032  F00B         	movff	?_get_motor_speed+1,_speed_aux+1
  6479                           
  6480                           ;main.c: 1231:             program_aux = get_robot_program();
  6481   001E5E  ECAF  F01F         	call	_get_robot_program	;wreg free
  6482   001E62  C031  F0F2         	movff	?_get_robot_program,_program_aux
  6483   001E66  C032  F0F3         	movff	?_get_robot_program+1,_program_aux+1
  6484   001E6A                     
  6485                           ;main.c: 1233:             init_routines[program_aux-1](speed_aux);
  6486   001E6A  C00A  F031         	movff	_speed_aux,init4@speed
  6487   001E6E  C00B  F032         	movff	_speed_aux+1,init4@speed+1
  6488   001E72  0100               	movlb	0	; () banked
  6489   001E74  51F2               	movf	_program_aux& (0+255),w,b
  6490   001E76  0D02               	mullw	2
  6491   001E78  50F3               	movf	243,w,c
  6492   001E7A  0FF4               	addlw	low (_init_routines+254)
  6493   001E7C  6ED9               	movwf	fsr2l,c
  6494   001E7E  6ADA               	clrf	fsr2h,c
  6495   001E80  D802               	call	u8368
  6496   001E82  EF4D  F00F         	goto	u8369
  6497   001E86                     u8368:
  6498   001E86  0005               	push	
  6499   001E88  6EFA               	movwf	pclath,c
  6500   001E8A  50DE               	movf	postinc2,w,c
  6501   001E8C  6EFD               	movwf	tosl,c
  6502   001E8E  50DE               	movf	postinc2,w,c
  6503   001E90  6EFE               	movwf	tosh,c
  6504   001E92  50F8               	movf	tblptru,w,c
  6505   001E94  6EFF               	movwf	tosu,c
  6506   001E96  50FA               	movf	pclath,w,c
  6507   001E98  0012               	return		;indir
  6508   001E9A                     u8369:
  6509   001E9A                     
  6510                           ;main.c: 1234:             flag_menu_init = 0;
  6511   001E9A  0E00               	movlw	0
  6512   001E9C  6E17               	movwf	(_flag_menu_init+1)^0,c
  6513   001E9E  0E00               	movlw	0
  6514   001EA0  6E16               	movwf	_flag_menu_init^0,c
  6515   001EA2                     l3955:
  6516                           
  6517                           ;main.c: 1236:         loop_routines[program_aux-1](speed_aux);
  6518   001EA2  C00A  F031         	movff	_speed_aux,loop4@speed
  6519   001EA6  C00B  F032         	movff	_speed_aux+1,loop4@speed+1
  6520   001EAA  90D8               	bcf	status,0,c
  6521   001EAC  0100               	movlb	0	; () banked
  6522   001EAE  35F2               	rlcf	_program_aux& (0+255),w,b
  6523   001EB0  6ED9               	movwf	fsr2l,c
  6524   001EB2  35F3               	rlcf	(_program_aux+1)& (0+255),w,b
  6525   001EB4  6EDA               	movwf	fsr2h,c
  6526   001EB6  0EBE               	movlw	low (_loop_routines+65534)
  6527   001EB8  26D9               	addwf	fsr2l,f,c
  6528   001EBA  0E01               	movlw	high (_loop_routines+65534)
  6529   001EBC  22DA               	addwfc	fsr2h,f,c
  6530   001EBE  D802               	call	u8378
  6531   001EC0  EF6C  F00F         	goto	u8379
  6532   001EC4                     u8378:
  6533   001EC4  0005               	push	
  6534   001EC6  6EFA               	movwf	pclath,c
  6535   001EC8  50DE               	movf	postinc2,w,c
  6536   001ECA  6EFD               	movwf	tosl,c
  6537   001ECC  50DE               	movf	postinc2,w,c
  6538   001ECE  6EFE               	movwf	tosh,c
  6539   001ED0  50F8               	movf	tblptru,w,c
  6540   001ED2  6EFF               	movwf	tosu,c
  6541   001ED4  50FA               	movf	pclath,w,c
  6542   001ED6  0012               	return		;indir
  6543   001ED8                     u8379:
  6544   001ED8                     l507:
  6545   001ED8  0012               	return		;funcret
  6546   001EDA                     __end_of_loop:
  6547                           	callstack 0
  6548                           
  6549 ;; *************** function _write_eeprom *****************
  6550 ;; Defined at:
  6551 ;;		line 270 in file "main.c"
  6552 ;; Parameters:    Size  Location     Type
  6553 ;;		None
  6554 ;; Auto vars:     Size  Location     Type
  6555 ;;  addr            1   10[COMRAM] unsigned char 
  6556 ;; Return value:  Size  Location     Type
  6557 ;;                  1    wreg      void 
  6558 ;; Registers used:
  6559 ;;		wreg, fsr2l, fsr2h, status,2, status,0
  6560 ;; Tracked objects:
  6561 ;;		On entry : 0/0
  6562 ;;		On exit  : 0/0
  6563 ;;		Unchanged: 0/0
  6564 ;; Data sizes:     COMRAM   BANK0   BANK1   BANK2   BANK3   BANK4   BANK5   BANK6   BANK7
  6565 ;;      Params:         0       0       0       0       0       0       0       0       0
  6566 ;;      Locals:         1       0       0       0       0       0       0       0       0
  6567 ;;      Temps:          4       0       0       0       0       0       0       0       0
  6568 ;;      Totals:         5       0       0       0       0       0       0       0       0
  6569 ;;Total ram usage:        5 bytes
  6570 ;; Hardware stack levels used: 1
  6571 ;; Hardware stack levels required when called: 1
  6572 ;; This function calls:
  6573 ;;		Nothing
  6574 ;; This function is called by:
  6575 ;;		_loop
  6576 ;; This function uses a non-reentrant model
  6577 ;;
  6578                           
  6579                           	psect	text8
  6580   003CA6                     __ptext8:
  6581                           	callstack 0
  6582   003CA6                     _write_eeprom:
  6583                           	callstack 28
  6584   003CA6                     
  6585                           ;main.c: 271:     unsigned char addr;;main.c: 273:     for (addr=0;addr<=100;addr++){
  6586   003CA6  6A35               	clrf	write_eeprom@addr^0,c
  6587   003CA8                     l128:
  6588                           
  6589                           ;main.c: 274:         EEADR = addr;
  6590   003CA8  C035  FFA9         	movff	write_eeprom@addr,4009	;volatile
  6591                           
  6592                           ;main.c: 275:         if (addr & 0x01){
  6593   003CAC  A035               	btfss	write_eeprom@addr^0,0,c
  6594   003CAE  EF5B  F01E         	goto	u3591
  6595   003CB2  EF5D  F01E         	goto	u3590
  6596   003CB6                     u3591:
  6597   003CB6  EF6E  F01E         	goto	l2481
  6598   003CBA                     u3590:
  6599   003CBA                     
  6600                           ;main.c: 277:             EEDATA = persisted_data[addr >> 1] & 0xFF;
  6601   003CBA  90D8               	bcf	status,0,c
  6602   003CBC  3035               	rrcf	write_eeprom@addr^0,w,c
  6603   003CBE  6E31               	movwf	??_write_eeprom^0,c
  6604   003CC0  6A32               	clrf	(??_write_eeprom+1)^0,c
  6605   003CC2  90D8               	bcf	status,0,c
  6606   003CC4  3631               	rlcf	??_write_eeprom^0,f,c
  6607   003CC6  3632               	rlcf	(??_write_eeprom+1)^0,f,c
  6608   003CC8  0E00               	movlw	low _persisted_data
  6609   003CCA  2431               	addwf	??_write_eeprom^0,w,c
  6610   003CCC  6ED9               	movwf	fsr2l,c
  6611   003CCE  0E02               	movlw	high _persisted_data
  6612   003CD0  2032               	addwfc	(??_write_eeprom+1)^0,w,c
  6613   003CD2  6EDA               	movwf	fsr2h,c
  6614   003CD4  50DF               	movf	indf2,w,c
  6615   003CD6  6EA8               	movwf	168,c	;volatile
  6616                           
  6617                           ;main.c: 278:         }else{
  6618   003CD8  EF84  F01E         	goto	l2483
  6619   003CDC                     l2481:
  6620                           
  6621                           ;main.c: 280:             EEDATA = (persisted_data[addr >> 1] >> 8) & 0xFF;
  6622   003CDC  90D8               	bcf	status,0,c
  6623   003CDE  3035               	rrcf	write_eeprom@addr^0,w,c
  6624   003CE0  6E31               	movwf	??_write_eeprom^0,c
  6625   003CE2  6A32               	clrf	(??_write_eeprom+1)^0,c
  6626   003CE4  90D8               	bcf	status,0,c
  6627   003CE6  3631               	rlcf	??_write_eeprom^0,f,c
  6628   003CE8  3632               	rlcf	(??_write_eeprom+1)^0,f,c
  6629   003CEA  0E00               	movlw	low _persisted_data
  6630   003CEC  2431               	addwf	??_write_eeprom^0,w,c
  6631   003CEE  6ED9               	movwf	fsr2l,c
  6632   003CF0  0E02               	movlw	high _persisted_data
  6633   003CF2  2032               	addwfc	(??_write_eeprom+1)^0,w,c
  6634   003CF4  6EDA               	movwf	fsr2h,c
  6635   003CF6  CFDE F033          	movff	postinc2,??_write_eeprom+2
  6636   003CFA  CFDD F034          	movff	postdec2,??_write_eeprom+3
  6637   003CFE  C034  F033         	movff	??_write_eeprom+3,??_write_eeprom+2
  6638   003D02  6A34               	clrf	(??_write_eeprom+3)^0,c
  6639   003D04  5033               	movf	(??_write_eeprom+2)^0,w,c
  6640   003D06  6EA8               	movwf	168,c	;volatile
  6641   003D08                     l2483:
  6642                           
  6643                           ;main.c: 283:         EECON1bits.CFGS = 0;
  6644   003D08  9CA6               	bcf	166,6,c	;volsfr
  6645   003D0A                     
  6646                           ;main.c: 285:         EECON1bits.EEPGD = 0;
  6647   003D0A  9EA6               	bcf	166,7,c	;volsfr
  6648   003D0C                     
  6649                           ;main.c: 287:         EECON1bits.WREN = 1;
  6650   003D0C  84A6               	bsf	166,2,c	;volsfr
  6651   003D0E                     
  6652                           ;main.c: 289:         INTCONbits.GIE = 0;
  6653   003D0E  9EF2               	bcf	242,7,c	;volatile
  6654   003D10                     
  6655                           ;main.c: 291:         EECON2 = 0x55;
  6656   003D10  0E55               	movlw	85
  6657   003D12  6EA7               	movwf	167,c	;volsfr
  6658   003D14                     
  6659                           ;main.c: 292:         EECON2 = 0x0AA;
  6660   003D14  0EAA               	movlw	170
  6661   003D16  6EA7               	movwf	167,c	;volsfr
  6662   003D18                     
  6663                           ;main.c: 294:         EECON1bits.WR = 1;
  6664   003D18  82A6               	bsf	166,1,c	;volsfr
  6665   003D1A                     
  6666                           ;main.c: 296:         INTCONbits.GIE = 1;
  6667   003D1A  8EF2               	bsf	242,7,c	;volatile
  6668   003D1C                     
  6669                           ;main.c: 298:         EECON1bits.WREN = 0;
  6670   003D1C  94A6               	bcf	166,2,c	;volsfr
  6671   003D1E                     l132:
  6672   003D1E  A8A1               	btfss	4001,4,c	;volatile
  6673   003D20  EF94  F01E         	goto	u3601
  6674   003D24  EF96  F01E         	goto	u3600
  6675   003D28                     u3601:
  6676   003D28  EF8F  F01E         	goto	l132
  6677   003D2C                     u3600:
  6678   003D2C                     
  6679                           ;main.c: 301:         EEIF = 0;
  6680   003D2C  98A1               	bcf	4001,4,c	;volatile
  6681   003D2E                     
  6682                           ;main.c: 302:     }
  6683   003D2E  2A35               	incf	write_eeprom@addr^0,f,c
  6684   003D30  0E64               	movlw	100
  6685   003D32  6435               	cpfsgt	write_eeprom@addr^0,c
  6686   003D34  EF9E  F01E         	goto	u3611
  6687   003D38  EFA0  F01E         	goto	u3610
  6688   003D3C                     u3611:
  6689   003D3C  EF54  F01E         	goto	l128
  6690   003D40                     u3610:
  6691   003D40  0012               	return		;funcret
  6692   003D42                     __end_of_write_eeprom:
  6693                           	callstack 0
  6694                           
  6695 ;; *************** function _status_set_mode *****************
  6696 ;; Defined at:
  6697 ;;		line 589 in file "main.c"
  6698 ;; Parameters:    Size  Location     Type
  6699 ;;  mode            1    wreg     unsigned char 
  6700 ;;  next_mode       1    6[COMRAM] unsigned char 
  6701 ;;  final_mode      1    7[COMRAM] unsigned char 
  6702 ;; Auto vars:     Size  Location     Type
  6703 ;;  mode            1    8[COMRAM] unsigned char 
  6704 ;; Return value:  Size  Location     Type
  6705 ;;                  1    wreg      void 
  6706 ;; Registers used:
  6707 ;;		wreg, fsr2l, fsr2h, status,2, status,0
  6708 ;; Tracked objects:
  6709 ;;		On entry : 0/0
  6710 ;;		On exit  : 0/0
  6711 ;;		Unchanged: 0/0
  6712 ;; Data sizes:     COMRAM   BANK0   BANK1   BANK2   BANK3   BANK4   BANK5   BANK6   BANK7
  6713 ;;      Params:         2       0       0       0       0       0       0       0       0
  6714 ;;      Locals:         1       0       0       0       0       0       0       0       0
  6715 ;;      Temps:          0       0       0       0       0       0       0       0       0
  6716 ;;      Totals:         3       0       0       0       0       0       0       0       0
  6717 ;;Total ram usage:        3 bytes
  6718 ;; Hardware stack levels used: 1
  6719 ;; Hardware stack levels required when called: 1
  6720 ;; This function calls:
  6721 ;;		Nothing
  6722 ;; This function is called by:
  6723 ;;		_status_loop
  6724 ;;		_loop
  6725 ;; This function uses a non-reentrant model
  6726 ;;
  6727                           
  6728                           	psect	text9
  6729   003FF2                     __ptext9:
  6730                           	callstack 0
  6731   003FF2                     _status_set_mode:
  6732                           	callstack 28
  6733                           
  6734                           ;incstack = 0
  6735                           ;status_set_mode@mode stored from wreg
  6736   003FF2  6E33               	movwf	status_set_mode@mode^0,c
  6737   003FF4                     
  6738                           ;main.c: 590:     status_mode = mode;
  6739   003FF4  C033  F028         	movff	status_set_mode@mode,_status_mode
  6740   003FF8                     
  6741                           ;main.c: 591:     status_next_mode = next_mode;
  6742   003FF8  C031  F020         	movff	status_set_mode@next_mode,_status_next_mode
  6743   003FFC  6A21               	clrf	(_status_next_mode+1)^0,c
  6744   003FFE                     
  6745                           ;main.c: 592:     status_final_mode = final_mode;
  6746   003FFE  C032  F0F4         	movff	status_set_mode@final_mode,_status_final_mode
  6747   004002  0100               	movlb	0	; () banked
  6748   004004  6BF5               	clrf	(_status_final_mode+1)& (0+255),b
  6749   004006                     
  6750                           ; BSR set to: 0
  6751                           ;main.c: 593:     status_intermitency_counter = 0;
  6752   004006  0E00               	movlw	0
  6753   004008  6E23               	movwf	(_status_intermitency_counter+1)^0,c
  6754   00400A  0E00               	movlw	0
  6755   00400C  6E22               	movwf	_status_intermitency_counter^0,c
  6756   00400E                     
  6757                           ; BSR set to: 0
  6758                           ;main.c: 594:     mode_counter = 0;
  6759   00400E  0E00               	movlw	0
  6760   004010  6E1F               	movwf	(_mode_counter+1)^0,c
  6761   004012  0E00               	movlw	0
  6762   004014  6E1E               	movwf	_mode_counter^0,c
  6763   004016                     
  6764                           ; BSR set to: 0
  6765                           ;main.c: 595:     counter[2] = 0;
  6766   004016  EE20  F098         	lfsr	2,_counter+16
  6767   00401A  0E07               	movlw	7
  6768   00401C                     u3621:
  6769   00401C  6ADE               	clrf	postinc2,c
  6770   00401E  06E8               	decf	wreg,f,c
  6771   004020  E2FD               	bc	u3621
  6772   004022                     
  6773                           ; BSR set to: 0
  6774   004022  0012               	return		;funcret
  6775   004024                     __end_of_status_set_mode:
  6776                           	callstack 0
  6777                           
  6778 ;; *************** function _set_robot_program *****************
  6779 ;; Defined at:
  6780 ;;		line 919 in file "main.c"
  6781 ;; Parameters:    Size  Location     Type
  6782 ;;  program         2    6[COMRAM] unsigned int 
  6783 ;; Auto vars:     Size  Location     Type
  6784 ;;		None
  6785 ;; Return value:  Size  Location     Type
  6786 ;;                  1    wreg      void 
  6787 ;; Registers used:
  6788 ;;		wreg, status,2, status,0
  6789 ;; Tracked objects:
  6790 ;;		On entry : 0/0
  6791 ;;		On exit  : 0/0
  6792 ;;		Unchanged: 0/0
  6793 ;; Data sizes:     COMRAM   BANK0   BANK1   BANK2   BANK3   BANK4   BANK5   BANK6   BANK7
  6794 ;;      Params:         2       0       0       0       0       0       0       0       0
  6795 ;;      Locals:         0       0       0       0       0       0       0       0       0
  6796 ;;      Temps:          2       0       0       0       0       0       0       0       0
  6797 ;;      Totals:         4       0       0       0       0       0       0       0       0
  6798 ;;Total ram usage:        4 bytes
  6799 ;; Hardware stack levels used: 1
  6800 ;; Hardware stack levels required when called: 1
  6801 ;; This function calls:
  6802 ;;		Nothing
  6803 ;; This function is called by:
  6804 ;;		_loop
  6805 ;; This function uses a non-reentrant model
  6806 ;;
  6807                           
  6808                           	psect	text10
  6809   003FAC                     __ptext10:
  6810                           	callstack 0
  6811   003FAC                     _set_robot_program:
  6812                           	callstack 28
  6813   003FAC                     
  6814                           ;main.c: 920:     if (program >= program_count+1 || program == 0){
  6815   003FAC  0E01               	movlw	1
  6816   003FAE  240E               	addwf	_program_count^0,w,c
  6817   003FB0  6E33               	movwf	??_set_robot_program^0,c
  6818   003FB2  0E00               	movlw	0
  6819   003FB4  200F               	addwfc	(_program_count+1)^0,w,c
  6820   003FB6  6E34               	movwf	(??_set_robot_program+1)^0,c
  6821   003FB8  5033               	movf	??_set_robot_program^0,w,c
  6822   003FBA  5C31               	subwf	set_robot_program@program^0,w,c
  6823   003FBC  5034               	movf	(??_set_robot_program+1)^0,w,c
  6824   003FBE  5832               	subwfb	(set_robot_program@program+1)^0,w,c
  6825   003FC0  B0D8               	btfsc	status,0,c
  6826   003FC2  EFE5  F01F         	goto	u3671
  6827   003FC6  EFE7  F01F         	goto	u3670
  6828   003FCA                     u3671:
  6829   003FCA  EFF0  F01F         	goto	l2557
  6830   003FCE                     u3670:
  6831   003FCE  5031               	movf	set_robot_program@program^0,w,c
  6832   003FD0  1032               	iorwf	(set_robot_program@program+1)^0,w,c
  6833   003FD2  A4D8               	btfss	status,2,c
  6834   003FD4  EFEE  F01F         	goto	u3681
  6835   003FD8  EFF0  F01F         	goto	u3680
  6836   003FDC                     u3681:
  6837   003FDC  EFF4  F01F         	goto	l2559
  6838   003FE0                     u3680:
  6839   003FE0                     l2557:
  6840                           
  6841                           ;main.c: 921:         program = 1;
  6842   003FE0  0E00               	movlw	0
  6843   003FE2  6E32               	movwf	(set_robot_program@program+1)^0,c
  6844   003FE4  0E01               	movlw	1
  6845   003FE6  6E31               	movwf	set_robot_program@program^0,c
  6846   003FE8                     l2559:
  6847                           
  6848                           ;main.c: 923:     persisted_data[1] = program;
  6849   003FE8  C031  F202         	movff	set_robot_program@program,_persisted_data+2
  6850   003FEC  C032  F203         	movff	set_robot_program@program+1,_persisted_data+3
  6851   003FF0  0012               	return		;funcret
  6852   003FF2                     __end_of_set_robot_program:
  6853                           	callstack 0
  6854                           
  6855 ;; *************** function _set_motor_speed *****************
  6856 ;; Defined at:
  6857 ;;		line 903 in file "main.c"
  6858 ;; Parameters:    Size  Location     Type
  6859 ;;  speed           2    6[COMRAM] unsigned int 
  6860 ;; Auto vars:     Size  Location     Type
  6861 ;;		None
  6862 ;; Return value:  Size  Location     Type
  6863 ;;                  1    wreg      void 
  6864 ;; Registers used:
  6865 ;;		wreg, status,2, status,0
  6866 ;; Tracked objects:
  6867 ;;		On entry : 0/0
  6868 ;;		On exit  : 0/0
  6869 ;;		Unchanged: 0/0
  6870 ;; Data sizes:     COMRAM   BANK0   BANK1   BANK2   BANK3   BANK4   BANK5   BANK6   BANK7
  6871 ;;      Params:         2       0       0       0       0       0       0       0       0
  6872 ;;      Locals:         0       0       0       0       0       0       0       0       0
  6873 ;;      Temps:          0       0       0       0       0       0       0       0       0
  6874 ;;      Totals:         2       0       0       0       0       0       0       0       0
  6875 ;;Total ram usage:        2 bytes
  6876 ;; Hardware stack levels used: 1
  6877 ;; Hardware stack levels required when called: 1
  6878 ;; This function calls:
  6879 ;;		Nothing
  6880 ;; This function is called by:
  6881 ;;		_loop
  6882 ;; This function uses a non-reentrant model
  6883 ;;
  6884                           
  6885                           	psect	text11
  6886   004084                     __ptext11:
  6887                           	callstack 0
  6888   004084                     _set_motor_speed:
  6889                           	callstack 28
  6890   004084                     
  6891                           ;main.c: 904:     if (speed >= 1000){
  6892   004084  0EE8               	movlw	232
  6893   004086  5C31               	subwf	set_motor_speed@speed^0,w,c
  6894   004088  0E03               	movlw	3
  6895   00408A  5832               	subwfb	(set_motor_speed@speed+1)^0,w,c
  6896   00408C  A0D8               	btfss	status,0,c
  6897   00408E  EF4B  F020         	goto	u3641
  6898   004092  EF4D  F020         	goto	u3640
  6899   004096                     u3641:
  6900   004096  EF51  F020         	goto	l2539
  6901   00409A                     u3640:
  6902   00409A                     
  6903                           ;main.c: 905:         speed = 1000;
  6904   00409A  0E03               	movlw	3
  6905   00409C  6E32               	movwf	(set_motor_speed@speed+1)^0,c
  6906   00409E  0EE8               	movlw	232
  6907   0040A0  6E31               	movwf	set_motor_speed@speed^0,c
  6908   0040A2                     l2539:
  6909                           
  6910                           ;main.c: 907:     persisted_data[0] = speed;
  6911   0040A2  C031  F200         	movff	set_motor_speed@speed,_persisted_data
  6912   0040A6  C032  F201         	movff	set_motor_speed@speed+1,_persisted_data+1
  6913   0040AA  0012               	return		;funcret
  6914   0040AC                     __end_of_set_motor_speed:
  6915                           	callstack 0
  6916                           
  6917 ;; *************** function _read_eeprom *****************
  6918 ;; Defined at:
  6919 ;;		line 246 in file "main.c"
  6920 ;; Parameters:    Size  Location     Type
  6921 ;;		None
  6922 ;; Auto vars:     Size  Location     Type
  6923 ;;  aux             2   10[COMRAM] unsigned int 
  6924 ;;  addr            1   12[COMRAM] unsigned char 
  6925 ;; Return value:  Size  Location     Type
  6926 ;;                  1    wreg      void 
  6927 ;; Registers used:
  6928 ;;		wreg, fsr2l, fsr2h, status,2, status,0
  6929 ;; Tracked objects:
  6930 ;;		On entry : 0/0
  6931 ;;		On exit  : 0/0
  6932 ;;		Unchanged: 0/0
  6933 ;; Data sizes:     COMRAM   BANK0   BANK1   BANK2   BANK3   BANK4   BANK5   BANK6   BANK7
  6934 ;;      Params:         0       0       0       0       0       0       0       0       0
  6935 ;;      Locals:         3       0       0       0       0       0       0       0       0
  6936 ;;      Temps:          4       0       0       0       0       0       0       0       0
  6937 ;;      Totals:         7       0       0       0       0       0       0       0       0
  6938 ;;Total ram usage:        7 bytes
  6939 ;; Hardware stack levels used: 1
  6940 ;; Hardware stack levels required when called: 1
  6941 ;; This function calls:
  6942 ;;		Nothing
  6943 ;; This function is called by:
  6944 ;;		_loop
  6945 ;; This function uses a non-reentrant model
  6946 ;;
  6947                           
  6948                           	psect	text12
  6949   003E4C                     __ptext12:
  6950                           	callstack 0
  6951   003E4C                     _read_eeprom:
  6952                           	callstack 28
  6953   003E4C                     
  6954                           ;main.c: 247:     unsigned char addr;;main.c: 248:     unsigned int aux;;main.c: 250:   
      +                            for (addr=0;addr<=100;addr++){
  6955   003E4C  6A37               	clrf	read_eeprom@addr^0,c
  6956   003E4E                     l121:
  6957                           
  6958                           ;main.c: 252:         EEADR = addr;
  6959   003E4E  C037  FFA9         	movff	read_eeprom@addr,4009	;volatile
  6960                           
  6961                           ;main.c: 254:         EECON1bits.CFGS = 0;
  6962   003E52  9CA6               	bcf	166,6,c	;volsfr
  6963                           
  6964                           ;main.c: 256:         EECON1bits.EEPGD = 0;
  6965   003E54  9EA6               	bcf	166,7,c	;volsfr
  6966                           
  6967                           ;main.c: 258:         EECON1bits.RD = 1;
  6968   003E56  80A6               	bsf	166,0,c	;volsfr
  6969                           
  6970                           ;main.c: 260:         if (addr & 0x01){
  6971   003E58  A037               	btfss	read_eeprom@addr^0,0,c
  6972   003E5A  EF31  F01F         	goto	u3571
  6973   003E5E  EF33  F01F         	goto	u3570
  6974   003E62                     u3571:
  6975   003E62  EF4A  F01F         	goto	l123
  6976   003E66                     u3570:
  6977   003E66                     
  6978                           ;main.c: 262:             persisted_data[addr >> 1] = EEDATA | aux << 8;
  6979   003E66  5035               	movf	read_eeprom@aux^0,w,c
  6980   003E68  6E32               	movwf	(??_read_eeprom+1)^0,c
  6981   003E6A  50A8               	movf	168,w,c	;volatile
  6982   003E6C  6E31               	movwf	??_read_eeprom^0,c
  6983   003E6E  90D8               	bcf	status,0,c
  6984   003E70  3037               	rrcf	read_eeprom@addr^0,w,c
  6985   003E72  6E33               	movwf	(??_read_eeprom+2)^0,c
  6986   003E74  6A34               	clrf	(??_read_eeprom+3)^0,c
  6987   003E76  90D8               	bcf	status,0,c
  6988   003E78  3633               	rlcf	(??_read_eeprom+2)^0,f,c
  6989   003E7A  3634               	rlcf	(??_read_eeprom+3)^0,f,c
  6990   003E7C  0E00               	movlw	low _persisted_data
  6991   003E7E  2433               	addwf	(??_read_eeprom+2)^0,w,c
  6992   003E80  6ED9               	movwf	fsr2l,c
  6993   003E82  0E02               	movlw	high _persisted_data
  6994   003E84  2034               	addwfc	(??_read_eeprom+3)^0,w,c
  6995   003E86  6EDA               	movwf	fsr2h,c
  6996   003E88  C031  FFDE         	movff	??_read_eeprom,postinc2
  6997   003E8C  C032  FFDD         	movff	??_read_eeprom+1,postdec2
  6998                           
  6999                           ;main.c: 263:         }else{
  7000   003E90  EF4D  F01F         	goto	l2469
  7001   003E94                     l123:
  7002                           
  7003                           ;main.c: 265:             aux = EEDATA;
  7004   003E94  CFA8 F035          	movff	4008,read_eeprom@aux	;volatile
  7005   003E98  6A36               	clrf	(read_eeprom@aux+1)^0,c
  7006   003E9A                     l2469:
  7007                           
  7008                           ;main.c: 267:     }
  7009   003E9A  2A37               	incf	read_eeprom@addr^0,f,c
  7010   003E9C  0E64               	movlw	100
  7011   003E9E  6437               	cpfsgt	read_eeprom@addr^0,c
  7012   003EA0  EF54  F01F         	goto	u3581
  7013   003EA4  EF56  F01F         	goto	u3580
  7014   003EA8                     u3581:
  7015   003EA8  EF27  F01F         	goto	l121
  7016   003EAC                     u3580:
  7017   003EAC  0012               	return		;funcret
  7018   003EAE                     __end_of_read_eeprom:
  7019                           	callstack 0
  7020                           
  7021 ;; *************** function _loop3 *****************
  7022 ;; Defined at:
  7023 ;;		line 829 in file "main.c"
  7024 ;; Parameters:    Size  Location     Type
  7025 ;;  speed           2    6[COMRAM] int 
  7026 ;; Auto vars:     Size  Location     Type
  7027 ;;		None
  7028 ;; Return value:  Size  Location     Type
  7029 ;;                  1    wreg      void 
  7030 ;; Registers used:
  7031 ;;		None
  7032 ;; Tracked objects:
  7033 ;;		On entry : 0/0
  7034 ;;		On exit  : 0/0
  7035 ;;		Unchanged: 0/0
  7036 ;; Data sizes:     COMRAM   BANK0   BANK1   BANK2   BANK3   BANK4   BANK5   BANK6   BANK7
  7037 ;;      Params:         2       0       0       0       0       0       0       0       0
  7038 ;;      Locals:         0       0       0       0       0       0       0       0       0
  7039 ;;      Temps:          0       0       0       0       0       0       0       0       0
  7040 ;;      Totals:         2       0       0       0       0       0       0       0       0
  7041 ;;Total ram usage:        2 bytes
  7042 ;; Hardware stack levels used: 1
  7043 ;; Hardware stack levels required when called: 1
  7044 ;; This function calls:
  7045 ;;		Nothing
  7046 ;; This function is called by:
  7047 ;;		_loop
  7048 ;; This function uses a non-reentrant model
  7049 ;;
  7050                           
  7051                           	psect	text13
  7052   0040AC                     __ptext13:
  7053                           	callstack 0
  7054   0040AC                     _loop3:
  7055                           	callstack 28
  7056   0040AC                     
  7057                           ;main.c: 830:     PORTBbits.RB0 = 1;
  7058   0040AC  8081               	bsf	129,0,c	;volatile
  7059                           
  7060                           ;main.c: 831:     PORTBbits.RB1 = 1;
  7061   0040AE  8281               	bsf	129,1,c	;volatile
  7062                           
  7063                           ;main.c: 832:     PORTBbits.RB2 = 0;
  7064   0040B0  9481               	bcf	129,2,c	;volatile
  7065                           
  7066                           ;main.c: 833:     PORTBbits.RB4 = 0;
  7067   0040B2  9881               	bcf	129,4,c	;volatile
  7068                           
  7069                           ;main.c: 834:     PORTBbits.RB5 = 0;
  7070   0040B4  9A81               	bcf	129,5,c	;volatile
  7071   0040B6  0012               	return		;funcret
  7072   0040B8                     __end_of_loop3:
  7073                           	callstack 0
  7074                           
  7075 ;; *************** function _loop2 *****************
  7076 ;; Defined at:
  7077 ;;		line 815 in file "main.c"
  7078 ;; Parameters:    Size  Location     Type
  7079 ;;  speed           2    6[COMRAM] int 
  7080 ;; Auto vars:     Size  Location     Type
  7081 ;;		None
  7082 ;; Return value:  Size  Location     Type
  7083 ;;                  1    wreg      void 
  7084 ;; Registers used:
  7085 ;;		None
  7086 ;; Tracked objects:
  7087 ;;		On entry : 0/0
  7088 ;;		On exit  : 0/0
  7089 ;;		Unchanged: 0/0
  7090 ;; Data sizes:     COMRAM   BANK0   BANK1   BANK2   BANK3   BANK4   BANK5   BANK6   BANK7
  7091 ;;      Params:         2       0       0       0       0       0       0       0       0
  7092 ;;      Locals:         0       0       0       0       0       0       0       0       0
  7093 ;;      Temps:          0       0       0       0       0       0       0       0       0
  7094 ;;      Totals:         2       0       0       0       0       0       0       0       0
  7095 ;;Total ram usage:        2 bytes
  7096 ;; Hardware stack levels used: 1
  7097 ;; Hardware stack levels required when called: 1
  7098 ;; This function calls:
  7099 ;;		Nothing
  7100 ;; This function is called by:
  7101 ;;		_loop
  7102 ;; This function uses a non-reentrant model
  7103 ;;
  7104                           
  7105                           	psect	text14
  7106   0040B8                     __ptext14:
  7107                           	callstack 0
  7108   0040B8                     _loop2:
  7109                           	callstack 28
  7110   0040B8                     
  7111                           ;main.c: 816:     PORTBbits.RB0 = 0;
  7112   0040B8  9081               	bcf	129,0,c	;volatile
  7113                           
  7114                           ;main.c: 817:     PORTBbits.RB1 = 1;
  7115   0040BA  8281               	bsf	129,1,c	;volatile
  7116                           
  7117                           ;main.c: 818:     PORTBbits.RB2 = 0;
  7118   0040BC  9481               	bcf	129,2,c	;volatile
  7119                           
  7120                           ;main.c: 819:     PORTBbits.RB4 = 0;
  7121   0040BE  9881               	bcf	129,4,c	;volatile
  7122                           
  7123                           ;main.c: 820:     PORTBbits.RB5 = 0;
  7124   0040C0  9A81               	bcf	129,5,c	;volatile
  7125   0040C2  0012               	return		;funcret
  7126   0040C4                     __end_of_loop2:
  7127                           	callstack 0
  7128                           
  7129 ;; *************** function _loop1 *****************
  7130 ;; Defined at:
  7131 ;;		line 801 in file "main.c"
  7132 ;; Parameters:    Size  Location     Type
  7133 ;;  speed           2    6[COMRAM] int 
  7134 ;; Auto vars:     Size  Location     Type
  7135 ;;		None
  7136 ;; Return value:  Size  Location     Type
  7137 ;;                  1    wreg      void 
  7138 ;; Registers used:
  7139 ;;		None
  7140 ;; Tracked objects:
  7141 ;;		On entry : 0/0
  7142 ;;		On exit  : 0/0
  7143 ;;		Unchanged: 0/0
  7144 ;; Data sizes:     COMRAM   BANK0   BANK1   BANK2   BANK3   BANK4   BANK5   BANK6   BANK7
  7145 ;;      Params:         2       0       0       0       0       0       0       0       0
  7146 ;;      Locals:         0       0       0       0       0       0       0       0       0
  7147 ;;      Temps:          0       0       0       0       0       0       0       0       0
  7148 ;;      Totals:         2       0       0       0       0       0       0       0       0
  7149 ;;Total ram usage:        2 bytes
  7150 ;; Hardware stack levels used: 1
  7151 ;; Hardware stack levels required when called: 1
  7152 ;; This function calls:
  7153 ;;		Nothing
  7154 ;; This function is called by:
  7155 ;;		_loop
  7156 ;; This function uses a non-reentrant model
  7157 ;;
  7158                           
  7159                           	psect	text15
  7160   0040C4                     __ptext15:
  7161                           	callstack 0
  7162   0040C4                     _loop1:
  7163                           	callstack 28
  7164   0040C4                     
  7165                           ;main.c: 802:     PORTBbits.RB0 = 1;
  7166   0040C4  8081               	bsf	129,0,c	;volatile
  7167                           
  7168                           ;main.c: 803:     PORTBbits.RB1 = 0;
  7169   0040C6  9281               	bcf	129,1,c	;volatile
  7170                           
  7171                           ;main.c: 804:     PORTBbits.RB2 = 0;
  7172   0040C8  9481               	bcf	129,2,c	;volatile
  7173                           
  7174                           ;main.c: 805:     PORTBbits.RB4 = 0;
  7175   0040CA  9881               	bcf	129,4,c	;volatile
  7176                           
  7177                           ;main.c: 806:     PORTBbits.RB5 = 0;
  7178   0040CC  9A81               	bcf	129,5,c	;volatile
  7179   0040CE  0012               	return		;funcret
  7180   0040D0                     __end_of_loop1:
  7181                           	callstack 0
  7182                           
  7183 ;; *************** function _loop4 *****************
  7184 ;; Defined at:
  7185 ;;		line 843 in file "main.c"
  7186 ;; Parameters:    Size  Location     Type
  7187 ;;  speed           2    6[COMRAM] int 
  7188 ;; Auto vars:     Size  Location     Type
  7189 ;;		None
  7190 ;; Return value:  Size  Location     Type
  7191 ;;                  1    wreg      void 
  7192 ;; Registers used:
  7193 ;;		None
  7194 ;; Tracked objects:
  7195 ;;		On entry : 0/0
  7196 ;;		On exit  : 0/0
  7197 ;;		Unchanged: 0/0
  7198 ;; Data sizes:     COMRAM   BANK0   BANK1   BANK2   BANK3   BANK4   BANK5   BANK6   BANK7
  7199 ;;      Params:         2       0       0       0       0       0       0       0       0
  7200 ;;      Locals:         0       0       0       0       0       0       0       0       0
  7201 ;;      Temps:          0       0       0       0       0       0       0       0       0
  7202 ;;      Totals:         2       0       0       0       0       0       0       0       0
  7203 ;;Total ram usage:        2 bytes
  7204 ;; Hardware stack levels used: 1
  7205 ;; Hardware stack levels required when called: 1
  7206 ;; This function calls:
  7207 ;;		Nothing
  7208 ;; This function is called by:
  7209 ;;		_loop
  7210 ;; This function uses a non-reentrant model
  7211 ;;
  7212                           
  7213                           	psect	text16
  7214   0040D0                     __ptext16:
  7215                           	callstack 0
  7216   0040D0                     _loop4:
  7217                           	callstack 28
  7218   0040D0                     
  7219                           ;main.c: 844:     PORTBbits.RB0 = 0;
  7220   0040D0  9081               	bcf	129,0,c	;volatile
  7221                           
  7222                           ;main.c: 845:     PORTBbits.RB1 = 0;
  7223   0040D2  9281               	bcf	129,1,c	;volatile
  7224                           
  7225                           ;main.c: 846:     PORTBbits.RB2 = 1;
  7226   0040D4  8481               	bsf	129,2,c	;volatile
  7227                           
  7228                           ;main.c: 847:     PORTBbits.RB4 = 0;
  7229   0040D6  9881               	bcf	129,4,c	;volatile
  7230                           
  7231                           ;main.c: 848:     PORTBbits.RB5 = 0;
  7232   0040D8  9A81               	bcf	129,5,c	;volatile
  7233   0040DA  0012               	return		;funcret
  7234   0040DC                     __end_of_loop4:
  7235                           	callstack 0
  7236                           
  7237 ;; *************** function _init3 *****************
  7238 ;; Defined at:
  7239 ;;		line 825 in file "main.c"
  7240 ;; Parameters:    Size  Location     Type
  7241 ;;  speed           2    6[COMRAM] int 
  7242 ;; Auto vars:     Size  Location     Type
  7243 ;;		None
  7244 ;; Return value:  Size  Location     Type
  7245 ;;                  1    wreg      void 
  7246 ;; Registers used:
  7247 ;;		None
  7248 ;; Tracked objects:
  7249 ;;		On entry : 0/0
  7250 ;;		On exit  : 0/0
  7251 ;;		Unchanged: 0/0
  7252 ;; Data sizes:     COMRAM   BANK0   BANK1   BANK2   BANK3   BANK4   BANK5   BANK6   BANK7
  7253 ;;      Params:         2       0       0       0       0       0       0       0       0
  7254 ;;      Locals:         0       0       0       0       0       0       0       0       0
  7255 ;;      Temps:          0       0       0       0       0       0       0       0       0
  7256 ;;      Totals:         2       0       0       0       0       0       0       0       0
  7257 ;;Total ram usage:        2 bytes
  7258 ;; Hardware stack levels used: 1
  7259 ;; Hardware stack levels required when called: 1
  7260 ;; This function calls:
  7261 ;;		Nothing
  7262 ;; This function is called by:
  7263 ;;		_loop
  7264 ;; This function uses a non-reentrant model
  7265 ;;
  7266                           
  7267                           	psect	text17
  7268   0040EC                     __ptext17:
  7269                           	callstack 0
  7270   0040EC                     _init3:
  7271                           	callstack 28
  7272   0040EC  0012               	return		;funcret
  7273   0040EE                     __end_of_init3:
  7274                           	callstack 0
  7275                           
  7276 ;; *************** function _init2 *****************
  7277 ;; Defined at:
  7278 ;;		line 811 in file "main.c"
  7279 ;; Parameters:    Size  Location     Type
  7280 ;;  speed           2    6[COMRAM] int 
  7281 ;; Auto vars:     Size  Location     Type
  7282 ;;		None
  7283 ;; Return value:  Size  Location     Type
  7284 ;;                  1    wreg      void 
  7285 ;; Registers used:
  7286 ;;		None
  7287 ;; Tracked objects:
  7288 ;;		On entry : 0/0
  7289 ;;		On exit  : 0/0
  7290 ;;		Unchanged: 0/0
  7291 ;; Data sizes:     COMRAM   BANK0   BANK1   BANK2   BANK3   BANK4   BANK5   BANK6   BANK7
  7292 ;;      Params:         2       0       0       0       0       0       0       0       0
  7293 ;;      Locals:         0       0       0       0       0       0       0       0       0
  7294 ;;      Temps:          0       0       0       0       0       0       0       0       0
  7295 ;;      Totals:         2       0       0       0       0       0       0       0       0
  7296 ;;Total ram usage:        2 bytes
  7297 ;; Hardware stack levels used: 1
  7298 ;; Hardware stack levels required when called: 1
  7299 ;; This function calls:
  7300 ;;		Nothing
  7301 ;; This function is called by:
  7302 ;;		_loop
  7303 ;; This function uses a non-reentrant model
  7304 ;;
  7305                           
  7306                           	psect	text18
  7307   0040EE                     __ptext18:
  7308                           	callstack 0
  7309   0040EE                     _init2:
  7310                           	callstack 28
  7311   0040EE  0012               	return		;funcret
  7312   0040F0                     __end_of_init2:
  7313                           	callstack 0
  7314                           
  7315 ;; *************** function _init1 *****************
  7316 ;; Defined at:
  7317 ;;		line 797 in file "main.c"
  7318 ;; Parameters:    Size  Location     Type
  7319 ;;  speed           2    6[COMRAM] int 
  7320 ;; Auto vars:     Size  Location     Type
  7321 ;;		None
  7322 ;; Return value:  Size  Location     Type
  7323 ;;                  1    wreg      void 
  7324 ;; Registers used:
  7325 ;;		None
  7326 ;; Tracked objects:
  7327 ;;		On entry : 0/0
  7328 ;;		On exit  : 0/0
  7329 ;;		Unchanged: 0/0
  7330 ;; Data sizes:     COMRAM   BANK0   BANK1   BANK2   BANK3   BANK4   BANK5   BANK6   BANK7
  7331 ;;      Params:         2       0       0       0       0       0       0       0       0
  7332 ;;      Locals:         0       0       0       0       0       0       0       0       0
  7333 ;;      Temps:          0       0       0       0       0       0       0       0       0
  7334 ;;      Totals:         2       0       0       0       0       0       0       0       0
  7335 ;;Total ram usage:        2 bytes
  7336 ;; Hardware stack levels used: 1
  7337 ;; Hardware stack levels required when called: 1
  7338 ;; This function calls:
  7339 ;;		Nothing
  7340 ;; This function is called by:
  7341 ;;		_loop
  7342 ;; This function uses a non-reentrant model
  7343 ;;
  7344                           
  7345                           	psect	text19
  7346   0040F0                     __ptext19:
  7347                           	callstack 0
  7348   0040F0                     _init1:
  7349                           	callstack 28
  7350   0040F0  0012               	return		;funcret
  7351   0040F2                     __end_of_init1:
  7352                           	callstack 0
  7353                           
  7354 ;; *************** function _init4 *****************
  7355 ;; Defined at:
  7356 ;;		line 839 in file "main.c"
  7357 ;; Parameters:    Size  Location     Type
  7358 ;;  speed           2    6[COMRAM] int 
  7359 ;; Auto vars:     Size  Location     Type
  7360 ;;		None
  7361 ;; Return value:  Size  Location     Type
  7362 ;;                  1    wreg      void 
  7363 ;; Registers used:
  7364 ;;		None
  7365 ;; Tracked objects:
  7366 ;;		On entry : 0/0
  7367 ;;		On exit  : 0/0
  7368 ;;		Unchanged: 0/0
  7369 ;; Data sizes:     COMRAM   BANK0   BANK1   BANK2   BANK3   BANK4   BANK5   BANK6   BANK7
  7370 ;;      Params:         2       0       0       0       0       0       0       0       0
  7371 ;;      Locals:         0       0       0       0       0       0       0       0       0
  7372 ;;      Temps:          0       0       0       0       0       0       0       0       0
  7373 ;;      Totals:         2       0       0       0       0       0       0       0       0
  7374 ;;Total ram usage:        2 bytes
  7375 ;; Hardware stack levels used: 1
  7376 ;; Hardware stack levels required when called: 1
  7377 ;; This function calls:
  7378 ;;		Nothing
  7379 ;; This function is called by:
  7380 ;;		_loop
  7381 ;; This function uses a non-reentrant model
  7382 ;;
  7383                           
  7384                           	psect	text20
  7385   0040F2                     __ptext20:
  7386                           	callstack 0
  7387   0040F2                     _init4:
  7388                           	callstack 28
  7389   0040F2  0012               	return		;funcret
  7390   0040F4                     __end_of_init4:
  7391                           	callstack 0
  7392                           
  7393 ;; *************** function _get_robot_program *****************
  7394 ;; Defined at:
  7395 ;;		line 910 in file "main.c"
  7396 ;; Parameters:    Size  Location     Type
  7397 ;;		None
  7398 ;; Auto vars:     Size  Location     Type
  7399 ;;  program         2   10[COMRAM] unsigned int 
  7400 ;; Return value:  Size  Location     Type
  7401 ;;                  2    6[COMRAM] unsigned int 
  7402 ;; Registers used:
  7403 ;;		wreg, status,2, status,0
  7404 ;; Tracked objects:
  7405 ;;		On entry : 0/0
  7406 ;;		On exit  : 0/0
  7407 ;;		Unchanged: 0/0
  7408 ;; Data sizes:     COMRAM   BANK0   BANK1   BANK2   BANK3   BANK4   BANK5   BANK6   BANK7
  7409 ;;      Params:         2       0       0       0       0       0       0       0       0
  7410 ;;      Locals:         2       0       0       0       0       0       0       0       0
  7411 ;;      Temps:          2       0       0       0       0       0       0       0       0
  7412 ;;      Totals:         6       0       0       0       0       0       0       0       0
  7413 ;;Total ram usage:        6 bytes
  7414 ;; Hardware stack levels used: 1
  7415 ;; Hardware stack levels required when called: 1
  7416 ;; This function calls:
  7417 ;;		Nothing
  7418 ;; This function is called by:
  7419 ;;		_loop
  7420 ;; This function uses a non-reentrant model
  7421 ;;
  7422                           
  7423                           	psect	text21
  7424   003F5E                     __ptext21:
  7425                           	callstack 0
  7426   003F5E                     _get_robot_program:
  7427                           	callstack 28
  7428   003F5E                     
  7429                           ;main.c: 911:     unsigned int program;;main.c: 912:     program = persisted_data[1];
  7430   003F5E  C202  F035         	movff	_persisted_data+2,get_robot_program@program
  7431   003F62  C203  F036         	movff	_persisted_data+3,get_robot_program@program+1
  7432   003F66                     
  7433                           ;main.c: 913:     if (program >= program_count+1 || program == 0){
  7434   003F66  0E01               	movlw	1
  7435   003F68  240E               	addwf	_program_count^0,w,c
  7436   003F6A  6E33               	movwf	??_get_robot_program^0,c
  7437   003F6C  0E00               	movlw	0
  7438   003F6E  200F               	addwfc	(_program_count+1)^0,w,c
  7439   003F70  6E34               	movwf	(??_get_robot_program+1)^0,c
  7440   003F72  5033               	movf	??_get_robot_program^0,w,c
  7441   003F74  5C35               	subwf	get_robot_program@program^0,w,c
  7442   003F76  5034               	movf	(??_get_robot_program+1)^0,w,c
  7443   003F78  5836               	subwfb	(get_robot_program@program+1)^0,w,c
  7444   003F7A  B0D8               	btfsc	status,0,c
  7445   003F7C  EFC2  F01F         	goto	u3651
  7446   003F80  EFC4  F01F         	goto	u3650
  7447   003F84                     u3651:
  7448   003F84  EFCD  F01F         	goto	l2547
  7449   003F88                     u3650:
  7450   003F88  5035               	movf	get_robot_program@program^0,w,c
  7451   003F8A  1036               	iorwf	(get_robot_program@program+1)^0,w,c
  7452   003F8C  A4D8               	btfss	status,2,c
  7453   003F8E  EFCB  F01F         	goto	u3661
  7454   003F92  EFCD  F01F         	goto	u3660
  7455   003F96                     u3661:
  7456   003F96  EFD1  F01F         	goto	l2549
  7457   003F9A                     u3660:
  7458   003F9A                     l2547:
  7459                           
  7460                           ;main.c: 914:         program = 1;
  7461   003F9A  0E00               	movlw	0
  7462   003F9C  6E36               	movwf	(get_robot_program@program+1)^0,c
  7463   003F9E  0E01               	movlw	1
  7464   003FA0  6E35               	movwf	get_robot_program@program^0,c
  7465   003FA2                     l2549:
  7466                           
  7467                           ;main.c: 916:     return program;
  7468   003FA2  C035  F031         	movff	get_robot_program@program,?_get_robot_program
  7469   003FA6  C036  F032         	movff	get_robot_program@program+1,?_get_robot_program+1
  7470   003FAA  0012               	return		;funcret
  7471   003FAC                     __end_of_get_robot_program:
  7472                           	callstack 0
  7473                           
  7474 ;; *************** function _get_motor_speed *****************
  7475 ;; Defined at:
  7476 ;;		line 894 in file "main.c"
  7477 ;; Parameters:    Size  Location     Type
  7478 ;;		None
  7479 ;; Auto vars:     Size  Location     Type
  7480 ;;  speed           2    8[COMRAM] unsigned int 
  7481 ;; Return value:  Size  Location     Type
  7482 ;;                  2    6[COMRAM] unsigned int 
  7483 ;; Registers used:
  7484 ;;		wreg, status,2, status,0
  7485 ;; Tracked objects:
  7486 ;;		On entry : 0/0
  7487 ;;		On exit  : 0/0
  7488 ;;		Unchanged: 0/0
  7489 ;; Data sizes:     COMRAM   BANK0   BANK1   BANK2   BANK3   BANK4   BANK5   BANK6   BANK7
  7490 ;;      Params:         2       0       0       0       0       0       0       0       0
  7491 ;;      Locals:         2       0       0       0       0       0       0       0       0
  7492 ;;      Temps:          0       0       0       0       0       0       0       0       0
  7493 ;;      Totals:         4       0       0       0       0       0       0       0       0
  7494 ;;Total ram usage:        4 bytes
  7495 ;; Hardware stack levels used: 1
  7496 ;; Hardware stack levels required when called: 1
  7497 ;; This function calls:
  7498 ;;		Nothing
  7499 ;; This function is called by:
  7500 ;;		_loop
  7501 ;; This function uses a non-reentrant model
  7502 ;;
  7503                           
  7504                           	psect	text22
  7505   004054                     __ptext22:
  7506                           	callstack 0
  7507   004054                     _get_motor_speed:
  7508                           	callstack 28
  7509   004054                     
  7510                           ;main.c: 895:     unsigned int speed;;main.c: 896:     speed = persisted_data[0];
  7511   004054  C200  F033         	movff	_persisted_data,get_motor_speed@speed
  7512   004058  C201  F034         	movff	_persisted_data+1,get_motor_speed@speed+1
  7513   00405C                     
  7514                           ;main.c: 897:     if (speed >= 1000){
  7515   00405C  0EE8               	movlw	232
  7516   00405E  5C33               	subwf	get_motor_speed@speed^0,w,c
  7517   004060  0E03               	movlw	3
  7518   004062  5834               	subwfb	(get_motor_speed@speed+1)^0,w,c
  7519   004064  A0D8               	btfss	status,0,c
  7520   004066  EF37  F020         	goto	u3631
  7521   00406A  EF39  F020         	goto	u3630
  7522   00406E                     u3631:
  7523   00406E  EF3D  F020         	goto	l2531
  7524   004072                     u3630:
  7525   004072                     
  7526                           ;main.c: 898:         speed = 1000;
  7527   004072  0E03               	movlw	3
  7528   004074  6E34               	movwf	(get_motor_speed@speed+1)^0,c
  7529   004076  0EE8               	movlw	232
  7530   004078  6E33               	movwf	get_motor_speed@speed^0,c
  7531   00407A                     l2531:
  7532                           
  7533                           ;main.c: 900:     return speed;
  7534   00407A  C033  F031         	movff	get_motor_speed@speed,?_get_motor_speed
  7535   00407E  C034  F032         	movff	get_motor_speed@speed+1,?_get_motor_speed+1
  7536   004082  0012               	return		;funcret
  7537   004084                     __end_of_get_motor_speed:
  7538                           	callstack 0
  7539                           
  7540 ;; *************** function ___aomod *****************
  7541 ;; Defined at:
  7542 ;;		line 9 in file "C:\Program Files\Microchip\xc8\v3.00\pic\sources\c99\common\aomod.c"
  7543 ;; Parameters:    Size  Location     Type
  7544 ;;  dividend        8    6[COMRAM] long long 
  7545 ;;  divisor         8   14[COMRAM] long long 
  7546 ;; Auto vars:     Size  Location     Type
  7547 ;;  sign            1   23[COMRAM] unsigned char 
  7548 ;;  counter         1   22[COMRAM] unsigned char 
  7549 ;; Return value:  Size  Location     Type
  7550 ;;                  8    6[COMRAM] long long 
  7551 ;; Registers used:
  7552 ;;		wreg, status,2, status,0
  7553 ;; Tracked objects:
  7554 ;;		On entry : 0/0
  7555 ;;		On exit  : 0/0
  7556 ;;		Unchanged: 0/0
  7557 ;; Data sizes:     COMRAM   BANK0   BANK1   BANK2   BANK3   BANK4   BANK5   BANK6   BANK7
  7558 ;;      Params:        16       0       0       0       0       0       0       0       0
  7559 ;;      Locals:         2       0       0       0       0       0       0       0       0
  7560 ;;      Temps:          0       0       0       0       0       0       0       0       0
  7561 ;;      Totals:        18       0       0       0       0       0       0       0       0
  7562 ;;Total ram usage:       18 bytes
  7563 ;; Hardware stack levels used: 1
  7564 ;; Hardware stack levels required when called: 1
  7565 ;; This function calls:
  7566 ;;		Nothing
  7567 ;; This function is called by:
  7568 ;;		_loop
  7569 ;; This function uses a non-reentrant model
  7570 ;;
  7571                           
  7572                           	psect	text23
  7573   003754                     __ptext23:
  7574                           	callstack 0
  7575   003754                     ___aomod:
  7576                           	callstack 28
  7577   003754  6A42               	clrf	___aomod@sign^0,c
  7578   003756  BE38               	btfsc	(___aomod@dividend+7)^0,7,c
  7579   003758  EFB2  F01B         	goto	u3760
  7580   00375C  EFB0  F01B         	goto	u3761
  7581   003760                     u3761:
  7582   003760  EFC4  F01B         	goto	l2613
  7583   003764                     u3760:
  7584   003764  1E38               	comf	(___aomod@dividend+7)^0,f,c
  7585   003766  1E37               	comf	(___aomod@dividend+6)^0,f,c
  7586   003768  1E36               	comf	(___aomod@dividend+5)^0,f,c
  7587   00376A  1E35               	comf	(___aomod@dividend+4)^0,f,c
  7588   00376C  1E34               	comf	(___aomod@dividend+3)^0,f,c
  7589   00376E  1E33               	comf	(___aomod@dividend+2)^0,f,c
  7590   003770  1E32               	comf	(___aomod@dividend+1)^0,f,c
  7591   003772  6C31               	negf	___aomod@dividend^0,c
  7592   003774  0E00               	movlw	0
  7593   003776  2232               	addwfc	(___aomod@dividend+1)^0,f,c
  7594   003778  2233               	addwfc	(___aomod@dividend+2)^0,f,c
  7595   00377A  2234               	addwfc	(___aomod@dividend+3)^0,f,c
  7596   00377C  2235               	addwfc	(___aomod@dividend+4)^0,f,c
  7597   00377E  2236               	addwfc	(___aomod@dividend+5)^0,f,c
  7598   003780  2237               	addwfc	(___aomod@dividend+6)^0,f,c
  7599   003782  2238               	addwfc	(___aomod@dividend+7)^0,f,c
  7600   003784  0E01               	movlw	1
  7601   003786  6E42               	movwf	___aomod@sign^0,c
  7602   003788                     l2613:
  7603   003788  BE40               	btfsc	(___aomod@divisor+7)^0,7,c
  7604   00378A  EFCB  F01B         	goto	u3770
  7605   00378E  EFC9  F01B         	goto	u3771
  7606   003792                     u3771:
  7607   003792  EFDB  F01B         	goto	l2617
  7608   003796                     u3770:
  7609   003796  1E40               	comf	(___aomod@divisor+7)^0,f,c
  7610   003798  1E3F               	comf	(___aomod@divisor+6)^0,f,c
  7611   00379A  1E3E               	comf	(___aomod@divisor+5)^0,f,c
  7612   00379C  1E3D               	comf	(___aomod@divisor+4)^0,f,c
  7613   00379E  1E3C               	comf	(___aomod@divisor+3)^0,f,c
  7614   0037A0  1E3B               	comf	(___aomod@divisor+2)^0,f,c
  7615   0037A2  1E3A               	comf	(___aomod@divisor+1)^0,f,c
  7616   0037A4  6C39               	negf	___aomod@divisor^0,c
  7617   0037A6  0E00               	movlw	0
  7618   0037A8  223A               	addwfc	(___aomod@divisor+1)^0,f,c
  7619   0037AA  223B               	addwfc	(___aomod@divisor+2)^0,f,c
  7620   0037AC  223C               	addwfc	(___aomod@divisor+3)^0,f,c
  7621   0037AE  223D               	addwfc	(___aomod@divisor+4)^0,f,c
  7622   0037B0  223E               	addwfc	(___aomod@divisor+5)^0,f,c
  7623   0037B2  223F               	addwfc	(___aomod@divisor+6)^0,f,c
  7624   0037B4  2240               	addwfc	(___aomod@divisor+7)^0,f,c
  7625   0037B6                     l2617:
  7626   0037B6  5039               	movf	___aomod@divisor^0,w,c
  7627   0037B8  103A               	iorwf	(___aomod@divisor+1)^0,w,c
  7628   0037BA  103B               	iorwf	(___aomod@divisor+2)^0,w,c
  7629   0037BC  103C               	iorwf	(___aomod@divisor+3)^0,w,c
  7630   0037BE  103D               	iorwf	(___aomod@divisor+4)^0,w,c
  7631   0037C0  103E               	iorwf	(___aomod@divisor+5)^0,w,c
  7632   0037C2  103F               	iorwf	(___aomod@divisor+6)^0,w,c
  7633   0037C4  1040               	iorwf	(___aomod@divisor+7)^0,w,c
  7634   0037C6  B4D8               	btfsc	status,2,c
  7635   0037C8  EFE8  F01B         	goto	u3781
  7636   0037CC  EFEA  F01B         	goto	u3780
  7637   0037D0                     u3781:
  7638   0037D0  EF32  F01C         	goto	l2633
  7639   0037D4                     u3780:
  7640   0037D4  0E01               	movlw	1
  7641   0037D6  6E41               	movwf	___aomod@counter^0,c
  7642   0037D8  EFF8  F01B         	goto	l2623
  7643   0037DC                     l2621:
  7644   0037DC  90D8               	bcf	status,0,c
  7645   0037DE  3639               	rlcf	___aomod@divisor^0,f,c
  7646   0037E0  363A               	rlcf	(___aomod@divisor+1)^0,f,c
  7647   0037E2  363B               	rlcf	(___aomod@divisor+2)^0,f,c
  7648   0037E4  363C               	rlcf	(___aomod@divisor+3)^0,f,c
  7649   0037E6  363D               	rlcf	(___aomod@divisor+4)^0,f,c
  7650   0037E8  363E               	rlcf	(___aomod@divisor+5)^0,f,c
  7651   0037EA  363F               	rlcf	(___aomod@divisor+6)^0,f,c
  7652   0037EC  3640               	rlcf	(___aomod@divisor+7)^0,f,c
  7653   0037EE  2A41               	incf	___aomod@counter^0,f,c
  7654   0037F0                     l2623:
  7655   0037F0  AE40               	btfss	(___aomod@divisor+7)^0,7,c
  7656   0037F2  EFFD  F01B         	goto	u3791
  7657   0037F6  EFFF  F01B         	goto	u3790
  7658   0037FA                     u3791:
  7659   0037FA  EFEE  F01B         	goto	l2621
  7660   0037FE                     u3790:
  7661   0037FE                     l2625:
  7662   0037FE  5039               	movf	___aomod@divisor^0,w,c
  7663   003800  5C31               	subwf	___aomod@dividend^0,w,c
  7664   003802  503A               	movf	(___aomod@divisor+1)^0,w,c
  7665   003804  5832               	subwfb	(___aomod@dividend+1)^0,w,c
  7666   003806  503B               	movf	(___aomod@divisor+2)^0,w,c
  7667   003808  5833               	subwfb	(___aomod@dividend+2)^0,w,c
  7668   00380A  503C               	movf	(___aomod@divisor+3)^0,w,c
  7669   00380C  5834               	subwfb	(___aomod@dividend+3)^0,w,c
  7670   00380E  503D               	movf	(___aomod@divisor+4)^0,w,c
  7671   003810  5835               	subwfb	(___aomod@dividend+4)^0,w,c
  7672   003812  503E               	movf	(___aomod@divisor+5)^0,w,c
  7673   003814  5836               	subwfb	(___aomod@dividend+5)^0,w,c
  7674   003816  503F               	movf	(___aomod@divisor+6)^0,w,c
  7675   003818  5837               	subwfb	(___aomod@dividend+6)^0,w,c
  7676   00381A  5040               	movf	(___aomod@divisor+7)^0,w,c
  7677   00381C  5838               	subwfb	(___aomod@dividend+7)^0,w,c
  7678   00381E  A0D8               	btfss	status,0,c
  7679   003820  EF14  F01C         	goto	u3801
  7680   003824  EF16  F01C         	goto	u3800
  7681   003828                     u3801:
  7682   003828  EF26  F01C         	goto	l2629
  7683   00382C                     u3800:
  7684   00382C  5039               	movf	___aomod@divisor^0,w,c
  7685   00382E  5E31               	subwf	___aomod@dividend^0,f,c
  7686   003830  503A               	movf	(___aomod@divisor+1)^0,w,c
  7687   003832  5A32               	subwfb	(___aomod@dividend+1)^0,f,c
  7688   003834  503B               	movf	(___aomod@divisor+2)^0,w,c
  7689   003836  5A33               	subwfb	(___aomod@dividend+2)^0,f,c
  7690   003838  503C               	movf	(___aomod@divisor+3)^0,w,c
  7691   00383A  5A34               	subwfb	(___aomod@dividend+3)^0,f,c
  7692   00383C  503D               	movf	(___aomod@divisor+4)^0,w,c
  7693   00383E  5A35               	subwfb	(___aomod@dividend+4)^0,f,c
  7694   003840  503E               	movf	(___aomod@divisor+5)^0,w,c
  7695   003842  5A36               	subwfb	(___aomod@dividend+5)^0,f,c
  7696   003844  503F               	movf	(___aomod@divisor+6)^0,w,c
  7697   003846  5A37               	subwfb	(___aomod@dividend+6)^0,f,c
  7698   003848  5040               	movf	(___aomod@divisor+7)^0,w,c
  7699   00384A  5A38               	subwfb	(___aomod@dividend+7)^0,f,c
  7700   00384C                     l2629:
  7701   00384C  90D8               	bcf	status,0,c
  7702   00384E  3240               	rrcf	(___aomod@divisor+7)^0,f,c
  7703   003850  323F               	rrcf	(___aomod@divisor+6)^0,f,c
  7704   003852  323E               	rrcf	(___aomod@divisor+5)^0,f,c
  7705   003854  323D               	rrcf	(___aomod@divisor+4)^0,f,c
  7706   003856  323C               	rrcf	(___aomod@divisor+3)^0,f,c
  7707   003858  323B               	rrcf	(___aomod@divisor+2)^0,f,c
  7708   00385A  323A               	rrcf	(___aomod@divisor+1)^0,f,c
  7709   00385C  3239               	rrcf	___aomod@divisor^0,f,c
  7710   00385E  2E41               	decfsz	___aomod@counter^0,f,c
  7711   003860  EFFF  F01B         	goto	l2625
  7712   003864                     l2633:
  7713   003864  5042               	movf	___aomod@sign^0,w,c
  7714   003866  B4D8               	btfsc	status,2,c
  7715   003868  EF38  F01C         	goto	u3811
  7716   00386C  EF3A  F01C         	goto	u3810
  7717   003870                     u3811:
  7718   003870  EF4A  F01C         	goto	l2637
  7719   003874                     u3810:
  7720   003874  1E38               	comf	(___aomod@dividend+7)^0,f,c
  7721   003876  1E37               	comf	(___aomod@dividend+6)^0,f,c
  7722   003878  1E36               	comf	(___aomod@dividend+5)^0,f,c
  7723   00387A  1E35               	comf	(___aomod@dividend+4)^0,f,c
  7724   00387C  1E34               	comf	(___aomod@dividend+3)^0,f,c
  7725   00387E  1E33               	comf	(___aomod@dividend+2)^0,f,c
  7726   003880  1E32               	comf	(___aomod@dividend+1)^0,f,c
  7727   003882  6C31               	negf	___aomod@dividend^0,c
  7728   003884  0E00               	movlw	0
  7729   003886  2232               	addwfc	(___aomod@dividend+1)^0,f,c
  7730   003888  2233               	addwfc	(___aomod@dividend+2)^0,f,c
  7731   00388A  2234               	addwfc	(___aomod@dividend+3)^0,f,c
  7732   00388C  2235               	addwfc	(___aomod@dividend+4)^0,f,c
  7733   00388E  2236               	addwfc	(___aomod@dividend+5)^0,f,c
  7734   003890  2237               	addwfc	(___aomod@dividend+6)^0,f,c
  7735   003892  2238               	addwfc	(___aomod@dividend+7)^0,f,c
  7736   003894                     l2637:
  7737   003894  C031  F031         	movff	___aomod@dividend,?___aomod
  7738   003898  C032  F032         	movff	___aomod@dividend+1,?___aomod+1
  7739   00389C  C033  F033         	movff	___aomod@dividend+2,?___aomod+2
  7740   0038A0  C034  F034         	movff	___aomod@dividend+3,?___aomod+3
  7741   0038A4  C035  F035         	movff	___aomod@dividend+4,?___aomod+4
  7742   0038A8  C036  F036         	movff	___aomod@dividend+5,?___aomod+5
  7743   0038AC  C037  F037         	movff	___aomod@dividend+6,?___aomod+6
  7744   0038B0  C038  F038         	movff	___aomod@dividend+7,?___aomod+7
  7745   0038B4  0012               	return		;funcret
  7746   0038B6                     __end_of___aomod:
  7747                           	callstack 0
  7748                           
  7749 ;; *************** function ___aodiv *****************
  7750 ;; Defined at:
  7751 ;;		line 9 in file "C:\Program Files\Microchip\xc8\v3.00\pic\sources\c99\common\aodiv.c"
  7752 ;; Parameters:    Size  Location     Type
  7753 ;;  dividend        8    6[COMRAM] long long 
  7754 ;;  divisor         8   14[COMRAM] long long 
  7755 ;; Auto vars:     Size  Location     Type
  7756 ;;  quotient        8   24[COMRAM] long long 
  7757 ;;  sign            1   23[COMRAM] unsigned char 
  7758 ;;  counter         1   22[COMRAM] unsigned char 
  7759 ;; Return value:  Size  Location     Type
  7760 ;;                  8    6[COMRAM] long long 
  7761 ;; Registers used:
  7762 ;;		wreg, fsr2l, fsr2h, status,2, status,0
  7763 ;; Tracked objects:
  7764 ;;		On entry : 0/0
  7765 ;;		On exit  : 0/0
  7766 ;;		Unchanged: 0/0
  7767 ;; Data sizes:     COMRAM   BANK0   BANK1   BANK2   BANK3   BANK4   BANK5   BANK6   BANK7
  7768 ;;      Params:        16       0       0       0       0       0       0       0       0
  7769 ;;      Locals:        10       0       0       0       0       0       0       0       0
  7770 ;;      Temps:          0       0       0       0       0       0       0       0       0
  7771 ;;      Totals:        26       0       0       0       0       0       0       0       0
  7772 ;;Total ram usage:       26 bytes
  7773 ;; Hardware stack levels used: 1
  7774 ;; Hardware stack levels required when called: 1
  7775 ;; This function calls:
  7776 ;;		Nothing
  7777 ;; This function is called by:
  7778 ;;		_read_analog
  7779 ;;		_loop
  7780 ;; This function uses a non-reentrant model
  7781 ;;
  7782                           
  7783                           	psect	text24
  7784   0035CE                     __ptext24:
  7785                           	callstack 0
  7786   0035CE                     ___aodiv:
  7787                           	callstack 28
  7788   0035CE  6A42               	clrf	___aodiv@sign^0,c
  7789   0035D0  BE40               	btfsc	(___aodiv@divisor+7)^0,7,c
  7790   0035D2  EFEF  F01A         	goto	u3690
  7791   0035D6  EFED  F01A         	goto	u3691
  7792   0035DA                     u3691:
  7793   0035DA  EF01  F01B         	goto	l2569
  7794   0035DE                     u3690:
  7795   0035DE  1E40               	comf	(___aodiv@divisor+7)^0,f,c
  7796   0035E0  1E3F               	comf	(___aodiv@divisor+6)^0,f,c
  7797   0035E2  1E3E               	comf	(___aodiv@divisor+5)^0,f,c
  7798   0035E4  1E3D               	comf	(___aodiv@divisor+4)^0,f,c
  7799   0035E6  1E3C               	comf	(___aodiv@divisor+3)^0,f,c
  7800   0035E8  1E3B               	comf	(___aodiv@divisor+2)^0,f,c
  7801   0035EA  1E3A               	comf	(___aodiv@divisor+1)^0,f,c
  7802   0035EC  6C39               	negf	___aodiv@divisor^0,c
  7803   0035EE  0E00               	movlw	0
  7804   0035F0  223A               	addwfc	(___aodiv@divisor+1)^0,f,c
  7805   0035F2  223B               	addwfc	(___aodiv@divisor+2)^0,f,c
  7806   0035F4  223C               	addwfc	(___aodiv@divisor+3)^0,f,c
  7807   0035F6  223D               	addwfc	(___aodiv@divisor+4)^0,f,c
  7808   0035F8  223E               	addwfc	(___aodiv@divisor+5)^0,f,c
  7809   0035FA  223F               	addwfc	(___aodiv@divisor+6)^0,f,c
  7810   0035FC  2240               	addwfc	(___aodiv@divisor+7)^0,f,c
  7811   0035FE  0E01               	movlw	1
  7812   003600  6E42               	movwf	___aodiv@sign^0,c
  7813   003602                     l2569:
  7814   003602  BE38               	btfsc	(___aodiv@dividend+7)^0,7,c
  7815   003604  EF08  F01B         	goto	u3700
  7816   003608  EF06  F01B         	goto	u3701
  7817   00360C                     u3701:
  7818   00360C  EF1A  F01B         	goto	l2575
  7819   003610                     u3700:
  7820   003610  1E38               	comf	(___aodiv@dividend+7)^0,f,c
  7821   003612  1E37               	comf	(___aodiv@dividend+6)^0,f,c
  7822   003614  1E36               	comf	(___aodiv@dividend+5)^0,f,c
  7823   003616  1E35               	comf	(___aodiv@dividend+4)^0,f,c
  7824   003618  1E34               	comf	(___aodiv@dividend+3)^0,f,c
  7825   00361A  1E33               	comf	(___aodiv@dividend+2)^0,f,c
  7826   00361C  1E32               	comf	(___aodiv@dividend+1)^0,f,c
  7827   00361E  6C31               	negf	___aodiv@dividend^0,c
  7828   003620  0E00               	movlw	0
  7829   003622  2232               	addwfc	(___aodiv@dividend+1)^0,f,c
  7830   003624  2233               	addwfc	(___aodiv@dividend+2)^0,f,c
  7831   003626  2234               	addwfc	(___aodiv@dividend+3)^0,f,c
  7832   003628  2235               	addwfc	(___aodiv@dividend+4)^0,f,c
  7833   00362A  2236               	addwfc	(___aodiv@dividend+5)^0,f,c
  7834   00362C  2237               	addwfc	(___aodiv@dividend+6)^0,f,c
  7835   00362E  2238               	addwfc	(___aodiv@dividend+7)^0,f,c
  7836   003630  0E01               	movlw	1
  7837   003632  1A42               	xorwf	___aodiv@sign^0,f,c
  7838   003634                     l2575:
  7839   003634  EE20  F043         	lfsr	2,___aodiv@quotient
  7840   003638  0E07               	movlw	7
  7841   00363A                     u3711:
  7842   00363A  6ADE               	clrf	postinc2,c
  7843   00363C  06E8               	decf	wreg,f,c
  7844   00363E  E2FD               	bc	u3711
  7845   003640  5039               	movf	___aodiv@divisor^0,w,c
  7846   003642  103A               	iorwf	(___aodiv@divisor+1)^0,w,c
  7847   003644  103B               	iorwf	(___aodiv@divisor+2)^0,w,c
  7848   003646  103C               	iorwf	(___aodiv@divisor+3)^0,w,c
  7849   003648  103D               	iorwf	(___aodiv@divisor+4)^0,w,c
  7850   00364A  103E               	iorwf	(___aodiv@divisor+5)^0,w,c
  7851   00364C  103F               	iorwf	(___aodiv@divisor+6)^0,w,c
  7852   00364E  1040               	iorwf	(___aodiv@divisor+7)^0,w,c
  7853   003650  B4D8               	btfsc	status,2,c
  7854   003652  EF2D  F01B         	goto	u3721
  7855   003656  EF2F  F01B         	goto	u3720
  7856   00365A                     u3721:
  7857   00365A  EF81  F01B         	goto	l2597
  7858   00365E                     u3720:
  7859   00365E  0E01               	movlw	1
  7860   003660  6E41               	movwf	___aodiv@counter^0,c
  7861   003662  EF3D  F01B         	goto	l2583
  7862   003666                     l2581:
  7863   003666  90D8               	bcf	status,0,c
  7864   003668  3639               	rlcf	___aodiv@divisor^0,f,c
  7865   00366A  363A               	rlcf	(___aodiv@divisor+1)^0,f,c
  7866   00366C  363B               	rlcf	(___aodiv@divisor+2)^0,f,c
  7867   00366E  363C               	rlcf	(___aodiv@divisor+3)^0,f,c
  7868   003670  363D               	rlcf	(___aodiv@divisor+4)^0,f,c
  7869   003672  363E               	rlcf	(___aodiv@divisor+5)^0,f,c
  7870   003674  363F               	rlcf	(___aodiv@divisor+6)^0,f,c
  7871   003676  3640               	rlcf	(___aodiv@divisor+7)^0,f,c
  7872   003678  2A41               	incf	___aodiv@counter^0,f,c
  7873   00367A                     l2583:
  7874   00367A  AE40               	btfss	(___aodiv@divisor+7)^0,7,c
  7875   00367C  EF42  F01B         	goto	u3731
  7876   003680  EF44  F01B         	goto	u3730
  7877   003684                     u3731:
  7878   003684  EF33  F01B         	goto	l2581
  7879   003688                     u3730:
  7880   003688                     l2585:
  7881   003688  90D8               	bcf	status,0,c
  7882   00368A  3643               	rlcf	___aodiv@quotient^0,f,c
  7883   00368C  3644               	rlcf	(___aodiv@quotient+1)^0,f,c
  7884   00368E  3645               	rlcf	(___aodiv@quotient+2)^0,f,c
  7885   003690  3646               	rlcf	(___aodiv@quotient+3)^0,f,c
  7886   003692  3647               	rlcf	(___aodiv@quotient+4)^0,f,c
  7887   003694  3648               	rlcf	(___aodiv@quotient+5)^0,f,c
  7888   003696  3649               	rlcf	(___aodiv@quotient+6)^0,f,c
  7889   003698  364A               	rlcf	(___aodiv@quotient+7)^0,f,c
  7890   00369A  5039               	movf	___aodiv@divisor^0,w,c
  7891   00369C  5C31               	subwf	___aodiv@dividend^0,w,c
  7892   00369E  503A               	movf	(___aodiv@divisor+1)^0,w,c
  7893   0036A0  5832               	subwfb	(___aodiv@dividend+1)^0,w,c
  7894   0036A2  503B               	movf	(___aodiv@divisor+2)^0,w,c
  7895   0036A4  5833               	subwfb	(___aodiv@dividend+2)^0,w,c
  7896   0036A6  503C               	movf	(___aodiv@divisor+3)^0,w,c
  7897   0036A8  5834               	subwfb	(___aodiv@dividend+3)^0,w,c
  7898   0036AA  503D               	movf	(___aodiv@divisor+4)^0,w,c
  7899   0036AC  5835               	subwfb	(___aodiv@dividend+4)^0,w,c
  7900   0036AE  503E               	movf	(___aodiv@divisor+5)^0,w,c
  7901   0036B0  5836               	subwfb	(___aodiv@dividend+5)^0,w,c
  7902   0036B2  503F               	movf	(___aodiv@divisor+6)^0,w,c
  7903   0036B4  5837               	subwfb	(___aodiv@dividend+6)^0,w,c
  7904   0036B6  5040               	movf	(___aodiv@divisor+7)^0,w,c
  7905   0036B8  5838               	subwfb	(___aodiv@dividend+7)^0,w,c
  7906   0036BA  A0D8               	btfss	status,0,c
  7907   0036BC  EF62  F01B         	goto	u3741
  7908   0036C0  EF64  F01B         	goto	u3740
  7909   0036C4                     u3741:
  7910   0036C4  EF75  F01B         	goto	l2593
  7911   0036C8                     u3740:
  7912   0036C8  5039               	movf	___aodiv@divisor^0,w,c
  7913   0036CA  5E31               	subwf	___aodiv@dividend^0,f,c
  7914   0036CC  503A               	movf	(___aodiv@divisor+1)^0,w,c
  7915   0036CE  5A32               	subwfb	(___aodiv@dividend+1)^0,f,c
  7916   0036D0  503B               	movf	(___aodiv@divisor+2)^0,w,c
  7917   0036D2  5A33               	subwfb	(___aodiv@dividend+2)^0,f,c
  7918   0036D4  503C               	movf	(___aodiv@divisor+3)^0,w,c
  7919   0036D6  5A34               	subwfb	(___aodiv@dividend+3)^0,f,c
  7920   0036D8  503D               	movf	(___aodiv@divisor+4)^0,w,c
  7921   0036DA  5A35               	subwfb	(___aodiv@dividend+4)^0,f,c
  7922   0036DC  503E               	movf	(___aodiv@divisor+5)^0,w,c
  7923   0036DE  5A36               	subwfb	(___aodiv@dividend+5)^0,f,c
  7924   0036E0  503F               	movf	(___aodiv@divisor+6)^0,w,c
  7925   0036E2  5A37               	subwfb	(___aodiv@dividend+6)^0,f,c
  7926   0036E4  5040               	movf	(___aodiv@divisor+7)^0,w,c
  7927   0036E6  5A38               	subwfb	(___aodiv@dividend+7)^0,f,c
  7928   0036E8  8043               	bsf	___aodiv@quotient^0,0,c
  7929   0036EA                     l2593:
  7930   0036EA  90D8               	bcf	status,0,c
  7931   0036EC  3240               	rrcf	(___aodiv@divisor+7)^0,f,c
  7932   0036EE  323F               	rrcf	(___aodiv@divisor+6)^0,f,c
  7933   0036F0  323E               	rrcf	(___aodiv@divisor+5)^0,f,c
  7934   0036F2  323D               	rrcf	(___aodiv@divisor+4)^0,f,c
  7935   0036F4  323C               	rrcf	(___aodiv@divisor+3)^0,f,c
  7936   0036F6  323B               	rrcf	(___aodiv@divisor+2)^0,f,c
  7937   0036F8  323A               	rrcf	(___aodiv@divisor+1)^0,f,c
  7938   0036FA  3239               	rrcf	___aodiv@divisor^0,f,c
  7939   0036FC  2E41               	decfsz	___aodiv@counter^0,f,c
  7940   0036FE  EF44  F01B         	goto	l2585
  7941   003702                     l2597:
  7942   003702  5042               	movf	___aodiv@sign^0,w,c
  7943   003704  B4D8               	btfsc	status,2,c
  7944   003706  EF87  F01B         	goto	u3751
  7945   00370A  EF89  F01B         	goto	u3750
  7946   00370E                     u3751:
  7947   00370E  EF99  F01B         	goto	l2601
  7948   003712                     u3750:
  7949   003712  1E4A               	comf	(___aodiv@quotient+7)^0,f,c
  7950   003714  1E49               	comf	(___aodiv@quotient+6)^0,f,c
  7951   003716  1E48               	comf	(___aodiv@quotient+5)^0,f,c
  7952   003718  1E47               	comf	(___aodiv@quotient+4)^0,f,c
  7953   00371A  1E46               	comf	(___aodiv@quotient+3)^0,f,c
  7954   00371C  1E45               	comf	(___aodiv@quotient+2)^0,f,c
  7955   00371E  1E44               	comf	(___aodiv@quotient+1)^0,f,c
  7956   003720  6C43               	negf	___aodiv@quotient^0,c
  7957   003722  0E00               	movlw	0
  7958   003724  2244               	addwfc	(___aodiv@quotient+1)^0,f,c
  7959   003726  2245               	addwfc	(___aodiv@quotient+2)^0,f,c
  7960   003728  2246               	addwfc	(___aodiv@quotient+3)^0,f,c
  7961   00372A  2247               	addwfc	(___aodiv@quotient+4)^0,f,c
  7962   00372C  2248               	addwfc	(___aodiv@quotient+5)^0,f,c
  7963   00372E  2249               	addwfc	(___aodiv@quotient+6)^0,f,c
  7964   003730  224A               	addwfc	(___aodiv@quotient+7)^0,f,c
  7965   003732                     l2601:
  7966   003732  C043  F031         	movff	___aodiv@quotient,?___aodiv
  7967   003736  C044  F032         	movff	___aodiv@quotient+1,?___aodiv+1
  7968   00373A  C045  F033         	movff	___aodiv@quotient+2,?___aodiv+2
  7969   00373E  C046  F034         	movff	___aodiv@quotient+3,?___aodiv+3
  7970   003742  C047  F035         	movff	___aodiv@quotient+4,?___aodiv+4
  7971   003746  C048  F036         	movff	___aodiv@quotient+5,?___aodiv+5
  7972   00374A  C049  F037         	movff	___aodiv@quotient+6,?___aodiv+6
  7973   00374E  C04A  F038         	movff	___aodiv@quotient+7,?___aodiv+7
  7974   003752  0012               	return		;funcret
  7975   003754                     __end_of___aodiv:
  7976                           	callstack 0
  7977                           
  7978 ;; *************** function _init_vars *****************
  7979 ;; Defined at:
  7980 ;;		line 326 in file "main.c"
  7981 ;; Parameters:    Size  Location     Type
  7982 ;;		None
  7983 ;; Auto vars:     Size  Location     Type
  7984 ;;  i               2    8[COMRAM] int 
  7985 ;; Return value:  Size  Location     Type
  7986 ;;                  1    wreg      void 
  7987 ;; Registers used:
  7988 ;;		wreg, fsr2l, fsr2h, status,2, status,0, prodl, prodh
  7989 ;; Tracked objects:
  7990 ;;		On entry : 0/0
  7991 ;;		On exit  : 0/0
  7992 ;;		Unchanged: 0/0
  7993 ;; Data sizes:     COMRAM   BANK0   BANK1   BANK2   BANK3   BANK4   BANK5   BANK6   BANK7
  7994 ;;      Params:         0       0       0       0       0       0       0       0       0
  7995 ;;      Locals:         2       0       0       0       0       0       0       0       0
  7996 ;;      Temps:          2       0       0       0       0       0       0       0       0
  7997 ;;      Totals:         4       0       0       0       0       0       0       0       0
  7998 ;;Total ram usage:        4 bytes
  7999 ;; Hardware stack levels used: 1
  8000 ;; Hardware stack levels required when called: 1
  8001 ;; This function calls:
  8002 ;;		Nothing
  8003 ;; This function is called by:
  8004 ;;		_main
  8005 ;; This function uses a non-reentrant model
  8006 ;;
  8007                           
  8008                           	psect	text25
  8009   003B48                     __ptext25:
  8010                           	callstack 0
  8011   003B48                     _init_vars:
  8012                           	callstack 29
  8013   003B48                     
  8014                           ;main.c: 327:     int i;;main.c: 328:     for (i=0;i<5;i++){
  8015   003B48  0E00               	movlw	0
  8016   003B4A  6E34               	movwf	(init_vars@i+1)^0,c
  8017   003B4C  0E00               	movlw	0
  8018   003B4E  6E33               	movwf	init_vars@i^0,c
  8019   003B50                     l2767:
  8020                           
  8021                           ;main.c: 329:         counter[i] = 0;
  8022   003B50  5033               	movf	init_vars@i^0,w,c
  8023   003B52  0D08               	mullw	8
  8024   003B54  50F3               	movf	243,w,c
  8025   003B56  0F88               	addlw	low _counter
  8026   003B58  6ED9               	movwf	fsr2l,c
  8027   003B5A  6ADA               	clrf	fsr2h,c
  8028   003B5C  0E07               	movlw	7
  8029   003B5E                     u4001:
  8030   003B5E  6ADE               	clrf	postinc2,c
  8031   003B60  06E8               	decf	wreg,f,c
  8032   003B62  E2FD               	bc	u4001
  8033   003B64                     
  8034                           ;main.c: 331:     }
  8035   003B64  4A33               	infsnz	init_vars@i^0,f,c
  8036   003B66  2A34               	incf	(init_vars@i+1)^0,f,c
  8037   003B68  BE34               	btfsc	(init_vars@i+1)^0,7,c
  8038   003B6A  EFC0  F01D         	goto	u4011
  8039   003B6E  5034               	movf	(init_vars@i+1)^0,w,c
  8040   003B70  E109               	bnz	u4010
  8041   003B72  0E05               	movlw	5
  8042   003B74  5C33               	subwf	init_vars@i^0,w,c
  8043   003B76  A0D8               	btfss	status,0,c
  8044   003B78  EFC0  F01D         	goto	u4011
  8045   003B7C  EFC2  F01D         	goto	u4010
  8046   003B80                     u4011:
  8047   003B80  EFA8  F01D         	goto	l2767
  8048   003B84                     u4010:
  8049   003B84                     
  8050                           ;main.c: 332:     pwm[0] = 0;
  8051   003B84  0E00               	movlw	0
  8052   003B86  6E07               	movwf	(_pwm+1)^0,c
  8053   003B88  0E00               	movlw	0
  8054   003B8A  6E06               	movwf	_pwm^0,c
  8055                           
  8056                           ;main.c: 333:     pwm[1] = 0;
  8057   003B8C  0E00               	movlw	0
  8058   003B8E  6E09               	movwf	(_pwm+3)^0,c
  8059   003B90  0E00               	movlw	0
  8060   003B92  6E08               	movwf	(_pwm+2)^0,c
  8061                           
  8062                           ;main.c: 334:     for (i=0;i<5;i++){
  8063   003B94  0E00               	movlw	0
  8064   003B96  6E34               	movwf	(init_vars@i+1)^0,c
  8065   003B98  0E00               	movlw	0
  8066   003B9A  6E33               	movwf	init_vars@i^0,c
  8067   003B9C                     l2779:
  8068                           
  8069                           ;main.c: 335:         sum_read[i] = 0;
  8070   003B9C  C033  F031         	movff	init_vars@i,??_init_vars
  8071   003BA0  C034  F032         	movff	init_vars@i+1,??_init_vars+1
  8072   003BA4  90D8               	bcf	status,0,c
  8073   003BA6  3631               	rlcf	??_init_vars^0,f,c
  8074   003BA8  3632               	rlcf	(??_init_vars+1)^0,f,c
  8075   003BAA  90D8               	bcf	status,0,c
  8076   003BAC  3631               	rlcf	??_init_vars^0,f,c
  8077   003BAE  3632               	rlcf	(??_init_vars+1)^0,f,c
  8078   003BB0  90D8               	bcf	status,0,c
  8079   003BB2  3631               	rlcf	??_init_vars^0,f,c
  8080   003BB4  3632               	rlcf	(??_init_vars+1)^0,f,c
  8081   003BB6  0E00               	movlw	low _sum_read
  8082   003BB8  2431               	addwf	??_init_vars^0,w,c
  8083   003BBA  6ED9               	movwf	fsr2l,c
  8084   003BBC  0E01               	movlw	high _sum_read
  8085   003BBE  2032               	addwfc	(??_init_vars+1)^0,w,c
  8086   003BC0  6EDA               	movwf	fsr2h,c
  8087   003BC2  0E07               	movlw	7
  8088   003BC4                     u4021:
  8089   003BC4  6ADE               	clrf	postinc2,c
  8090   003BC6  06E8               	decf	wreg,f,c
  8091   003BC8  E2FD               	bc	u4021
  8092   003BCA                     
  8093                           ;main.c: 336:     }
  8094   003BCA  4A33               	infsnz	init_vars@i^0,f,c
  8095   003BCC  2A34               	incf	(init_vars@i+1)^0,f,c
  8096   003BCE  BE34               	btfsc	(init_vars@i+1)^0,7,c
  8097   003BD0  EFF3  F01D         	goto	u4031
  8098   003BD4  5034               	movf	(init_vars@i+1)^0,w,c
  8099   003BD6  E109               	bnz	u4030
  8100   003BD8  0E05               	movlw	5
  8101   003BDA  5C33               	subwf	init_vars@i^0,w,c
  8102   003BDC  A0D8               	btfss	status,0,c
  8103   003BDE  EFF3  F01D         	goto	u4031
  8104   003BE2  EFF5  F01D         	goto	u4030
  8105   003BE6                     u4031:
  8106   003BE6  EFCE  F01D         	goto	l2779
  8107   003BEA                     u4030:
  8108   003BEA                     
  8109                           ;main.c: 337:     count_reads = 0;
  8110   003BEA  EE20  F0C2         	lfsr	2,_count_reads
  8111   003BEE  0E07               	movlw	7
  8112   003BF0                     u4041:
  8113   003BF0  6ADE               	clrf	postinc2,c
  8114   003BF2  06E8               	decf	wreg,f,c
  8115   003BF4  E2FD               	bc	u4041
  8116   003BF6  0012               	return		;funcret
  8117   003BF8                     __end_of_init_vars:
  8118                           	callstack 0
  8119                           
  8120 ;; *************** function _init *****************
  8121 ;; Defined at:
  8122 ;;		line 881 in file "main.c"
  8123 ;; Parameters:    Size  Location     Type
  8124 ;;		None
  8125 ;; Auto vars:     Size  Location     Type
  8126 ;;		None
  8127 ;; Return value:  Size  Location     Type
  8128 ;;                  1    wreg      void 
  8129 ;; Registers used:
  8130 ;;		wreg, status,2
  8131 ;; Tracked objects:
  8132 ;;		On entry : 0/0
  8133 ;;		On exit  : 0/0
  8134 ;;		Unchanged: 0/0
  8135 ;; Data sizes:     COMRAM   BANK0   BANK1   BANK2   BANK3   BANK4   BANK5   BANK6   BANK7
  8136 ;;      Params:         0       0       0       0       0       0       0       0       0
  8137 ;;      Locals:         0       0       0       0       0       0       0       0       0
  8138 ;;      Temps:          0       0       0       0       0       0       0       0       0
  8139 ;;      Totals:         0       0       0       0       0       0       0       0       0
  8140 ;;Total ram usage:        0 bytes
  8141 ;; Hardware stack levels used: 1
  8142 ;; Hardware stack levels required when called: 1
  8143 ;; This function calls:
  8144 ;;		Nothing
  8145 ;; This function is called by:
  8146 ;;		_main
  8147 ;; This function uses a non-reentrant model
  8148 ;;
  8149                           
  8150                           	psect	text26
  8151   003F0A                     __ptext26:
  8152                           	callstack 0
  8153   003F0A                     _init:
  8154                           	callstack 29
  8155   003F0A                     
  8156                           ;main.c: 882:     flag_init = 0;
  8157   003F0A  0E00               	movlw	0
  8158   003F0C  6E1B               	movwf	(_flag_init+1)^0,c
  8159   003F0E  0E00               	movlw	0
  8160   003F10  6E1A               	movwf	_flag_init^0,c
  8161                           
  8162                           ;main.c: 883:     current_menu = 0;
  8163   003F12  0E00               	movlw	0
  8164   003F14  6E19               	movwf	(_current_menu+1)^0,c
  8165   003F16  0E00               	movlw	0
  8166   003F18  6E18               	movwf	_current_menu^0,c
  8167                           
  8168                           ;main.c: 884:     flag_menu_init = 0;
  8169   003F1A  0E00               	movlw	0
  8170   003F1C  6E17               	movwf	(_flag_menu_init+1)^0,c
  8171   003F1E  0E00               	movlw	0
  8172   003F20  6E16               	movwf	_flag_menu_init^0,c
  8173                           
  8174                           ;main.c: 885:     flag_menu_init_2 = 0;
  8175   003F22  0E00               	movlw	0
  8176   003F24  6E15               	movwf	(_flag_menu_init_2+1)^0,c
  8177   003F26  0E00               	movlw	0
  8178   003F28  6E14               	movwf	_flag_menu_init_2^0,c
  8179                           
  8180                           ;main.c: 886:     configure_mode = 0;
  8181   003F2A  0E00               	movlw	0
  8182   003F2C  6E13               	movwf	(_configure_mode+1)^0,c
  8183   003F2E  0E00               	movlw	0
  8184   003F30  6E12               	movwf	_configure_mode^0,c
  8185                           
  8186                           ;main.c: 887:     robot_state = 0;
  8187   003F32  0E00               	movlw	0
  8188   003F34  6E11               	movwf	(_robot_state+1)^0,c
  8189   003F36  0E00               	movlw	0
  8190   003F38  6E10               	movwf	_robot_state^0,c
  8191                           
  8192                           ;main.c: 888:     program_count = 4;
  8193   003F3A  0E00               	movlw	0
  8194   003F3C  6E0F               	movwf	(_program_count+1)^0,c
  8195   003F3E  0E04               	movlw	4
  8196   003F40  6E0E               	movwf	_program_count^0,c
  8197                           
  8198                           ;main.c: 889:     flag_press = 0;
  8199   003F42  0E00               	movlw	0
  8200   003F44  6E0D               	movwf	(_flag_press+1)^0,c
  8201   003F46  0E00               	movlw	0
  8202   003F48  6E0C               	movwf	_flag_press^0,c
  8203                           
  8204                           ;main.c: 890:     speed_aux = 0;
  8205   003F4A  0E00               	movlw	0
  8206   003F4C  6E0B               	movwf	(_speed_aux+1)^0,c
  8207   003F4E  0E00               	movlw	0
  8208   003F50  6E0A               	movwf	_speed_aux^0,c
  8209                           
  8210                           ;main.c: 891:     program_aux = 0;
  8211   003F52  0E00               	movlw	0
  8212   003F54  0100               	movlb	0	; () banked
  8213   003F56  6FF3               	movwf	(_program_aux+1)& (0+255),b
  8214   003F58  0E00               	movlw	0
  8215   003F5A  6FF2               	movwf	_program_aux& (0+255),b
  8216   003F5C                     
  8217                           ; BSR set to: 0
  8218   003F5C  0012               	return		;funcret
  8219   003F5E                     __end_of_init:
  8220                           	callstack 0
  8221                           
  8222 ;; *************** function _config_micro *****************
  8223 ;; Defined at:
  8224 ;;		line 82 in file "main.c"
  8225 ;; Parameters:    Size  Location     Type
  8226 ;;		None
  8227 ;; Auto vars:     Size  Location     Type
  8228 ;;		None
  8229 ;; Return value:  Size  Location     Type
  8230 ;;                  1    wreg      void 
  8231 ;; Registers used:
  8232 ;;		wreg, status,2
  8233 ;; Tracked objects:
  8234 ;;		On entry : 0/0
  8235 ;;		On exit  : 0/0
  8236 ;;		Unchanged: 0/0
  8237 ;; Data sizes:     COMRAM   BANK0   BANK1   BANK2   BANK3   BANK4   BANK5   BANK6   BANK7
  8238 ;;      Params:         0       0       0       0       0       0       0       0       0
  8239 ;;      Locals:         0       0       0       0       0       0       0       0       0
  8240 ;;      Temps:          0       0       0       0       0       0       0       0       0
  8241 ;;      Totals:         0       0       0       0       0       0       0       0       0
  8242 ;;Total ram usage:        0 bytes
  8243 ;; Hardware stack levels used: 1
  8244 ;; Hardware stack levels required when called: 1
  8245 ;; This function calls:
  8246 ;;		Nothing
  8247 ;; This function is called by:
  8248 ;;		_main
  8249 ;; This function uses a non-reentrant model
  8250 ;;
  8251                           
  8252                           	psect	text27
  8253   0038B6                     __ptext27:
  8254                           	callstack 0
  8255   0038B6                     _config_micro:
  8256                           	callstack 29
  8257   0038B6                     
  8258                           ;main.c: 84:     OSCCONbits.IRCF = 7;
  8259   0038B6  0E70               	movlw	112
  8260   0038B8  12D3               	iorwf	211,f,c	;volatile
  8261                           
  8262                           ;main.c: 87:     CMCON=0x07;
  8263   0038BA  0E07               	movlw	7
  8264   0038BC  6EB4               	movwf	180,c	;volatile
  8265   0038BE                     
  8266                           ;main.c: 90:     UCONbits.USBEN = 0;
  8267   0038BE  966D               	bcf	109,3,c	;volatile
  8268   0038C0                     
  8269                           ;main.c: 91:     UCFGbits.UTRDIS = 1;
  8270   0038C0  866F               	bsf	111,3,c	;volatile
  8271   0038C2                     
  8272                           ;main.c: 94:     T0CONbits.TMR0ON = 0;
  8273   0038C2  9ED5               	bcf	213,7,c	;volatile
  8274   0038C4                     
  8275                           ;main.c: 95:     T0CONbits.T08BIT = 0;
  8276   0038C4  9CD5               	bcf	213,6,c	;volatile
  8277   0038C6                     
  8278                           ;main.c: 96:     T0CONbits.T0CS = 0;
  8279   0038C6  9AD5               	bcf	213,5,c	;volatile
  8280   0038C8                     
  8281                           ;main.c: 97:     T0CONbits.PSA = 0;
  8282   0038C8  96D5               	bcf	213,3,c	;volatile
  8283                           
  8284                           ;main.c: 98:     T0CONbits.T0PS = 0b101;
  8285   0038CA  50D5               	movf	213,w,c	;volatile
  8286   0038CC  0BF8               	andlw	-8
  8287   0038CE  0905               	iorlw	5
  8288   0038D0  6ED5               	movwf	213,c	;volatile
  8289   0038D2                     
  8290                           ;main.c: 101:     INTCON2bits.TMR0IP = 1;
  8291   0038D2  84F1               	bsf	241,2,c	;volatile
  8292   0038D4                     
  8293                           ;main.c: 102:     INTCONbits.TMR0IE = 1;
  8294   0038D4  8AF2               	bsf	242,5,c	;volatile
  8295   0038D6                     
  8296                           ;main.c: 103:     RCONbits.IPEN = 0;
  8297   0038D6  9ED0               	bcf	208,7,c	;volatile
  8298                           
  8299                           ;main.c: 106:     TMR0H = 0xF8;
  8300   0038D8  0EF8               	movlw	248
  8301   0038DA  6ED7               	movwf	215,c	;volatile
  8302                           
  8303                           ;main.c: 107:     TMR0L = 0xAC;
  8304   0038DC  0EAC               	movlw	172
  8305   0038DE  6ED6               	movwf	214,c	;volatile
  8306   0038E0                     
  8307                           ;main.c: 112:     T1CONbits.TMR1ON = 0;
  8308   0038E0  90CD               	bcf	205,0,c	;volatile
  8309   0038E2                     
  8310                           ;main.c: 113:     T1CONbits.T1RD16 = 0;
  8311   0038E2  9ECD               	bcf	205,7,c	;volatile
  8312   0038E4                     
  8313                           ;main.c: 114:     T1CONbits.T1RUN = 0;
  8314   0038E4  9CCD               	bcf	205,6,c	;volatile
  8315                           
  8316                           ;main.c: 115:     T1CONbits.T1CKPS = 0;
  8317   0038E6  0ECF               	movlw	-49
  8318   0038E8  16CD               	andwf	205,f,c	;volatile
  8319   0038EA                     
  8320                           ;main.c: 116:     T1CONbits.T1OSCEN = 0;
  8321   0038EA  96CD               	bcf	205,3,c	;volatile
  8322   0038EC                     
  8323                           ;main.c: 117:     T1CONbits.TMR1CS = 0;
  8324   0038EC  92CD               	bcf	205,1,c	;volatile
  8325   0038EE                     
  8326                           ;main.c: 120:     INTCONbits.GIE = 1;
  8327   0038EE  8EF2               	bsf	242,7,c	;volatile
  8328   0038F0                     
  8329                           ;main.c: 121:     T0CONbits.TMR0ON = 1;
  8330   0038F0  8ED5               	bsf	213,7,c	;volatile
  8331   0038F2                     
  8332                           ;main.c: 122:     T1CONbits.TMR1ON = 1;
  8333   0038F2  80CD               	bsf	205,0,c	;volatile
  8334                           
  8335                           ;main.c: 124:     TMR1H = 0xF8;
  8336   0038F4  0EF8               	movlw	248
  8337   0038F6  6ECF               	movwf	207,c	;volatile
  8338                           
  8339                           ;main.c: 125:     TMR1L = 0x2F;
  8340   0038F8  0E2F               	movlw	47
  8341   0038FA  6ECE               	movwf	206,c	;volatile
  8342   0038FC                     
  8343                           ;main.c: 130:     T2CONbits.TMR2ON=0;
  8344   0038FC  94CA               	bcf	202,2,c	;volatile
  8345                           
  8346                           ;main.c: 131:     T2CONbits.TOUTPS=0b01;
  8347   0038FE  50CA               	movf	202,w,c	;volatile
  8348   003900  0B87               	andlw	-121
  8349   003902  0908               	iorlw	8
  8350   003904  6ECA               	movwf	202,c	;volatile
  8351                           
  8352                           ;main.c: 132:     T2CONbits.T2CKPS=0b01;
  8353   003906  50CA               	movf	202,w,c	;volatile
  8354   003908  0BFC               	andlw	-4
  8355   00390A  0901               	iorlw	1
  8356   00390C  6ECA               	movwf	202,c	;volatile
  8357                           
  8358                           ;main.c: 135:     CCP1CONbits.CCP1M = 0b1100;
  8359   00390E  50BD               	movf	189,w,c	;volatile
  8360   003910  0BF0               	andlw	-16
  8361   003912  090C               	iorlw	12
  8362   003914  6EBD               	movwf	189,c	;volatile
  8363                           
  8364                           ;main.c: 136:     CCP2CONbits.CCP2M = 0b1100;
  8365   003916  50BA               	movf	186,w,c	;volatile
  8366   003918  0BF0               	andlw	-16
  8367   00391A  090C               	iorlw	12
  8368   00391C  6EBA               	movwf	186,c	;volatile
  8369                           
  8370                           ;main.c: 137:     PR2=149;
  8371   00391E  0E95               	movlw	149
  8372   003920  6ECB               	movwf	203,c	;volatile
  8373                           
  8374                           ;main.c: 141:     CCP1CONbits.DC1B = 0;
  8375   003922  0ECF               	movlw	-49
  8376   003924  16BD               	andwf	189,f,c	;volatile
  8377                           
  8378                           ;main.c: 142:     CCP2CONbits.DC2B = 0;
  8379   003926  0ECF               	movlw	-49
  8380   003928  16BA               	andwf	186,f,c	;volatile
  8381   00392A                     
  8382                           ;main.c: 143:     CCPR1L = 0;
  8383   00392A  6ABE               	clrf	190,c	;volatile
  8384   00392C                     
  8385                           ;main.c: 144:     CCPR2L = 0;
  8386   00392C  6ABB               	clrf	187,c	;volatile
  8387   00392E                     
  8388                           ;main.c: 146:     T2CONbits.TMR2ON=1;
  8389   00392E  84CA               	bsf	202,2,c	;volatile
  8390                           
  8391                           ;main.c: 149:     ADCON0bits.CHS=0;
  8392   003930  0EC3               	movlw	-61
  8393   003932  16C2               	andwf	194,f,c	;volatile
  8394   003934                     
  8395                           ;main.c: 150:     ADCON0bits.GODONE=0;
  8396   003934  92C2               	bcf	194,1,c	;volatile
  8397   003936                     
  8398                           ;main.c: 151:     ADCON0bits.ADON=1;
  8399   003936  80C2               	bsf	194,0,c	;volatile
  8400                           
  8401                           ;main.c: 153:     ADCON1bits.VCFG = 0;
  8402   003938  0ECF               	movlw	-49
  8403   00393A  16C1               	andwf	193,f,c	;volatile
  8404                           
  8405                           ;main.c: 154:     ADCON1bits.PCFG = 0b1001;
  8406   00393C  50C1               	movf	193,w,c	;volatile
  8407   00393E  0BF0               	andlw	-16
  8408   003940  0909               	iorlw	9
  8409   003942  6EC1               	movwf	193,c	;volatile
  8410   003944                     
  8411                           ;main.c: 156:     ADCON2bits.ADFM=0;
  8412   003944  9EC0               	bcf	192,7,c	;volatile
  8413                           
  8414                           ;main.c: 157:     ADCON2bits.ACQT=7;
  8415   003946  0E38               	movlw	56
  8416   003948  12C0               	iorwf	192,f,c	;volatile
  8417                           
  8418                           ;main.c: 158:     ADCON2bits.ADCS=6;
  8419   00394A  50C0               	movf	192,w,c	;volatile
  8420   00394C  0BF8               	andlw	-8
  8421   00394E  0906               	iorlw	6
  8422   003950  6EC0               	movwf	192,c	;volatile
  8423   003952                     
  8424                           ;main.c: 163:     TRISCbits.RC6 = 1;
  8425   003952  8C94               	bsf	148,6,c	;volatile
  8426   003954                     
  8427                           ;main.c: 164:     TRISCbits.RC7 = 1;
  8428   003954  8E94               	bsf	148,7,c	;volatile
  8429   003956                     
  8430                           ;main.c: 166:     BAUDCONbits.RXDTP=0;
  8431   003956  9AB8               	bcf	184,5,c	;volatile
  8432   003958                     
  8433                           ;main.c: 167:     BAUDCONbits.TXCKP=0;
  8434   003958  98B8               	bcf	184,4,c	;volatile
  8435   00395A                     
  8436                           ;main.c: 168:     BAUDCONbits.BRG16=1;
  8437   00395A  86B8               	bsf	184,3,c	;volatile
  8438   00395C                     
  8439                           ;main.c: 170:     BAUDCONbits.WUE=0;
  8440   00395C  92B8               	bcf	184,1,c	;volatile
  8441   00395E                     
  8442                           ;main.c: 171:     BAUDCONbits.ABDEN=0;
  8443   00395E  90B8               	bcf	184,0,c	;volatile
  8444                           
  8445                           ;main.c: 172:     SPBRG=51;
  8446   003960  0E33               	movlw	51
  8447   003962  6EAF               	movwf	175,c	;volatile
  8448   003964                     
  8449                           ;main.c: 173:     SPBRGH=0;
  8450   003964  6AB0               	clrf	176,c	;volatile
  8451   003966                     
  8452                           ;main.c: 174:     TXSTAbits.CSRC=0;
  8453   003966  9EAC               	bcf	172,7,c	;volatile
  8454   003968                     
  8455                           ;main.c: 175:     TXSTAbits.TX9=0;
  8456   003968  9CAC               	bcf	172,6,c	;volatile
  8457   00396A                     
  8458                           ;main.c: 176:     TXSTAbits.TXEN=1;
  8459   00396A  8AAC               	bsf	172,5,c	;volatile
  8460   00396C                     
  8461                           ;main.c: 177:     TXSTAbits.SYNC=0;
  8462   00396C  98AC               	bcf	172,4,c	;volatile
  8463   00396E                     
  8464                           ;main.c: 179:     TXSTAbits.BRGH=0;
  8465   00396E  94AC               	bcf	172,2,c	;volatile
  8466   003970                     
  8467                           ;main.c: 180:     RCSTAbits.RX9=0;
  8468   003970  9CAB               	bcf	171,6,c	;volatile
  8469   003972                     
  8470                           ;main.c: 181:     RCSTAbits.CREN=1;
  8471   003972  88AB               	bsf	171,4,c	;volatile
  8472   003974                     
  8473                           ;main.c: 182:     RCSTAbits.SPEN=1;
  8474   003974  8EAB               	bsf	171,7,c	;volatile
  8475   003976                     
  8476                           ;main.c: 188:     TRISBbits.RB0 = 0;
  8477   003976  9093               	bcf	147,0,c	;volatile
  8478   003978                     
  8479                           ;main.c: 189:     TRISBbits.RB1 = 0;
  8480   003978  9293               	bcf	147,1,c	;volatile
  8481   00397A                     
  8482                           ;main.c: 190:     TRISBbits.RB2 = 0;
  8483   00397A  9493               	bcf	147,2,c	;volatile
  8484   00397C                     
  8485                           ;main.c: 191:     TRISBbits.RB4 = 0;
  8486   00397C  9893               	bcf	147,4,c	;volatile
  8487   00397E                     
  8488                           ;main.c: 192:     TRISBbits.RB5 = 0;
  8489   00397E  9A93               	bcf	147,5,c	;volatile
  8490   003980                     
  8491                           ;main.c: 195:     TRISDbits.RD2 = 1;
  8492   003980  8495               	bsf	149,2,c	;volatile
  8493   003982                     
  8494                           ;main.c: 196:     TRISDbits.RD3 = 1;
  8495   003982  8695               	bsf	149,3,c	;volatile
  8496   003984                     
  8497                           ;main.c: 199:     TRISAbits.RA0 = 1;
  8498   003984  8092               	bsf	146,0,c	;volatile
  8499   003986                     
  8500                           ;main.c: 200:     TRISAbits.RA1 = 1;
  8501   003986  8292               	bsf	146,1,c	;volatile
  8502   003988                     
  8503                           ;main.c: 201:     TRISAbits.RA2 = 1;
  8504   003988  8492               	bsf	146,2,c	;volatile
  8505   00398A                     
  8506                           ;main.c: 202:     TRISAbits.RA3 = 1;
  8507   00398A  8692               	bsf	146,3,c	;volatile
  8508   00398C                     
  8509                           ;main.c: 203:     TRISAbits.RA4 = 1;
  8510   00398C  8892               	bsf	146,4,c	;volatile
  8511   00398E                     
  8512                           ;main.c: 204:     TRISEbits.RE0 = 1;
  8513   00398E  8096               	bsf	150,0,c	;volatile
  8514   003990                     
  8515                           ;main.c: 207:     TRISDbits.RD1 = 0;
  8516   003990  9295               	bcf	149,1,c	;volatile
  8517   003992                     
  8518                           ;main.c: 208:     TRISDbits.RD0 = 0;
  8519   003992  9095               	bcf	149,0,c	;volatile
  8520   003994                     
  8521                           ;main.c: 209:     TRISCbits.RC1 = 0;
  8522   003994  9294               	bcf	148,1,c	;volatile
  8523   003996                     
  8524                           ;main.c: 210:     TRISCbits.RC0 = 0;
  8525   003996  9094               	bcf	148,0,c	;volatile
  8526   003998                     
  8527                           ;main.c: 211:     TRISBbits.RB3 = 0;
  8528   003998  9693               	bcf	147,3,c	;volatile
  8529   00399A                     
  8530                           ;main.c: 212:     TRISCbits.RC2 = 0;
  8531   00399A  9494               	bcf	148,2,c	;volatile
  8532   00399C                     
  8533                           ;main.c: 215:     TRISDbits.RD7 = 1;
  8534   00399C  8E95               	bsf	149,7,c	;volatile
  8535   00399E                     
  8536                           ;main.c: 216:     TRISDbits.RD6 = 1;
  8537   00399E  8C95               	bsf	149,6,c	;volatile
  8538   0039A0                     
  8539                           ;main.c: 217:     TRISDbits.RD5 = 1;
  8540   0039A0  8A95               	bsf	149,5,c	;volatile
  8541   0039A2                     
  8542                           ;main.c: 218:     TRISDbits.RD4 = 1;
  8543   0039A2  8895               	bsf	149,4,c	;volatile
  8544   0039A4  0012               	return		;funcret
  8545   0039A6                     __end_of_config_micro:
  8546                           	callstack 0
  8547                           
  8548 ;; *************** function _buttons_loop *****************
  8549 ;; Defined at:
  8550 ;;		line 417 in file "main.c"
  8551 ;; Parameters:    Size  Location     Type
  8552 ;;		None
  8553 ;; Auto vars:     Size  Location     Type
  8554 ;;  click_evt       5   16[COMRAM] unsigned char [5]
  8555 ;;  i               2   21[COMRAM] int 
  8556 ;;  i               2   23[COMRAM] int 
  8557 ;; Return value:  Size  Location     Type
  8558 ;;                  1    wreg      void 
  8559 ;; Registers used:
  8560 ;;		wreg, fsr2l, fsr2h, status,2, status,0, prodl, prodh
  8561 ;; Tracked objects:
  8562 ;;		On entry : 0/0
  8563 ;;		On exit  : 0/0
  8564 ;;		Unchanged: 0/0
  8565 ;; Data sizes:     COMRAM   BANK0   BANK1   BANK2   BANK3   BANK4   BANK5   BANK6   BANK7
  8566 ;;      Params:         0       0       0       0       0       0       0       0       0
  8567 ;;      Locals:         9       0       0       0       0       0       0       0       0
  8568 ;;      Temps:         10       0       0       0       0       0       0       0       0
  8569 ;;      Totals:        19       0       0       0       0       0       0       0       0
  8570 ;;Total ram usage:       19 bytes
  8571 ;; Hardware stack levels used: 1
  8572 ;; Hardware stack levels required when called: 1
  8573 ;; This function calls:
  8574 ;;		Nothing
  8575 ;; This function is called by:
  8576 ;;		_main
  8577 ;; This function uses a non-reentrant model
  8578 ;;
  8579                           
  8580                           	psect	text28
  8581   002A2C                     __ptext28:
  8582                           	callstack 0
  8583   002A2C                     _buttons_loop:
  8584                           	callstack 29
  8585   002A2C                     
  8586                           ;main.c: 418:     if (b_state[0] == 0){
  8587   002A2C  0100               	movlb	0	; () banked
  8588   002A2E  51E8               	movf	_b_state& (0+255),w,b
  8589   002A30  A4D8               	btfss	status,2,c
  8590   002A32  EF1D  F015         	goto	u4251
  8591   002A36  EF1F  F015         	goto	u4250
  8592   002A3A                     u4251:
  8593   002A3A  EF29  F015         	goto	l2855
  8594   002A3E                     u4250:
  8595   002A3E                     
  8596                           ; BSR set to: 0
  8597                           ;main.c: 419:         if (PORTDbits.RD2){
  8598   002A3E  A483               	btfss	131,2,c	;volatile
  8599   002A40  EF24  F015         	goto	u4261
  8600   002A44  EF26  F015         	goto	u4260
  8601   002A48                     u4261:
  8602   002A48  EF42  F015         	goto	l215
  8603   002A4C                     u4260:
  8604   002A4C                     
  8605                           ; BSR set to: 0
  8606                           ;main.c: 420:             b[0] = 0;
  8607   002A4C  6BD9               	clrf	_b& (0+255),b
  8608   002A4E  EF42  F015         	goto	l215
  8609   002A52                     l2855:
  8610                           
  8611                           ; BSR set to: 0
  8612   002A52  05E8               	decf	_b_state& (0+255),w,b
  8613   002A54  B4D8               	btfsc	status,2,c
  8614   002A56  EF2F  F015         	goto	u4271
  8615   002A5A  EF31  F015         	goto	u4270
  8616   002A5E                     u4271:
  8617   002A5E  EF39  F015         	goto	l218
  8618   002A62                     u4270:
  8619   002A62                     
  8620                           ; BSR set to: 0
  8621   002A62  502A               	movf	_initial_state^0,w,c
  8622   002A64  B4D8               	btfsc	status,2,c
  8623   002A66  EF37  F015         	goto	u4281
  8624   002A6A  EF39  F015         	goto	u4280
  8625   002A6E                     u4281:
  8626   002A6E  EF42  F015         	goto	l215
  8627   002A72                     u4280:
  8628   002A72                     l218:
  8629                           
  8630                           ; BSR set to: 0
  8631                           ;main.c: 423:         if (!PORTDbits.RD2){
  8632   002A72  B483               	btfsc	131,2,c	;volatile
  8633   002A74  EF3E  F015         	goto	u4291
  8634   002A78  EF40  F015         	goto	u4290
  8635   002A7C                     u4291:
  8636   002A7C  EF42  F015         	goto	l215
  8637   002A80                     u4290:
  8638   002A80                     
  8639                           ; BSR set to: 0
  8640                           ;main.c: 424:             b[0] = 1;
  8641   002A80  0E01               	movlw	1
  8642   002A82  6FD9               	movwf	_b& (0+255),b
  8643   002A84                     l215:
  8644                           
  8645                           ; BSR set to: 0
  8646                           ;main.c: 427:     if (b_state[1] == 0){
  8647   002A84  51E9               	movf	(_b_state+1)& (0+255),w,b
  8648   002A86  A4D8               	btfss	status,2,c
  8649   002A88  EF48  F015         	goto	u4301
  8650   002A8C  EF4A  F015         	goto	u4300
  8651   002A90                     u4301:
  8652   002A90  EF54  F015         	goto	l2865
  8653   002A94                     u4300:
  8654   002A94                     
  8655                           ; BSR set to: 0
  8656                           ;main.c: 428:         if (PORTDbits.RD3){
  8657   002A94  A683               	btfss	131,3,c	;volatile
  8658   002A96  EF4F  F015         	goto	u4311
  8659   002A9A  EF51  F015         	goto	u4310
  8660   002A9E                     u4311:
  8661   002A9E  EF65  F015         	goto	l222
  8662   002AA2                     u4310:
  8663   002AA2                     
  8664                           ; BSR set to: 0
  8665                           ;main.c: 429:             b[1] = 0;
  8666   002AA2  6BDA               	clrf	(_b+1)& (0+255),b
  8667   002AA4  EF65  F015         	goto	l222
  8668   002AA8                     l2865:
  8669                           
  8670                           ; BSR set to: 0
  8671   002AA8  05E9               	decf	(_b_state+1)& (0+255),w,b
  8672   002AAA  A4D8               	btfss	status,2,c
  8673   002AAC  EF5A  F015         	goto	u4321
  8674   002AB0  EF5C  F015         	goto	u4320
  8675   002AB4                     u4321:
  8676   002AB4  EF65  F015         	goto	l222
  8677   002AB8                     u4320:
  8678   002AB8                     
  8679                           ; BSR set to: 0
  8680                           ;main.c: 432:         if (!PORTDbits.RD3){
  8681   002AB8  B683               	btfsc	131,3,c	;volatile
  8682   002ABA  EF61  F015         	goto	u4331
  8683   002ABE  EF63  F015         	goto	u4330
  8684   002AC2                     u4331:
  8685   002AC2  EF65  F015         	goto	l222
  8686   002AC6                     u4330:
  8687   002AC6                     
  8688                           ; BSR set to: 0
  8689                           ;main.c: 433:             b[1] = 1;
  8690   002AC6  0E01               	movlw	1
  8691   002AC8  6FDA               	movwf	(_b+1)& (0+255),b
  8692   002ACA                     l222:
  8693                           
  8694                           ; BSR set to: 0
  8695                           ;main.c: 436:     int i;;main.c: 437:     if (initial_state){
  8696   002ACA  502A               	movf	_initial_state^0,w,c
  8697   002ACC  B4D8               	btfsc	status,2,c
  8698   002ACE  EF6B  F015         	goto	u4341
  8699   002AD2  EF6D  F015         	goto	u4340
  8700   002AD6                     u4341:
  8701   002AD6  EFF5  F015         	goto	l2903
  8702   002ADA                     u4340:
  8703   002ADA                     
  8704                           ; BSR set to: 0
  8705                           ;main.c: 438:         if (counter[0] >= 20){
  8706   002ADA  BF8F               	btfsc	(_counter+7)& (0+255),7,b
  8707   002ADC  EF7F  F015         	goto	u4351
  8708   002AE0  518F               	movf	(_counter+7)& (0+255),w,b
  8709   002AE2  118E               	iorwf	(_counter+6)& (0+255),w,b
  8710   002AE4  118D               	iorwf	(_counter+5)& (0+255),w,b
  8711   002AE6  118C               	iorwf	(_counter+4)& (0+255),w,b
  8712   002AE8  118B               	iorwf	(_counter+3)& (0+255),w,b
  8713   002AEA  118A               	iorwf	(_counter+2)& (0+255),w,b
  8714   002AEC  1189               	iorwf	(_counter+1)& (0+255),w,b
  8715   002AEE  E109               	bnz	u4350
  8716   002AF0  0E14               	movlw	20
  8717   002AF2  5D88               	subwf	_counter& (0+255),w,b
  8718   002AF4  A0D8               	btfss	status,0,c
  8719   002AF6  EF7F  F015         	goto	u4351
  8720   002AFA  EF81  F015         	goto	u4350
  8721   002AFE                     u4351:
  8722   002AFE  EF13  F019         	goto	l266
  8723   002B02                     u4350:
  8724   002B02                     
  8725                           ; BSR set to: 0
  8726                           ;main.c: 439:             counter[0] = 0;
  8727   002B02  EE20  F088         	lfsr	2,_counter
  8728   002B06  0E07               	movlw	7
  8729   002B08                     u4361:
  8730   002B08  6ADE               	clrf	postinc2,c
  8731   002B0A  06E8               	decf	wreg,f,c
  8732   002B0C  E2FD               	bc	u4361
  8733   002B0E                     
  8734                           ; BSR set to: 0
  8735                           ;main.c: 440:             if (!b[0]){
  8736   002B0E  51D9               	movf	_b& (0+255),w,b
  8737   002B10  A4D8               	btfss	status,2,c
  8738   002B12  EF8D  F015         	goto	u4371
  8739   002B16  EF8F  F015         	goto	u4370
  8740   002B1A                     u4371:
  8741   002B1A  EFF1  F015         	goto	l227
  8742   002B1E                     u4370:
  8743   002B1E                     
  8744                           ; BSR set to: 0
  8745                           ;main.c: 441:                 initial_state = 0;
  8746   002B1E  6A2A               	clrf	_initial_state^0,c
  8747   002B20                     
  8748                           ; BSR set to: 0
  8749                           ;main.c: 442:                 counter[0] = 0;
  8750   002B20  EE20  F088         	lfsr	2,_counter
  8751   002B24  0E07               	movlw	7
  8752   002B26                     u4381:
  8753   002B26  6ADE               	clrf	postinc2,c
  8754   002B28  06E8               	decf	wreg,f,c
  8755   002B2A  E2FD               	bc	u4381
  8756   002B2C                     
  8757                           ; BSR set to: 0
  8758                           ;main.c: 443:                 for (i = 0;i < 2;i++){
  8759   002B2C  0E00               	movlw	0
  8760   002B2E  6E43               	movwf	(buttons_loop@i+1)^0,c
  8761   002B30  0E00               	movlw	0
  8762   002B32  6E42               	movwf	buttons_loop@i^0,c
  8763   002B34                     l2887:
  8764                           
  8765                           ;main.c: 444:                     b_state[i] = 0;
  8766   002B34  5042               	movf	buttons_loop@i^0,w,c
  8767   002B36  0FE8               	addlw	low _b_state
  8768   002B38  6ED9               	movwf	fsr2l,c
  8769   002B3A  6ADA               	clrf	fsr2h,c
  8770   002B3C  6ADF               	clrf	indf2,c
  8771                           
  8772                           ;main.c: 445:                     b[i] = 0;
  8773   002B3E  5042               	movf	buttons_loop@i^0,w,c
  8774   002B40  0FD9               	addlw	low _b
  8775   002B42  6ED9               	movwf	fsr2l,c
  8776   002B44  6ADA               	clrf	fsr2h,c
  8777   002B46  6ADF               	clrf	indf2,c
  8778                           
  8779                           ;main.c: 446:                     last_b[i] = 0;
  8780   002B48  5042               	movf	buttons_loop@i^0,w,c
  8781   002B4A  0FED               	addlw	low _last_b
  8782   002B4C  6ED9               	movwf	fsr2l,c
  8783   002B4E  6ADA               	clrf	fsr2h,c
  8784   002B50  6ADF               	clrf	indf2,c
  8785   002B52                     
  8786                           ;main.c: 448:                     b_counter[i] = 0;
  8787   002B52  5042               	movf	buttons_loop@i^0,w,c
  8788   002B54  0D08               	mullw	8
  8789   002B56  50F3               	movf	243,w,c
  8790   002B58  0F60               	addlw	low _b_counter
  8791   002B5A  6ED9               	movwf	fsr2l,c
  8792   002B5C  6ADA               	clrf	fsr2h,c
  8793   002B5E  0E07               	movlw	7
  8794   002B60                     u4391:
  8795   002B60  6ADE               	clrf	postinc2,c
  8796   002B62  06E8               	decf	wreg,f,c
  8797   002B64  E2FD               	bc	u4391
  8798   002B66                     
  8799                           ;main.c: 449:                     state_counter[i] = 0;
  8800   002B66  C042  F031         	movff	buttons_loop@i,??_buttons_loop
  8801   002B6A  C043  F032         	movff	buttons_loop@i+1,??_buttons_loop+1
  8802   002B6E  90D8               	bcf	status,0,c
  8803   002B70  3631               	rlcf	??_buttons_loop^0,f,c
  8804   002B72  3632               	rlcf	(??_buttons_loop+1)^0,f,c
  8805   002B74  90D8               	bcf	status,0,c
  8806   002B76  3631               	rlcf	??_buttons_loop^0,f,c
  8807   002B78  3632               	rlcf	(??_buttons_loop+1)^0,f,c
  8808   002B7A  90D8               	bcf	status,0,c
  8809   002B7C  3631               	rlcf	??_buttons_loop^0,f,c
  8810   002B7E  3632               	rlcf	(??_buttons_loop+1)^0,f,c
  8811   002B80  0E50               	movlw	low _state_counter
  8812   002B82  2431               	addwf	??_buttons_loop^0,w,c
  8813   002B84  6ED9               	movwf	fsr2l,c
  8814   002B86  0E01               	movlw	high _state_counter
  8815   002B88  2032               	addwfc	(??_buttons_loop+1)^0,w,c
  8816   002B8A  6EDA               	movwf	fsr2h,c
  8817   002B8C  0E07               	movlw	7
  8818   002B8E                     u4401:
  8819   002B8E  6ADE               	clrf	postinc2,c
  8820   002B90  06E8               	decf	wreg,f,c
  8821   002B92  E2FD               	bc	u4401
  8822                           
  8823                           ;main.c: 450:                     combination_state[i] = 0;
  8824   002B94  5042               	movf	buttons_loop@i^0,w,c
  8825   002B96  0D02               	mullw	2
  8826   002B98  50F3               	movf	243,w,c
  8827   002B9A  0FB0               	addlw	low _combination_state
  8828   002B9C  6ED9               	movwf	fsr2l,c
  8829   002B9E  6ADA               	clrf	fsr2h,c
  8830   002BA0  6ADE               	clrf	postinc2,c
  8831   002BA2  6ADD               	clrf	postdec2,c
  8832   002BA4                     
  8833                           ;main.c: 451:                     single_click_evt[i] = 0;
  8834   002BA4  5042               	movf	buttons_loop@i^0,w,c
  8835   002BA6  0FD4               	addlw	low _single_click_evt
  8836   002BA8  6ED9               	movwf	fsr2l,c
  8837   002BAA  6ADA               	clrf	fsr2h,c
  8838   002BAC  6ADF               	clrf	indf2,c
  8839   002BAE                     
  8840                           ;main.c: 452:                     double_click_evt[i] = 0;
  8841   002BAE  5042               	movf	buttons_loop@i^0,w,c
  8842   002BB0  0FCF               	addlw	low _double_click_evt
  8843   002BB2  6ED9               	movwf	fsr2l,c
  8844   002BB4  6ADA               	clrf	fsr2h,c
  8845   002BB6  6ADF               	clrf	indf2,c
  8846   002BB8                     
  8847                           ;main.c: 453:                     triple_click_evt[i] = 0;
  8848   002BB8  5042               	movf	buttons_loop@i^0,w,c
  8849   002BBA  0FCA               	addlw	low _triple_click_evt
  8850   002BBC  6ED9               	movwf	fsr2l,c
  8851   002BBE  6ADA               	clrf	fsr2h,c
  8852   002BC0  6ADF               	clrf	indf2,c
  8853   002BC2                     
  8854                           ;main.c: 454:                 }
  8855   002BC2  4A42               	infsnz	buttons_loop@i^0,f,c
  8856   002BC4  2A43               	incf	(buttons_loop@i+1)^0,f,c
  8857   002BC6  BE43               	btfsc	(buttons_loop@i+1)^0,7,c
  8858   002BC8  EFEF  F015         	goto	u4411
  8859   002BCC  5043               	movf	(buttons_loop@i+1)^0,w,c
  8860   002BCE  E109               	bnz	u4410
  8861   002BD0  0E02               	movlw	2
  8862   002BD2  5C42               	subwf	buttons_loop@i^0,w,c
  8863   002BD4  A0D8               	btfss	status,0,c
  8864   002BD6  EFEF  F015         	goto	u4411
  8865   002BDA  EFF1  F015         	goto	u4410
  8866   002BDE                     u4411:
  8867   002BDE  EF9A  F015         	goto	l2887
  8868   002BE2                     u4410:
  8869   002BE2                     l227:
  8870                           
  8871                           ;main.c: 456:             b[0] = 0;
  8872   002BE2  0100               	movlb	0	; () banked
  8873   002BE4  6BD9               	clrf	_b& (0+255),b
  8874   002BE6  EF13  F019         	goto	l266
  8875   002BEA                     l2903:
  8876                           
  8877                           ; BSR set to: 0
  8878   002BEA  BF8F               	btfsc	(_counter+7)& (0+255),7,b
  8879   002BEC  EF06  F016         	goto	u4421
  8880   002BF0  518F               	movf	(_counter+7)& (0+255),w,b
  8881   002BF2  118E               	iorwf	(_counter+6)& (0+255),w,b
  8882   002BF4  118D               	iorwf	(_counter+5)& (0+255),w,b
  8883   002BF6  118C               	iorwf	(_counter+4)& (0+255),w,b
  8884   002BF8  118B               	iorwf	(_counter+3)& (0+255),w,b
  8885   002BFA  118A               	iorwf	(_counter+2)& (0+255),w,b
  8886   002BFC  1189               	iorwf	(_counter+1)& (0+255),w,b
  8887   002BFE  E108               	bnz	u4420
  8888   002C00  0588               	decf	_counter& (0+255),w,b
  8889   002C02  A0D8               	btfss	status,0,c
  8890   002C04  EF06  F016         	goto	u4421
  8891   002C08  EF08  F016         	goto	u4420
  8892   002C0C                     u4421:
  8893   002C0C  EF13  F019         	goto	l266
  8894   002C10                     u4420:
  8895   002C10                     
  8896                           ; BSR set to: 0
  8897                           ;main.c: 459:         counter[0] = 0;
  8898   002C10  EE20  F088         	lfsr	2,_counter
  8899   002C14  0E07               	movlw	7
  8900   002C16                     u4431:
  8901   002C16  6ADE               	clrf	postinc2,c
  8902   002C18  06E8               	decf	wreg,f,c
  8903   002C1A  E2FD               	bc	u4431
  8904                           
  8905                           ;main.c: 461:         sum_iterations += iterations;
  8906   002C1C  EE20  F0BA         	lfsr	2,_iterations
  8907   002C20  50DE               	movf	postinc2,w,c
  8908   002C22  0101               	movlb	1	; () banked
  8909   002C24  27A8               	addwf	_sum_iterations& (0+255),f,b
  8910   002C26  50DE               	movf	postinc2,w,c
  8911   002C28  23A9               	addwfc	(_sum_iterations+1)& (0+255),f,b
  8912   002C2A  50DE               	movf	postinc2,w,c
  8913   002C2C  23AA               	addwfc	(_sum_iterations+2)& (0+255),f,b
  8914   002C2E  50DE               	movf	postinc2,w,c
  8915   002C30  23AB               	addwfc	(_sum_iterations+3)& (0+255),f,b
  8916   002C32  50DE               	movf	postinc2,w,c
  8917   002C34  23AC               	addwfc	(_sum_iterations+4)& (0+255),f,b
  8918   002C36  50DE               	movf	postinc2,w,c
  8919   002C38  23AD               	addwfc	(_sum_iterations+5)& (0+255),f,b
  8920   002C3A  50DE               	movf	postinc2,w,c
  8921   002C3C  23AE               	addwfc	(_sum_iterations+6)& (0+255),f,b
  8922   002C3E  50DD               	movf	postdec2,w,c
  8923   002C40  23AF               	addwfc	(_sum_iterations+7)& (0+255),f,b
  8924   002C42                     
  8925                           ; BSR set to: 1
  8926                           ;main.c: 462:         amount_cycles ++;
  8927   002C42  0E01               	movlw	1
  8928   002C44  27A0               	addwf	_amount_cycles& (0+255),f,b
  8929   002C46  0E00               	movlw	0
  8930   002C48  23A1               	addwfc	(_amount_cycles+1)& (0+255),f,b
  8931   002C4A  23A2               	addwfc	(_amount_cycles+2)& (0+255),f,b
  8932   002C4C  23A3               	addwfc	(_amount_cycles+3)& (0+255),f,b
  8933   002C4E  23A4               	addwfc	(_amount_cycles+4)& (0+255),f,b
  8934   002C50  23A5               	addwfc	(_amount_cycles+5)& (0+255),f,b
  8935   002C52  23A6               	addwfc	(_amount_cycles+6)& (0+255),f,b
  8936   002C54  23A7               	addwfc	(_amount_cycles+7)& (0+255),f,b
  8937   002C56                     
  8938                           ; BSR set to: 1
  8939                           ;main.c: 463:         iterations = 0;
  8940   002C56  EE20  F0BA         	lfsr	2,_iterations
  8941   002C5A  0E07               	movlw	7
  8942   002C5C                     u4441:
  8943   002C5C  6ADE               	clrf	postinc2,c
  8944   002C5E  06E8               	decf	wreg,f,c
  8945   002C60  E2FD               	bc	u4441
  8946   002C62                     
  8947                           ; BSR set to: 1
  8948                           ;main.c: 466:         for (i = 0;i < 2;i++){
  8949   002C62  0E00               	movlw	0
  8950   002C64  6E43               	movwf	(buttons_loop@i+1)^0,c
  8951   002C66  0E00               	movlw	0
  8952   002C68  6E42               	movwf	buttons_loop@i^0,c
  8953   002C6A                     l2917:
  8954                           
  8955                           ;main.c: 467:             if (b_state[i] == 0){
  8956   002C6A  5042               	movf	buttons_loop@i^0,w,c
  8957   002C6C  0FE8               	addlw	low _b_state
  8958   002C6E  6ED9               	movwf	fsr2l,c
  8959   002C70  6ADA               	clrf	fsr2h,c
  8960   002C72  50DF               	movf	indf2,w,c
  8961   002C74  A4D8               	btfss	status,2,c
  8962   002C76  EF3F  F016         	goto	u4451
  8963   002C7A  EF41  F016         	goto	u4450
  8964   002C7E                     u4451:
  8965   002C7E  EF9E  F016         	goto	l2931
  8966   002C82                     u4450:
  8967   002C82                     
  8968                           ;main.c: 468:                 if (b[i]){
  8969   002C82  5042               	movf	buttons_loop@i^0,w,c
  8970   002C84  0FD9               	addlw	low _b
  8971   002C86  6ED9               	movwf	fsr2l,c
  8972   002C88  6ADA               	clrf	fsr2h,c
  8973   002C8A  50DF               	movf	indf2,w,c
  8974   002C8C  B4D8               	btfsc	status,2,c
  8975   002C8E  EF4B  F016         	goto	u4461
  8976   002C92  EF4D  F016         	goto	u4460
  8977   002C96                     u4461:
  8978   002C96  EF96  F016         	goto	l2927
  8979   002C9A                     u4460:
  8980   002C9A                     
  8981                           ;main.c: 469:                     b_counter[i] ++;
  8982   002C9A  5042               	movf	buttons_loop@i^0,w,c
  8983   002C9C  0D08               	mullw	8
  8984   002C9E  50F3               	movf	243,w,c
  8985   002CA0  0F60               	addlw	low _b_counter
  8986   002CA2  6ED9               	movwf	fsr2l,c
  8987   002CA4  6ADA               	clrf	fsr2h,c
  8988   002CA6  2ADE               	incf	postinc2,f,c
  8989   002CA8  0E00               	movlw	0
  8990   002CAA  22DE               	addwfc	postinc2,f,c
  8991   002CAC  22DE               	addwfc	postinc2,f,c
  8992   002CAE  22DE               	addwfc	postinc2,f,c
  8993   002CB0  22DE               	addwfc	postinc2,f,c
  8994   002CB2  22DE               	addwfc	postinc2,f,c
  8995   002CB4  22DE               	addwfc	postinc2,f,c
  8996   002CB6  22DE               	addwfc	postinc2,f,c
  8997                           
  8998                           ;main.c: 470:                     if (b_counter[i] >= 2){
  8999   002CB8  5042               	movf	buttons_loop@i^0,w,c
  9000   002CBA  0D08               	mullw	8
  9001   002CBC  50F3               	movf	243,w,c
  9002   002CBE  0F60               	addlw	low _b_counter
  9003   002CC0  6ED9               	movwf	fsr2l,c
  9004   002CC2  6ADA               	clrf	fsr2h,c
  9005   002CC4  0E07               	movlw	7
  9006   002CC6  BEDB               	btfsc	plusw2,7,c
  9007   002CC8  EF82  F016         	goto	u4471
  9008   002CCC  0E07               	movlw	7
  9009   002CCE  50DB               	movf	plusw2,w,c
  9010   002CD0  E11B               	bnz	u4470
  9011   002CD2  0E06               	movlw	6
  9012   002CD4  50DB               	movf	plusw2,w,c
  9013   002CD6  E118               	bnz	u4470
  9014   002CD8  0E05               	movlw	5
  9015   002CDA  50DB               	movf	plusw2,w,c
  9016   002CDC  E115               	bnz	u4470
  9017   002CDE  0E04               	movlw	4
  9018   002CE0  50DB               	movf	plusw2,w,c
  9019   002CE2  E112               	bnz	u4470
  9020   002CE4  0E03               	movlw	3
  9021   002CE6  50DB               	movf	plusw2,w,c
  9022   002CE8  E10F               	bnz	u4470
  9023   002CEA  0E02               	movlw	2
  9024   002CEC  50DB               	movf	plusw2,w,c
  9025   002CEE  E10C               	bnz	u4470
  9026   002CF0  0E01               	movlw	1
  9027   002CF2  50DB               	movf	plusw2,w,c
  9028   002CF4  E109               	bnz	u4470
  9029   002CF6  0E02               	movlw	2
  9030   002CF8  5CDE               	subwf	postinc2,w,c
  9031   002CFA  A0D8               	btfss	status,0,c
  9032   002CFC  EF82  F016         	goto	u4471
  9033   002D00  EF84  F016         	goto	u4470
  9034   002D04                     u4471:
  9035   002D04  EFFB  F016         	goto	l2945
  9036   002D08                     u4470:
  9037   002D08                     
  9038                           ;main.c: 471:                         b_state[i] = 1;
  9039   002D08  5042               	movf	buttons_loop@i^0,w,c
  9040   002D0A  0FE8               	addlw	low _b_state
  9041   002D0C  6ED9               	movwf	fsr2l,c
  9042   002D0E  6ADA               	clrf	fsr2h,c
  9043   002D10  0E01               	movlw	1
  9044   002D12  6EDF               	movwf	indf2,c
  9045   002D14                     l2925:
  9046                           
  9047                           ;main.c: 472:                         b_counter[i] = 0;
  9048   002D14  5042               	movf	buttons_loop@i^0,w,c
  9049   002D16  0D08               	mullw	8
  9050   002D18  50F3               	movf	243,w,c
  9051   002D1A  0F60               	addlw	low _b_counter
  9052   002D1C  6ED9               	movwf	fsr2l,c
  9053   002D1E  6ADA               	clrf	fsr2h,c
  9054   002D20  0E07               	movlw	7
  9055   002D22                     u4481:
  9056   002D22  6ADE               	clrf	postinc2,c
  9057   002D24  06E8               	decf	wreg,f,c
  9058   002D26  E2FD               	bc	u4481
  9059   002D28  EFFB  F016         	goto	l2945
  9060   002D2C                     l2927:
  9061                           
  9062                           ;main.c: 475:                     b[i] = 1;
  9063   002D2C  5042               	movf	buttons_loop@i^0,w,c
  9064   002D2E  0FD9               	addlw	low _b
  9065   002D30  6ED9               	movwf	fsr2l,c
  9066   002D32  6ADA               	clrf	fsr2h,c
  9067   002D34  0E01               	movlw	1
  9068   002D36  6EDF               	movwf	indf2,c
  9069   002D38  EF8A  F016         	goto	l2925
  9070   002D3C                     l2931:
  9071   002D3C  5042               	movf	buttons_loop@i^0,w,c
  9072   002D3E  0FE8               	addlw	low _b_state
  9073   002D40  6ED9               	movwf	fsr2l,c
  9074   002D42  6ADA               	clrf	fsr2h,c
  9075   002D44  04DE               	decf	postinc2,w,c
  9076   002D46  A4D8               	btfss	status,2,c
  9077   002D48  EFA8  F016         	goto	u4491
  9078   002D4C  EFAA  F016         	goto	u4490
  9079   002D50                     u4491:
  9080   002D50  EFFB  F016         	goto	l2945
  9081   002D54                     u4490:
  9082   002D54                     
  9083                           ;main.c: 479:                 if (!b[i]){
  9084   002D54  5042               	movf	buttons_loop@i^0,w,c
  9085   002D56  0FD9               	addlw	low _b
  9086   002D58  6ED9               	movwf	fsr2l,c
  9087   002D5A  6ADA               	clrf	fsr2h,c
  9088   002D5C  50DF               	movf	indf2,w,c
  9089   002D5E  A4D8               	btfss	status,2,c
  9090   002D60  EFB4  F016         	goto	u4501
  9091   002D64  EFB6  F016         	goto	u4500
  9092   002D68                     u4501:
  9093   002D68  EFF4  F016         	goto	l2941
  9094   002D6C                     u4500:
  9095   002D6C                     
  9096                           ;main.c: 480:                     b_counter[i] ++;
  9097   002D6C  5042               	movf	buttons_loop@i^0,w,c
  9098   002D6E  0D08               	mullw	8
  9099   002D70  50F3               	movf	243,w,c
  9100   002D72  0F60               	addlw	low _b_counter
  9101   002D74  6ED9               	movwf	fsr2l,c
  9102   002D76  6ADA               	clrf	fsr2h,c
  9103   002D78  2ADE               	incf	postinc2,f,c
  9104   002D7A  0E00               	movlw	0
  9105   002D7C  22DE               	addwfc	postinc2,f,c
  9106   002D7E  22DE               	addwfc	postinc2,f,c
  9107   002D80  22DE               	addwfc	postinc2,f,c
  9108   002D82  22DE               	addwfc	postinc2,f,c
  9109   002D84  22DE               	addwfc	postinc2,f,c
  9110   002D86  22DE               	addwfc	postinc2,f,c
  9111   002D88  22DE               	addwfc	postinc2,f,c
  9112                           
  9113                           ;main.c: 481:                     if (b_counter[i] >= 2){
  9114   002D8A  5042               	movf	buttons_loop@i^0,w,c
  9115   002D8C  0D08               	mullw	8
  9116   002D8E  50F3               	movf	243,w,c
  9117   002D90  0F60               	addlw	low _b_counter
  9118   002D92  6ED9               	movwf	fsr2l,c
  9119   002D94  6ADA               	clrf	fsr2h,c
  9120   002D96  0E07               	movlw	7
  9121   002D98  BEDB               	btfsc	plusw2,7,c
  9122   002D9A  EFEB  F016         	goto	u4511
  9123   002D9E  0E07               	movlw	7
  9124   002DA0  50DB               	movf	plusw2,w,c
  9125   002DA2  E11B               	bnz	u4510
  9126   002DA4  0E06               	movlw	6
  9127   002DA6  50DB               	movf	plusw2,w,c
  9128   002DA8  E118               	bnz	u4510
  9129   002DAA  0E05               	movlw	5
  9130   002DAC  50DB               	movf	plusw2,w,c
  9131   002DAE  E115               	bnz	u4510
  9132   002DB0  0E04               	movlw	4
  9133   002DB2  50DB               	movf	plusw2,w,c
  9134   002DB4  E112               	bnz	u4510
  9135   002DB6  0E03               	movlw	3
  9136   002DB8  50DB               	movf	plusw2,w,c
  9137   002DBA  E10F               	bnz	u4510
  9138   002DBC  0E02               	movlw	2
  9139   002DBE  50DB               	movf	plusw2,w,c
  9140   002DC0  E10C               	bnz	u4510
  9141   002DC2  0E01               	movlw	1
  9142   002DC4  50DB               	movf	plusw2,w,c
  9143   002DC6  E109               	bnz	u4510
  9144   002DC8  0E02               	movlw	2
  9145   002DCA  5CDE               	subwf	postinc2,w,c
  9146   002DCC  A0D8               	btfss	status,0,c
  9147   002DCE  EFEB  F016         	goto	u4511
  9148   002DD2  EFED  F016         	goto	u4510
  9149   002DD6                     u4511:
  9150   002DD6  EFFB  F016         	goto	l2945
  9151   002DDA                     u4510:
  9152   002DDA                     
  9153                           ;main.c: 482:                         b_state[i] = 0;
  9154   002DDA  5042               	movf	buttons_loop@i^0,w,c
  9155   002DDC  0FE8               	addlw	low _b_state
  9156   002DDE  6ED9               	movwf	fsr2l,c
  9157   002DE0  6ADA               	clrf	fsr2h,c
  9158   002DE2  6ADF               	clrf	indf2,c
  9159   002DE4  EF8A  F016         	goto	l2925
  9160   002DE8                     l2941:
  9161                           
  9162                           ;main.c: 486:                     b[i] = 0;
  9163   002DE8  5042               	movf	buttons_loop@i^0,w,c
  9164   002DEA  0FD9               	addlw	low _b
  9165   002DEC  6ED9               	movwf	fsr2l,c
  9166   002DEE  6ADA               	clrf	fsr2h,c
  9167   002DF0  6ADF               	clrf	indf2,c
  9168   002DF2  EF8A  F016         	goto	l2925
  9169   002DF6                     l2945:
  9170                           
  9171                           ;main.c: 490:         }
  9172   002DF6  4A42               	infsnz	buttons_loop@i^0,f,c
  9173   002DF8  2A43               	incf	(buttons_loop@i+1)^0,f,c
  9174   002DFA  BE43               	btfsc	(buttons_loop@i+1)^0,7,c
  9175   002DFC  EF09  F017         	goto	u4521
  9176   002E00  5043               	movf	(buttons_loop@i+1)^0,w,c
  9177   002E02  E109               	bnz	u4520
  9178   002E04  0E02               	movlw	2
  9179   002E06  5C42               	subwf	buttons_loop@i^0,w,c
  9180   002E08  A0D8               	btfss	status,0,c
  9181   002E0A  EF09  F017         	goto	u4521
  9182   002E0E  EF0B  F017         	goto	u4520
  9183   002E12                     u4521:
  9184   002E12  EF35  F016         	goto	l2917
  9185   002E16                     u4520:
  9186   002E16                     
  9187                           ;main.c: 493:         char click_evt[5];;main.c: 495:         for (i = 0;i < 2;i++){
  9188   002E16  0E00               	movlw	0
  9189   002E18  6E43               	movwf	(buttons_loop@i+1)^0,c
  9190   002E1A  0E00               	movlw	0
  9191   002E1C  6E42               	movwf	buttons_loop@i^0,c
  9192   002E1E                     l2955:
  9193                           
  9194                           ;main.c: 496:             click_evt[i] = 0;
  9195   002E1E  5042               	movf	buttons_loop@i^0,w,c
  9196   002E20  0F3B               	addlw	low buttons_loop@click_evt
  9197   002E22  6ED9               	movwf	fsr2l,c
  9198   002E24  6ADA               	clrf	fsr2h,c
  9199   002E26  6ADF               	clrf	indf2,c
  9200                           
  9201                           ;main.c: 498:             if (last_b[i] == 0 && b_state[i] == 1){
  9202   002E28  5042               	movf	buttons_loop@i^0,w,c
  9203   002E2A  0FED               	addlw	low _last_b
  9204   002E2C  6ED9               	movwf	fsr2l,c
  9205   002E2E  6ADA               	clrf	fsr2h,c
  9206   002E30  50DF               	movf	indf2,w,c
  9207   002E32  A4D8               	btfss	status,2,c
  9208   002E34  EF1E  F017         	goto	u4531
  9209   002E38  EF20  F017         	goto	u4530
  9210   002E3C                     u4531:
  9211   002E3C  EF3F  F017         	goto	l2961
  9212   002E40                     u4530:
  9213   002E40  5042               	movf	buttons_loop@i^0,w,c
  9214   002E42  0FE8               	addlw	low _b_state
  9215   002E44  6ED9               	movwf	fsr2l,c
  9216   002E46  6ADA               	clrf	fsr2h,c
  9217   002E48  04DE               	decf	postinc2,w,c
  9218   002E4A  A4D8               	btfss	status,2,c
  9219   002E4C  EF2A  F017         	goto	u4541
  9220   002E50  EF2C  F017         	goto	u4540
  9221   002E54                     u4541:
  9222   002E54  EF3F  F017         	goto	l2961
  9223   002E58                     u4540:
  9224   002E58                     
  9225                           ;main.c: 500:                 press_evt[i] ++;
  9226   002E58  5042               	movf	buttons_loop@i^0,w,c
  9227   002E5A  0FE3               	addlw	low _press_evt
  9228   002E5C  6ED9               	movwf	fsr2l,c
  9229   002E5E  6ADA               	clrf	fsr2h,c
  9230   002E60  2ADF               	incf	indf2,f,c
  9231                           
  9232                           ;main.c: 501:                 click_evt[i] = 1;
  9233   002E62  5042               	movf	buttons_loop@i^0,w,c
  9234   002E64  0F3B               	addlw	low buttons_loop@click_evt
  9235   002E66  6ED9               	movwf	fsr2l,c
  9236   002E68  6ADA               	clrf	fsr2h,c
  9237   002E6A  0E01               	movlw	1
  9238   002E6C  6EDF               	movwf	indf2,c
  9239                           
  9240                           ;main.c: 503:                 last_b[i] = 1;
  9241   002E6E  5042               	movf	buttons_loop@i^0,w,c
  9242   002E70  0FED               	addlw	low _last_b
  9243   002E72  6ED9               	movwf	fsr2l,c
  9244   002E74  6ADA               	clrf	fsr2h,c
  9245   002E76  0E01               	movlw	1
  9246   002E78  6EDF               	movwf	indf2,c
  9247                           
  9248                           ;main.c: 504:             }else if (last_b[i] == 1 && b_state[i] == 0){
  9249   002E7A  EF61  F017         	goto	l2967
  9250   002E7E                     l2961:
  9251   002E7E  5042               	movf	buttons_loop@i^0,w,c
  9252   002E80  0FED               	addlw	low _last_b
  9253   002E82  6ED9               	movwf	fsr2l,c
  9254   002E84  6ADA               	clrf	fsr2h,c
  9255   002E86  04DE               	decf	postinc2,w,c
  9256   002E88  A4D8               	btfss	status,2,c
  9257   002E8A  EF49  F017         	goto	u4551
  9258   002E8E  EF4B  F017         	goto	u4550
  9259   002E92                     u4551:
  9260   002E92  EF61  F017         	goto	l2967
  9261   002E96                     u4550:
  9262   002E96  5042               	movf	buttons_loop@i^0,w,c
  9263   002E98  0FE8               	addlw	low _b_state
  9264   002E9A  6ED9               	movwf	fsr2l,c
  9265   002E9C  6ADA               	clrf	fsr2h,c
  9266   002E9E  50DF               	movf	indf2,w,c
  9267   002EA0  A4D8               	btfss	status,2,c
  9268   002EA2  EF55  F017         	goto	u4561
  9269   002EA6  EF57  F017         	goto	u4560
  9270   002EAA                     u4561:
  9271   002EAA  EF61  F017         	goto	l2967
  9272   002EAE                     u4560:
  9273   002EAE                     
  9274                           ;main.c: 506:                 release_evt[i] ++;
  9275   002EAE  5042               	movf	buttons_loop@i^0,w,c
  9276   002EB0  0FDE               	addlw	low _release_evt
  9277   002EB2  6ED9               	movwf	fsr2l,c
  9278   002EB4  6ADA               	clrf	fsr2h,c
  9279   002EB6  2ADF               	incf	indf2,f,c
  9280                           
  9281                           ;main.c: 508:                 last_b[i] = 0;
  9282   002EB8  5042               	movf	buttons_loop@i^0,w,c
  9283   002EBA  0FED               	addlw	low _last_b
  9284   002EBC  6ED9               	movwf	fsr2l,c
  9285   002EBE  6ADA               	clrf	fsr2h,c
  9286   002EC0  6ADF               	clrf	indf2,c
  9287   002EC2                     l2967:
  9288                           
  9289                           ;main.c: 510:         }
  9290   002EC2  4A42               	infsnz	buttons_loop@i^0,f,c
  9291   002EC4  2A43               	incf	(buttons_loop@i+1)^0,f,c
  9292   002EC6  BE43               	btfsc	(buttons_loop@i+1)^0,7,c
  9293   002EC8  EF6F  F017         	goto	u4571
  9294   002ECC  5043               	movf	(buttons_loop@i+1)^0,w,c
  9295   002ECE  E109               	bnz	u4570
  9296   002ED0  0E02               	movlw	2
  9297   002ED2  5C42               	subwf	buttons_loop@i^0,w,c
  9298   002ED4  A0D8               	btfss	status,0,c
  9299   002ED6  EF6F  F017         	goto	u4571
  9300   002EDA  EF71  F017         	goto	u4570
  9301   002EDE                     u4571:
  9302   002EDE  EF0F  F017         	goto	l2955
  9303   002EE2                     u4570:
  9304   002EE2                     
  9305                           ;main.c: 513:         int i;;main.c: 515:         for (i = 0;i < 2;i++){
  9306   002EE2  0E00               	movlw	0
  9307   002EE4  6E41               	movwf	(buttons_loop@i_1320+1)^0,c
  9308   002EE6  0E00               	movlw	0
  9309   002EE8  6E40               	movwf	buttons_loop@i_1320^0,c
  9310   002EEA                     l2977:
  9311                           
  9312                           ;main.c: 516:             if (combination_state[i] == 0){
  9313   002EEA  5040               	movf	buttons_loop@i_1320^0,w,c
  9314   002EEC  0D02               	mullw	2
  9315   002EEE  50F3               	movf	243,w,c
  9316   002EF0  0FB0               	addlw	low _combination_state
  9317   002EF2  6ED9               	movwf	fsr2l,c
  9318   002EF4  6ADA               	clrf	fsr2h,c
  9319   002EF6  50DE               	movf	postinc2,w,c
  9320   002EF8  10DE               	iorwf	postinc2,w,c
  9321   002EFA  A4D8               	btfss	status,2,c
  9322   002EFC  EF82  F017         	goto	u4581
  9323   002F00  EF84  F017         	goto	u4580
  9324   002F04                     u4581:
  9325   002F04  EFB3  F017         	goto	l2985
  9326   002F08                     u4580:
  9327   002F08                     
  9328                           ;main.c: 518:                 if (click_evt[i]){
  9329   002F08  5040               	movf	buttons_loop@i_1320^0,w,c
  9330   002F0A  0F3B               	addlw	low buttons_loop@click_evt
  9331   002F0C  6ED9               	movwf	fsr2l,c
  9332   002F0E  6ADA               	clrf	fsr2h,c
  9333   002F10  50DF               	movf	indf2,w,c
  9334   002F12  B4D8               	btfsc	status,2,c
  9335   002F14  EF8E  F017         	goto	u4591
  9336   002F18  EF90  F017         	goto	u4590
  9337   002F1C                     u4591:
  9338   002F1C  EF03  F019         	goto	l3021
  9339   002F20                     u4590:
  9340   002F20                     
  9341                           ;main.c: 519:                     state_counter[i] = 0;
  9342   002F20  C040  F031         	movff	buttons_loop@i_1320,??_buttons_loop
  9343   002F24  C041  F032         	movff	buttons_loop@i_1320+1,??_buttons_loop+1
  9344   002F28  90D8               	bcf	status,0,c
  9345   002F2A  3631               	rlcf	??_buttons_loop^0,f,c
  9346   002F2C  3632               	rlcf	(??_buttons_loop+1)^0,f,c
  9347   002F2E  90D8               	bcf	status,0,c
  9348   002F30  3631               	rlcf	??_buttons_loop^0,f,c
  9349   002F32  3632               	rlcf	(??_buttons_loop+1)^0,f,c
  9350   002F34  90D8               	bcf	status,0,c
  9351   002F36  3631               	rlcf	??_buttons_loop^0,f,c
  9352   002F38  3632               	rlcf	(??_buttons_loop+1)^0,f,c
  9353   002F3A  0E50               	movlw	low _state_counter
  9354   002F3C  2431               	addwf	??_buttons_loop^0,w,c
  9355   002F3E  6ED9               	movwf	fsr2l,c
  9356   002F40  0E01               	movlw	high _state_counter
  9357   002F42  2032               	addwfc	(??_buttons_loop+1)^0,w,c
  9358   002F44  6EDA               	movwf	fsr2h,c
  9359   002F46  0E07               	movlw	7
  9360   002F48                     u4601:
  9361   002F48  6ADE               	clrf	postinc2,c
  9362   002F4A  06E8               	decf	wreg,f,c
  9363   002F4C  E2FD               	bc	u4601
  9364   002F4E                     
  9365                           ;main.c: 520:                     combination_state[i] = 1;
  9366   002F4E  5040               	movf	buttons_loop@i_1320^0,w,c
  9367   002F50  0D02               	mullw	2
  9368   002F52  50F3               	movf	243,w,c
  9369   002F54  0FB0               	addlw	low _combination_state
  9370   002F56  6ED9               	movwf	fsr2l,c
  9371   002F58  6ADA               	clrf	fsr2h,c
  9372   002F5A  0E01               	movlw	1
  9373   002F5C  6EDE               	movwf	postinc2,c
  9374   002F5E  0E00               	movlw	0
  9375   002F60  6EDD               	movwf	postdec2,c
  9376   002F62  EF03  F019         	goto	l3021
  9377   002F66                     l2985:
  9378   002F66  5040               	movf	buttons_loop@i_1320^0,w,c
  9379   002F68  0D02               	mullw	2
  9380   002F6A  50F3               	movf	243,w,c
  9381   002F6C  0FB0               	addlw	low _combination_state
  9382   002F6E  6ED9               	movwf	fsr2l,c
  9383   002F70  6ADA               	clrf	fsr2h,c
  9384   002F72  28DE               	incf	postinc2,w,c
  9385   002F74  E108               	bnz	u4610
  9386   002F76  28DE               	incf	postinc2,w,c
  9387   002F78  B4D8               	btfsc	status,2,c
  9388   002F7A  EFC1  F017         	goto	u4611
  9389   002F7E  EFC3  F017         	goto	u4610
  9390   002F82                     u4611:
  9391   002F82  EF9F  F018         	goto	l3011
  9392   002F86                     u4610:
  9393   002F86  5040               	movf	buttons_loop@i_1320^0,w,c
  9394   002F88  0D02               	mullw	2
  9395   002F8A  50F3               	movf	243,w,c
  9396   002F8C  0FB0               	addlw	low _combination_state
  9397   002F8E  6ED9               	movwf	fsr2l,c
  9398   002F90  6ADA               	clrf	fsr2h,c
  9399   002F92  50DE               	movf	postinc2,w,c
  9400   002F94  10DE               	iorwf	postinc2,w,c
  9401   002F96  B4D8               	btfsc	status,2,c
  9402   002F98  EFD0  F017         	goto	u4621
  9403   002F9C  EFD2  F017         	goto	u4620
  9404   002FA0                     u4621:
  9405   002FA0  EF9F  F018         	goto	l3011
  9406   002FA4                     u4620:
  9407   002FA4                     
  9408                           ;main.c: 524:                 if (click_evt[i]){
  9409   002FA4  5040               	movf	buttons_loop@i_1320^0,w,c
  9410   002FA6  0F3B               	addlw	low buttons_loop@click_evt
  9411   002FA8  6ED9               	movwf	fsr2l,c
  9412   002FAA  6ADA               	clrf	fsr2h,c
  9413   002FAC  50DF               	movf	indf2,w,c
  9414   002FAE  B4D8               	btfsc	status,2,c
  9415   002FB0  EFDC  F017         	goto	u4631
  9416   002FB4  EFDE  F017         	goto	u4630
  9417   002FB8                     u4631:
  9418   002FB8  EFE7  F017         	goto	l2993
  9419   002FBC                     u4630:
  9420   002FBC                     
  9421                           ;main.c: 525:                     combination_state[i] ++;
  9422   002FBC  5040               	movf	buttons_loop@i_1320^0,w,c
  9423   002FBE  0D02               	mullw	2
  9424   002FC0  50F3               	movf	243,w,c
  9425   002FC2  0FB0               	addlw	low _combination_state
  9426   002FC4  6ED9               	movwf	fsr2l,c
  9427   002FC6  6ADA               	clrf	fsr2h,c
  9428   002FC8  2ADE               	incf	postinc2,f,c
  9429   002FCA  0E00               	movlw	0
  9430   002FCC  22DD               	addwfc	postdec2,f,c
  9431   002FCE                     l2993:
  9432                           
  9433                           ;main.c: 527:                 if (state_counter[i] >= 30){
  9434   002FCE  C040  F031         	movff	buttons_loop@i_1320,??_buttons_loop
  9435   002FD2  C041  F032         	movff	buttons_loop@i_1320+1,??_buttons_loop+1
  9436   002FD6  90D8               	bcf	status,0,c
  9437   002FD8  3631               	rlcf	??_buttons_loop^0,f,c
  9438   002FDA  3632               	rlcf	(??_buttons_loop+1)^0,f,c
  9439   002FDC  90D8               	bcf	status,0,c
  9440   002FDE  3631               	rlcf	??_buttons_loop^0,f,c
  9441   002FE0  3632               	rlcf	(??_buttons_loop+1)^0,f,c
  9442   002FE2  90D8               	bcf	status,0,c
  9443   002FE4  3631               	rlcf	??_buttons_loop^0,f,c
  9444   002FE6  3632               	rlcf	(??_buttons_loop+1)^0,f,c
  9445   002FE8  0E50               	movlw	low _state_counter
  9446   002FEA  2431               	addwf	??_buttons_loop^0,w,c
  9447   002FEC  6ED9               	movwf	fsr2l,c
  9448   002FEE  0E01               	movlw	high _state_counter
  9449   002FF0  2032               	addwfc	(??_buttons_loop+1)^0,w,c
  9450   002FF2  6EDA               	movwf	fsr2h,c
  9451   002FF4  0E07               	movlw	7
  9452   002FF6  BEDB               	btfsc	plusw2,7,c
  9453   002FF8  EF1A  F018         	goto	u4641
  9454   002FFC  0E07               	movlw	7
  9455   002FFE  50DB               	movf	plusw2,w,c
  9456   003000  E11B               	bnz	u4640
  9457   003002  0E06               	movlw	6
  9458   003004  50DB               	movf	plusw2,w,c
  9459   003006  E118               	bnz	u4640
  9460   003008  0E05               	movlw	5
  9461   00300A  50DB               	movf	plusw2,w,c
  9462   00300C  E115               	bnz	u4640
  9463   00300E  0E04               	movlw	4
  9464   003010  50DB               	movf	plusw2,w,c
  9465   003012  E112               	bnz	u4640
  9466   003014  0E03               	movlw	3
  9467   003016  50DB               	movf	plusw2,w,c
  9468   003018  E10F               	bnz	u4640
  9469   00301A  0E02               	movlw	2
  9470   00301C  50DB               	movf	plusw2,w,c
  9471   00301E  E10C               	bnz	u4640
  9472   003020  0E01               	movlw	1
  9473   003022  50DB               	movf	plusw2,w,c
  9474   003024  E109               	bnz	u4640
  9475   003026  0E1E               	movlw	30
  9476   003028  5CDE               	subwf	postinc2,w,c
  9477   00302A  A0D8               	btfss	status,0,c
  9478   00302C  EF1A  F018         	goto	u4641
  9479   003030  EF1C  F018         	goto	u4640
  9480   003034                     u4641:
  9481   003034  EF81  F018         	goto	l3009
  9482   003038                     u4640:
  9483   003038                     
  9484                           ;main.c: 529:                     if (combination_state[i] == 1){
  9485   003038  5040               	movf	buttons_loop@i_1320^0,w,c
  9486   00303A  0D02               	mullw	2
  9487   00303C  50F3               	movf	243,w,c
  9488   00303E  0FB0               	addlw	low _combination_state
  9489   003040  6ED9               	movwf	fsr2l,c
  9490   003042  6ADA               	clrf	fsr2h,c
  9491   003044  04DE               	decf	postinc2,w,c
  9492   003046  10DE               	iorwf	postinc2,w,c
  9493   003048  A4D8               	btfss	status,2,c
  9494   00304A  EF29  F018         	goto	u4651
  9495   00304E  EF2B  F018         	goto	u4650
  9496   003052                     u4651:
  9497   003052  EF32  F018         	goto	l2999
  9498   003056                     u4650:
  9499   003056                     
  9500                           ;main.c: 530:                         single_click_evt[i] ++;
  9501   003056  5040               	movf	buttons_loop@i_1320^0,w,c
  9502   003058  0FD4               	addlw	low _single_click_evt
  9503   00305A  6ED9               	movwf	fsr2l,c
  9504   00305C  6ADA               	clrf	fsr2h,c
  9505   00305E  2ADF               	incf	indf2,f,c
  9506                           
  9507                           ;main.c: 531:                     }else if (combination_state[i] == 2){
  9508   003060  EF5E  F018         	goto	l257
  9509   003064                     l2999:
  9510   003064  5040               	movf	buttons_loop@i_1320^0,w,c
  9511   003066  0D02               	mullw	2
  9512   003068  50F3               	movf	243,w,c
  9513   00306A  0FB0               	addlw	low _combination_state
  9514   00306C  6ED9               	movwf	fsr2l,c
  9515   00306E  6ADA               	clrf	fsr2h,c
  9516   003070  0E02               	movlw	2
  9517   003072  18DE               	xorwf	postinc2,w,c
  9518   003074  10DE               	iorwf	postinc2,w,c
  9519   003076  A4D8               	btfss	status,2,c
  9520   003078  EF40  F018         	goto	u4661
  9521   00307C  EF42  F018         	goto	u4660
  9522   003080                     u4661:
  9523   003080  EF49  F018         	goto	l3003
  9524   003084                     u4660:
  9525   003084                     
  9526                           ;main.c: 532:                         double_click_evt[i] ++;
  9527   003084  5040               	movf	buttons_loop@i_1320^0,w,c
  9528   003086  0FCF               	addlw	low _double_click_evt
  9529   003088  6ED9               	movwf	fsr2l,c
  9530   00308A  6ADA               	clrf	fsr2h,c
  9531   00308C  2ADF               	incf	indf2,f,c
  9532                           
  9533                           ;main.c: 533:                     }else if(combination_state[i] == 3){
  9534   00308E  EF5E  F018         	goto	l257
  9535   003092                     l3003:
  9536   003092  5040               	movf	buttons_loop@i_1320^0,w,c
  9537   003094  0D02               	mullw	2
  9538   003096  50F3               	movf	243,w,c
  9539   003098  0FB0               	addlw	low _combination_state
  9540   00309A  6ED9               	movwf	fsr2l,c
  9541   00309C  6ADA               	clrf	fsr2h,c
  9542   00309E  0E03               	movlw	3
  9543   0030A0  18DE               	xorwf	postinc2,w,c
  9544   0030A2  10DE               	iorwf	postinc2,w,c
  9545   0030A4  A4D8               	btfss	status,2,c
  9546   0030A6  EF57  F018         	goto	u4671
  9547   0030AA  EF59  F018         	goto	u4670
  9548   0030AE                     u4671:
  9549   0030AE  EF5E  F018         	goto	l257
  9550   0030B2                     u4670:
  9551   0030B2                     
  9552                           ;main.c: 534:                         triple_click_evt[i] ++;
  9553   0030B2  5040               	movf	buttons_loop@i_1320^0,w,c
  9554   0030B4  0FCA               	addlw	low _triple_click_evt
  9555   0030B6  6ED9               	movwf	fsr2l,c
  9556   0030B8  6ADA               	clrf	fsr2h,c
  9557   0030BA  2ADF               	incf	indf2,f,c
  9558   0030BC                     l257:
  9559                           
  9560                           ;main.c: 536:                     state_counter[i] = 0;
  9561   0030BC  C040  F031         	movff	buttons_loop@i_1320,??_buttons_loop
  9562   0030C0  C041  F032         	movff	buttons_loop@i_1320+1,??_buttons_loop+1
  9563   0030C4  90D8               	bcf	status,0,c
  9564   0030C6  3631               	rlcf	??_buttons_loop^0,f,c
  9565   0030C8  3632               	rlcf	(??_buttons_loop+1)^0,f,c
  9566   0030CA  90D8               	bcf	status,0,c
  9567   0030CC  3631               	rlcf	??_buttons_loop^0,f,c
  9568   0030CE  3632               	rlcf	(??_buttons_loop+1)^0,f,c
  9569   0030D0  90D8               	bcf	status,0,c
  9570   0030D2  3631               	rlcf	??_buttons_loop^0,f,c
  9571   0030D4  3632               	rlcf	(??_buttons_loop+1)^0,f,c
  9572   0030D6  0E50               	movlw	low _state_counter
  9573   0030D8  2431               	addwf	??_buttons_loop^0,w,c
  9574   0030DA  6ED9               	movwf	fsr2l,c
  9575   0030DC  0E01               	movlw	high _state_counter
  9576   0030DE  2032               	addwfc	(??_buttons_loop+1)^0,w,c
  9577   0030E0  6EDA               	movwf	fsr2h,c
  9578   0030E2  0E07               	movlw	7
  9579   0030E4                     u4681:
  9580   0030E4  6ADE               	clrf	postinc2,c
  9581   0030E6  06E8               	decf	wreg,f,c
  9582   0030E8  E2FD               	bc	u4681
  9583   0030EA                     
  9584                           ;main.c: 537:                     combination_state[i] = -1;
  9585   0030EA  5040               	movf	buttons_loop@i_1320^0,w,c
  9586   0030EC  0D02               	mullw	2
  9587   0030EE  50F3               	movf	243,w,c
  9588   0030F0  0FB0               	addlw	low _combination_state
  9589   0030F2  6ED9               	movwf	fsr2l,c
  9590   0030F4  6ADA               	clrf	fsr2h,c
  9591   0030F6  0EFF               	movlw	255
  9592   0030F8  6EDE               	movwf	postinc2,c
  9593   0030FA  0EFF               	movlw	255
  9594   0030FC  6EDD               	movwf	postdec2,c
  9595                           
  9596                           ;main.c: 538:                 }else{
  9597   0030FE  EF03  F019         	goto	l3021
  9598   003102                     l3009:
  9599                           
  9600                           ;main.c: 539:                     state_counter[i] ++;
  9601   003102  C040  F031         	movff	buttons_loop@i_1320,??_buttons_loop
  9602   003106  C041  F032         	movff	buttons_loop@i_1320+1,??_buttons_loop+1
  9603   00310A  90D8               	bcf	status,0,c
  9604   00310C  3631               	rlcf	??_buttons_loop^0,f,c
  9605   00310E  3632               	rlcf	(??_buttons_loop+1)^0,f,c
  9606   003110  90D8               	bcf	status,0,c
  9607   003112  3631               	rlcf	??_buttons_loop^0,f,c
  9608   003114  3632               	rlcf	(??_buttons_loop+1)^0,f,c
  9609   003116  90D8               	bcf	status,0,c
  9610   003118  3631               	rlcf	??_buttons_loop^0,f,c
  9611   00311A  3632               	rlcf	(??_buttons_loop+1)^0,f,c
  9612   00311C  0E50               	movlw	low _state_counter
  9613   00311E  2431               	addwf	??_buttons_loop^0,w,c
  9614   003120  6ED9               	movwf	fsr2l,c
  9615   003122  0E01               	movlw	high _state_counter
  9616   003124  2032               	addwfc	(??_buttons_loop+1)^0,w,c
  9617   003126  6EDA               	movwf	fsr2h,c
  9618   003128  2ADE               	incf	postinc2,f,c
  9619   00312A  0E00               	movlw	0
  9620   00312C  22DE               	addwfc	postinc2,f,c
  9621   00312E  22DE               	addwfc	postinc2,f,c
  9622   003130  22DE               	addwfc	postinc2,f,c
  9623   003132  22DE               	addwfc	postinc2,f,c
  9624   003134  22DE               	addwfc	postinc2,f,c
  9625   003136  22DE               	addwfc	postinc2,f,c
  9626   003138  22DE               	addwfc	postinc2,f,c
  9627   00313A  EF03  F019         	goto	l3021
  9628   00313E                     l3011:
  9629   00313E  5040               	movf	buttons_loop@i_1320^0,w,c
  9630   003140  0D02               	mullw	2
  9631   003142  50F3               	movf	243,w,c
  9632   003144  0FB0               	addlw	low _combination_state
  9633   003146  6ED9               	movwf	fsr2l,c
  9634   003148  6ADA               	clrf	fsr2h,c
  9635   00314A  28DE               	incf	postinc2,w,c
  9636   00314C  E106               	bnz	u4691
  9637   00314E  28DE               	incf	postinc2,w,c
  9638   003150  A4D8               	btfss	status,2,c
  9639   003152  EFAD  F018         	goto	u4691
  9640   003156  EFAF  F018         	goto	u4690
  9641   00315A                     u4691:
  9642   00315A  EF03  F019         	goto	l3021
  9643   00315E                     u4690:
  9644   00315E                     
  9645                           ;main.c: 542:                 if (state_counter[i] >= 10){
  9646   00315E  C040  F031         	movff	buttons_loop@i_1320,??_buttons_loop
  9647   003162  C041  F032         	movff	buttons_loop@i_1320+1,??_buttons_loop+1
  9648   003166  90D8               	bcf	status,0,c
  9649   003168  3631               	rlcf	??_buttons_loop^0,f,c
  9650   00316A  3632               	rlcf	(??_buttons_loop+1)^0,f,c
  9651   00316C  90D8               	bcf	status,0,c
  9652   00316E  3631               	rlcf	??_buttons_loop^0,f,c
  9653   003170  3632               	rlcf	(??_buttons_loop+1)^0,f,c
  9654   003172  90D8               	bcf	status,0,c
  9655   003174  3631               	rlcf	??_buttons_loop^0,f,c
  9656   003176  3632               	rlcf	(??_buttons_loop+1)^0,f,c
  9657   003178  0E50               	movlw	low _state_counter
  9658   00317A  2431               	addwf	??_buttons_loop^0,w,c
  9659   00317C  6ED9               	movwf	fsr2l,c
  9660   00317E  0E01               	movlw	high _state_counter
  9661   003180  2032               	addwfc	(??_buttons_loop+1)^0,w,c
  9662   003182  6EDA               	movwf	fsr2h,c
  9663   003184  0E07               	movlw	7
  9664   003186  BEDB               	btfsc	plusw2,7,c
  9665   003188  EFE2  F018         	goto	u4701
  9666   00318C  0E07               	movlw	7
  9667   00318E  50DB               	movf	plusw2,w,c
  9668   003190  E11B               	bnz	u4700
  9669   003192  0E06               	movlw	6
  9670   003194  50DB               	movf	plusw2,w,c
  9671   003196  E118               	bnz	u4700
  9672   003198  0E05               	movlw	5
  9673   00319A  50DB               	movf	plusw2,w,c
  9674   00319C  E115               	bnz	u4700
  9675   00319E  0E04               	movlw	4
  9676   0031A0  50DB               	movf	plusw2,w,c
  9677   0031A2  E112               	bnz	u4700
  9678   0031A4  0E03               	movlw	3
  9679   0031A6  50DB               	movf	plusw2,w,c
  9680   0031A8  E10F               	bnz	u4700
  9681   0031AA  0E02               	movlw	2
  9682   0031AC  50DB               	movf	plusw2,w,c
  9683   0031AE  E10C               	bnz	u4700
  9684   0031B0  0E01               	movlw	1
  9685   0031B2  50DB               	movf	plusw2,w,c
  9686   0031B4  E109               	bnz	u4700
  9687   0031B6  0E0A               	movlw	10
  9688   0031B8  5CDE               	subwf	postinc2,w,c
  9689   0031BA  A0D8               	btfss	status,0,c
  9690   0031BC  EFE2  F018         	goto	u4701
  9691   0031C0  EFE4  F018         	goto	u4700
  9692   0031C4                     u4701:
  9693   0031C4  EF81  F018         	goto	l3009
  9694   0031C8                     u4700:
  9695   0031C8                     
  9696                           ;main.c: 544:                     combination_state[i] = 0;
  9697   0031C8  5040               	movf	buttons_loop@i_1320^0,w,c
  9698   0031CA  0D02               	mullw	2
  9699   0031CC  50F3               	movf	243,w,c
  9700   0031CE  0FB0               	addlw	low _combination_state
  9701   0031D0  6ED9               	movwf	fsr2l,c
  9702   0031D2  6ADA               	clrf	fsr2h,c
  9703   0031D4  6ADE               	clrf	postinc2,c
  9704   0031D6  6ADD               	clrf	postdec2,c
  9705   0031D8                     
  9706                           ;main.c: 545:                     state_counter[i] = 0;
  9707   0031D8  C040  F031         	movff	buttons_loop@i_1320,??_buttons_loop
  9708   0031DC  C041  F032         	movff	buttons_loop@i_1320+1,??_buttons_loop+1
  9709   0031E0  90D8               	bcf	status,0,c
  9710   0031E2  3631               	rlcf	??_buttons_loop^0,f,c
  9711   0031E4  3632               	rlcf	(??_buttons_loop+1)^0,f,c
  9712   0031E6  90D8               	bcf	status,0,c
  9713   0031E8  3631               	rlcf	??_buttons_loop^0,f,c
  9714   0031EA  3632               	rlcf	(??_buttons_loop+1)^0,f,c
  9715   0031EC  90D8               	bcf	status,0,c
  9716   0031EE  3631               	rlcf	??_buttons_loop^0,f,c
  9717   0031F0  3632               	rlcf	(??_buttons_loop+1)^0,f,c
  9718   0031F2  0E50               	movlw	low _state_counter
  9719   0031F4  2431               	addwf	??_buttons_loop^0,w,c
  9720   0031F6  6ED9               	movwf	fsr2l,c
  9721   0031F8  0E01               	movlw	high _state_counter
  9722   0031FA  2032               	addwfc	(??_buttons_loop+1)^0,w,c
  9723   0031FC  6EDA               	movwf	fsr2h,c
  9724   0031FE  0E07               	movlw	7
  9725   003200                     u4711:
  9726   003200  6ADE               	clrf	postinc2,c
  9727   003202  06E8               	decf	wreg,f,c
  9728   003204  E2FD               	bc	u4711
  9729   003206                     l3021:
  9730                           
  9731                           ;main.c: 550:         }
  9732   003206  4A40               	infsnz	buttons_loop@i_1320^0,f,c
  9733   003208  2A41               	incf	(buttons_loop@i_1320+1)^0,f,c
  9734   00320A  BE41               	btfsc	(buttons_loop@i_1320+1)^0,7,c
  9735   00320C  EF11  F019         	goto	u4721
  9736   003210  5041               	movf	(buttons_loop@i_1320+1)^0,w,c
  9737   003212  E109               	bnz	u4720
  9738   003214  0E02               	movlw	2
  9739   003216  5C40               	subwf	buttons_loop@i_1320^0,w,c
  9740   003218  A0D8               	btfss	status,0,c
  9741   00321A  EF11  F019         	goto	u4721
  9742   00321E  EF13  F019         	goto	u4720
  9743   003222                     u4721:
  9744   003222  EF75  F017         	goto	l2977
  9745   003226                     u4720:
  9746   003226                     l266:
  9747   003226  0012               	return		;funcret
  9748   003228                     __end_of_buttons_loop:
  9749                           	callstack 0
  9750                           
  9751 ;; *************** function _buttons_init *****************
  9752 ;; Defined at:
  9753 ;;		line 395 in file "main.c"
  9754 ;; Parameters:    Size  Location     Type
  9755 ;;		None
  9756 ;; Auto vars:     Size  Location     Type
  9757 ;;  i               2    8[COMRAM] int 
  9758 ;; Return value:  Size  Location     Type
  9759 ;;                  1    wreg      void 
  9760 ;; Registers used:
  9761 ;;		wreg, fsr2l, fsr2h, status,2, status,0, prodl, prodh
  9762 ;; Tracked objects:
  9763 ;;		On entry : 0/0
  9764 ;;		On exit  : 0/0
  9765 ;;		Unchanged: 0/0
  9766 ;; Data sizes:     COMRAM   BANK0   BANK1   BANK2   BANK3   BANK4   BANK5   BANK6   BANK7
  9767 ;;      Params:         0       0       0       0       0       0       0       0       0
  9768 ;;      Locals:         2       0       0       0       0       0       0       0       0
  9769 ;;      Temps:          2       0       0       0       0       0       0       0       0
  9770 ;;      Totals:         4       0       0       0       0       0       0       0       0
  9771 ;;Total ram usage:        4 bytes
  9772 ;; Hardware stack levels used: 1
  9773 ;; Hardware stack levels required when called: 1
  9774 ;; This function calls:
  9775 ;;		Nothing
  9776 ;; This function is called by:
  9777 ;;		_main
  9778 ;; This function uses a non-reentrant model
  9779 ;;
  9780                           
  9781                           	psect	text29
  9782   0039A6                     __ptext29:
  9783                           	callstack 0
  9784   0039A6                     _buttons_init:
  9785                           	callstack 29
  9786   0039A6                     
  9787                           ;main.c: 396:     int i;;main.c: 397:     for (i = 0;i < 2;i++){
  9788   0039A6  0E00               	movlw	0
  9789   0039A8  6E34               	movwf	(buttons_init@i+1)^0,c
  9790   0039AA  0E00               	movlw	0
  9791   0039AC  6E33               	movwf	buttons_init@i^0,c
  9792   0039AE                     l2825:
  9793                           
  9794                           ;main.c: 398:         b_state[i] = 0;
  9795   0039AE  5033               	movf	buttons_init@i^0,w,c
  9796   0039B0  0FE8               	addlw	low _b_state
  9797   0039B2  6ED9               	movwf	fsr2l,c
  9798   0039B4  6ADA               	clrf	fsr2h,c
  9799   0039B6  6ADF               	clrf	indf2,c
  9800                           
  9801                           ;main.c: 399:         b[i] = 0;
  9802   0039B8  5033               	movf	buttons_init@i^0,w,c
  9803   0039BA  0FD9               	addlw	low _b
  9804   0039BC  6ED9               	movwf	fsr2l,c
  9805   0039BE  6ADA               	clrf	fsr2h,c
  9806   0039C0  6ADF               	clrf	indf2,c
  9807                           
  9808                           ;main.c: 400:         last_b[i] = 0;
  9809   0039C2  5033               	movf	buttons_init@i^0,w,c
  9810   0039C4  0FED               	addlw	low _last_b
  9811   0039C6  6ED9               	movwf	fsr2l,c
  9812   0039C8  6ADA               	clrf	fsr2h,c
  9813   0039CA  6ADF               	clrf	indf2,c
  9814   0039CC                     
  9815                           ;main.c: 402:         b_counter[i] = 0;
  9816   0039CC  5033               	movf	buttons_init@i^0,w,c
  9817   0039CE  0D08               	mullw	8
  9818   0039D0  50F3               	movf	243,w,c
  9819   0039D2  0F60               	addlw	low _b_counter
  9820   0039D4  6ED9               	movwf	fsr2l,c
  9821   0039D6  6ADA               	clrf	fsr2h,c
  9822   0039D8  0E07               	movlw	7
  9823   0039DA                     u4191:
  9824   0039DA  6ADE               	clrf	postinc2,c
  9825   0039DC  06E8               	decf	wreg,f,c
  9826   0039DE  E2FD               	bc	u4191
  9827   0039E0                     
  9828                           ;main.c: 403:         state_counter[i] = 0;
  9829   0039E0  C033  F031         	movff	buttons_init@i,??_buttons_init
  9830   0039E4  C034  F032         	movff	buttons_init@i+1,??_buttons_init+1
  9831   0039E8  90D8               	bcf	status,0,c
  9832   0039EA  3631               	rlcf	??_buttons_init^0,f,c
  9833   0039EC  3632               	rlcf	(??_buttons_init+1)^0,f,c
  9834   0039EE  90D8               	bcf	status,0,c
  9835   0039F0  3631               	rlcf	??_buttons_init^0,f,c
  9836   0039F2  3632               	rlcf	(??_buttons_init+1)^0,f,c
  9837   0039F4  90D8               	bcf	status,0,c
  9838   0039F6  3631               	rlcf	??_buttons_init^0,f,c
  9839   0039F8  3632               	rlcf	(??_buttons_init+1)^0,f,c
  9840   0039FA  0E50               	movlw	low _state_counter
  9841   0039FC  2431               	addwf	??_buttons_init^0,w,c
  9842   0039FE  6ED9               	movwf	fsr2l,c
  9843   003A00  0E01               	movlw	high _state_counter
  9844   003A02  2032               	addwfc	(??_buttons_init+1)^0,w,c
  9845   003A04  6EDA               	movwf	fsr2h,c
  9846   003A06  0E07               	movlw	7
  9847   003A08                     u4201:
  9848   003A08  6ADE               	clrf	postinc2,c
  9849   003A0A  06E8               	decf	wreg,f,c
  9850   003A0C  E2FD               	bc	u4201
  9851                           
  9852                           ;main.c: 404:         combination_state[i] = 0;
  9853   003A0E  5033               	movf	buttons_init@i^0,w,c
  9854   003A10  0D02               	mullw	2
  9855   003A12  50F3               	movf	243,w,c
  9856   003A14  0FB0               	addlw	low _combination_state
  9857   003A16  6ED9               	movwf	fsr2l,c
  9858   003A18  6ADA               	clrf	fsr2h,c
  9859   003A1A  6ADE               	clrf	postinc2,c
  9860   003A1C  6ADD               	clrf	postdec2,c
  9861   003A1E                     
  9862                           ;main.c: 405:         single_click_evt[i] = 0;
  9863   003A1E  5033               	movf	buttons_init@i^0,w,c
  9864   003A20  0FD4               	addlw	low _single_click_evt
  9865   003A22  6ED9               	movwf	fsr2l,c
  9866   003A24  6ADA               	clrf	fsr2h,c
  9867   003A26  6ADF               	clrf	indf2,c
  9868   003A28                     
  9869                           ;main.c: 406:         double_click_evt[i] = 0;
  9870   003A28  5033               	movf	buttons_init@i^0,w,c
  9871   003A2A  0FCF               	addlw	low _double_click_evt
  9872   003A2C  6ED9               	movwf	fsr2l,c
  9873   003A2E  6ADA               	clrf	fsr2h,c
  9874   003A30  6ADF               	clrf	indf2,c
  9875   003A32                     
  9876                           ;main.c: 407:         triple_click_evt[i] = 0;
  9877   003A32  5033               	movf	buttons_init@i^0,w,c
  9878   003A34  0FCA               	addlw	low _triple_click_evt
  9879   003A36  6ED9               	movwf	fsr2l,c
  9880   003A38  6ADA               	clrf	fsr2h,c
  9881   003A3A  6ADF               	clrf	indf2,c
  9882   003A3C                     
  9883                           ;main.c: 408:     }
  9884   003A3C  4A33               	infsnz	buttons_init@i^0,f,c
  9885   003A3E  2A34               	incf	(buttons_init@i+1)^0,f,c
  9886   003A40  BE34               	btfsc	(buttons_init@i+1)^0,7,c
  9887   003A42  EF2C  F01D         	goto	u4211
  9888   003A46  5034               	movf	(buttons_init@i+1)^0,w,c
  9889   003A48  E109               	bnz	u4210
  9890   003A4A  0E02               	movlw	2
  9891   003A4C  5C33               	subwf	buttons_init@i^0,w,c
  9892   003A4E  A0D8               	btfss	status,0,c
  9893   003A50  EF2C  F01D         	goto	u4211
  9894   003A54  EF2E  F01D         	goto	u4210
  9895   003A58                     u4211:
  9896   003A58  EFD7  F01C         	goto	l2825
  9897   003A5C                     u4210:
  9898   003A5C                     
  9899                           ;main.c: 409:     initial_state = 1;
  9900   003A5C  0E01               	movlw	1
  9901   003A5E  6E2A               	movwf	_initial_state^0,c
  9902   003A60                     
  9903                           ;main.c: 412:     iterations = 0;
  9904   003A60  EE20  F0BA         	lfsr	2,_iterations
  9905   003A64  0E07               	movlw	7
  9906   003A66                     u4221:
  9907   003A66  6ADE               	clrf	postinc2,c
  9908   003A68  06E8               	decf	wreg,f,c
  9909   003A6A  E2FD               	bc	u4221
  9910   003A6C                     
  9911                           ;main.c: 413:     sum_iterations = 0;
  9912   003A6C  EE21  F0A8         	lfsr	2,_sum_iterations
  9913   003A70  0E07               	movlw	7
  9914   003A72                     u4231:
  9915   003A72  6ADE               	clrf	postinc2,c
  9916   003A74  06E8               	decf	wreg,f,c
  9917   003A76  E2FD               	bc	u4231
  9918   003A78                     
  9919                           ;main.c: 414:     amount_cycles = 0;
  9920   003A78  EE21  F0A0         	lfsr	2,_amount_cycles
  9921   003A7C  0E07               	movlw	7
  9922   003A7E                     u4241:
  9923   003A7E  6ADE               	clrf	postinc2,c
  9924   003A80  06E8               	decf	wreg,f,c
  9925   003A82  E2FD               	bc	u4241
  9926   003A84  0012               	return		;funcret
  9927   003A86                     __end_of_buttons_init:
  9928                           	callstack 0
  9929                           
  9930 ;; *************** function _enc *****************
  9931 ;; Defined at:
  9932 ;;		line 312 in file "main.c"
  9933 ;; Parameters:    Size  Location     Type
  9934 ;;		None
  9935 ;; Auto vars:     Size  Location     Type
  9936 ;;  i               2    4[COMRAM] int 
  9937 ;; Return value:  Size  Location     Type
  9938 ;;                  1    wreg      void 
  9939 ;; Registers used:
  9940 ;;		wreg, fsr2l, fsr2h, status,2, status,0, prodl, prodh
  9941 ;; Tracked objects:
  9942 ;;		On entry : 0/0
  9943 ;;		On exit  : 0/0
  9944 ;;		Unchanged: 0/0
  9945 ;; Data sizes:     COMRAM   BANK0   BANK1   BANK2   BANK3   BANK4   BANK5   BANK6   BANK7
  9946 ;;      Params:         0       0       0       0       0       0       0       0       0
  9947 ;;      Locals:         2       0       0       0       0       0       0       0       0
  9948 ;;      Temps:          4       0       0       0       0       0       0       0       0
  9949 ;;      Totals:         6       0       0       0       0       0       0       0       0
  9950 ;;Total ram usage:        6 bytes
  9951 ;; Hardware stack levels used: 1
  9952 ;; This function calls:
  9953 ;;		Nothing
  9954 ;; This function is called by:
  9955 ;;		Interrupt level 2
  9956 ;; This function uses a non-reentrant model
  9957 ;;
  9958                           
  9959                           	psect	intcode
  9960   000008                     __pintcode:
  9961                           	callstack 0
  9962   000008                     _enc:
  9963                           	callstack 28
  9964                           
  9965                           ;incstack = 0
  9966   000008  8250               	bsf	int$flags,1,c	;set compiler interrupt flag (level 2)
  9967   00000A  EDE4  F01E         	call	int_func,f	;refresh shadow registers
  9968                           
  9969                           	psect	intcode_body
  9970   003DC8                     __pintcode_body:
  9971                           	callstack 28
  9972   003DC8                     int_func:
  9973                           	callstack 28
  9974   003DC8  0006               	pop		; remove dummy address from shadow register refresh
  9975   003DCA  CFD9 F02B          	movff	fsr2l,??_enc
  9976   003DCE  CFDA F02C          	movff	fsr2h,??_enc+1
  9977   003DD2  CFF3 F02D          	movff	prodl,??_enc+2
  9978   003DD6  CFF4 F02E          	movff	prodh,??_enc+3
  9979   003DDA                     
  9980                           ;main.c: 313:     if (TMR0IF){
  9981   003DDA  A4F2               	btfss	4082,2,c	;volatile
  9982   003DDC  EFF2  F01E         	goto	i2u710_41
  9983   003DE0  EFF4  F01E         	goto	i2u710_40
  9984   003DE4                     i2u710_41:
  9985   003DE4  EF1C  F01F         	goto	i2l149
  9986   003DE8                     i2u710_40:
  9987   003DE8                     
  9988                           ;main.c: 315:         TMR0H = 0xF8;
  9989   003DE8  0EF8               	movlw	248
  9990   003DEA  6ED7               	movwf	215,c	;volatile
  9991                           
  9992                           ;main.c: 316:         TMR0L = 0xAC;
  9993   003DEC  0EAC               	movlw	172
  9994   003DEE  6ED6               	movwf	214,c	;volatile
  9995   003DF0                     
  9996                           ;main.c: 317:         TMR0IF = 0;
  9997   003DF0  94F2               	bcf	4082,2,c	;volatile
  9998                           
  9999                           ;main.c: 319:         int i;;main.c: 320:         for (i=0;i<5;i++){
 10000   003DF2  0E00               	movlw	0
 10001   003DF4  6E30               	movwf	(enc@i+1)^0,c
 10002   003DF6  0E00               	movlw	0
 10003   003DF8  6E2F               	movwf	enc@i^0,c
 10004   003DFA                     i2l3573:
 10005                           
 10006                           ;main.c: 321:             counter[i] ++;
 10007   003DFA  502F               	movf	enc@i^0,w,c
 10008   003DFC  0D08               	mullw	8
 10009   003DFE  50F3               	movf	243,w,c
 10010   003E00  0F88               	addlw	low _counter
 10011   003E02  6ED9               	movwf	fsr2l,c
 10012   003E04  6ADA               	clrf	fsr2h,c
 10013   003E06  2ADE               	incf	postinc2,f,c
 10014   003E08  0E00               	movlw	0
 10015   003E0A  22DE               	addwfc	postinc2,f,c
 10016   003E0C  22DE               	addwfc	postinc2,f,c
 10017   003E0E  22DE               	addwfc	postinc2,f,c
 10018   003E10  22DE               	addwfc	postinc2,f,c
 10019   003E12  22DE               	addwfc	postinc2,f,c
 10020   003E14  22DE               	addwfc	postinc2,f,c
 10021   003E16  22DE               	addwfc	postinc2,f,c
 10022   003E18                     
 10023                           ;main.c: 322:         }
 10024   003E18  4A2F               	infsnz	enc@i^0,f,c
 10025   003E1A  2A30               	incf	(enc@i+1)^0,f,c
 10026   003E1C  BE30               	btfsc	(enc@i+1)^0,7,c
 10027   003E1E  EF1A  F01F         	goto	i2u711_41
 10028   003E22  5030               	movf	(enc@i+1)^0,w,c
 10029   003E24  E109               	bnz	i2u711_40
 10030   003E26  0E05               	movlw	5
 10031   003E28  5C2F               	subwf	enc@i^0,w,c
 10032   003E2A  A0D8               	btfss	status,0,c
 10033   003E2C  EF1A  F01F         	goto	i2u711_41
 10034   003E30  EF1C  F01F         	goto	i2u711_40
 10035   003E34                     i2u711_41:
 10036   003E34  EFFD  F01E         	goto	i2l3573
 10037   003E38                     i2u711_40:
 10038   003E38                     i2l149:
 10039   003E38  C02E  FFF4         	movff	??_enc+3,prodh
 10040   003E3C  C02D  FFF3         	movff	??_enc+2,prodl
 10041   003E40  C02C  FFDA         	movff	??_enc+1,fsr2h
 10042   003E44  C02B  FFD9         	movff	??_enc,fsr2l
 10043   003E48  9250               	bcf	int$flags,1,c	;clear compiler interrupt flag (level 2)
 10044   003E4A  0011               	retfie		f
 10045   003E4C                     __end_of_enc:
 10046                           	callstack 0
 10047                           
 10048                           	psect	smallconst
 10049   000800                     __psmallconst:
 10050                           	callstack 0
 10051   000800  00                 	db	0
 10052   000801  00                 	db	0	; dummy byte at the end
 10053   000800                     __smallconst    set	__psmallconst
 10054   000800                     __mediumconst   set	__psmallconst
 10055   000002                     __activetblptr  equ	2
 10056                           
 10057                           	psect	rparam
 10058   000001                     ___rparam_used  equ	1
 10059   000000                     ___param_bank   equ	0
 10060   000000                     __Lparam        equ	__Lrparam
 10061   000000                     __Hparam        equ	__Hrparam
 10062                           
 10063                           	psect	temp
 10064   000050                     btemp:
 10065                           	callstack 0
 10066   000050                     	ds	1
 10067   000050                     int$flags       set	btemp
 10068   000051                     wtemp8          set	btemp+1
 10069   000051                     ttemp5          set	btemp+1
 10070   000054                     ttemp6          set	btemp+4
 10071   000058                     ttemp7          set	btemp+8
 10072                           
 10073                           	psect	idloc
 10074                           
 10075                           ;Config register IDLOC0 @ 0x200000
 10076                           ;	unspecified, using default values
 10077   200000                     	org	2097152
 10078   200000  FF                 	db	255
 10079                           
 10080                           ;Config register IDLOC1 @ 0x200001
 10081                           ;	unspecified, using default values
 10082   200001                     	org	2097153
 10083   200001  FF                 	db	255
 10084                           
 10085                           ;Config register IDLOC2 @ 0x200002
 10086                           ;	unspecified, using default values
 10087   200002                     	org	2097154
 10088   200002  FF                 	db	255
 10089                           
 10090                           ;Config register IDLOC3 @ 0x200003
 10091                           ;	unspecified, using default values
 10092   200003                     	org	2097155
 10093   200003  FF                 	db	255
 10094                           
 10095                           ;Config register IDLOC4 @ 0x200004
 10096                           ;	unspecified, using default values
 10097   200004                     	org	2097156
 10098   200004  FF                 	db	255
 10099                           
 10100                           ;Config register IDLOC5 @ 0x200005
 10101                           ;	unspecified, using default values
 10102   200005                     	org	2097157
 10103   200005  FF                 	db	255
 10104                           
 10105                           ;Config register IDLOC6 @ 0x200006
 10106                           ;	unspecified, using default values
 10107   200006                     	org	2097158
 10108   200006  FF                 	db	255
 10109                           
 10110                           ;Config register IDLOC7 @ 0x200007
 10111                           ;	unspecified, using default values
 10112   200007                     	org	2097159
 10113   200007  FF                 	db	255
 10114                           
 10115                           	psect	config
 10116                           
 10117                           ;Config register CONFIG1L @ 0x300000
 10118                           ;	PLL Prescaler Selection bits
 10119                           ;	PLLDIV = 5, Divide by 5 (20 MHz oscillator input)
 10120                           ;	System Clock Postscaler Selection bits
 10121                           ;	CPUDIV = OSC1_PLL2, [Primary Oscillator Src: /1][96 MHz PLL Src: /2]
 10122                           ;	USB Clock Selection bit (used in Full-Speed USB mode only; UCFG:FSEN = 1)
 10123                           ;	USBDIV = 2, USB clock source comes from the 96 MHz PLL divided by 2
 10124   300000                     	org	3145728
 10125   300000  24                 	db	36
 10126                           
 10127                           ;Config register CONFIG1H @ 0x300001
 10128                           ;	Oscillator Selection bits
 10129                           ;	FOSC = HSPLL_HS, HS oscillator, PLL enabled (HSPLL)
 10130                           ;	Fail-Safe Clock Monitor Enable bit
 10131                           ;	FCMEN = OFF, Fail-Safe Clock Monitor disabled
 10132                           ;	Internal/External Oscillator Switchover bit
 10133                           ;	IESO = OFF, Oscillator Switchover mode disabled
 10134   300001                     	org	3145729
 10135   300001  0E                 	db	14
 10136                           
 10137                           ;Config register CONFIG2L @ 0x300002
 10138                           ;	Power-up Timer Enable bit
 10139                           ;	PWRT = OFF, PWRT disabled
 10140                           ;	Brown-out Reset Enable bits
 10141                           ;	BOR = OFF, Brown-out Reset disabled in hardware and software
 10142                           ;	Brown-out Reset Voltage bits
 10143                           ;	BORV = 3, Minimum setting 2.05V
 10144                           ;	USB Voltage Regulator Enable bit
 10145                           ;	VREGEN = OFF, USB voltage regulator disabled
 10146   300002                     	org	3145730
 10147   300002  19                 	db	25
 10148                           
 10149                           ;Config register CONFIG2H @ 0x300003
 10150                           ;	Watchdog Timer Enable bit
 10151                           ;	WDT = OFF, WDT disabled (control is placed on the SWDTEN bit)
 10152                           ;	Watchdog Timer Postscale Select bits
 10153                           ;	WDTPS = 32768, 1:32768
 10154   300003                     	org	3145731
 10155   300003  1E                 	db	30
 10156                           
 10157                           ; Padding undefined space
 10158   300004                     	org	3145732
 10159   300004  FF                 	db	255
 10160                           
 10161                           ;Config register CONFIG3H @ 0x300005
 10162                           ;	CCP2 MUX bit
 10163                           ;	CCP2MX = OFF, CCP2 input/output is multiplexed with RB3
 10164                           ;	PORTB A/D Enable bit
 10165                           ;	PBADEN = OFF, PORTB<4:0> pins are configured as digital I/O on Reset
 10166                           ;	Low-Power Timer 1 Oscillator Enable bit
 10167                           ;	LPT1OSC = OFF, Timer1 configured for higher power operation
 10168                           ;	MCLR Pin Enable bit
 10169                           ;	MCLRE = OFF, RE3 input pin enabled; MCLR pin disabled
 10170   300005                     	org	3145733
 10171   300005  00                 	db	0
 10172                           
 10173                           ;Config register CONFIG4L @ 0x300006
 10174                           ;	Stack Full/Underflow Reset Enable bit
 10175                           ;	STVREN = ON, Stack full/underflow will cause Reset
 10176                           ;	Single-Supply ICSP Enable bit
 10177                           ;	LVP = OFF, Single-Supply ICSP disabled
 10178                           ;	Dedicated In-Circuit Debug/Programming Port (ICPORT) Enable bit
 10179                           ;	ICPRT = OFF, ICPORT disabled
 10180                           ;	Extended Instruction Set Enable bit
 10181                           ;	XINST = OFF, Instruction set extension and Indexed Addressing mode disabled (Legacy mo
      +                          de)
 10182                           ;	Background Debugger Enable bit
 10183                           ;	DEBUG = OFF, Background debugger disabled, RB6 and RB7 configured as general purpose I
      +                          /O pins
 10184   300006                     	org	3145734
 10185   300006  81                 	db	129
 10186                           
 10187                           ; Padding undefined space
 10188   300007                     	org	3145735
 10189   300007  FF                 	db	255
 10190                           
 10191                           ;Config register CONFIG5L @ 0x300008
 10192                           ;	Code Protection bit
 10193                           ;	CP0 = OFF, Block 0 (000800-001FFFh) is not code-protected
 10194                           ;	Code Protection bit
 10195                           ;	CP1 = OFF, Block 1 (002000-003FFFh) is not code-protected
 10196                           ;	Code Protection bit
 10197                           ;	CP2 = OFF, Block 2 (004000-005FFFh) is not code-protected
 10198                           ;	Code Protection bit
 10199                           ;	CP3 = OFF, Block 3 (006000-007FFFh) is not code-protected
 10200   300008                     	org	3145736
 10201   300008  0F                 	db	15
 10202                           
 10203                           ;Config register CONFIG5H @ 0x300009
 10204                           ;	Boot Block Code Protection bit
 10205                           ;	CPB = OFF, Boot block (000000-0007FFh) is not code-protected
 10206                           ;	Data EEPROM Code Protection bit
 10207                           ;	CPD = OFF, Data EEPROM is not code-protected
 10208   300009                     	org	3145737
 10209   300009  C0                 	db	192
 10210                           
 10211                           ;Config register CONFIG6L @ 0x30000A
 10212                           ;	Write Protection bit
 10213                           ;	WRT0 = OFF, Block 0 (000800-001FFFh) is not write-protected
 10214                           ;	Write Protection bit
 10215                           ;	WRT1 = OFF, Block 1 (002000-003FFFh) is not write-protected
 10216                           ;	Write Protection bit
 10217                           ;	WRT2 = OFF, Block 2 (004000-005FFFh) is not write-protected
 10218                           ;	Write Protection bit
 10219                           ;	WRT3 = OFF, Block 3 (006000-007FFFh) is not write-protected
 10220   30000A                     	org	3145738
 10221   30000A  0F                 	db	15
 10222                           
 10223                           ;Config register CONFIG6H @ 0x30000B
 10224                           ;	Configuration Register Write Protection bit
 10225                           ;	WRTC = OFF, Configuration registers (300000-3000FFh) are not write-protected
 10226                           ;	Boot Block Write Protection bit
 10227                           ;	WRTB = OFF, Boot block (000000-0007FFh) is not write-protected
 10228                           ;	Data EEPROM Write Protection bit
 10229                           ;	WRTD = OFF, Data EEPROM is not write-protected
 10230   30000B                     	org	3145739
 10231   30000B  E0                 	db	224
 10232                           
 10233                           ;Config register CONFIG7L @ 0x30000C
 10234                           ;	Table Read Protection bit
 10235                           ;	EBTR0 = OFF, Block 0 (000800-001FFFh) is not protected from table reads executed in ot
      +                          her blocks
 10236                           ;	Table Read Protection bit
 10237                           ;	EBTR1 = OFF, Block 1 (002000-003FFFh) is not protected from table reads executed in ot
      +                          her blocks
 10238                           ;	Table Read Protection bit
 10239                           ;	EBTR2 = OFF, Block 2 (004000-005FFFh) is not protected from table reads executed in ot
      +                          her blocks
 10240                           ;	Table Read Protection bit
 10241                           ;	EBTR3 = OFF, Block 3 (006000-007FFFh) is not protected from table reads executed in ot
      +                          her blocks
 10242   30000C                     	org	3145740
 10243   30000C  0F                 	db	15
 10244                           
 10245                           ;Config register CONFIG7H @ 0x30000D
 10246                           ;	Boot Block Table Read Protection bit
 10247                           ;	EBTRB = OFF, Boot block (000000-0007FFh) is not protected from table reads executed in
      +                           other blocks
 10248   30000D                     	org	3145741
 10249   30000D  40                 	db	64
 10250                           tosu	equ	0xFFF
 10251                           tosh	equ	0xFFE
 10252                           tosl	equ	0xFFD
 10253                           stkptr	equ	0xFFC
 10254                           pclatu	equ	0xFFB
 10255                           pclath	equ	0xFFA
 10256                           pcl	equ	0xFF9
 10257                           tblptru	equ	0xFF8
 10258                           tblptrh	equ	0xFF7
 10259                           tblptrl	equ	0xFF6
 10260                           tablat	equ	0xFF5
 10261                           prodh	equ	0xFF4
 10262                           prodl	equ	0xFF3
 10263                           indf0	equ	0xFEF
 10264                           postinc0	equ	0xFEE
 10265                           postdec0	equ	0xFED
 10266                           preinc0	equ	0xFEC
 10267                           plusw0	equ	0xFEB
 10268                           fsr0h	equ	0xFEA
 10269                           fsr0l	equ	0xFE9
 10270                           wreg	equ	0xFE8
 10271                           indf1	equ	0xFE7
 10272                           postinc1	equ	0xFE6
 10273                           postdec1	equ	0xFE5
 10274                           preinc1	equ	0xFE4
 10275                           plusw1	equ	0xFE3
 10276                           fsr1h	equ	0xFE2
 10277                           fsr1l	equ	0xFE1
 10278                           bsr	equ	0xFE0
 10279                           indf2	equ	0xFDF
 10280                           postinc2	equ	0xFDE
 10281                           postdec2	equ	0xFDD
 10282                           preinc2	equ	0xFDC
 10283                           plusw2	equ	0xFDB
 10284                           fsr2h	equ	0xFDA
 10285                           fsr2l	equ	0xFD9
 10286                           status	equ	0xFD8

Data Sizes:
    Strings     0
    Constant    0
    Data        16
    BSS         624
    Persistent  0
    Stack       0

Auto Spaces:
    Space          Size  Autos    Used
    COMRAM           94     37      79
    BANK0           160      0     158
    BANK1           256     16     200
    BANK2           256      0     256
    BANK3           256      0       0
    BANK4           256      0       0
    BANK5           256      0       0
    BANK6           256      0       0
    BANK7           256      0       0

Pointer List with Targets:

    init_routines	PTR FTN(int ,)void [4] size(2) Largest target is 1
		 -> init1(), init2(), init3(), init4(), 

    loop_routines	PTR FTN(int ,)void [4] size(2) Largest target is 1
		 -> loop1(), loop2(), loop3(), loop4(), 


Critical Paths under _main in COMRAM

    _main->_status_loop
    _update_pwm->___awdiv
    _status_loop->___awdiv
    _read_analog->___aodiv
    ___awdiv->___awmod
    _loop->___aodiv

Critical Paths under _enc in COMRAM

    None.

Critical Paths under _main in BANK0

    None.

Critical Paths under _enc in BANK0

    None.

Critical Paths under _main in BANK1

    _main->_loop
    _main->_read_analog

Critical Paths under _enc in BANK1

    None.

Critical Paths under _main in BANK2

    None.

Critical Paths under _enc in BANK2

    None.

Critical Paths under _main in BANK3

    None.

Critical Paths under _enc in BANK3

    None.

Critical Paths under _main in BANK4

    None.

Critical Paths under _enc in BANK4

    None.

Critical Paths under _main in BANK5

    None.

Critical Paths under _enc in BANK5

    None.

Critical Paths under _main in BANK6

    None.

Critical Paths under _enc in BANK6

    None.

Critical Paths under _main in BANK7

    None.

Critical Paths under _enc in BANK7

    None.

Call Graph Tables:

 ---------------------------------------------------------------------------------
 (Depth) Function   	        Calls       Base Space   Used Autos Params    Refs
 ---------------------------------------------------------------------------------
 (0) _main                                                 0     0      0    5809
                       _buttons_init
                       _buttons_loop
                       _config_micro
                               _init
                          _init_vars
                               _loop
                        _read_analog
                        _status_init
                        _status_loop
                         _update_pwm
 ---------------------------------------------------------------------------------
 (1) _update_pwm                                           5     5      0     582
                                             20 COMRAM     5     5      0
                            ___awdiv
 ---------------------------------------------------------------------------------
 (1) _status_loop                                         17    17      0     950
                                             20 COMRAM    17    17      0
                            ___awdiv
                            ___awmod
                    _status_set_mode
 ---------------------------------------------------------------------------------
 (2) ___awmod                                              6     2      4     298
                                              6 COMRAM     6     2      4
 ---------------------------------------------------------------------------------
 (1) _status_init                                          2     2      0      68
                                              6 COMRAM     2     2      0
 ---------------------------------------------------------------------------------
 (1) _read_analog                                         19    19      0    1043
                                             32 COMRAM     3     3      0
                                              0 BANK1     16    16      0
                            ___aodiv
                            ___awdiv
 ---------------------------------------------------------------------------------
 (2) ___awdiv                                              8     4      4     310
                                             12 COMRAM     8     4      4
                            ___awmod (ARG)
 ---------------------------------------------------------------------------------
 (1) _loop                                                16    16      0    1232
                                              0 BANK1     16    16      0
                            ___aodiv
                            ___aomod
                    _get_motor_speed
                  _get_robot_program
                              _init1 *
                              _init2 *
                              _init3 *
                              _init4 *
                              _loop1 *
                              _loop2 *
                              _loop3 *
                              _loop4 *
                        _read_eeprom
                    _set_motor_speed
                  _set_robot_program
                    _status_set_mode
                       _write_eeprom
 ---------------------------------------------------------------------------------
 (2) _write_eeprom                                         5     5      0     134
                                              6 COMRAM     5     5      0
 ---------------------------------------------------------------------------------
 (2) _status_set_mode                                      3     1      2      95
                                              6 COMRAM     3     1      2
 ---------------------------------------------------------------------------------
 (2) _set_robot_program                                    4     2      2      68
                                              6 COMRAM     4     2      2
 ---------------------------------------------------------------------------------
 (2) _set_motor_speed                                      2     0      2      46
                                              6 COMRAM     2     0      2
 ---------------------------------------------------------------------------------
 (2) _read_eeprom                                          7     7      0     135
                                              6 COMRAM     7     7      0
 ---------------------------------------------------------------------------------
 (2) _loop4                                                2     0      2       1
                                              6 COMRAM     2     0      2
 ---------------------------------------------------------------------------------
 (2) _loop3                                                2     0      2       0
                                              6 COMRAM     2     0      2
 ---------------------------------------------------------------------------------
 (2) _loop2                                                2     0      2       0
                                              6 COMRAM     2     0      2
 ---------------------------------------------------------------------------------
 (2) _loop1                                                2     0      2       0
                                              6 COMRAM     2     0      2
 ---------------------------------------------------------------------------------
 (2) _init4                                                2     0      2       1
                                              6 COMRAM     2     0      2
 ---------------------------------------------------------------------------------
 (2) _init3                                                2     0      2       0
                                              6 COMRAM     2     0      2
 ---------------------------------------------------------------------------------
 (2) _init2                                                2     0      2       0
                                              6 COMRAM     2     0      2
 ---------------------------------------------------------------------------------
 (2) _init1                                                2     0      2       0
                                              6 COMRAM     2     0      2
 ---------------------------------------------------------------------------------
 (2) _get_robot_program                                    6     4      2      68
                                              6 COMRAM     6     4      2
 ---------------------------------------------------------------------------------
 (2) _get_motor_speed                                      4     2      2      46
                                              6 COMRAM     4     2      2
 ---------------------------------------------------------------------------------
 (2) ___aomod                                             18     2     16     326
                                              6 COMRAM    18     2     16
 ---------------------------------------------------------------------------------
 (2) ___aodiv                                             26    10     16     312
                                              6 COMRAM    26    10     16
 ---------------------------------------------------------------------------------
 (1) _init_vars                                            4     4      0     136
                                              6 COMRAM     4     4      0
 ---------------------------------------------------------------------------------
 (1) _init                                                 0     0      0       0
 ---------------------------------------------------------------------------------
 (1) _config_micro                                         0     0      0       0
 ---------------------------------------------------------------------------------
 (1) _buttons_loop                                        19    19      0    1554
                                              6 COMRAM    19    19      0
 ---------------------------------------------------------------------------------
 (1) _buttons_init                                         4     4      0     244
                                              6 COMRAM     4     4      0
 ---------------------------------------------------------------------------------
 Estimated maximum stack depth 2
 ---------------------------------------------------------------------------------
 (Depth) Function   	        Calls       Base Space   Used Autos Params    Refs
 ---------------------------------------------------------------------------------
 (3) _enc                                                  6     6      0      68
                                              0 COMRAM     6     6      0
 ---------------------------------------------------------------------------------
 Estimated maximum stack depth 3
 ---------------------------------------------------------------------------------

 Call Graph Graphs:

 _main (ROOT)
   _buttons_init
   _buttons_loop
   _config_micro
   _init
   _init_vars
   _loop
     ___aodiv
     ___aomod
     _get_motor_speed
     _get_robot_program
     _init1 *
     _init2 *
     _init3 *
     _init4 *
     _loop1 *
     _loop2 *
     _loop3 *
     _loop4 *
     _read_eeprom *
     _set_motor_speed *
     _set_robot_program *
     _status_set_mode *
     _write_eeprom *
   _read_analog
     ___aodiv
     ___awdiv
       ___awmod (ARG)
   _status_init
   _status_loop
     ___awdiv
     ___awmod
     _status_set_mode
   _update_pwm
     ___awdiv

 _enc (ROOT)

Address spaces:
Name               Size   Autos  Total    Usage
BIGRAM            2047      0       0      0.0%
BITBANK7           256      0       0      0.0%
BANK7              256      0       0      0.0%
BITBANK6           256      0       0      0.0%
BANK6              256      0       0      0.0%
BITBANK5           256      0       0      0.0%
BANK5              256      0       0      0.0%
BITBANK4           256      0       0      0.0%
BANK4              256      0       0      0.0%
BITBANK3           256      0       0      0.0%
BANK3              256      0       0      0.0%
BITBANK2           256      0       0      0.0%
BANK2              256      0     256    100.0%
BITBANK1           256      0       0      0.0%
BANK1              256     16     200     78.1%
BITBANK0           160      0       0      0.0%
BANK0              160      0     158     98.8%
BITCOMRAM           94      0       0      0.0%
COMRAM              94     37      79     84.0%
BITBIGSFRh          82      0       0      0.0%
BITBIGSFRlh         43      0       0      0.0%
BITBIGSFRllh        19      0       0      0.0%
BITBIGSFRlll        13      0       0      0.0%
STACK                0      0       0      0.0%
DATA                 0      0     691      0.0%


Microchip Technology PIC18 Macro Assembler V3.00 build 20241204225717 
Symbol Table                                                                                   Tue Aug 05 22:37:57 2025

   get_robot_program@program 0035                            _b 00D9                 ___awdiv@sign 003C  
                        l112 3422                          l121 3E4E                          l210 3A84  
                        l107 39A4                          l123 3E94                          l132 3D1E  
                        l125 3EAC                          l222 2ACA                          l134 3D2C  
                        l118 35CC                          l215 2A84                          l135 3D40  
                        l128 3CA8                          l304 2038                          l161 3278  
                        l218 2A72                          l402 3F5C                          l410 40AA  
                        l227 2BE2                          l315 2188                          l156 3BF6  
                        l406 4082                          l422 3FF0                          l351 2A2A  
                        l175 3408                          l416 3FAA                          l360 40EE  
                        l328 23EA                          l257 30BC                          l169 3368  
                        l266 3226                          l354 40F0                          l450 0BAC  
                        l363 40C2                          l507 1ED8                          l291 3F08  
                        l372 40F2                          l357 40CE                          l437 0A9A  
                        l349 2A20                          l366 40EC                          l294 4022  
                        l375 40DA                          l632 3752                          l472 1088  
                        l369 40B6                          l473 1022                          l474 101A  
                        l475 1064                          l476 105C                          l645 38B4  
                        l494 1BE0                          l498 1C42                          l762 3CA4  
                        l749 3B46                          _PR2 0FCB                          _enc 0008  
                        _pwm 0006                 ___awmod@sign 0036                          prod 0FF3  
                        tosl 0FFD                          wreg 0FE8                  _status_code 001C  
                _status_init 3EAE                  _status_mode 0028                  _status_loop 1EDA  
                       l3001 3084                         l3003 3092                         l3011 313E  
                       l3013 315E                         l3005 30B2                         l3021 3206  
                       l1501 3952                         l3101 2124                         l3023 320A  
                       l3015 31C8                         l3007 30EA                         l1511 395C  
                       l1503 3954                         l3031 3ECA                         l3111 21BA  
                       l3103 2136                         l3017 31D8                         l3009 3102  
                       l1521 396A                         l1513 395E                         l1505 3956  
                       l3041 3EE8                         l3033 3ED6                         l3025 3EAE  
                       l3201 271C                         l3121 2218                         l3113 21E4  
                       l3105 2152                         l1531 3974                         l1523 396C  
                       l1515 3964                         l1507 3958                         l1451 38B6  
                       l3043 3EEC                         l3027 3EB6                         l3203 2740  
                       l3211 27DC                         l3123 2234                         l3115 21F0  
                       l3131 225A                         l3051 1F26                         l3107 2196  
                       l1541 397E                         l1533 3976                         l1525 396E  
                       l1517 3966                         l1509 395A                         l1461 38C6  
                       l1453 38BE                         l2501 3D2E                         l3029 3EB8  
                       l3221 2844                         l3213 27EE                         l3205 2766  
                       l3141 233E                         l3133 2288                         l3125 223C  
                       l3117 21F4                         l3109 21A8                         l3061 1F76  
                       l3053 1F32                         l3045 1EDA                         l1551 3988  
                       l1543 3980                         l1535 3978                         l1527 3970  
                       l1519 3968                         l1471 38E0                         l1463 38C8  
                       l1455 38C0                         l2511 4006                         l2503 3D30  
                       l3039 3EDE                         l3231 289E                         l3223 284C  
                       l3215 2818                         l3207 278E                         l3143 2350  
                       l3135 22B6                         l3127 224A                         l3119 2210  
                       l3151 23F8                         l3071 1FDE                         l3063 1F7E  
                       l3055 1F36                         l3047 1EEA                         l1561 3992  
                       l1553 398A                         l1545 3982                         l1537 397A  
                       l1529 3972                         l1481 38EE                         l1473 38E2  
                       l1465 38D2                         l1457 38C2                         l2601 3732  
                       l2521 40AC                         l2513 400E                         l2505 3FF4  
                       l3241 28FA                         l3233 28BA                         l3225 2850  
                       l3217 2824                         l3209 27B2                         l3161 24B4  
                       l3153 240A                         l3145 2386                         l3137 22E4  
                       l3129 2252                         l3073 2030                         l3065 1F8C  
                       l3057 1F52                         l3049 1EFC                         l1571 399C  
                       l1563 3994                         l1555 398C                         l1547 3984  
                       l1539 397C                         l1491 392C                         l1483 38F0  
                       l1475 38E4                         l1467 38D4                         l1459 38C4  
                       l3243 3F0A                         l2611 3784                         l2531 407A  
                       l2523 40D0                         l2515 4016                         l2507 3FF8  
                       l3235 28C6                         l3227 286C                         l3219 2828  
                       l3171 25AC                         l3163 24F2                         l3155 2434  
                       l3147 2398                         l3139 2312                         l3091 20B4  
                       l3083 205E                         l3075 203A                         l3067 1F94  
                       l3059 1F5A                         ?_enc 002B                         l1573 399E  
                       l1565 3996                         l1557 398E                         l1549 3986  
                       l1493 392E                         l1485 38F2                         l1477 38EA  
                       l1469 38D6                         l2621 37DC                         l2613 3788  
                       l2605 3754                         l2525 4054                         l2541 3F5E  
                       l2517 40C4                         l2461 3E4C                         l2509 3FFE  
                       l2701 3C44                         l3237 28E0                         l3229 287A  
                       l3181 2608                         l3173 25B8                         l3165 252E  
                       l3157 2440                         l3149 23B4                         l3093 20BE  
                       l3085 207C                         l3077 2056                         l3069 1F9C  
                       l1575 39A0                         l1567 3998                         l1559 3990  
                       l1495 3934                         l1487 38FC                         l1479 38EC  
                       l2631 385E                         l2623 37F0                         l2615 3796  
                       l2607 3756                         l2527 405C                         l2543 3F66  
                       l2519 40B8                         l2471 3E9C                         l2535 4084  
                       l2711 3C7E                         l2703 3C4C                         l3239 28E8  
                       l3191 26B8                         l3183 262C                         l3175 25BC  
                       l3159 2478                         l3167 2570                         l3095 20C2  
                       l3087 208C                         l1577 39A2                         l1569 399A  
                       l1497 3936                         l1489 392A                         l2561 35CE  
                       l2625 37FE                         l2633 3864                         l2617 37B6  
                       l2609 3764                         l2529 4072                         l2545 3F88  
                       l2537 409A                         l2553 3FAC                         l2481 3CDC  
                       l2473 3CA6                         l2641 3A86                         l2705 3C5A  
                       l2713 3C84                         l3193 26E2                         l3185 2654  
                       l3177 25D8                         l3169 2582                         l3097 20DE  
                       l3089 20A4                         l2801 3300                         l1499 3944  
                       l2571 3610                         l2563 35D0                         l2635 3874  
                       l2627 382C                         l2619 37D4                         l2547 3F9A  
                       l2467 3E66                         l2539 40A2                         l2555 3FCE  
                       l2491 3D10                         l2483 3D08                         l2651 3AB0  
                       l2643 3A88                         l3611 343C                         l2715 3C94  
                       l2707 3C70                         l3195 26EE                         l3187 267A  
                       l3179 25E6                         l3099 20EE                         l2811 3370  
                       l2803 3318                         l2901 2BC6                         l2581 3666  
                       l2573 3630                         l2565 35DE                         l2637 3894  
                       l2629 384C                         l2549 3FA2                         l2469 3E9A  
                       l2557 3FE0                         l2493 3D14                         l2485 3D0A  
                       l3701 0A82                         l2661 3ADE                         l2653 3AB8  
                       l2645 3A96                         l3621 34AA                         l3613 345A  
                       l3605 340C                         l2717 3C9C                         l2709 3C78  
                       l3197 26F2                         l3189 26A6                         l2813 33D4  
                       l2805 3334                         l2831 3A1E                         l2911 2C62  
                       l2903 2BEA                         l2591 36E8                         l2583 367A  
                       l2575 3634                         l2567 35FE                         l2559 3FE8  
                       l2495 3D18                         l2487 3D0C                         l2479 3CBA  
                       l3711 0AC4                         l3703 0A86                         l2671 3B18  
                       l2663 3AE6                         l2655 3ABC                         l2647 3A9E  
                       l3631 3596                         l3623 34E8                         l3615 3472  
                       l3607 3420                         l3199 270E                         l2815 33DC  
                       l2807 3340                         l2841 3A5C                         l2833 3A28  
                       l2825 39AE                         l2921 2C9A                         l2905 2C10  
                       l2761 3B48                         l2593 36EA                         l2585 3688  
                       l2577 3640                         l2569 3602                         l2497 3D1A  
                       l2489 3D0E                         l3801 0FAA                         l3713 0AD6  
                       l3721 0B08                         l3705 0A8E                         l3641 0814  
                       l2681 3B3E                         l2673 3B1A                         l2665 3AF4  
                       l2657 3AC4                         l2649 3AA2                         l3633 35AE  
                       l3617 3498                         l3609 3430                         l2817 33F0  
                       l2809 335C                         l2843 3A60                         l2835 3A32  
                       l2827 39CC                         l2819 39A6                         l2923 2D08  
                       l2931 2D3C                         l2907 2C42                         l2851 2A3E  
                       l2771 3B68                         l2595 36FC                         l2587 369A  
                       l2579 365E                         l2499 3D1C                         l3811 0FC8  
                       l3803 0FBA                         l3731 0B42                         l3715 0AE6  
                       l3707 0A9E                         l3651 0864                         l3643 0824  
                       l2675 3B20                         l2667 3AFA                         l2659 3AD6  
                       l3635 35B0                         l3619 349A                         l2691 3C10  
                       l2845 3A6C                         l2837 3A3C                         l2829 39E0  
                       l2941 2DE8                         l2933 2D54                         l2925 2D14  
                       l2917 2C6A                         l2909 2C56                         l2861 2A94  
                       l2853 2A4C                         l2781 3BCA                         l2773 3B84  
                       l2589 36C8                         l2597 3702                         l3901 1BDE  
                       l3821 0FF2                         l3813 0FCA                         l3805 0FC2  
                       l3741 0B78                         l3733 0B52                         l3717 0AEE  
                       l3709 0AB2                         l3661 08C6                         l3653 0876  
                       l3645 083C                         l2669 3B10                         l2677 3B26  
                       l3637 35C0                         l3629 34EA                         l2693 3C14  
                       l2685 3BF8                         l2847 3A78                         l2839 3A40  
                       l2935 2D6C                         l2927 2D2C                         l2919 2C82  
                       l2871 2ADA                         l2863 2AA2                         l2855 2A52  
                       l2783 3BCE                         l2767 3B50                         l2599 3712  
                       l3911 1C1E                         l3903 1BF0                         l3831 103A  
                       l3823 0FF6                         l3807 0FC4                         l3751 0BE8  
                       l3743 0BA4                         l3735 0B60                         l3719 0AFA  
                       l3727 0B1E                         l3815 0FCC                         l3671 0910  
                       l3663 08D6                         l3655 0886                         l3647 0840  
                       l3639 0802                         l2679 3B36                         l2695 3C22  
                       l2687 3BFA                         l2791 3250                         l2961 2E7E  
                       l2937 2DDA                         l2945 2DF6                         l2881 2B2C  
                       l2873 2B02                         l2865 2AA8                         l2857 2A62  
                       l2849 2A2C                         l2785 3BEA                         l2769 3B64  
                       l3913 1C30                         l3905 1BF8                         l3841 10B2  
                       l3921 1C68                         l3833 1054                         l3825 1012  
                       l3817 0FDE                         l3809 0FC6                         l3745 0BBE  
                       l3753 0BEE                         l3737 0B72                         l3729 0B30  
                       l3673 0922                         l3681 0954                         l3665 08DE  
                       l3657 08A2                         l3649 0852                         l2697 3C2A  
                       l2689 3C08                         l2793 326C                         l2971 2EE2  
                       l2963 2E96                         l2955 2E1E                         l2947 2DFA  
                       l2891 2B66                         l2875 2B0E                         l2867 2AB8  
                       l2859 2A80                         l2779 3B9C                         l3931 1CA4  
                       l3923 1C7C                         l3915 1C32                         l3907 1BFE  
                       l3851 10F2                         l3843 10CA                         l3835 1074  
                       l3827 1032                         l3819 0FF0                         l3771 0C68  
                       l3755 0BFE                         l3747 0BC0                         l3739 0B74  
                       l3691 09A0                         l3683 0966                         l3675 0932  
                       l3667 08EC                         l3659 08B4                         l2699 3C3C  
                       l2795 3280                         l2787 3228                         l2981 2F20  
                       l2965 2EAE                         l2957 2E40                         l2949 2E16  
                       l2893 2BA4                         l2877 2B1E                         l2869 2AC6  
                       l3941 1DEC                         l3933 1CE2                         l3925 1C8E  
                       l3917 1C52                         l3909 1C12                         l3861 1468  
                       l3853 141E                         l3845 10D2                         l3829 1034  
                       l3781 0D48                         l3773 0C7C                         l3749 0BDC  
                       l3765 0C0E                         l3693 09B0                         l3685 0968  
                       l3677 093A                         l3669 08FE                         l3837 108C  
                       l2797 32E4                         l2789 3244                         l2991 2FBC  
                       l2983 2F4E                         l2967 2EC2                         l2959 2E58  
                       l2895 2BAE                         l2887 2B34                         l2879 2B20  
                       l3951 1E6A                         l3943 1E18                         l3935 1D22  
                       l3927 1C9A                         l3919 1C54                         l3871 1486  
                       l3863 146A                         l3855 1448                         l3847 10DE  
                       l3839 10A0                         l3791 0E36                         l3775 0C8E  
                       l3783 0D5A                         l3767 0C22                         l3695 09BE  
                       l3679 0946                         l3687 097C                         l3599 340A  
                       l2799 32EC                         l2993 2FCE                         l2985 2F66  
                       l2977 2EEA                         l2969 2EC6                         l2897 2BB8  
                       l2889 2B52                         l3953 1E9A                         l3937 1D66  
                       l3929 1CA2                         l3945 1E2C                         l3881 180E  
                       l3873 14B0                         l3865 146C                         l3857 1450  
                       l3849 10F0                         l3793 0E3E                         l3777 0C9E  
                       l3785 0E00                         l3769 0C32                         l3697 0A72  
                       l3689 098E                         l3961 402C                         l2995 3038  
                       l2987 2F86                         l2979 2F08                         l2899 2BC2  
                       l3955 1EA2                         l3947 1E40                         l3939 1DA8  
                       l3891 1BA4                         l3883 181E                         l3875 14B2  
                       l3867 146E                         l3859 145C                         l3795 0EE0  
                       l3787 0E14                         l3779 0CA6                         l3699 0A7E  
                       l3971 4040                         l3963 4030                         l2997 3056  
                       l2989 2FA4                         l3949 1E52                         l3893 1BA8  
                       l3885 1848                         l3877 17E2                         l3869 1474  
                       l3789 0E26                         l3797 0EF2                         l3973 4044  
                       l3965 4034                         l3957 4024                         l2999 3064  
                       l3895 1BB8                         l3887 184A                         l3879 180A  
                       l3799 0F98                         l3975 4048                         l3967 4038  
                       l3959 4028                         l3889 1B7A                         l3897 1BC4  
                       l3969 403C                         l3899 1BD6                         _EEIF 7D0C  
                       u4001 3B5E                         u4010 3B84                         u4011 3B80  
                       u4021 3BC4                         u4030 3BEA                         u4110 32E4  
                       u4031 3BE6                         u4111 32E0                         u5000 21BA  
                       u4120 3334                         u4201 3A08                         u4041 3BF0  
                       u5001 21B6                         u4121 3330                         u4210 3A5C  
                       u5010 21E4                         u4130 335C                         u4050 3244  
                       u4211 3A58                         u5011 21E0                         u4131 3358  
                       u4051 3240                         u4300 2A94                         u5100 22E0  
                       u4140 338E                         u4108 32C0                         u4060 326C  
                       u4221 3A66                         u4301 2A90                         u5101 22DA  
                       u5021 21EA                         u4141 3386                         u4061 3268  
                       u4310 2AA2                         u5110 22E2                         u5030 2210  
                       u4070 329E                         u4231 3A72                         u4311 2A9E  
                       u5031 220C                         u4071 3296                         u4320 2AB8  
                       u3600 3D2C                         u5120 230E                         u5040 2234  
                       u4160 33AE                         u4241 3A7E                         u4401 2B8E  
                       u4321 2AB4                         u3601 3D28                         u5121 2308  
                       u5041 2230                         u4161 33A6                         u4410 2BE2  
                       u4330 2AC6                         u4250 2A3E                         u3610 3D40  
                       u5130 2310                         u5050 224A                         u4090 32BE  
                       u4411 2BDE                         u4331 2AC2                         u4251 2A3A  
                       u3611 3D3C                         u5051 2246                         u4091 32B6  
                       u4500 2D6C                         u4420 2C10                         u4340 2ADA  
                       u4260 2A4C                         u3700 3610                         u5300 2434  
                       u5220 2398                         u5140 233A                         u5060 2284  
                       u4180 33D4                         u4501 2D68                         u4421 2C0C  
                       u4341 2AD6                         u4261 2A48                         u3701 360C  
                       u3621 401C                         u5301 2430                         u5221 2394  
                       u5205 2376                         u5141 2334                         u5061 227E  
                       u4181 33D0                         u4510 2DDA                         u4350 2B02  
                       u4270 2A62                         u3630 4072                         u5230 23B4  
                       u5206 2378                         u5150 233C                         u5070 2286  
                       u4158 3390                         u4191 39DA                         u4511 2DD6  
                       u4431 2C16                         u4351 2AFE                         u4271 2A5E  
                       u3711 363A                         u3631 406E                         u5311 243A  
                       u5231 23B0                         u5215 2380                         u4520 2E16  
                       u4280 2A72                         u3720 365E                         u3800 382C  
                       u3640 409A                         u5400 255C                         u5320 246C  
                       u5216 2382                         u5160 2350                         u5080 22B2  
                       u4088 32A0                         u4601 2F48                         u4521 2E12  
                       u4441 2C5C                         u4361 2B08                         u4281 2A6E  
                       u3721 365A                         u3801 3828                         u3641 4096  
                       u5401 2554                         u5321 2464                         u5161 234C  
                       u5081 22AC                         u4610 2F86                         u4530 2E40  
                       u4450 2C82                         u4370 2B1E                         u4290 2A80  
                       u3730 3688                         u3810 3874                         u3650 3F88  
                       u3570 3E66                         u5090 22B4                         u4178 33B0  
                       u4611 2F82                         u4531 2E3C                         u4451 2C7E  
                       u4371 2B1A                         u4291 2A7C                         u3731 3684  
                       u3811 3870                         u3651 3F84                         u3571 3E62  
                       u4700 31C8                         u4620 2FA4                         u4540 2E58  
                       u4460 2C9A                         u3740 36C8                         u3660 3F9A  
                       u3580 3EAC                         u3820 3A96                         u3900 3C3C  
                       u5500 2644                         u5420 2582                         u5340 24A6  
                       u4701 31C4                         u4621 2FA0                         u4541 2E54  
                       u4461 2C96                         u4381 2B26                         u3741 36C4  
                       u3661 3F96                         u3581 3EA8                         u3821 3A92  
                       u3901 3C38                         u5501 263C                         u5421 257E  
                       u5341 249E                         u5245 23BC                         u4630 2FBC  
                       u4550 2E96                         u4470 2D08                         u3750 3712  
                       u3670 3FCE                         u3590 3CBA                         u3830 3AB0  
                       u3910 3C5A                         u5430 25AC                         u5246 23BE  
                       u4711 3200                         u4631 2FB8                         u4551 2E92  
                       u4471 2D04                         u4391 2B60                         u3751 370E  
                       u3671 3FCA                         u3591 3CB6                         u3831 3AAC  
                       u3911 3C56                         u5431 25A8                         u5255 23C6  
                       u5175 2358                         u4720 3226                         u4640 3038  
                       u4560 2EAE                         u3760 3764                         u3680 3FE0  
                       u7200 0864                         u3840 3AD6                         u7120 3430  
                       u3920 3C70                         u5600 2734                         u5520 266C  
                       u5360 24E2                         u5256 23C8                         u5176 235A  
                       u4800 1F76                         u4721 3222                         u4641 3034  
                       u4561 2EAA                         u4481 2D22                         u3761 3760  
                       u3681 3FDC                         u7201 0860                         u3841 3AD2  
                       u7121 342C                         u3921 3C6C                         u5601 272C  
                       u5521 2664                         u5441 25B2                         u5361 24DA  
                       u5265 23D0                         u5185 2362                         u4801 1F72  
                       u4650 3056                         u4570 2EE2                         u4490 2D54  
                       u3690 35DE                         u3770 3796                         u8010 180A  
                       u7210 0876                         u3850 3AF4                         u7130 34AA  
                       u3930 3C94                         u5450 25D8                         u5418 255E  
                       u5338 246E                         u5290 240A                         u5266 23D2  
                       u5186 2364                         u4810 1F8C                         u4651 3052  
                       u4571 2EDE                         u4491 2D50                         u3691 35DA  
                       u3771 3792                         u8011 1806                         u7211 0872  
                       u3851 3AF0                         u7131 34A6                         u4731 3ED0  
                       u3931 3C90                         u5451 25D4                         u5291 2406  
                       u5275 23DA                         u5195 236C                         u4811 1F88  
                       u4660 3084                         u4580 2F08                         u3780 37D4  
                       u8020 1848                         u7300 098E                         u7220 0886  
                       u3860 3B10                         u7140 34E8                         u4740 3F08  
                       u5700 27EE                         u5620 2758                         u5540 2692  
                       u5460 25FC                         u5380 2520                         u5276 23DC  
                       u5196 236E                         u4820 2030                         u4661 3080  
                       u4581 2F04                         u3781 37D0                         u8021 1844  
                       u7301 098A                         u7221 0882                         u3861 3B0C  
                       u7141 34E4                         u4741 3F04                         u5701 27EA  
                       u5621 2750                         u5541 268A                         u5461 25F4  
                       u5381 2518                         u5285 23E4                         u4821 202C  
                       u4670 30B2                         u4590 2F20                         u3790 37FE  
                       u8110 1B64                         u8030 18DC                         u7310 09A0  
                       u7230 08B4                         u3870 3B36                         u5710 2818  
                       u5518 2646                         u5358 24A8                         u5286 23E6  
                       u4830 207C                         u4750 1EEA                         u4671 30AE  
                       u4591 2F1C                         u3791 37FA                         u8111 1B5C  
                       u8031 18D4                         u7311 099C                         u7231 08B0  
                       u3871 3B32                         u7151 35A8                         u5711 2814  
                       u4831 2078                         u4751 1EE6                         u8200 1C7C  
                       u8008 17D0                         u7400 0B42                         u7240 08C6  
                       u7160 35C0                         u3880 3C08                         u5800 2926  
                       u5640 277E                         u5560 26B8                         u5480 261E  
                       u4920 2136                         u4840 20A4                         u4760 1EFC  
                       u4681 30E4                         u8201 1C78                         u7401 0B3E  
                       u7241 08C2                         u7161 35BC                         u3881 3C04  
                       u5801 291E                         u5721 281E                         u5641 2776  
                       u5561 26B4                         u5481 2616                         u4921 2132  
                       u4905 2114                         u4841 20A0                         u4761 1EF8  
                       u4690 315E                         u8210 1C8E                         u8130 1BA4  
                       u8050 197C                         u7410 0B72                         u7330 0A72  
                       u7250 08FE                         u3890 3C22                         u5730 2844  
                       u5618 2736                         u5570 26E2                         u5538 266E  
                       u5378 24E4                         u4930 2152                         u4906 2116  
                       u4850 20DE                         u4770 1F26                         u4691 315A  
                       u8211 1C8A                         u8131 1BA0                         u8051 1974  
                       u7411 0B6E                         u7331 0A6E                         u7251 08FA  
                       u7171 35C6                         u3891 3C1E                         u5731 2840  
                       u5571 26DE                         u4931 214E                         u4915 211E  
                       u4851 20DA                         u4771 1F22                         u8108 1AC6  
                       u7420 0BA4                         u7340 0AB2                         u7260 0910  
                       u7180 0814                         u5820 295E                         u5740 286C  
                       u5660 27A4                         u4916 2120                         u4860 20EE  
                       u8221 1C94                         u8141 1BBE                         u7421 0BA0  
                       u7341 0AAE                         u7325 09DC                         u7261 090C  
                       u7181 0810                         u5821 2956                         u5741 2868  
                       u5661 279C                         u5581 26E8                         u4861 20EA  
                       u4781 1F2C                         u8310 1DDA                         u8230 1CD4  
                       u8150 1BD6                         u8070 1A1E                         u7430 0BBE  
                       u7350 0AC4                         u7270 0922                         u7190 0824  
                       u5750 2898                         u5638 275A                         u5590 270E  
                       u5558 2694                         u5478 25FE                         u5398 2522  
                       u4790 1F52                         u8311 1DD0                         u8231 1CCA  
                       u8151 1BD2                         u8071 1A16                         u7431 0BBA  
                       u7351 0AC0                         u7271 091E                         u7191 0820  
                       u5751 2892                         u5591 270A                         u4791 1F4E  
                       u8160 1BF0                         u8128 1B68                         u8048 18E0  
                       u7600 0E36                         u7440 0BDC                         u7360 0AD6  
                       u7280 0932                         u5840 2998                         u5760 289A  
                       u5680 27C8                         u8161 1BEC                         u7601 0E32  
                       u7505 0C4E                         u7441 0BD8                         u7361 0AD2  
                       u7281 092E                         u5841 2990                         u5681 27C0  
                       u4945 215A                         u8330 1E18                         u8250 1D12  
                       u8170 1C12                         u8090 1AC2                         u7530 0C7C  
                       u7450 0BFE                         u7370 0AE6                         u7290 0966  
                       u5818 2928                         u5770 28BA                         u5658 2780  
                       u5498 2620                         u4946 215C                         u8331 1E14  
                       u8251 1D08                         u8171 1C0E                         u8091 1ABA  
                       u7531 0C78                         u7515 0C58                         u7507 0C50  
                       u7451 0BFA                         u7371 0AE2                         u7291 0962  
                       u5771 28B6                         u4955 2164                         u4875 20F6  
                       u8340 1E40                         u8308 1D9C                         u8180 1C30  
                       u8068 1980                         u7700 1074                         u7540 0C8E  
                       u7460 0C22                         u7380 0B1A                         u5860 29D4  
                       u5780 28E0                         u4956 2166                         u4876 20F8  
                       u8341 1E3C                         u8181 1C2C                         u7701 1070  
                       u7541 0C8A                         u7525 0C62                         u7517 0C5A  
                       u7461 0C1E                         u7381 0B16                         u5861 29CC  
                       u5781 28DC                         u4965 216E                         u4885 2100  
                       u8350 1E52                         u8270 1D54                         u8190 1C52  
                       u7710 10A0                         u7630 0FAA                         u7550 0C9E  
                       u7470 0C32                         u7390 0B30                         u5838 2960  
                       u5790 28FA                         u5678 27A6                         u4990 21A8  
                       u4966 2170                         u4886 2102                         u8351 1E4E  
                       u8271 1D4A                         u8191 1C4E                         u7711 109C  
                       u7631 0FA6                         u7615 0E5C                         u7551 0C9A  
                       u7527 0C64                         u7471 0C2E                         u7391 0B2C  
                       u5791 28F6                         u4991 21A4                         u4975 2178  
                       u4895 210A                         u8328 1DDE                         u8248 1CD8  
                       u8088 1A22                         u7800 12C6                         u7720 10B2  
                       u7640 0FBA                         u5880 2A0C                         u4976 217A  
                       u4896 210C                         u7801 12BE                         u7721 10AE  
                       u7641 0FB6                         u7625 0F10                         u5881 2A04  
                       u4985 2182                         u8290 1D98                         u7650 0FDE  
                       u5858 299A                         u5698 27CA                         u4986 2184  
                       u8291 1D8E                         u7731 10B8                         u7651 0FDA  
                       u8268 1D16                         u7900 14B0                         u7820 136A  
                       u7660 0FF0                         u7580 0E14                         u7901 14AC  
                       u7821 1362                         u7741 10C4                         u7661 0FEC  
                       u7581 0E10                         u7565 0CC4                         u7485 0C3A  
                       u7910 1544                         u7750 10F0                         u7670 1012  
                       u7590 0E26                         u5878 29D6                         u7911 153C  
                       u7751 10EC                         u7671 100E                         u7591 0E22  
                       u7575 0D78                         u7495 0C44                         u7487 0C3C  
                       u8368 1E86                         u8288 1D58                         u7840 140C  
                       u7760 1184                         u7680 1032                         u8369 1E9A  
                       u7841 1404                         u7761 117C                         u7681 102E  
                       u7497 0C46                         u8378 1EC4                         u7930 15E4  
                       u7818 12CA                         u7690 1054                         u5898 2A0E  
                       u8379 1ED8                         u7931 15DC                         u7691 1050  
                       u7860 1448                         u7780 1224                         u7861 1444  
                       u7781 121C                         u7950 1686                         u7838 136E  
                       u7951 167E                         u7871 1456                         u7928 1548  
                       u7881 1462                         u7970 172A                         u7890 1486  
                       u7858 1410                         u7778 1188                         u7971 1722  
                       u7891 1482                         u7948 15E8                         u7990 17CC  
                       u7798 1228                         u7991 17C4                         u7968 168A  
                       u7988 172E                         _TXIF 7CF4                         _main 4024  
                       _leds 0001                         enc@i 002F                         _init 3F0A  
                       _loop 0802                _state_counter 0150                         fsr1h 0FE2  
                       fsr2h 0FDA                         indf2 0FDF                         fsr1l 0FE1  
                       fsr2l 0FD9                         btemp 0050               ??_config_micro 0031  
                       prodh 0FF4                         prodl 0FF3                         start 000E  
               ___param_bank 0000                        ??_enc 002B                 _status_value 0026  
            __end_of___aodiv 3754                        ?_main 002B              __end_of___aomod 38B6  
                      ?_init 002B              __end_of___awdiv 3B48                        _EEADR 0FA9  
                      ?_loop 002B              __end_of___awmod 3CA6                        _CMCON 0FB4  
            ___awdiv@divisor 0039                        i2l149 3E38              ___awdiv@counter 003B  
                      _TMR0H 0FD7                        _TMR1H 0FCF                        _TMR0L 0FD6  
                      _TMR1L 0FCE                        _SPBRG 0FAF              _set_motor_speed 4084  
                      _TXREG 0FAD             ?_get_motor_speed 0031                 ?_read_analog 002B  
               ?_read_eeprom 002B     set_robot_program@program 0031                        _init1 40F0  
                      _init2 40EE                        _init3 40EC                        _init4 40F2  
                      _loop1 40C4                        _loop2 40B8                        _loop3 40AC  
                      _loop4 40D0                        pclath 0FFA                        tablat 0FF5  
                      plusw2 0FDB                        ttemp5 0051                        ttemp6 0054  
                      ttemp7 0058                        status 0FD8                        wtemp8 0051  
            __initialization 3D42                 __end_of_main 4054                 __end_of_init 3F5E  
               __end_of_loop 1EDA                       ??_main 0050                       ??_init 0031  
                     ??_loop 01B0                __activetblptr 0002                       ?_init1 0031  
                     ?_init2 0031                       ?_init3 0031                       ?_init4 0031  
                     ?_loop1 0031                       ?_loop2 0031                       ?_loop3 0031  
                     ?_loop4 0031                       _ADRESH 0FC4                       _ADRESL 0FC3  
                     _EEDATA 0FA8                       _CCPR1L 0FBE                       _CCPR2L 0FBB  
                     _EECON2 0FA7             ___awdiv@dividend 0037                       i2l3563 3DDA  
                     i2l3573 3DFA                       i2l3565 3DE8                       i2l3575 3E18  
                     i2l3567 3DF0                       i2l3577 3E1C                       _TMR0IF 7F92  
                     _SPBRGH 0FB0                 _write_eeprom 3CA6                ?_buttons_init 002B  
              ?_buttons_loop 002B                    ??___aodiv 0041                    ??___aomod 0041  
                  ??___awdiv 003B                    ??___awmod 0035          status_loop@half_led 004C  
    __end_of_set_motor_speed 40AC                       _last_b 00ED                       clear_0 3D8A  
                     clear_1 3D9C                       clear_2 3DA8                       clear_3 3DB4  
           ___awdiv@quotient 003D              ___awmod@divisor 0033                       isa$std 0001  
            ___awmod@counter 0035         __end_of_config_micro 39A6                 __mediumconst 0800  
                     tblptrh 0FF7                       tblptrl 0FF6                       tblptru 0FF8  
        status_loop@show_led 004A                   __accesstop 0060      __end_of__initialization 3DBA  
           _status_next_mode 0020                ___rparam_used 0001             _status_persisted 0024  
             ??_buttons_init 0031               ??_buttons_loop 0031               __pcstackCOMRAM 002B  
               __pidataBANK0 40DC                 __pidataBANK1 40E4                __end_of_init1 40F2  
              __end_of_init2 40F0                __end_of_init3 40EE                __end_of_init4 40F4  
              __end_of_loop1 40D0                __end_of_loop2 40C4                __end_of_loop3 40B8  
              __end_of_loop4 40DC                 status_init@i 0031                 status_loop@i 004E  
         buttons_loop@i_1320 0040                 ?_status_init 002B                 ?_status_loop 002B  
                    ??_init1 0033                      ??_init2 0033                      ??_init3 0033  
                    ??_init4 0033                      ??_loop1 0033                      ??_loop2 0033  
                    ??_loop3 0033                      ??_loop4 0033                   __pbssBANK0 0060  
                 __pbssBANK1 0100                   __pbssBANK2 0200                _initial_state 002A  
              _init_routines 00F6             ?_set_motor_speed 0031               _sum_iterations 01A8  
                 _flag_press 000C             write_eeprom@addr 0035             _flag_menu_init_2 0014  
             _persisted_data 0200            _combination_state 00B0            ??_status_set_mode 0033  
                    __Hparam 0000                      __Lparam 0000                      ___aodiv 35CE  
                    ___aomod 3754                      ___awdiv 3A86                      ___awmod 3BF8  
               __psmallconst 0800                      _b_state 00E8                      __pcinit 3D42  
                    __ramtop 0800                      __ptext0 4024                      __ptext1 3228  
                    __ptext2 1EDA                      __ptext3 3BF8                      __ptext4 3EAE  
                    __ptext5 340A                      __ptext6 3A86                      __ptext7 0802  
          _status_final_mode 00F4                      __ptext8 3CA6                      __ptext9 3FF2  
          _get_robot_program 3F5E                    _T0CONbits 0FD5            _set_robot_program 3FAC  
                  _T1CONbits 0FCD                      _counter 0088                    _T2CONbits 0FCA  
                 _int_status 0029            __end_of_init_vars 3BF8             ___awmod@dividend 0031  
         ?_get_robot_program 0031           ?_set_robot_program 0031                   _iterations 00BA  
       __end_of_buttons_init 3A86         __end_of_buttons_loop 3228        buttons_loop@click_evt 003B  
             __pintcode_body 3DC8         end_of_initialization 3DBA          ??_get_robot_program 0033  
        ??_set_robot_program 0033                __Lmediumconst 0000                      int_func 3DC8  
               read_analog@i 004D    status_set_mode@final_mode 0032                 _config_micro 38B6  
           _triple_click_evt 00CA                    _RCSTAbits 0FAB                      postdec1 0FE5  
                    postdec2 0FDD                      postinc0 0FEE                      postinc2 0FDE  
   status_set_mode@next_mode 0031    __end_of_get_robot_program 3FAC    __end_of_set_robot_program 3FF2  
        status_set_mode@mode 0033                    _PORTBbits 0F81                    _PORTCbits 0F82  
                  _PORTDbits 0F83                    _TRISAbits 0F92                    _TRISBbits 0F93  
                  _TRISCbits 0F94                    _TRISDbits 0F95                    _TRISEbits 0F96  
                 _update_pwm 3228                  _CCP1CONbits 0FBD                  _CCP2CONbits 0FBA  
                  _TXSTAbits 0FAC                   init1@speed 0031                   init2@speed 0031  
                 init3@speed 0031                   init4@speed 0031                  _BAUDCONbits 0FB8  
           _single_click_evt 00D4          start_initialization 3D42                  __end_of_enc 3E4C  
             _flag_menu_init 0016               update_pwm@pwm0 0040         get_motor_speed@speed 0033  
             update_pwm@pwm1 0042            ??_get_motor_speed 0033         set_motor_speed@speed 0031  
                __pdataBANK0 00F6                  __pdataBANK1 01C0                   init_vars@i 0033  
                 loop1@speed 0031                   loop2@speed 0031                   loop3@speed 0031  
                 loop4@speed 0031                ??_read_analog 01B0                  __pbssCOMRAM 0001  
              ??_read_eeprom 0031              _status_set_mode 3FF2                __pcstackBANK1 01B0  
           ___aodiv@dividend 0031                  ?_update_pwm 002B                    _b_counter 0060  
              _loop_routines 01C0                 _current_menu 0018             _double_click_evt 00CF  
               _buttons_init 39A6                 _buttons_loop 2A2C                    __pintcode 0008  
                   ?___aodiv 0031                     ?___aomod 0031                     ?___awdiv 0037  
           ___aodiv@quotient 0043                     ?___awmod 0031                    _flag_init 001A  
                  _avg_input 0178                  __smallconst 0800       status_loop@half_status 0048  
               _mode_counter 001E                    _init_vars 3B48          __end_of_read_analog 35CE  
        __end_of_read_eeprom 3EAE                ?_write_eeprom 002B              read_eeprom@addr 0037  
                   i2u710_40 3DE8                     i2u710_41 3DE4                     i2u711_40 3E38  
                   i2u711_41 3E34                     _UCFGbits 0F6F                     _RCONbits 0FD0  
                  _speed_aux 000A                     _UCONbits 0F6D                    _press_evt 00E3  
    __end_of_status_set_mode 4024                   _ADCON0bits 0FC2                   _ADCON1bits 0FC1  
                 _ADCON2bits 0FC0                   ?_init_vars 002B                  _INTCON2bits 0FF1  
                  copy_data0 3D56                    copy_data1 3D76               ??_write_eeprom 0031  
                _count_reads 00C2                   _EECON1bits 0FA6                     __Hrparam 0000  
                   __Lrparam 0000              ___aodiv@divisor 0039              ___aodiv@counter 0041  
             read_analog@aux 004B                  _read_analog 340A                     _an_input 018C  
                _read_eeprom 3E4C                ??_status_init 0031                ??_status_loop 003F  
                   __ptext10 3FAC                     __ptext11 4084                     __ptext20 40F2  
                   __ptext12 3E4C                     __ptext21 3F5E                     __ptext13 40AC  
                   __ptext22 4054                     __ptext14 40B8                     __ptext23 3754  
                   __ptext15 40C4                     __ptext24 35CE                     __ptext16 40D0  
                   __ptext25 3B48                     __ptext17 40EC                     __ptext26 3F0A  
                   __ptext18 40EE                     __ptext27 38B6                     __ptext19 40F0  
                   __ptext28 2A2C                     __ptext29 39A6              _get_motor_speed 4054  
_status_intermitency_counter 0022            ??_set_motor_speed 0033               read_eeprom@aux 0035  
                   isa$xinst 0000                     int$flags 0050                     _sum_read 0100  
           ?_status_set_mode 0031             ___aomod@dividend 0031                  _release_evt 00DE  
                 _INTCONbits 0FF2                 ??_update_pwm 003F               _configure_mode 0012  
                ??_init_vars 0031                     intlevel2 0000                _amount_cycles 01A0  
        __end_of_status_init 3F0A          __end_of_status_loop 2A2C                   _OSCCONbits 0FD3  
         __end_of_update_pwm 340A                buttons_init@i 0033              ___aomod@divisor 0039  
              buttons_loop@i 0042              ___aomod@counter 0041         __end_of_write_eeprom 3D42  
    __end_of_get_motor_speed 4084                  _robot_state 0010                _program_count 000E  
               ___aodiv@sign 0042                  _program_aux 00F2                 ___aomod@sign 0042  
              ?_config_micro 002B  
