

Microchip MPLAB XC8 Assembler V2.40 build 20220703182018 
                                                                                               Wed Jul 16 00:12:35 2025

Microchip MPLAB XC8 C Compiler v2.40 (Free license) build 20220703182018 Og1 
     1                           	processor	18F4550
     2                           	fnconf	rparam,??,?,0
     3                           	pagewidth 120
     4                           	opt	flic
     5                           	psect	smallconst,global,reloc=2,class=SMALLCONST,delta=1,noexec
     6                           	psect	cinit,global,reloc=2,class=CODE,delta=1
     7                           	psect	bssCOMRAM,global,class=COMRAM,space=1,delta=1,lowdata,noexec
     8                           	psect	bssBANK0,global,class=BANK0,space=1,delta=1,lowdata,noexec
     9                           	psect	bssBANK1,global,class=BANK1,space=1,delta=1,lowdata,noexec
    10                           	psect	bssBANK2,global,class=BANK2,space=1,delta=1,lowdata,noexec
    11                           	psect	bssBANK3,global,class=BANK3,space=1,delta=1,lowdata,noexec
    12                           	psect	cstackBANK1,global,class=BANK1,space=1,delta=1,lowdata,noexec
    13                           	psect	cstackBANK0,global,class=BANK0,space=1,delta=1,lowdata,noexec
    14                           	psect	cstackCOMRAM,global,class=COMRAM,space=1,delta=1,lowdata,noexec
    15                           	psect	text0,global,reloc=2,class=CODE,delta=1
    16                           	psect	text1,global,reloc=2,class=CODE,delta=1
    17                           	psect	text2,global,reloc=2,class=CODE,delta=1
    18                           	psect	text3,global,reloc=2,class=CODE,delta=1,group=2
    19                           	psect	text4,global,reloc=2,class=CODE,delta=1
    20                           	psect	text5,global,reloc=2,class=CODE,delta=1
    21                           	psect	text6,global,reloc=2,class=CODE,delta=1,group=2
    22                           	psect	text7,global,reloc=2,class=CODE,delta=1
    23                           	psect	text8,global,reloc=2,class=CODE,delta=1
    24                           	psect	text9,global,reloc=2,class=CODE,delta=1
    25                           	psect	text10,global,reloc=2,class=CODE,delta=1
    26                           	psect	text11,global,reloc=2,class=CODE,delta=1,group=2
    27                           	psect	text12,global,reloc=2,class=CODE,delta=1
    28                           	psect	text13,global,reloc=2,class=CODE,delta=1,group=3
    29                           	psect	text14,global,reloc=2,class=CODE,delta=1,group=1
    30                           	psect	text15,global,reloc=2,class=CODE,delta=1,group=1
    31                           	psect	text16,global,reloc=2,class=CODE,delta=1,group=1
    32                           	psect	text17,global,reloc=2,class=CODE,delta=1,group=1
    33                           	psect	text18,global,reloc=2,class=CODE,delta=1,group=3
    34                           	psect	text19,global,reloc=2,class=CODE,delta=1,group=3
    35                           	psect	text20,global,reloc=2,class=CODE,delta=1
    36                           	psect	text21,global,reloc=2,class=CODE,delta=1,group=3
    37                           	psect	text22,global,reloc=2,class=CODE,delta=1,group=2
    38                           	psect	text23,global,reloc=2,class=CODE,delta=1,group=2
    39                           	psect	text24,global,reloc=2,class=CODE,delta=1,group=2
    40                           	psect	text25,global,reloc=2,class=CODE,delta=1
    41                           	psect	text26,global,reloc=2,class=CODE,delta=1
    42                           	psect	text27,global,reloc=2,class=CODE,delta=1
    43                           	psect	text28,global,reloc=2,class=CODE,delta=1
    44                           	psect	text29,global,reloc=2,class=CODE,delta=1
    45                           	psect	intcode,global,reloc=2,class=CODE,delta=1
    46                           	psect	intcode_body,global,reloc=2,class=CODE,delta=1
    47                           	psect	intsave_regs,global,class=BIGRAM,space=1,delta=1,noexec
    48                           	psect	rparam,global,class=COMRAM,space=1,delta=1,noexec
    49                           	psect	temp,global,ovrld,common,class=COMRAM,space=1,delta=1
    50                           	psect	idloc,global,abs,ovrld,class=IDLOC,space=5,delta=1,noexec
    51                           	psect	config,global,abs,ovrld,class=CONFIG,space=4,delta=1,noexec
    52   000000                     
    53                           ; Version 2.40
    54                           ; Generated 17/11/2021 GMT
    55                           ; 
    56                           ; Copyright © 2021, Microchip Technology Inc. and its subsidiaries ("Microchip")
    57                           ; All rights reserved.
    58                           ; 
    59                           ; This software is developed by Microchip Technology Inc. and its subsidiaries ("Microch
      +                          ip").
    60                           ; 
    61                           ; Redistribution and use in source and binary forms, with or without modification, are
    62                           ; permitted provided that the following conditions are met:
    63                           ; 
    64                           ;     1. Redistributions of source code must retain the above copyright notice, this lis
      +                          t of
    65                           ;        conditions and the following disclaimer.
    66                           ; 
    67                           ;     2. Redistributions in binary form must reproduce the above copyright notice, this 
      +                          list
    68                           ;        of conditions and the following disclaimer in the documentation and/or other
    69                           ;        materials provided with the distribution. Publication is not required when
    70                           ;        this file is used in an embedded application.
    71                           ; 
    72                           ;     3. Microchip's name may not be used to endorse or promote products derived from th
      +                          is
    73                           ;        software without specific prior written permission.
    74                           ; 
    75                           ; THIS SOFTWARE IS PROVIDED BY MICROCHIP "AS IS" AND ANY EXPRESS OR IMPLIED WARRANTIES,
    76                           ; INCLUDING, BUT NOT LIMITED TO, THE IMPLIED WARRANTIES OF MERCHANTABILITY AND FITNESS F
      +                          OR
    77                           ; PURPOSE ARE DISCLAIMED.  IN NO EVENT SHALL MICROCHIP BE LIABLE FOR ANY DIRECT, INDIREC
      +                          T,
    78                           ; INCIDENTAL, SPECIAL, EXEMPLARY, OR CONSEQUENTIAL DAMAGES (INCLUDING BUT NOT LIMITED TO
    79                           ; PROCUREMENT OF SUBSTITUTE GOODS OR SERVICES; LOSS OF USE, DATA OR PROFITS; OR BUSINESS
    80                           ; INTERRUPTION) HOWSOEVER CAUSED AND ON ANY THEORY OF LIABILITY, WHETHER IN CONTRACT, ST
      +                          RICT
    81                           ; LIABILITY, OR TORT (INCLUDING NEGLIGENCE OR OTHERWISE) ARISING IN ANY WAY OUT OF THE U
      +                          SE OF
    82                           ; THIS SOFTWARE, EVEN IF ADVISED OF THE POSSIBILITY OF SUCH DAMAGE.
    83                           ; 
    84                           ; 
    85                           ; Code-generator required, PIC18F4550 Definitions
    86                           ; 
    87                           ; SFR Addresses
    88   000000                     _EECON2	set	4007
    89   000000                     _EEDATA	set	4008
    90   000000                     _ADRESL	set	4035
    91   000000                     _ADRESH	set	4036
    92   000000                     _TMR1L	set	4046
    93   000000                     _TMR1H	set	4047
    94   000000                     _TMR0L	set	4054
    95   000000                     _TMR0H	set	4055
    96   000000                     _INTCON2bits	set	4081
    97   000000                     _TMR0IF	set	32658
    98   000000                     _UCONbits	set	3949
    99   000000                     _CMCON	set	4020
   100   000000                     _OSCCONbits	set	4051
   101   000000                     _T0CONbits	set	4053
   102   000000                     _BAUDCONbits	set	4024
   103   000000                     _CCP2CONbits	set	4026
   104   000000                     _CCP1CONbits	set	4029
   105   000000                     _T2CONbits	set	4042
   106   000000                     _T1CONbits	set	4045
   107   000000                     _RCONbits	set	4048
   108   000000                     _UCFGbits	set	3951
   109   000000                     _PORTBbits	set	3969
   110   000000                     _PORTCbits	set	3970
   111   000000                     _PORTDbits	set	3971
   112   000000                     _TRISAbits	set	3986
   113   000000                     _TRISBbits	set	3987
   114   000000                     _TRISCbits	set	3988
   115   000000                     _INTCONbits	set	4082
   116   000000                     _PR2	set	4043
   117   000000                     _ADCON2bits	set	4032
   118   000000                     _ADCON1bits	set	4033
   119   000000                     _ADCON0bits	set	4034
   120   000000                     _CCPR1L	set	4030
   121   000000                     _CCPR2L	set	4027
   122   000000                     _EECON1bits	set	4006
   123   000000                     _EEADR	set	4009
   124   000000                     _TRISEbits	set	3990
   125   000000                     _TRISDbits	set	3989
   126   000000                     _RCSTAbits	set	4011
   127   000000                     _TXSTAbits	set	4012
   128   000000                     _SPBRG	set	4015
   129   000000                     _TXIF	set	31988
   130   000000                     _EEIF	set	32012
   131   000000                     _SPBRGH	set	4016
   132   000000                     _TXREG	set	4013
   133                           
   134                           	psect	smallconst
   135   000800                     __psmallconst:
   136                           	callstack 0
   137   000800  00                 	db	0
   138   000801                     STR_3:
   139   000801  57                 	db	87	;'W'
   140   000802  72                 	db	114	;'r'
   141   000803  69                 	db	105	;'i'
   142   000804  74                 	db	116	;'t'
   143   000805  65                 	db	101	;'e'
   144   000806  20                 	db	32
   145   000807  65                 	db	101	;'e'
   146   000808  65                 	db	101	;'e'
   147   000809  70                 	db	112	;'p'
   148   00080A  72                 	db	114	;'r'
   149   00080B  6F                 	db	111	;'o'
   150   00080C  6D                 	db	109	;'m'
   151   00080D  20                 	db	32
   152   00080E  6D                 	db	109	;'m'
   153   00080F  6F                 	db	111	;'o'
   154   000810  74                 	db	116	;'t'
   155   000811  6F                 	db	111	;'o'
   156   000812  72                 	db	114	;'r'
   157   000813  20                 	db	32
   158   000814  61                 	db	97	;'a'
   159   000815  20                 	db	32
   160   000816  73                 	db	115	;'s'
   161   000817  70                 	db	112	;'p'
   162   000818  65                 	db	101	;'e'
   163   000819  65                 	db	101	;'e'
   164   00081A  64                 	db	100	;'d'
   165   00081B  3A                 	db	58	;':'
   166   00081C  20                 	db	32
   167   00081D  25                 	db	37
   168   00081E  64                 	db	100	;'d'
   169   00081F  0A                 	db	10
   170   000820  00                 	db	0
   171   000821                     STR_5:
   172   000821  57                 	db	87	;'W'
   173   000822  72                 	db	114	;'r'
   174   000823  69                 	db	105	;'i'
   175   000824  74                 	db	116	;'t'
   176   000825  65                 	db	101	;'e'
   177   000826  20                 	db	32
   178   000827  65                 	db	101	;'e'
   179   000828  65                 	db	101	;'e'
   180   000829  70                 	db	112	;'p'
   181   00082A  72                 	db	114	;'r'
   182   00082B  6F                 	db	111	;'o'
   183   00082C  6D                 	db	109	;'m'
   184   00082D  20                 	db	32
   185   00082E  6D                 	db	109	;'m'
   186   00082F  6F                 	db	111	;'o'
   187   000830  74                 	db	116	;'t'
   188   000831  6F                 	db	111	;'o'
   189   000832  72                 	db	114	;'r'
   190   000833  20                 	db	32
   191   000834  62                 	db	98	;'b'
   192   000835  20                 	db	32
   193   000836  73                 	db	115	;'s'
   194   000837  70                 	db	112	;'p'
   195   000838  65                 	db	101	;'e'
   196   000839  65                 	db	101	;'e'
   197   00083A  64                 	db	100	;'d'
   198   00083B  3A                 	db	58	;':'
   199   00083C  20                 	db	32
   200   00083D  25                 	db	37
   201   00083E  64                 	db	100	;'d'
   202   00083F  0A                 	db	10
   203   000840  00                 	db	0
   204   000841  00                 	db	0	; dummy byte at the end
   205   000000                     
   206                           ; #config settings
   207                           
   208                           	psect	cinit
   209   0035EC                     __pcinit:
   210                           	callstack 0
   211   0035EC                     start_initialization:
   212                           	callstack 0
   213   0035EC                     __initialization:
   214                           	callstack 0
   215                           
   216                           ; Clear objects allocated to BANK3 (256 bytes)
   217   0035EC  EE03  F000         	lfsr	0,__pbssBANK3
   218   0035F0  EE11 F000          	lfsr	1,256
   219   0035F4                     clear_0:
   220   0035F4  6AEE               	clrf	postinc0,c
   221   0035F6  50E5               	movf	postdec1,w,c
   222   0035F8  50E1               	movf	fsr1l,w,c
   223   0035FA  E1FC               	bnz	clear_0
   224   0035FC  50E2               	movf	fsr1h,w,c
   225   0035FE  E1FA               	bnz	clear_0
   226                           
   227                           ; Clear objects allocated to BANK2 (32 bytes)
   228   003600  EE02  F000         	lfsr	0,__pbssBANK2
   229   003604  0E20               	movlw	32
   230   003606                     clear_1:
   231   003606  6AEE               	clrf	postinc0,c
   232   003608  06E8               	decf	wreg,f,c
   233   00360A  E1FD               	bnz	clear_1
   234                           
   235                           ; Clear objects allocated to BANK1 (244 bytes)
   236   00360C  EE01  F000         	lfsr	0,__pbssBANK1
   237   003610  0EF4               	movlw	244
   238   003612                     clear_2:
   239   003612  6AEE               	clrf	postinc0,c
   240   003614  06E8               	decf	wreg,f,c
   241   003616  E1FD               	bnz	clear_2
   242                           
   243                           ; Clear objects allocated to BANK0 (113 bytes)
   244   003618  EE00  F060         	lfsr	0,__pbssBANK0
   245   00361C  0E71               	movlw	113
   246   00361E                     clear_3:
   247   00361E  6AEE               	clrf	postinc0,c
   248   003620  06E8               	decf	wreg,f,c
   249   003622  E1FD               	bnz	clear_3
   250                           
   251                           ; Clear objects allocated to COMRAM (6 bytes)
   252   003624  6A58               	clrf	(__pbssCOMRAM+5)& (0+255),c
   253   003626  6A57               	clrf	(__pbssCOMRAM+4)& (0+255),c
   254   003628  6A56               	clrf	(__pbssCOMRAM+3)& (0+255),c
   255   00362A  6A55               	clrf	(__pbssCOMRAM+2)& (0+255),c
   256   00362C  6A54               	clrf	(__pbssCOMRAM+1)& (0+255),c
   257   00362E  6A53               	clrf	__pbssCOMRAM& (0+255),c
   258   003630                     end_of_initialization:
   259                           	callstack 0
   260   003630                     __end_of__initialization:
   261                           	callstack 0
   262   003630  9059               	bcf	int$flags,0,c	;clear compiler interrupt flag (level 1)
   263   003632  9259               	bcf	int$flags,1,c	;clear compiler interrupt flag (level 2)
   264   003634  0E00               	movlw	low (__Lsmallconst shr (0+16))
   265   003636  6EF8               	movwf	tblptru,c
   266   003638  0E08               	movlw	high __Lsmallconst
   267   00363A  6EF7               	movwf	tblptrh,c
   268   00363C  0100               	movlb	0
   269   00363E  EFA4  F01B         	goto	_main	;jump to C main() function
   270                           
   271                           	psect	bssCOMRAM
   272   000053                     __pbssCOMRAM:
   273                           	callstack 0
   274   000053                     _mode_counter:
   275                           	callstack 0
   276   000053                     	ds	2
   277   000055                     _status_value:
   278                           	callstack 0
   279   000055                     	ds	2
   280   000057                     _status_mode:
   281                           	callstack 0
   282   000057                     	ds	1
   283   000058                     _initial_state:
   284                           	callstack 0
   285   000058                     	ds	1
   286                           
   287                           	psect	bssBANK0
   288   000060                     __pbssBANK0:
   289                           	callstack 0
   290   000060                     _counter:
   291                           	callstack 0
   292   000060                     	ds	40
   293   000088                     _combination_state:
   294                           	callstack 0
   295   000088                     	ds	10
   296   000092                     _count_reads:
   297                           	callstack 0
   298   000092                     	ds	8
   299   00009A                     _leds:
   300                           	callstack 0
   301   00009A                     	ds	5
   302   00009F                     _double_click_evt:
   303                           	callstack 0
   304   00009F                     	ds	5
   305   0000A4                     _single_click_evt:
   306                           	callstack 0
   307   0000A4                     	ds	5
   308   0000A9                     _b:
   309                           	callstack 0
   310   0000A9                     	ds	5
   311   0000AE                     _b_state:
   312                           	callstack 0
   313   0000AE                     	ds	5
   314   0000B3                     _pwm:
   315                           	callstack 0
   316   0000B3                     	ds	4
   317   0000B7                     _width:
   318                           	callstack 0
   319   0000B7                     	ds	2
   320   0000B9                     _prec:
   321                           	callstack 0
   322   0000B9                     	ds	2
   323   0000BB                     _mode_config:
   324                           	callstack 0
   325   0000BB                     	ds	2
   326   0000BD                     _mode:
   327                           	callstack 0
   328   0000BD                     	ds	2
   329   0000BF                     _motor_b_speed_read_value:
   330                           	callstack 0
   331   0000BF                     	ds	2
   332   0000C1                     _motor_a_speed_read_value:
   333                           	callstack 0
   334   0000C1                     	ds	2
   335   0000C3                     _flag_init:
   336                           	callstack 0
   337   0000C3                     	ds	2
   338   0000C5                     _status_code:
   339                           	callstack 0
   340   0000C5                     	ds	2
   341   0000C7                     _status_final_mode:
   342                           	callstack 0
   343   0000C7                     	ds	2
   344   0000C9                     _status_next_mode:
   345                           	callstack 0
   346   0000C9                     	ds	2
   347   0000CB                     _status_intermitency_counter:
   348                           	callstack 0
   349   0000CB                     	ds	2
   350   0000CD                     _status_persisted:
   351                           	callstack 0
   352   0000CD                     	ds	2
   353   0000CF                     _flags:
   354                           	callstack 0
   355   0000CF                     	ds	1
   356   0000D0                     _int_status:
   357                           	callstack 0
   358   0000D0                     	ds	1
   359                           
   360                           	psect	bssBANK1
   361   000100                     __pbssBANK1:
   362                           	callstack 0
   363   000100                     _sum_read:
   364                           	callstack 0
   365   000100                     	ds	80
   366   000150                     _state_counter:
   367                           	callstack 0
   368   000150                     	ds	40
   369   000178                     _b_counter:
   370                           	callstack 0
   371   000178                     	ds	40
   372   0001A0                     _avg_input:
   373                           	callstack 0
   374   0001A0                     	ds	20
   375   0001B4                     _an_input:
   376                           	callstack 0
   377   0001B4                     	ds	20
   378   0001C8                     _amount_cycles:
   379                           	callstack 0
   380   0001C8                     	ds	8
   381   0001D0                     _sum_iterations:
   382                           	callstack 0
   383   0001D0                     	ds	8
   384   0001D8                     _iterations:
   385                           	callstack 0
   386   0001D8                     	ds	8
   387   0001E0                     _triple_click_evt:
   388                           	callstack 0
   389   0001E0                     	ds	5
   390   0001E5                     _release_evt:
   391                           	callstack 0
   392   0001E5                     	ds	5
   393   0001EA                     _press_evt:
   394                           	callstack 0
   395   0001EA                     	ds	5
   396   0001EF                     _last_b:
   397                           	callstack 0
   398   0001EF                     	ds	5
   399                           
   400                           	psect	bssBANK2
   401   000200                     __pbssBANK2:
   402                           	callstack 0
   403   000200                     _dbuf:
   404                           	callstack 0
   405   000200                     	ds	32
   406                           
   407                           	psect	bssBANK3
   408   000300                     __pbssBANK3:
   409                           	callstack 0
   410   000300                     _persisted_data:
   411                           	callstack 0
   412   000300                     	ds	256
   413                           
   414                           	psect	cstackBANK1
   415   0001F4                     __pcstackBANK1:
   416                           	callstack 0
   417   0001F4                     ??_loop:
   418                           
   419                           ; 1 bytes @ 0x0
   420   0001F4                     	ds	8
   421                           
   422                           	psect	cstackBANK0
   423   0000D1                     __pcstackBANK0:
   424                           	callstack 0
   425   0000D1                     _dtoa$1899:
   426                           	callstack 0
   427                           
   428                           ; 2 bytes @ 0x0
   429   0000D1                     	ds	2
   430   0000D3                     dtoa@p:
   431                           	callstack 0
   432                           
   433                           ; 2 bytes @ 0x2
   434   0000D3                     	ds	2
   435   0000D5                     dtoa@w:
   436                           	callstack 0
   437                           
   438                           ; 2 bytes @ 0x4
   439   0000D5                     	ds	2
   440   0000D7                     dtoa@n:
   441                           	callstack 0
   442                           
   443                           ; 8 bytes @ 0x6
   444   0000D7                     	ds	8
   445   0000DF                     dtoa@i:
   446                           	callstack 0
   447                           
   448                           ; 2 bytes @ 0xE
   449   0000DF                     	ds	2
   450   0000E1                     dtoa@s:
   451                           	callstack 0
   452                           
   453                           ; 1 bytes @ 0x10
   454   0000E1                     	ds	1
   455   0000E2                     vfpfcnvrt@convarg:
   456                           	callstack 0
   457                           
   458                           ; 8 bytes @ 0x11
   459   0000E2                     	ds	8
   460   0000EA                     vfpfcnvrt@cp:
   461                           	callstack 0
   462                           
   463                           ; 2 bytes @ 0x19
   464   0000EA                     	ds	2
   465   0000EC                     ?_vfprintf:
   466                           	callstack 0
   467   0000EC                     vfprintf@fp:
   468                           	callstack 0
   469                           
   470                           ; 2 bytes @ 0x1B
   471   0000EC                     	ds	2
   472   0000EE                     vfprintf@fmt:
   473                           	callstack 0
   474                           
   475                           ; 2 bytes @ 0x1D
   476   0000EE                     	ds	2
   477   0000F0                     vfprintf@ap:
   478                           	callstack 0
   479                           
   480                           ; 2 bytes @ 0x1F
   481   0000F0                     	ds	2
   482   0000F2                     vfprintf@cfmt:
   483                           	callstack 0
   484                           
   485                           ; 2 bytes @ 0x21
   486   0000F2                     	ds	2
   487   0000F4                     ?_printf:
   488                           	callstack 0
   489   0000F4                     printf@fmt:
   490                           	callstack 0
   491                           
   492                           ; 2 bytes @ 0x23
   493   0000F4                     	ds	4
   494   0000F8                     printf@ap:
   495                           	callstack 0
   496                           
   497                           ; 2 bytes @ 0x27
   498   0000F8                     	ds	2
   499   0000FA                     loop@analog_read:
   500                           	callstack 0
   501                           
   502                           ; 2 bytes @ 0x29
   503   0000FA                     	ds	2
   504   0000FC                     loop@analog_read_1372:
   505                           	callstack 0
   506                           
   507                           ; 2 bytes @ 0x2B
   508   0000FC                     	ds	2
   509                           
   510                           	psect	cstackCOMRAM
   511   000001                     __pcstackCOMRAM:
   512                           	callstack 0
   513   000001                     ??_enc:
   514   000001                     
   515                           ; 1 bytes @ 0x0
   516   000001                     	ds	4
   517   000005                     enc@i:
   518                           	callstack 0
   519                           
   520                           ; 2 bytes @ 0x4
   521   000005                     	ds	2
   522   000007                     ??_read_eeprom:
   523   000007                     ??_write_eeprom:
   524   000007                     ??_init_vars:
   525   000007                     ??_buttons_init:
   526   000007                     ??_buttons_loop:
   527   000007                     ?___awmod:
   528                           	callstack 0
   529   000007                     ?___omul:
   530                           	callstack 0
   531   000007                     ?___aomod:
   532                           	callstack 0
   533   000007                     putch@data:
   534                           	callstack 0
   535   000007                     status_set_mode@next_mode:
   536                           	callstack 0
   537   000007                     status_init@i:
   538                           	callstack 0
   539   000007                     ___awmod@dividend:
   540                           	callstack 0
   541   000007                     ___omul@multiplier:
   542                           	callstack 0
   543   000007                     ___aomod@dividend:
   544                           	callstack 0
   545                           
   546                           ; 8 bytes @ 0x6
   547   000007                     	ds	1
   548   000008                     status_set_mode@final_mode:
   549                           	callstack 0
   550   000008                     fputc@c:
   551                           	callstack 0
   552                           
   553                           ; 2 bytes @ 0x7
   554   000008                     	ds	1
   555   000009                     status_set_mode@mode:
   556                           	callstack 0
   557   000009                     init_vars@i:
   558                           	callstack 0
   559   000009                     buttons_init@i:
   560                           	callstack 0
   561   000009                     ___awmod@divisor:
   562                           	callstack 0
   563                           
   564                           ; 2 bytes @ 0x8
   565   000009                     	ds	1
   566   00000A                     fputc@fp:
   567                           	callstack 0
   568                           
   569                           ; 2 bytes @ 0x9
   570   00000A                     	ds	1
   571   00000B                     write_eeprom@addr:
   572                           	callstack 0
   573   00000B                     ___awmod@counter:
   574                           	callstack 0
   575   00000B                     read_eeprom@aux:
   576                           	callstack 0
   577                           
   578                           ; 2 bytes @ 0xA
   579   00000B                     	ds	1
   580   00000C                     ??_fputc:
   581   00000C                     ___awmod@sign:
   582                           	callstack 0
   583                           
   584                           ; 1 bytes @ 0xB
   585   00000C                     	ds	1
   586   00000D                     ?___wmul:
   587                           	callstack 0
   588   00000D                     read_eeprom@addr:
   589                           	callstack 0
   590   00000D                     ___wmul@multiplier:
   591                           	callstack 0
   592                           
   593                           ; 2 bytes @ 0xC
   594   00000D                     	ds	2
   595   00000F                     ___wmul@multiplicand:
   596                           	callstack 0
   597   00000F                     ___omul@multiplicand:
   598                           	callstack 0
   599   00000F                     ___aomod@divisor:
   600                           	callstack 0
   601                           
   602                           ; 8 bytes @ 0xE
   603   00000F                     	ds	2
   604   000011                     ___wmul@product:
   605                           	callstack 0
   606   000011                     fputs@s:
   607                           	callstack 0
   608   000011                     buttons_loop@click_evt:
   609                           	callstack 0
   610                           
   611                           ; 5 bytes @ 0x10
   612   000011                     	ds	2
   613   000013                     ?___awdiv:
   614                           	callstack 0
   615   000013                     read_values@a_sign:
   616                           	callstack 0
   617   000013                     ___awdiv@dividend:
   618                           	callstack 0
   619   000013                     fputs@fp:
   620                           	callstack 0
   621                           
   622                           ; 2 bytes @ 0x12
   623   000013                     	ds	2
   624   000015                     fputs@c:
   625                           	callstack 0
   626   000015                     read_values@b_sign:
   627                           	callstack 0
   628   000015                     ___awdiv@divisor:
   629                           	callstack 0
   630                           
   631                           ; 2 bytes @ 0x14
   632   000015                     	ds	1
   633   000016                     buttons_loop@i_1323:
   634                           	callstack 0
   635   000016                     fputs@i:
   636                           	callstack 0
   637                           
   638                           ; 2 bytes @ 0x15
   639   000016                     	ds	1
   640   000017                     ___aomod@counter:
   641                           	callstack 0
   642   000017                     ___awdiv@counter:
   643                           	callstack 0
   644   000017                     ___omul@product:
   645                           	callstack 0
   646                           
   647                           ; 8 bytes @ 0x16
   648   000017                     	ds	1
   649   000018                     ___aomod@sign:
   650                           	callstack 0
   651   000018                     ___awdiv@sign:
   652                           	callstack 0
   653   000018                     buttons_loop@i:
   654                           	callstack 0
   655   000018                     pad@fp:
   656                           	callstack 0
   657                           
   658                           ; 2 bytes @ 0x17
   659   000018                     	ds	1
   660   000019                     ?_abs:
   661                           	callstack 0
   662   000019                     ___awdiv@quotient:
   663                           	callstack 0
   664   000019                     abs@a:
   665                           	callstack 0
   666                           
   667                           ; 2 bytes @ 0x18
   668   000019                     	ds	1
   669   00001A                     pad@buf:
   670                           	callstack 0
   671                           
   672                           ; 2 bytes @ 0x19
   673   00001A                     	ds	1
   674   00001B                     ??_abs:
   675   00001B                     ??_update_pwm:
   676   00001B                     ??_status_loop:
   677                           
   678                           ; 1 bytes @ 0x1A
   679   00001B                     	ds	1
   680   00001C                     update_pwm@pwm0:
   681                           	callstack 0
   682   00001C                     pad@p:
   683                           	callstack 0
   684                           
   685                           ; 2 bytes @ 0x1B
   686   00001C                     	ds	2
   687   00001E                     ??_pad:
   688   00001E                     update_pwm@pwm1:
   689                           	callstack 0
   690                           
   691                           ; 2 bytes @ 0x1D
   692   00001E                     	ds	1
   693   00001F                     ?___aodiv:
   694                           	callstack 0
   695   00001F                     pad@i:
   696                           	callstack 0
   697   00001F                     ___aodiv@dividend:
   698                           	callstack 0
   699                           
   700                           ; 8 bytes @ 0x1E
   701   00001F                     	ds	2
   702   000021                     pad@w:
   703                           	callstack 0
   704                           
   705                           ; 2 bytes @ 0x20
   706   000021                     	ds	3
   707   000024                     status_loop@half_status:
   708                           	callstack 0
   709                           
   710                           ; 2 bytes @ 0x23
   711   000024                     	ds	2
   712   000026                     status_loop@show_led:
   713                           	callstack 0
   714                           
   715                           ; 2 bytes @ 0x25
   716   000026                     	ds	1
   717   000027                     ___aodiv@divisor:
   718                           	callstack 0
   719                           
   720                           ; 8 bytes @ 0x26
   721   000027                     	ds	1
   722   000028                     status_loop@half_led:
   723                           	callstack 0
   724                           
   725                           ; 2 bytes @ 0x27
   726   000028                     	ds	2
   727   00002A                     status_loop@i:
   728                           	callstack 0
   729                           
   730                           ; 2 bytes @ 0x29
   731   00002A                     	ds	5
   732   00002F                     ___aodiv@counter:
   733                           	callstack 0
   734                           
   735                           ; 1 bytes @ 0x2E
   736   00002F                     	ds	1
   737   000030                     ___aodiv@sign:
   738                           	callstack 0
   739                           
   740                           ; 1 bytes @ 0x2F
   741   000030                     	ds	1
   742   000031                     ___aodiv@quotient:
   743                           	callstack 0
   744                           
   745                           ; 8 bytes @ 0x30
   746   000031                     	ds	8
   747   000039                     ??_read_analog:
   748   000039                     dtoa@fp:
   749                           	callstack 0
   750                           
   751                           ; 2 bytes @ 0x38
   752   000039                     	ds	2
   753   00003B                     dtoa@d:
   754                           	callstack 0
   755                           
   756                           ; 8 bytes @ 0x3A
   757   00003B                     	ds	8
   758   000043                     ??_dtoa:
   759                           
   760                           ; 1 bytes @ 0x42
   761   000043                     	ds	6
   762   000049                     read_analog@aux:
   763                           	callstack 0
   764                           
   765                           ; 2 bytes @ 0x48
   766   000049                     	ds	2
   767   00004B                     read_analog@i:
   768                           	callstack 0
   769   00004B                     vfpfcnvrt@fp:
   770                           	callstack 0
   771                           
   772                           ; 2 bytes @ 0x4A
   773   00004B                     	ds	2
   774   00004D                     vfpfcnvrt@fmt:
   775                           	callstack 0
   776                           
   777                           ; 2 bytes @ 0x4C
   778   00004D                     	ds	2
   779   00004F                     vfpfcnvrt@ap:
   780                           	callstack 0
   781                           
   782                           ; 2 bytes @ 0x4E
   783   00004F                     	ds	2
   784   000051                     ??_vfpfcnvrt:
   785                           
   786                           ; 1 bytes @ 0x50
   787   000051                     	ds	2
   788   000053                     
   789                           ; 1 bytes @ 0x52
   790 ;;
   791 ;;Main: autosize = 0, tempsize = 0, incstack = 0, save=0
   792 ;;
   793 ;; *************** function _main *****************
   794 ;; Defined at:
   795 ;;		line 920 in file "main.c"
   796 ;; Parameters:    Size  Location     Type
   797 ;;		None
   798 ;; Auto vars:     Size  Location     Type
   799 ;;		None
   800 ;; Return value:  Size  Location     Type
   801 ;;                  1    wreg      void 
   802 ;; Registers used:
   803 ;;		wreg, fsr1l, fsr1h, fsr2l, fsr2h, status,2, status,0, tblptrl, tblptrh, tblptru, prodl, prodh, cstack
   804 ;; Tracked objects:
   805 ;;		On entry : 0/0
   806 ;;		On exit  : 0/0
   807 ;;		Unchanged: 0/0
   808 ;; Data sizes:     COMRAM   BANK0   BANK1   BANK2   BANK3   BANK4   BANK5   BANK6   BANK7
   809 ;;      Params:         0       0       0       0       0       0       0       0       0
   810 ;;      Locals:         0       0       0       0       0       0       0       0       0
   811 ;;      Temps:          0       0       0       0       0       0       0       0       0
   812 ;;      Totals:         0       0       0       0       0       0       0       0       0
   813 ;;Total ram usage:        0 bytes
   814 ;; Hardware stack levels required when called: 10
   815 ;; This function calls:
   816 ;;		_buttons_init
   817 ;;		_buttons_loop
   818 ;;		_config_micro
   819 ;;		_init
   820 ;;		_init_vars
   821 ;;		_loop
   822 ;;		_read_analog
   823 ;;		_status_init
   824 ;;		_status_loop
   825 ;;		_update_pwm
   826 ;; This function is called by:
   827 ;;		Startup code after reset
   828 ;; This function uses a non-reentrant model
   829 ;;
   830                           
   831                           	psect	text0
   832   003748                     __ptext0:
   833                           	callstack 0
   834   003748                     _main:
   835                           	callstack 21
   836   003748                     
   837                           ;main.c: 921:     config_micro();
   838   003748  EC4C  F017         	call	_config_micro	;wreg free
   839   00374C                     
   840                           ;main.c: 922:     init_vars();
   841   00374C  ECC3  F017         	call	_init_vars	;wreg free
   842   003750                     
   843                           ;main.c: 923:     buttons_init();
   844   003750  ECB8  F016         	call	_buttons_init	;wreg free
   845   003754                     
   846                           ;main.c: 924:     status_init();
   847   003754  EC90  F01A         	call	_status_init	;wreg free
   848   003758                     
   849                           ;main.c: 925:     init();
   850   003758  ECBC  F01B         	call	_init	;wreg free
   851   00375C                     l3606:
   852                           
   853                           ;main.c: 928:         update_pwm();
   854   00375C  ECC5  F012         	call	_update_pwm	;wreg free
   855   003760                     
   856                           ;main.c: 929:         read_analog();
   857   003760  ECB8  F013         	call	_read_analog	;wreg free
   858   003764                     
   859                           ;main.c: 930:         buttons_loop();
   860   003764  EC21  F004         	call	_buttons_loop	;wreg free
   861   003768                     
   862                           ;main.c: 931:         status_loop();
   863   003768  EC1E  F009         	call	_status_loop	;wreg free
   864   00376C                     
   865                           ;main.c: 932:         loop();
   866   00376C  ECAE  F00D         	call	_loop	;wreg free
   867   003770  EFAE  F01B         	goto	l3606
   868   003774  EF07  F000         	goto	start
   869   003778                     __end_of_main:
   870                           	callstack 0
   871                           
   872 ;; *************** function _update_pwm *****************
   873 ;; Defined at:
   874 ;;		line 327 in file "main.c"
   875 ;; Parameters:    Size  Location     Type
   876 ;;		None
   877 ;; Auto vars:     Size  Location     Type
   878 ;;  pwm1            2   29[COMRAM] int 
   879 ;;  pwm0            2   27[COMRAM] int 
   880 ;; Return value:  Size  Location     Type
   881 ;;                  1    wreg      void 
   882 ;; Registers used:
   883 ;;		wreg, status,2, status,0, cstack
   884 ;; Tracked objects:
   885 ;;		On entry : 0/0
   886 ;;		On exit  : 0/0
   887 ;;		Unchanged: 0/0
   888 ;; Data sizes:     COMRAM   BANK0   BANK1   BANK2   BANK3   BANK4   BANK5   BANK6   BANK7
   889 ;;      Params:         0       0       0       0       0       0       0       0       0
   890 ;;      Locals:         4       0       0       0       0       0       0       0       0
   891 ;;      Temps:          1       0       0       0       0       0       0       0       0
   892 ;;      Totals:         5       0       0       0       0       0       0       0       0
   893 ;;Total ram usage:        5 bytes
   894 ;; Hardware stack levels used: 1
   895 ;; Hardware stack levels required when called: 2
   896 ;; This function calls:
   897 ;;		___awdiv
   898 ;; This function is called by:
   899 ;;		_main
   900 ;; This function uses a non-reentrant model
   901 ;;
   902                           
   903                           	psect	text1
   904   00258A                     __ptext1:
   905                           	callstack 0
   906   00258A                     _update_pwm:
   907                           	callstack 28
   908   00258A                     
   909                           ;main.c: 328:     int pwm0, pwm1;;main.c: 330:     if (pwm[0] > 600){
   910   00258A  0100               	movlb	0	; () banked
   911   00258C  BFB4               	btfsc	(_pwm+1)& (0+255),7,b
   912   00258E  EFD2  F012         	goto	u3301
   913   002592  0E59               	movlw	89
   914   002594  5DB3               	subwf	_pwm& (0+255),w,b
   915   002596  0E02               	movlw	2
   916   002598  59B4               	subwfb	(_pwm+1)& (0+255),w,b
   917   00259A  A0D8               	btfss	status,0,c
   918   00259C  EFD2  F012         	goto	u3301
   919   0025A0  EFD4  F012         	goto	u3300
   920   0025A4                     u3301:
   921   0025A4  EFDA  F012         	goto	l2806
   922   0025A8                     u3300:
   923   0025A8                     
   924                           ; BSR set to: 0
   925                           ;main.c: 331:         pwm0 = 600;
   926   0025A8  0E02               	movlw	2
   927   0025AA  6E1D               	movwf	(update_pwm@pwm0+1)^0,c
   928   0025AC  0E58               	movlw	88
   929   0025AE  6E1C               	movwf	update_pwm@pwm0^0,c
   930                           
   931                           ;main.c: 332:     }else if (pwm[0] < -600){
   932   0025B0  EFF2  F012         	goto	l2810
   933   0025B4                     l2806:
   934                           
   935                           ; BSR set to: 0
   936   0025B4  AFB4               	btfss	(_pwm+1)& (0+255),7,b
   937   0025B6  EFE6  F012         	goto	u3311
   938   0025BA  0EA8               	movlw	168
   939   0025BC  5DB3               	subwf	_pwm& (0+255),w,b
   940   0025BE  0EFD               	movlw	253
   941   0025C0  59B4               	subwfb	(_pwm+1)& (0+255),w,b
   942   0025C2  B0D8               	btfsc	status,0,c
   943   0025C4  EFE6  F012         	goto	u3311
   944   0025C8  EFE8  F012         	goto	u3310
   945   0025CC                     u3311:
   946   0025CC  EFEE  F012         	goto	l163
   947   0025D0                     u3310:
   948   0025D0                     
   949                           ; BSR set to: 0
   950                           ;main.c: 333:         pwm0 = -600;
   951   0025D0  0EFD               	movlw	253
   952   0025D2  6E1D               	movwf	(update_pwm@pwm0+1)^0,c
   953   0025D4  0EA8               	movlw	168
   954   0025D6  6E1C               	movwf	update_pwm@pwm0^0,c
   955                           
   956                           ;main.c: 334:     }else{
   957   0025D8  EFF2  F012         	goto	l2810
   958   0025DC                     l163:
   959                           
   960                           ; BSR set to: 0
   961                           ;main.c: 335:         pwm0 = pwm[0];
   962   0025DC  C0B3  F01C         	movff	_pwm,update_pwm@pwm0
   963   0025E0  C0B4  F01D         	movff	_pwm+1,update_pwm@pwm0+1
   964   0025E4                     l2810:
   965                           
   966                           ; BSR set to: 0
   967                           ;main.c: 338:     PORTDbits.RD1 = pwm0 > 0 ? 0 : 1;
   968   0025E4  BE1D               	btfsc	(update_pwm@pwm0+1)^0,7,c
   969   0025E6  EFFD  F012         	goto	u3321
   970   0025EA  501D               	movf	(update_pwm@pwm0+1)^0,w,c
   971   0025EC  E10A               	bnz	u3320
   972   0025EE  041C               	decf	update_pwm@pwm0^0,w,c
   973   0025F0  A0D8               	btfss	status,0,c
   974   0025F2  EFFD  F012         	goto	u3321
   975   0025F6  EF01  F013         	goto	u3320
   976   0025FA                     u3321:
   977   0025FA  6A1B               	clrf	??_update_pwm^0,c
   978   0025FC  2A1B               	incf	??_update_pwm^0,f,c
   979   0025FE  EF02  F013         	goto	u3338
   980   002602                     u3320:
   981   002602  6A1B               	clrf	??_update_pwm^0,c
   982   002604                     u3338:
   983   002604  461B               	rlncf	??_update_pwm^0,f,c
   984   002606  5083               	movf	131,w,c	;volatile
   985   002608  181B               	xorwf	??_update_pwm^0,w,c
   986   00260A  0BFD               	andlw	-3
   987   00260C  181B               	xorwf	??_update_pwm^0,w,c
   988   00260E  6E83               	movwf	131,c	;volatile
   989                           
   990                           ;main.c: 339:     PORTDbits.RD0 = pwm0 < 0 ? 0 : 1;
   991   002610  BE1D               	btfsc	(update_pwm@pwm0+1)^0,7,c
   992   002612  EF11  F013         	goto	u3340
   993   002616  EF0D  F013         	goto	u3341
   994   00261A                     u3341:
   995   00261A  6A1B               	clrf	??_update_pwm^0,c
   996   00261C  2A1B               	incf	??_update_pwm^0,f,c
   997   00261E  EF12  F013         	goto	u3358
   998   002622                     u3340:
   999   002622  6A1B               	clrf	??_update_pwm^0,c
  1000   002624                     u3358:
  1001   002624  5083               	movf	131,w,c	;volatile
  1002   002626  181B               	xorwf	??_update_pwm^0,w,c
  1003   002628  0BFE               	andlw	-2
  1004   00262A  181B               	xorwf	??_update_pwm^0,w,c
  1005   00262C  6E83               	movwf	131,c	;volatile
  1006                           
  1007                           ;main.c: 340:     pwm0 = pwm0 > 0 ? pwm0 : (-pwm0);
  1008   00262E  BE1D               	btfsc	(update_pwm@pwm0+1)^0,7,c
  1009   002630  EF24  F013         	goto	u3360
  1010   002634  501D               	movf	(update_pwm@pwm0+1)^0,w,c
  1011   002636  E106               	bnz	u3361
  1012   002638  041C               	decf	update_pwm@pwm0^0,w,c
  1013   00263A  B0D8               	btfsc	status,0,c
  1014   00263C  EF22  F013         	goto	u3361
  1015   002640  EF24  F013         	goto	u3360
  1016   002644                     u3361:
  1017   002644  EF28  F013         	goto	l2814
  1018   002648                     u3360:
  1019   002648  6C1C               	negf	update_pwm@pwm0^0,c
  1020   00264A  1E1D               	comf	(update_pwm@pwm0+1)^0,f,c
  1021   00264C  B0D8               	btfsc	status,0,c
  1022   00264E  2A1D               	incf	(update_pwm@pwm0+1)^0,f,c
  1023   002650                     l2814:
  1024                           
  1025                           ;main.c: 342:     CCP1CONbits.DC1B = pwm0 % 4;
  1026   002650  C01C  F01B         	movff	update_pwm@pwm0,??_update_pwm
  1027   002654  0E03               	movlw	3
  1028   002656  161B               	andwf	??_update_pwm^0,f,c
  1029   002658  3A1B               	swapf	??_update_pwm^0,f,c
  1030   00265A  50BD               	movf	189,w,c	;volatile
  1031   00265C  181B               	xorwf	??_update_pwm^0,w,c
  1032   00265E  0BCF               	andlw	-49
  1033   002660  181B               	xorwf	??_update_pwm^0,w,c
  1034   002662  6EBD               	movwf	189,c	;volatile
  1035   002664                     
  1036                           ;main.c: 343:     CCPR1L = pwm0 / 4;
  1037   002664  C01C  F013         	movff	update_pwm@pwm0,___awdiv@dividend
  1038   002668  C01D  F014         	movff	update_pwm@pwm0+1,___awdiv@dividend+1
  1039   00266C  0E00               	movlw	0
  1040   00266E  6E16               	movwf	(___awdiv@divisor+1)^0,c
  1041   002670  0E04               	movlw	4
  1042   002672  6E15               	movwf	___awdiv@divisor^0,c
  1043   002674  EC29  F018         	call	___awdiv	;wreg free
  1044   002678  5013               	movf	?___awdiv^0,w,c
  1045   00267A  6EBE               	movwf	190,c	;volatile
  1046   00267C                     
  1047                           ;main.c: 345:     if (pwm[1] > 600){
  1048   00267C  0100               	movlb	0	; () banked
  1049   00267E  BFB6               	btfsc	(_pwm+3)& (0+255),7,b
  1050   002680  EF4B  F013         	goto	u3371
  1051   002684  0E59               	movlw	89
  1052   002686  5DB5               	subwf	(_pwm+2)& (0+255),w,b
  1053   002688  0E02               	movlw	2
  1054   00268A  59B6               	subwfb	(_pwm+3)& (0+255),w,b
  1055   00268C  A0D8               	btfss	status,0,c
  1056   00268E  EF4B  F013         	goto	u3371
  1057   002692  EF4D  F013         	goto	u3370
  1058   002696                     u3371:
  1059   002696  EF53  F013         	goto	l2822
  1060   00269A                     u3370:
  1061   00269A                     
  1062                           ; BSR set to: 0
  1063                           ;main.c: 346:         pwm1 = 600;
  1064   00269A  0E02               	movlw	2
  1065   00269C  6E1F               	movwf	(update_pwm@pwm1+1)^0,c
  1066   00269E  0E58               	movlw	88
  1067   0026A0  6E1E               	movwf	update_pwm@pwm1^0,c
  1068                           
  1069                           ;main.c: 347:     }else if (pwm[1] < -600){
  1070   0026A2  EF6B  F013         	goto	l2826
  1071   0026A6                     l2822:
  1072                           
  1073                           ; BSR set to: 0
  1074   0026A6  AFB6               	btfss	(_pwm+3)& (0+255),7,b
  1075   0026A8  EF5F  F013         	goto	u3381
  1076   0026AC  0EA8               	movlw	168
  1077   0026AE  5DB5               	subwf	(_pwm+2)& (0+255),w,b
  1078   0026B0  0EFD               	movlw	253
  1079   0026B2  59B6               	subwfb	(_pwm+3)& (0+255),w,b
  1080   0026B4  B0D8               	btfsc	status,0,c
  1081   0026B6  EF5F  F013         	goto	u3381
  1082   0026BA  EF61  F013         	goto	u3380
  1083   0026BE                     u3381:
  1084   0026BE  EF67  F013         	goto	l171
  1085   0026C2                     u3380:
  1086   0026C2                     
  1087                           ; BSR set to: 0
  1088                           ;main.c: 348:         pwm1 = -600;
  1089   0026C2  0EFD               	movlw	253
  1090   0026C4  6E1F               	movwf	(update_pwm@pwm1+1)^0,c
  1091   0026C6  0EA8               	movlw	168
  1092   0026C8  6E1E               	movwf	update_pwm@pwm1^0,c
  1093                           
  1094                           ;main.c: 349:     }else{
  1095   0026CA  EF6B  F013         	goto	l2826
  1096   0026CE                     l171:
  1097                           
  1098                           ; BSR set to: 0
  1099                           ;main.c: 350:         pwm1 = pwm[1];
  1100   0026CE  C0B5  F01E         	movff	_pwm+2,update_pwm@pwm1
  1101   0026D2  C0B6  F01F         	movff	_pwm+3,update_pwm@pwm1+1
  1102   0026D6                     l2826:
  1103                           
  1104                           ; BSR set to: 0
  1105                           ;main.c: 353:     PORTCbits.RC1 = pwm1 > 0 ? 0 : 1;
  1106   0026D6  BE1F               	btfsc	(update_pwm@pwm1+1)^0,7,c
  1107   0026D8  EF76  F013         	goto	u3391
  1108   0026DC  501F               	movf	(update_pwm@pwm1+1)^0,w,c
  1109   0026DE  E10A               	bnz	u3390
  1110   0026E0  041E               	decf	update_pwm@pwm1^0,w,c
  1111   0026E2  A0D8               	btfss	status,0,c
  1112   0026E4  EF76  F013         	goto	u3391
  1113   0026E8  EF7A  F013         	goto	u3390
  1114   0026EC                     u3391:
  1115   0026EC  6A1B               	clrf	??_update_pwm^0,c
  1116   0026EE  2A1B               	incf	??_update_pwm^0,f,c
  1117   0026F0  EF7B  F013         	goto	u3408
  1118   0026F4                     u3390:
  1119   0026F4  6A1B               	clrf	??_update_pwm^0,c
  1120   0026F6                     u3408:
  1121   0026F6  461B               	rlncf	??_update_pwm^0,f,c
  1122   0026F8  5082               	movf	130,w,c	;volatile
  1123   0026FA  181B               	xorwf	??_update_pwm^0,w,c
  1124   0026FC  0BFD               	andlw	-3
  1125   0026FE  181B               	xorwf	??_update_pwm^0,w,c
  1126   002700  6E82               	movwf	130,c	;volatile
  1127                           
  1128                           ;main.c: 354:     PORTCbits.RC0 = pwm1 < 0 ? 0 : 1;
  1129   002702  BE1F               	btfsc	(update_pwm@pwm1+1)^0,7,c
  1130   002704  EF8A  F013         	goto	u3410
  1131   002708  EF86  F013         	goto	u3411
  1132   00270C                     u3411:
  1133   00270C  6A1B               	clrf	??_update_pwm^0,c
  1134   00270E  2A1B               	incf	??_update_pwm^0,f,c
  1135   002710  EF8B  F013         	goto	u3428
  1136   002714                     u3410:
  1137   002714  6A1B               	clrf	??_update_pwm^0,c
  1138   002716                     u3428:
  1139   002716  5082               	movf	130,w,c	;volatile
  1140   002718  181B               	xorwf	??_update_pwm^0,w,c
  1141   00271A  0BFE               	andlw	-2
  1142   00271C  181B               	xorwf	??_update_pwm^0,w,c
  1143   00271E  6E82               	movwf	130,c	;volatile
  1144                           
  1145                           ;main.c: 355:     pwm1 = pwm1 > 0 ? pwm1 : (-pwm1);
  1146   002720  BE1F               	btfsc	(update_pwm@pwm1+1)^0,7,c
  1147   002722  EF9D  F013         	goto	u3430
  1148   002726  501F               	movf	(update_pwm@pwm1+1)^0,w,c
  1149   002728  E106               	bnz	u3431
  1150   00272A  041E               	decf	update_pwm@pwm1^0,w,c
  1151   00272C  B0D8               	btfsc	status,0,c
  1152   00272E  EF9B  F013         	goto	u3431
  1153   002732  EF9D  F013         	goto	u3430
  1154   002736                     u3431:
  1155   002736  EFA1  F013         	goto	l2830
  1156   00273A                     u3430:
  1157   00273A  6C1E               	negf	update_pwm@pwm1^0,c
  1158   00273C  1E1F               	comf	(update_pwm@pwm1+1)^0,f,c
  1159   00273E  B0D8               	btfsc	status,0,c
  1160   002740  2A1F               	incf	(update_pwm@pwm1+1)^0,f,c
  1161   002742                     l2830:
  1162                           
  1163                           ;main.c: 357:     CCP2CONbits.DC2B = pwm1 % 4;
  1164   002742  C01E  F01B         	movff	update_pwm@pwm1,??_update_pwm
  1165   002746  0E03               	movlw	3
  1166   002748  161B               	andwf	??_update_pwm^0,f,c
  1167   00274A  3A1B               	swapf	??_update_pwm^0,f,c
  1168   00274C  50BA               	movf	186,w,c	;volatile
  1169   00274E  181B               	xorwf	??_update_pwm^0,w,c
  1170   002750  0BCF               	andlw	-49
  1171   002752  181B               	xorwf	??_update_pwm^0,w,c
  1172   002754  6EBA               	movwf	186,c	;volatile
  1173   002756                     
  1174                           ;main.c: 358:     CCPR2L = pwm1 / 4;
  1175   002756  C01E  F013         	movff	update_pwm@pwm1,___awdiv@dividend
  1176   00275A  C01F  F014         	movff	update_pwm@pwm1+1,___awdiv@dividend+1
  1177   00275E  0E00               	movlw	0
  1178   002760  6E16               	movwf	(___awdiv@divisor+1)^0,c
  1179   002762  0E04               	movlw	4
  1180   002764  6E15               	movwf	___awdiv@divisor^0,c
  1181   002766  EC29  F018         	call	___awdiv	;wreg free
  1182   00276A  5013               	movf	?___awdiv^0,w,c
  1183   00276C  6EBB               	movwf	187,c	;volatile
  1184   00276E  0012               	return		;funcret
  1185   002770                     __end_of_update_pwm:
  1186                           	callstack 0
  1187                           
  1188 ;; *************** function _status_loop *****************
  1189 ;; Defined at:
  1190 ;;		line 585 in file "main.c"
  1191 ;; Parameters:    Size  Location     Type
  1192 ;;		None
  1193 ;; Auto vars:     Size  Location     Type
  1194 ;;  show_led        2   37[COMRAM] int 
  1195 ;;  i               2   41[COMRAM] int 
  1196 ;;  half_led        2   39[COMRAM] int 
  1197 ;;  half_status     2   35[COMRAM] int 
  1198 ;; Return value:  Size  Location     Type
  1199 ;;                  1    wreg      void 
  1200 ;; Registers used:
  1201 ;;		wreg, fsr2l, fsr2h, status,2, status,0, prodl, prodh, cstack
  1202 ;; Tracked objects:
  1203 ;;		On entry : 0/0
  1204 ;;		On exit  : 0/0
  1205 ;;		Unchanged: 0/0
  1206 ;; Data sizes:     COMRAM   BANK0   BANK1   BANK2   BANK3   BANK4   BANK5   BANK6   BANK7
  1207 ;;      Params:         0       0       0       0       0       0       0       0       0
  1208 ;;      Locals:         8       0       0       0       0       0       0       0       0
  1209 ;;      Temps:          9       0       0       0       0       0       0       0       0
  1210 ;;      Totals:        17       0       0       0       0       0       0       0       0
  1211 ;;Total ram usage:       17 bytes
  1212 ;; Hardware stack levels used: 1
  1213 ;; Hardware stack levels required when called: 2
  1214 ;; This function calls:
  1215 ;;		___awdiv
  1216 ;;		___awmod
  1217 ;;		___wmul
  1218 ;;		_status_set_mode
  1219 ;; This function is called by:
  1220 ;;		_main
  1221 ;; This function uses a non-reentrant model
  1222 ;;
  1223                           
  1224                           	psect	text2
  1225   00123C                     __ptext2:
  1226                           	callstack 0
  1227   00123C                     _status_loop:
  1228                           	callstack 28
  1229   00123C                     
  1230                           ;main.c: 586:     if (status_mode == 1 || status_mode == 2){
  1231   00123C  0457               	decf	_status_mode^0,w,c
  1232   00123E  B4D8               	btfsc	status,2,c
  1233   001240  EF24  F009         	goto	u4031
  1234   001244  EF26  F009         	goto	u4030
  1235   001248                     u4031:
  1236   001248  EF2F  F009         	goto	l3026
  1237   00124C                     u4030:
  1238   00124C  0E02               	movlw	2
  1239   00124E  1857               	xorwf	_status_mode^0,w,c
  1240   001250  A4D8               	btfss	status,2,c
  1241   001252  EF2D  F009         	goto	u4041
  1242   001256  EF2F  F009         	goto	u4040
  1243   00125A                     u4041:
  1244   00125A  EF8F  F00A         	goto	l3086
  1245   00125E                     u4040:
  1246   00125E                     l3026:
  1247                           
  1248                           ;main.c: 588:         if (counter[2] >= 10){
  1249   00125E  0100               	movlb	0	; () banked
  1250   001260  BF77               	btfsc	(_counter+23)& (0+255),7,b
  1251   001262  EF42  F009         	goto	u4051
  1252   001266  5177               	movf	(_counter+23)& (0+255),w,b
  1253   001268  1176               	iorwf	(_counter+22)& (0+255),w,b
  1254   00126A  1175               	iorwf	(_counter+21)& (0+255),w,b
  1255   00126C  1174               	iorwf	(_counter+20)& (0+255),w,b
  1256   00126E  1173               	iorwf	(_counter+19)& (0+255),w,b
  1257   001270  1172               	iorwf	(_counter+18)& (0+255),w,b
  1258   001272  1171               	iorwf	(_counter+17)& (0+255),w,b
  1259   001274  E109               	bnz	u4050
  1260   001276  0E0A               	movlw	10
  1261   001278  5D70               	subwf	(_counter+16)& (0+255),w,b
  1262   00127A  A0D8               	btfss	status,0,c
  1263   00127C  EF42  F009         	goto	u4051
  1264   001280  EF44  F009         	goto	u4050
  1265   001284                     u4051:
  1266   001284  EF7F  F009         	goto	l3046
  1267   001288                     u4050:
  1268   001288                     
  1269                           ; BSR set to: 0
  1270                           ;main.c: 589:             counter[2] = 0;
  1271   001288  EE20  F070         	lfsr	2,_counter+16
  1272   00128C  0E07               	movlw	7
  1273   00128E                     u4061:
  1274   00128E  6ADE               	clrf	postinc2,c
  1275   001290  06E8               	decf	wreg,f,c
  1276   001292  E2FD               	bc	u4061
  1277   001294                     
  1278                           ; BSR set to: 0
  1279                           ;main.c: 590:             status_intermitency_counter ++;
  1280   001294  4BCB               	infsnz	_status_intermitency_counter& (0+255),f,b
  1281   001296  2BCC               	incf	(_status_intermitency_counter+1)& (0+255),f,b
  1282   001298                     
  1283                           ; BSR set to: 0
  1284                           ;main.c: 591:             if (status_intermitency_counter >= 10){
  1285   001298  BFCC               	btfsc	(_status_intermitency_counter+1)& (0+255),7,b
  1286   00129A  EF58  F009         	goto	u4071
  1287   00129E  51CC               	movf	(_status_intermitency_counter+1)& (0+255),w,b
  1288   0012A0  E109               	bnz	u4070
  1289   0012A2  0E0A               	movlw	10
  1290   0012A4  5DCB               	subwf	_status_intermitency_counter& (0+255),w,b
  1291   0012A6  A0D8               	btfss	status,0,c
  1292   0012A8  EF58  F009         	goto	u4071
  1293   0012AC  EF5A  F009         	goto	u4070
  1294   0012B0                     u4071:
  1295   0012B0  EF5E  F009         	goto	l3036
  1296   0012B4                     u4070:
  1297   0012B4                     
  1298                           ; BSR set to: 0
  1299                           ;main.c: 592:                 status_intermitency_counter = 0;
  1300   0012B4  0E00               	movlw	0
  1301   0012B6  6FCC               	movwf	(_status_intermitency_counter+1)& (0+255),b
  1302   0012B8  0E00               	movlw	0
  1303   0012BA  6FCB               	movwf	_status_intermitency_counter& (0+255),b
  1304   0012BC                     l3036:
  1305                           
  1306                           ; BSR set to: 0
  1307                           ;main.c: 596:             if (status_value > 1000){
  1308   0012BC  BE56               	btfsc	(_status_value+1)^0,7,c
  1309   0012BE  EF6A  F009         	goto	u4081
  1310   0012C2  0EE9               	movlw	233
  1311   0012C4  5C55               	subwf	_status_value^0,w,c
  1312   0012C6  0E03               	movlw	3
  1313   0012C8  5856               	subwfb	(_status_value+1)^0,w,c
  1314   0012CA  A0D8               	btfss	status,0,c
  1315   0012CC  EF6A  F009         	goto	u4081
  1316   0012D0  EF6C  F009         	goto	u4080
  1317   0012D4                     u4081:
  1318   0012D4  EF70  F009         	goto	l3040
  1319   0012D8                     u4080:
  1320   0012D8                     
  1321                           ; BSR set to: 0
  1322                           ;main.c: 597:                 status_value = 1000;
  1323   0012D8  0E03               	movlw	3
  1324   0012DA  6E56               	movwf	(_status_value+1)^0,c
  1325   0012DC  0EE8               	movlw	232
  1326   0012DE  6E55               	movwf	_status_value^0,c
  1327   0012E0                     l3040:
  1328                           
  1329                           ; BSR set to: 0
  1330                           ;main.c: 599:             if (status_value < 0){
  1331   0012E0  BE56               	btfsc	(_status_value+1)^0,7,c
  1332   0012E2  EF77  F009         	goto	u4090
  1333   0012E6  EF75  F009         	goto	u4091
  1334   0012EA                     u4091:
  1335   0012EA  EF7B  F009         	goto	l3044
  1336   0012EE                     u4090:
  1337   0012EE                     
  1338                           ; BSR set to: 0
  1339                           ;main.c: 600:                 status_value = 0;
  1340   0012EE  0E00               	movlw	0
  1341   0012F0  6E56               	movwf	(_status_value+1)^0,c
  1342   0012F2  0E00               	movlw	0
  1343   0012F4  6E55               	movwf	_status_value^0,c
  1344   0012F6                     l3044:
  1345                           
  1346                           ; BSR set to: 0
  1347                           ;main.c: 602:             status_persisted = status_value;
  1348   0012F6  C055  F0CD         	movff	_status_value,_status_persisted
  1349   0012FA  C056  F0CE         	movff	_status_value+1,_status_persisted+1
  1350   0012FE                     l3046:
  1351                           
  1352                           ; BSR set to: 0
  1353                           ;main.c: 607:         int half_status;;main.c: 608:         half_status = (int) (status_
      +                          persisted % 200) * 10 / 200 ;
  1354   0012FE  0E00               	movlw	0
  1355   001300  6E0A               	movwf	(___awmod@divisor+1)^0,c
  1356   001302  0EC8               	movlw	200
  1357   001304  6E09               	movwf	___awmod@divisor^0,c
  1358   001306  C0CD  F007         	movff	_status_persisted,___awmod@dividend
  1359   00130A  C0CE  F008         	movff	_status_persisted+1,___awmod@dividend+1
  1360   00130E  EC8B  F018         	call	___awmod	;wreg free
  1361   001312  C007  F00D         	movff	?___awmod,___wmul@multiplier
  1362   001316  C008  F00E         	movff	?___awmod+1,___wmul@multiplier+1
  1363   00131A  0E00               	movlw	0
  1364   00131C  6E10               	movwf	(___wmul@multiplicand+1)^0,c
  1365   00131E  0E0A               	movlw	10
  1366   001320  6E0F               	movwf	___wmul@multiplicand^0,c
  1367   001322  ECE6  F01B         	call	___wmul	;wreg free
  1368   001326  C00D  F013         	movff	?___wmul,___awdiv@dividend
  1369   00132A  C00E  F014         	movff	?___wmul+1,___awdiv@dividend+1
  1370   00132E  0E00               	movlw	0
  1371   001330  6E16               	movwf	(___awdiv@divisor+1)^0,c
  1372   001332  0EC8               	movlw	200
  1373   001334  6E15               	movwf	___awdiv@divisor^0,c
  1374   001336  EC29  F018         	call	___awdiv	;wreg free
  1375   00133A  C013  F024         	movff	?___awdiv,status_loop@half_status
  1376   00133E  C014  F025         	movff	?___awdiv+1,status_loop@half_status+1
  1377   001342                     
  1378                           ;main.c: 610:         if (counter[2] < half_status){
  1379   001342  C024  F01B         	movff	status_loop@half_status,??_status_loop
  1380   001346  C025  F01C         	movff	status_loop@half_status+1,??_status_loop+1
  1381   00134A  0E00               	movlw	0
  1382   00134C  BE1C               	btfsc	(??_status_loop+1)^0,7,c
  1383   00134E  0EFF               	movlw	255
  1384   001350  6E1D               	movwf	(??_status_loop+2)^0,c
  1385   001352  6E1E               	movwf	(??_status_loop+3)^0,c
  1386   001354  6E1F               	movwf	(??_status_loop+4)^0,c
  1387   001356  6E20               	movwf	(??_status_loop+5)^0,c
  1388   001358  6E21               	movwf	(??_status_loop+6)^0,c
  1389   00135A  6E22               	movwf	(??_status_loop+7)^0,c
  1390   00135C  501B               	movf	??_status_loop^0,w,c
  1391   00135E  0100               	movlb	0	; () banked
  1392   001360  5D70               	subwf	(_counter+16)& (0+255),w,b
  1393   001362  501C               	movf	(??_status_loop+1)^0,w,c
  1394   001364  5971               	subwfb	(_counter+17)& (0+255),w,b
  1395   001366  501D               	movf	(??_status_loop+2)^0,w,c
  1396   001368  5972               	subwfb	(_counter+18)& (0+255),w,b
  1397   00136A  501E               	movf	(??_status_loop+3)^0,w,c
  1398   00136C  5973               	subwfb	(_counter+19)& (0+255),w,b
  1399   00136E  501F               	movf	(??_status_loop+4)^0,w,c
  1400   001370  5974               	subwfb	(_counter+20)& (0+255),w,b
  1401   001372  5020               	movf	(??_status_loop+5)^0,w,c
  1402   001374  5975               	subwfb	(_counter+21)& (0+255),w,b
  1403   001376  5021               	movf	(??_status_loop+6)^0,w,c
  1404   001378  5976               	subwfb	(_counter+22)& (0+255),w,b
  1405   00137A  5177               	movf	(_counter+23)& (0+255),w,b
  1406   00137C  0A80               	xorlw	128
  1407   00137E  6E23               	movwf	(??_status_loop+8)^0,c
  1408   001380  5022               	movf	(??_status_loop+7)^0,w,c
  1409   001382  0A80               	xorlw	128
  1410   001384  5823               	subwfb	(??_status_loop+8)^0,w,c
  1411   001386  B0D8               	btfsc	status,0,c
  1412   001388  EFC8  F009         	goto	u4101
  1413   00138C  EFCA  F009         	goto	u4100
  1414   001390                     u4101:
  1415   001390  EFCE  F009         	goto	l3052
  1416   001394                     u4100:
  1417   001394                     
  1418                           ; BSR set to: 0
  1419                           ;main.c: 611:             int_status = 1;
  1420   001394  0E01               	movlw	1
  1421   001396  6FD0               	movwf	_int_status& (0+255),b
  1422                           
  1423                           ;main.c: 612:         }else{
  1424   001398  EFD0  F009         	goto	l3054
  1425   00139C                     l3052:
  1426                           
  1427                           ; BSR set to: 0
  1428                           ;main.c: 613:             int_status = 0;
  1429   00139C  0E00               	movlw	0
  1430   00139E  6FD0               	movwf	_int_status& (0+255),b
  1431   0013A0                     l3054:
  1432                           
  1433                           ; BSR set to: 0
  1434                           ;main.c: 617:         int half_led;;main.c: 618:         half_led = (int) (status_persis
      +                          ted / 200);
  1435   0013A0  C0CD  F013         	movff	_status_persisted,___awdiv@dividend
  1436   0013A4  C0CE  F014         	movff	_status_persisted+1,___awdiv@dividend+1
  1437   0013A8  0E00               	movlw	0
  1438   0013AA  6E16               	movwf	(___awdiv@divisor+1)^0,c
  1439   0013AC  0EC8               	movlw	200
  1440   0013AE  6E15               	movwf	___awdiv@divisor^0,c
  1441   0013B0  EC29  F018         	call	___awdiv	;wreg free
  1442   0013B4  C013  F028         	movff	?___awdiv,status_loop@half_led
  1443   0013B8  C014  F029         	movff	?___awdiv+1,status_loop@half_led+1
  1444   0013BC                     
  1445                           ;main.c: 620:         int i;;main.c: 621:         for (i = 0;i < 5;i++){
  1446   0013BC  0E00               	movlw	0
  1447   0013BE  6E2B               	movwf	(status_loop@i+1)^0,c
  1448   0013C0  0E00               	movlw	0
  1449   0013C2  6E2A               	movwf	status_loop@i^0,c
  1450   0013C4                     l3062:
  1451                           
  1452                           ;main.c: 622:             if (i < half_led){
  1453   0013C4  5028               	movf	status_loop@half_led^0,w,c
  1454   0013C6  5C2A               	subwf	status_loop@i^0,w,c
  1455   0013C8  502B               	movf	(status_loop@i+1)^0,w,c
  1456   0013CA  0A80               	xorlw	128
  1457   0013CC  6E1B               	movwf	??_status_loop^0,c
  1458   0013CE  5029               	movf	(status_loop@half_led+1)^0,w,c
  1459   0013D0  0A80               	xorlw	128
  1460   0013D2  581B               	subwfb	??_status_loop^0,w,c
  1461   0013D4  B0D8               	btfsc	status,0,c
  1462   0013D6  EFEF  F009         	goto	u4111
  1463   0013DA  EFF1  F009         	goto	u4110
  1464   0013DE                     u4111:
  1465   0013DE  EFFB  F009         	goto	l3066
  1466   0013E2                     u4110:
  1467   0013E2                     
  1468                           ;main.c: 623:                 leds[i] = 1;
  1469   0013E2  0E9A               	movlw	low _leds
  1470   0013E4  242A               	addwf	status_loop@i^0,w,c
  1471   0013E6  6ED9               	movwf	fsr2l,c
  1472   0013E8  0E00               	movlw	high _leds
  1473   0013EA  202B               	addwfc	(status_loop@i+1)^0,w,c
  1474   0013EC  6EDA               	movwf	fsr2h,c
  1475   0013EE  0E01               	movlw	1
  1476   0013F0  6EDF               	movwf	indf2,c
  1477                           
  1478                           ;main.c: 624:             }else if (i == half_led){
  1479   0013F2  EF19  F00A         	goto	l3072
  1480   0013F6                     l3066:
  1481   0013F6  5028               	movf	status_loop@half_led^0,w,c
  1482   0013F8  182A               	xorwf	status_loop@i^0,w,c
  1483   0013FA  E107               	bnz	u4121
  1484   0013FC  5029               	movf	(status_loop@half_led+1)^0,w,c
  1485   0013FE  182B               	xorwf	(status_loop@i+1)^0,w,c
  1486   001400  A4D8               	btfss	status,2,c
  1487   001402  EF05  F00A         	goto	u4121
  1488   001406  EF07  F00A         	goto	u4120
  1489   00140A                     u4121:
  1490   00140A  EF11  F00A         	goto	l3070
  1491   00140E                     u4120:
  1492   00140E                     
  1493                           ;main.c: 625:                 leds[i] = int_status;
  1494   00140E  0E9A               	movlw	low _leds
  1495   001410  242A               	addwf	status_loop@i^0,w,c
  1496   001412  6ED9               	movwf	fsr2l,c
  1497   001414  0E00               	movlw	high _leds
  1498   001416  202B               	addwfc	(status_loop@i+1)^0,w,c
  1499   001418  6EDA               	movwf	fsr2h,c
  1500   00141A  C0D0  FFDF         	movff	_int_status,indf2
  1501                           
  1502                           ;main.c: 626:             }else{
  1503   00141E  EF19  F00A         	goto	l3072
  1504   001422                     l3070:
  1505                           
  1506                           ;main.c: 627:                 leds[i] = 0;
  1507   001422  0E9A               	movlw	low _leds
  1508   001424  242A               	addwf	status_loop@i^0,w,c
  1509   001426  6ED9               	movwf	fsr2l,c
  1510   001428  0E00               	movlw	high _leds
  1511   00142A  202B               	addwfc	(status_loop@i+1)^0,w,c
  1512   00142C  6EDA               	movwf	fsr2h,c
  1513   00142E  0E00               	movlw	0
  1514   001430  6EDF               	movwf	indf2,c
  1515   001432                     l3072:
  1516                           
  1517                           ;main.c: 629:         }
  1518   001432  4A2A               	infsnz	status_loop@i^0,f,c
  1519   001434  2A2B               	incf	(status_loop@i+1)^0,f,c
  1520   001436  BE2B               	btfsc	(status_loop@i+1)^0,7,c
  1521   001438  EF27  F00A         	goto	u4131
  1522   00143C  502B               	movf	(status_loop@i+1)^0,w,c
  1523   00143E  E109               	bnz	u4130
  1524   001440  0E05               	movlw	5
  1525   001442  5C2A               	subwf	status_loop@i^0,w,c
  1526   001444  A0D8               	btfss	status,0,c
  1527   001446  EF27  F00A         	goto	u4131
  1528   00144A  EF29  F00A         	goto	u4130
  1529   00144E                     u4131:
  1530   00144E  EFE2  F009         	goto	l3062
  1531   001452                     u4130:
  1532   001452                     
  1533                           ;main.c: 632:         if (status_mode == 1){
  1534   001452  0457               	decf	_status_mode^0,w,c
  1535   001454  A4D8               	btfss	status,2,c
  1536   001456  EF2F  F00A         	goto	u4141
  1537   00145A  EF31  F00A         	goto	u4140
  1538   00145E                     u4141:
  1539   00145E  EF51  F00A         	goto	l3080
  1540   001462                     u4140:
  1541   001462                     
  1542                           ;main.c: 633:             PORTBbits.RB0 = leds[0];
  1543   001462  0100               	movlb	0	; () banked
  1544   001464  B19A               	btfsc	_leds& (0+255),0,b
  1545   001466  D002               	bra	u4155
  1546   001468  9081               	bcf	129,0,c	;volatile
  1547   00146A  D001               	bra	u4156
  1548   00146C                     u4155:
  1549   00146C  8081               	bsf	129,0,c	;volatile
  1550   00146E                     u4156:
  1551                           
  1552                           ;main.c: 634:             PORTBbits.RB1 = leds[1];
  1553   00146E  0100               	movlb	0	; () banked
  1554   001470  B19B               	btfsc	(_leds+1)& (0+255),0,b
  1555   001472  D002               	bra	u4165
  1556   001474  9281               	bcf	129,1,c	;volatile
  1557   001476  D001               	bra	u4166
  1558   001478                     u4165:
  1559   001478  8281               	bsf	129,1,c	;volatile
  1560   00147A                     u4166:
  1561                           
  1562                           ;main.c: 635:             PORTBbits.RB2 = leds[2];
  1563   00147A  0100               	movlb	0	; () banked
  1564   00147C  B19C               	btfsc	(_leds+2)& (0+255),0,b
  1565   00147E  D002               	bra	u4175
  1566   001480  9481               	bcf	129,2,c	;volatile
  1567   001482  D001               	bra	u4176
  1568   001484                     u4175:
  1569   001484  8481               	bsf	129,2,c	;volatile
  1570   001486                     u4176:
  1571                           
  1572                           ;main.c: 636:             PORTBbits.RB4 = leds[3];
  1573   001486  0100               	movlb	0	; () banked
  1574   001488  B19D               	btfsc	(_leds+3)& (0+255),0,b
  1575   00148A  D002               	bra	u4185
  1576   00148C  9881               	bcf	129,4,c	;volatile
  1577   00148E  D001               	bra	u4186
  1578   001490                     u4185:
  1579   001490  8881               	bsf	129,4,c	;volatile
  1580   001492                     u4186:
  1581                           
  1582                           ;main.c: 637:             PORTBbits.RB5 = leds[4];
  1583   001492  0100               	movlb	0	; () banked
  1584   001494  B19E               	btfsc	(_leds+4)& (0+255),0,b
  1585   001496  D002               	bra	u4195
  1586   001498  9A81               	bcf	129,5,c	;volatile
  1587   00149A  D001               	bra	u4196
  1588   00149C                     u4195:
  1589   00149C  8A81               	bsf	129,5,c	;volatile
  1590   00149E                     u4196:
  1591                           
  1592                           ;main.c: 638:         }else if(status_mode == 2){
  1593   00149E  EFAD  F00D         	goto	l340
  1594   0014A2                     l3080:
  1595   0014A2  0E02               	movlw	2
  1596   0014A4  1857               	xorwf	_status_mode^0,w,c
  1597   0014A6  A4D8               	btfss	status,2,c
  1598   0014A8  EF58  F00A         	goto	u4201
  1599   0014AC  EF5A  F00A         	goto	u4200
  1600   0014B0                     u4201:
  1601   0014B0  EFAD  F00D         	goto	l340
  1602   0014B4                     u4200:
  1603   0014B4                     
  1604                           ;main.c: 639:             if (status_intermitency_counter >= 2){
  1605   0014B4  0100               	movlb	0	; () banked
  1606   0014B6  BFCC               	btfsc	(_status_intermitency_counter+1)& (0+255),7,b
  1607   0014B8  EF67  F00A         	goto	u4211
  1608   0014BC  51CC               	movf	(_status_intermitency_counter+1)& (0+255),w,b
  1609   0014BE  E109               	bnz	u4210
  1610   0014C0  0E02               	movlw	2
  1611   0014C2  5DCB               	subwf	_status_intermitency_counter& (0+255),w,b
  1612   0014C4  A0D8               	btfss	status,0,c
  1613   0014C6  EF67  F00A         	goto	u4211
  1614   0014CA  EF69  F00A         	goto	u4210
  1615   0014CE                     u4211:
  1616   0014CE  EF88  F00A         	goto	l317
  1617   0014D2                     u4210:
  1618   0014D2                     
  1619                           ; BSR set to: 0
  1620                           ;main.c: 640:                 PORTBbits.RB0 = leds[0];
  1621   0014D2  B19A               	btfsc	_leds& (0+255),0,b
  1622   0014D4  D002               	bra	u4225
  1623   0014D6  9081               	bcf	129,0,c	;volatile
  1624   0014D8  D001               	bra	u4226
  1625   0014DA                     u4225:
  1626   0014DA  8081               	bsf	129,0,c	;volatile
  1627   0014DC                     u4226:
  1628                           
  1629                           ;main.c: 641:                 PORTBbits.RB1 = leds[1];
  1630   0014DC  0100               	movlb	0	; () banked
  1631   0014DE  B19B               	btfsc	(_leds+1)& (0+255),0,b
  1632   0014E0  D002               	bra	u4235
  1633   0014E2  9281               	bcf	129,1,c	;volatile
  1634   0014E4  D001               	bra	u4236
  1635   0014E6                     u4235:
  1636   0014E6  8281               	bsf	129,1,c	;volatile
  1637   0014E8                     u4236:
  1638                           
  1639                           ;main.c: 642:                 PORTBbits.RB2 = leds[2];
  1640   0014E8  0100               	movlb	0	; () banked
  1641   0014EA  B19C               	btfsc	(_leds+2)& (0+255),0,b
  1642   0014EC  D002               	bra	u4245
  1643   0014EE  9481               	bcf	129,2,c	;volatile
  1644   0014F0  D001               	bra	u4246
  1645   0014F2                     u4245:
  1646   0014F2  8481               	bsf	129,2,c	;volatile
  1647   0014F4                     u4246:
  1648                           
  1649                           ;main.c: 643:                 PORTBbits.RB4 = leds[3];
  1650   0014F4  0100               	movlb	0	; () banked
  1651   0014F6  B19D               	btfsc	(_leds+3)& (0+255),0,b
  1652   0014F8  D002               	bra	u4255
  1653   0014FA  9881               	bcf	129,4,c	;volatile
  1654   0014FC  D001               	bra	u4256
  1655   0014FE                     u4255:
  1656   0014FE  8881               	bsf	129,4,c	;volatile
  1657   001500                     u4256:
  1658                           
  1659                           ;main.c: 644:                 PORTBbits.RB5 = leds[4];
  1660   001500  0100               	movlb	0	; () banked
  1661   001502  B19E               	btfsc	(_leds+4)& (0+255),0,b
  1662   001504  D002               	bra	u4265
  1663   001506  9A81               	bcf	129,5,c	;volatile
  1664   001508  D001               	bra	u4266
  1665   00150A                     u4265:
  1666   00150A  8A81               	bsf	129,5,c	;volatile
  1667   00150C                     u4266:
  1668                           
  1669                           ;main.c: 645:             }else{
  1670   00150C  EFAD  F00D         	goto	l340
  1671   001510                     l317:
  1672                           
  1673                           ; BSR set to: 0
  1674                           ;main.c: 646:                 PORTBbits.RB0 = 0;
  1675   001510  9081               	bcf	129,0,c	;volatile
  1676                           
  1677                           ;main.c: 647:                 PORTBbits.RB1 = 0;
  1678   001512  9281               	bcf	129,1,c	;volatile
  1679                           
  1680                           ;main.c: 648:                 PORTBbits.RB2 = 0;
  1681   001514  9481               	bcf	129,2,c	;volatile
  1682                           
  1683                           ;main.c: 649:                 PORTBbits.RB4 = 0;
  1684   001516  9881               	bcf	129,4,c	;volatile
  1685                           
  1686                           ;main.c: 650:                 PORTBbits.RB5 = 0;
  1687   001518  9A81               	bcf	129,5,c	;volatile
  1688   00151A  EFAD  F00D         	goto	l340
  1689   00151E                     l3086:
  1690   00151E  0E03               	movlw	3
  1691   001520  1857               	xorwf	_status_mode^0,w,c
  1692   001522  A4D8               	btfss	status,2,c
  1693   001524  EF96  F00A         	goto	u4271
  1694   001528  EF98  F00A         	goto	u4270
  1695   00152C                     u4271:
  1696   00152C  EF4B  F00B         	goto	l3102
  1697   001530                     u4270:
  1698   001530                     
  1699                           ;main.c: 654:         if (counter[2] >= 20){
  1700   001530  0100               	movlb	0	; () banked
  1701   001532  BF77               	btfsc	(_counter+23)& (0+255),7,b
  1702   001534  EFAB  F00A         	goto	u4281
  1703   001538  5177               	movf	(_counter+23)& (0+255),w,b
  1704   00153A  1176               	iorwf	(_counter+22)& (0+255),w,b
  1705   00153C  1175               	iorwf	(_counter+21)& (0+255),w,b
  1706   00153E  1174               	iorwf	(_counter+20)& (0+255),w,b
  1707   001540  1173               	iorwf	(_counter+19)& (0+255),w,b
  1708   001542  1172               	iorwf	(_counter+18)& (0+255),w,b
  1709   001544  1171               	iorwf	(_counter+17)& (0+255),w,b
  1710   001546  E109               	bnz	u4280
  1711   001548  0E14               	movlw	20
  1712   00154A  5D70               	subwf	(_counter+16)& (0+255),w,b
  1713   00154C  A0D8               	btfss	status,0,c
  1714   00154E  EFAB  F00A         	goto	u4281
  1715   001552  EFAD  F00A         	goto	u4280
  1716   001556                     u4281:
  1717   001556  EFB3  F00A         	goto	l3092
  1718   00155A                     u4280:
  1719   00155A                     
  1720                           ; BSR set to: 0
  1721                           ;main.c: 655:             counter[2] = 0;
  1722   00155A  EE20  F070         	lfsr	2,_counter+16
  1723   00155E  0E07               	movlw	7
  1724   001560                     u4291:
  1725   001560  6ADE               	clrf	postinc2,c
  1726   001562  06E8               	decf	wreg,f,c
  1727   001564  E2FD               	bc	u4291
  1728   001566                     l3092:
  1729                           
  1730                           ; BSR set to: 0
  1731                           ;main.c: 658:         PORTBbits.RB0 = counter[2] >= 10;
  1732   001566  BF77               	btfsc	(_counter+23)& (0+255),7,b
  1733   001568  EFC9  F00A         	goto	u4300
  1734   00156C  5177               	movf	(_counter+23)& (0+255),w,b
  1735   00156E  1176               	iorwf	(_counter+22)& (0+255),w,b
  1736   001570  1175               	iorwf	(_counter+21)& (0+255),w,b
  1737   001572  1174               	iorwf	(_counter+20)& (0+255),w,b
  1738   001574  1173               	iorwf	(_counter+19)& (0+255),w,b
  1739   001576  1172               	iorwf	(_counter+18)& (0+255),w,b
  1740   001578  1171               	iorwf	(_counter+17)& (0+255),w,b
  1741   00157A  E107               	bnz	u4301
  1742   00157C  0E0A               	movlw	10
  1743   00157E  5D70               	subwf	(_counter+16)& (0+255),w,b
  1744   001580  B0D8               	btfsc	status,0,c
  1745   001582  EFC5  F00A         	goto	u4301
  1746   001586  EFC9  F00A         	goto	u4300
  1747   00158A                     u4301:
  1748   00158A  6A1B               	clrf	??_status_loop^0,c
  1749   00158C  2A1B               	incf	??_status_loop^0,f,c
  1750   00158E  EFCA  F00A         	goto	u4318
  1751   001592                     u4300:
  1752   001592  6A1B               	clrf	??_status_loop^0,c
  1753   001594                     u4318:
  1754   001594  5081               	movf	129,w,c	;volatile
  1755   001596  181B               	xorwf	??_status_loop^0,w,c
  1756   001598  0BFE               	andlw	-2
  1757   00159A  181B               	xorwf	??_status_loop^0,w,c
  1758   00159C  6E81               	movwf	129,c	;volatile
  1759   00159E                     
  1760                           ;main.c: 659:         PORTBbits.RB1 = counter[2] < 10;
  1761   00159E  0100               	movlb	0	; () banked
  1762   0015A0  BF77               	btfsc	(_counter+23)& (0+255),7,b
  1763   0015A2  EFE2  F00A         	goto	u4321
  1764   0015A6  5177               	movf	(_counter+23)& (0+255),w,b
  1765   0015A8  1176               	iorwf	(_counter+22)& (0+255),w,b
  1766   0015AA  1175               	iorwf	(_counter+21)& (0+255),w,b
  1767   0015AC  1174               	iorwf	(_counter+20)& (0+255),w,b
  1768   0015AE  1173               	iorwf	(_counter+19)& (0+255),w,b
  1769   0015B0  1172               	iorwf	(_counter+18)& (0+255),w,b
  1770   0015B2  1171               	iorwf	(_counter+17)& (0+255),w,b
  1771   0015B4  E10B               	bnz	u4320
  1772   0015B6  0E0A               	movlw	10
  1773   0015B8  5D70               	subwf	(_counter+16)& (0+255),w,b
  1774   0015BA  A0D8               	btfss	status,0,c
  1775   0015BC  EFE2  F00A         	goto	u4321
  1776   0015C0  EFE6  F00A         	goto	u4320
  1777   0015C4                     u4321:
  1778   0015C4  6A1B               	clrf	??_status_loop^0,c
  1779   0015C6  2A1B               	incf	??_status_loop^0,f,c
  1780   0015C8  EFE7  F00A         	goto	u4338
  1781   0015CC                     u4320:
  1782   0015CC  6A1B               	clrf	??_status_loop^0,c
  1783   0015CE                     u4338:
  1784   0015CE  461B               	rlncf	??_status_loop^0,f,c
  1785   0015D0  5081               	movf	129,w,c	;volatile
  1786   0015D2  181B               	xorwf	??_status_loop^0,w,c
  1787   0015D4  0BFD               	andlw	-3
  1788   0015D6  181B               	xorwf	??_status_loop^0,w,c
  1789   0015D8  6E81               	movwf	129,c	;volatile
  1790   0015DA                     
  1791                           ;main.c: 660:         PORTBbits.RB2 = counter[2] >= 10;
  1792   0015DA  0100               	movlb	0	; () banked
  1793   0015DC  BF77               	btfsc	(_counter+23)& (0+255),7,b
  1794   0015DE  EF04  F00B         	goto	u4340
  1795   0015E2  5177               	movf	(_counter+23)& (0+255),w,b
  1796   0015E4  1176               	iorwf	(_counter+22)& (0+255),w,b
  1797   0015E6  1175               	iorwf	(_counter+21)& (0+255),w,b
  1798   0015E8  1174               	iorwf	(_counter+20)& (0+255),w,b
  1799   0015EA  1173               	iorwf	(_counter+19)& (0+255),w,b
  1800   0015EC  1172               	iorwf	(_counter+18)& (0+255),w,b
  1801   0015EE  1171               	iorwf	(_counter+17)& (0+255),w,b
  1802   0015F0  E107               	bnz	u4341
  1803   0015F2  0E0A               	movlw	10
  1804   0015F4  5D70               	subwf	(_counter+16)& (0+255),w,b
  1805   0015F6  B0D8               	btfsc	status,0,c
  1806   0015F8  EF00  F00B         	goto	u4341
  1807   0015FC  EF04  F00B         	goto	u4340
  1808   001600                     u4341:
  1809   001600  6A1B               	clrf	??_status_loop^0,c
  1810   001602  2A1B               	incf	??_status_loop^0,f,c
  1811   001604  EF05  F00B         	goto	u4358
  1812   001608                     u4340:
  1813   001608  6A1B               	clrf	??_status_loop^0,c
  1814   00160A                     u4358:
  1815   00160A  461B               	rlncf	??_status_loop^0,f,c
  1816   00160C  461B               	rlncf	??_status_loop^0,f,c
  1817   00160E  5081               	movf	129,w,c	;volatile
  1818   001610  181B               	xorwf	??_status_loop^0,w,c
  1819   001612  0BFB               	andlw	-5
  1820   001614  181B               	xorwf	??_status_loop^0,w,c
  1821   001616  6E81               	movwf	129,c	;volatile
  1822   001618                     
  1823                           ;main.c: 661:         PORTBbits.RB4 = counter[2] < 10;
  1824   001618  0100               	movlb	0	; () banked
  1825   00161A  BF77               	btfsc	(_counter+23)& (0+255),7,b
  1826   00161C  EF1F  F00B         	goto	u4361
  1827   001620  5177               	movf	(_counter+23)& (0+255),w,b
  1828   001622  1176               	iorwf	(_counter+22)& (0+255),w,b
  1829   001624  1175               	iorwf	(_counter+21)& (0+255),w,b
  1830   001626  1174               	iorwf	(_counter+20)& (0+255),w,b
  1831   001628  1173               	iorwf	(_counter+19)& (0+255),w,b
  1832   00162A  1172               	iorwf	(_counter+18)& (0+255),w,b
  1833   00162C  1171               	iorwf	(_counter+17)& (0+255),w,b
  1834   00162E  E10B               	bnz	u4360
  1835   001630  0E0A               	movlw	10
  1836   001632  5D70               	subwf	(_counter+16)& (0+255),w,b
  1837   001634  A0D8               	btfss	status,0,c
  1838   001636  EF1F  F00B         	goto	u4361
  1839   00163A  EF23  F00B         	goto	u4360
  1840   00163E                     u4361:
  1841   00163E  6A1B               	clrf	??_status_loop^0,c
  1842   001640  2A1B               	incf	??_status_loop^0,f,c
  1843   001642  EF24  F00B         	goto	u4378
  1844   001646                     u4360:
  1845   001646  6A1B               	clrf	??_status_loop^0,c
  1846   001648                     u4378:
  1847   001648  3A1B               	swapf	??_status_loop^0,f,c
  1848   00164A  5081               	movf	129,w,c	;volatile
  1849   00164C  181B               	xorwf	??_status_loop^0,w,c
  1850   00164E  0BEF               	andlw	-17
  1851   001650  181B               	xorwf	??_status_loop^0,w,c
  1852   001652  6E81               	movwf	129,c	;volatile
  1853   001654                     
  1854                           ;main.c: 662:         PORTBbits.RB5 = counter[2] >= 10;
  1855   001654  0100               	movlb	0	; () banked
  1856   001656  BF77               	btfsc	(_counter+23)& (0+255),7,b
  1857   001658  EF41  F00B         	goto	u4380
  1858   00165C  5177               	movf	(_counter+23)& (0+255),w,b
  1859   00165E  1176               	iorwf	(_counter+22)& (0+255),w,b
  1860   001660  1175               	iorwf	(_counter+21)& (0+255),w,b
  1861   001662  1174               	iorwf	(_counter+20)& (0+255),w,b
  1862   001664  1173               	iorwf	(_counter+19)& (0+255),w,b
  1863   001666  1172               	iorwf	(_counter+18)& (0+255),w,b
  1864   001668  1171               	iorwf	(_counter+17)& (0+255),w,b
  1865   00166A  E107               	bnz	u4381
  1866   00166C  0E0A               	movlw	10
  1867   00166E  5D70               	subwf	(_counter+16)& (0+255),w,b
  1868   001670  B0D8               	btfsc	status,0,c
  1869   001672  EF3D  F00B         	goto	u4381
  1870   001676  EF41  F00B         	goto	u4380
  1871   00167A                     u4381:
  1872   00167A  6A1B               	clrf	??_status_loop^0,c
  1873   00167C  2A1B               	incf	??_status_loop^0,f,c
  1874   00167E  EF42  F00B         	goto	u4398
  1875   001682                     u4380:
  1876   001682  6A1B               	clrf	??_status_loop^0,c
  1877   001684                     u4398:
  1878   001684  3A1B               	swapf	??_status_loop^0,f,c
  1879   001686  461B               	rlncf	??_status_loop^0,f,c
  1880   001688  5081               	movf	129,w,c	;volatile
  1881   00168A  181B               	xorwf	??_status_loop^0,w,c
  1882   00168C  0BDF               	andlw	-33
  1883   00168E  181B               	xorwf	??_status_loop^0,w,c
  1884   001690  6E81               	movwf	129,c	;volatile
  1885                           
  1886                           ;main.c: 663:     }else if(status_mode == 4){
  1887   001692  EFAD  F00D         	goto	l340
  1888   001696                     l3102:
  1889   001696  0E04               	movlw	4
  1890   001698  1857               	xorwf	_status_mode^0,w,c
  1891   00169A  A4D8               	btfss	status,2,c
  1892   00169C  EF52  F00B         	goto	u4401
  1893   0016A0  EF54  F00B         	goto	u4400
  1894   0016A4                     u4401:
  1895   0016A4  EFE6  F00B         	goto	l3124
  1896   0016A8                     u4400:
  1897   0016A8                     
  1898                           ;main.c: 664:         if (counter[2] >= 20){
  1899   0016A8  0100               	movlb	0	; () banked
  1900   0016AA  BF77               	btfsc	(_counter+23)& (0+255),7,b
  1901   0016AC  EF67  F00B         	goto	u4411
  1902   0016B0  5177               	movf	(_counter+23)& (0+255),w,b
  1903   0016B2  1176               	iorwf	(_counter+22)& (0+255),w,b
  1904   0016B4  1175               	iorwf	(_counter+21)& (0+255),w,b
  1905   0016B6  1174               	iorwf	(_counter+20)& (0+255),w,b
  1906   0016B8  1173               	iorwf	(_counter+19)& (0+255),w,b
  1907   0016BA  1172               	iorwf	(_counter+18)& (0+255),w,b
  1908   0016BC  1171               	iorwf	(_counter+17)& (0+255),w,b
  1909   0016BE  E109               	bnz	u4410
  1910   0016C0  0E14               	movlw	20
  1911   0016C2  5D70               	subwf	(_counter+16)& (0+255),w,b
  1912   0016C4  A0D8               	btfss	status,0,c
  1913   0016C6  EF67  F00B         	goto	u4411
  1914   0016CA  EF69  F00B         	goto	u4410
  1915   0016CE                     u4411:
  1916   0016CE  EF86  F00B         	goto	l3114
  1917   0016D2                     u4410:
  1918   0016D2                     
  1919                           ; BSR set to: 0
  1920                           ;main.c: 665:             counter[2] = 0;
  1921   0016D2  EE20  F070         	lfsr	2,_counter+16
  1922   0016D6  0E07               	movlw	7
  1923   0016D8                     u4421:
  1924   0016D8  6ADE               	clrf	postinc2,c
  1925   0016DA  06E8               	decf	wreg,f,c
  1926   0016DC  E2FD               	bc	u4421
  1927   0016DE                     
  1928                           ; BSR set to: 0
  1929                           ;main.c: 666:             mode_counter ++;
  1930   0016DE  4A53               	infsnz	_mode_counter^0,f,c
  1931   0016E0  2A54               	incf	(_mode_counter+1)^0,f,c
  1932   0016E2                     
  1933                           ; BSR set to: 0
  1934                           ;main.c: 667:             if (mode_counter >= 5){
  1935   0016E2  BE54               	btfsc	(_mode_counter+1)^0,7,c
  1936   0016E4  EF7D  F00B         	goto	u4431
  1937   0016E8  5054               	movf	(_mode_counter+1)^0,w,c
  1938   0016EA  E109               	bnz	u4430
  1939   0016EC  0E05               	movlw	5
  1940   0016EE  5C53               	subwf	_mode_counter^0,w,c
  1941   0016F0  A0D8               	btfss	status,0,c
  1942   0016F2  EF7D  F00B         	goto	u4431
  1943   0016F6  EF7F  F00B         	goto	u4430
  1944   0016FA                     u4431:
  1945   0016FA  EF86  F00B         	goto	l3114
  1946   0016FE                     u4430:
  1947   0016FE                     
  1948                           ; BSR set to: 0
  1949                           ;main.c: 668:                 status_set_mode(status_next_mode , 0, -1);
  1950   0016FE  0E00               	movlw	0
  1951   001700  6E07               	movwf	status_set_mode@next_mode^0,c
  1952   001702  0EFF               	movlw	255
  1953   001704  6E08               	movwf	status_set_mode@final_mode^0,c
  1954   001706  51C9               	movf	_status_next_mode& (0+255),w,b
  1955   001708  EC8B  F01B         	call	_status_set_mode
  1956   00170C                     l3114:
  1957                           
  1958                           ;main.c: 671:         PORTBbits.RB0 = (mode_counter == 0);
  1959   00170C  5053               	movf	_mode_counter^0,w,c
  1960   00170E  1054               	iorwf	(_mode_counter+1)^0,w,c
  1961   001710  B4D8               	btfsc	status,2,c
  1962   001712  EF8D  F00B         	goto	u4441
  1963   001716  EF91  F00B         	goto	u4440
  1964   00171A                     u4441:
  1965   00171A  6A1B               	clrf	??_status_loop^0,c
  1966   00171C  2A1B               	incf	??_status_loop^0,f,c
  1967   00171E  EF92  F00B         	goto	u4458
  1968   001722                     u4440:
  1969   001722  6A1B               	clrf	??_status_loop^0,c
  1970   001724                     u4458:
  1971   001724  5081               	movf	129,w,c	;volatile
  1972   001726  181B               	xorwf	??_status_loop^0,w,c
  1973   001728  0BFE               	andlw	-2
  1974   00172A  181B               	xorwf	??_status_loop^0,w,c
  1975   00172C  6E81               	movwf	129,c	;volatile
  1976   00172E                     
  1977                           ;main.c: 672:         PORTBbits.RB1 = (mode_counter == 1);
  1978   00172E  0453               	decf	_mode_counter^0,w,c
  1979   001730  1054               	iorwf	(_mode_counter+1)^0,w,c
  1980   001732  B4D8               	btfsc	status,2,c
  1981   001734  EF9E  F00B         	goto	u4461
  1982   001738  EFA2  F00B         	goto	u4460
  1983   00173C                     u4461:
  1984   00173C  6A1B               	clrf	??_status_loop^0,c
  1985   00173E  2A1B               	incf	??_status_loop^0,f,c
  1986   001740  EFA3  F00B         	goto	u4478
  1987   001744                     u4460:
  1988   001744  6A1B               	clrf	??_status_loop^0,c
  1989   001746                     u4478:
  1990   001746  461B               	rlncf	??_status_loop^0,f,c
  1991   001748  5081               	movf	129,w,c	;volatile
  1992   00174A  181B               	xorwf	??_status_loop^0,w,c
  1993   00174C  0BFD               	andlw	-3
  1994   00174E  181B               	xorwf	??_status_loop^0,w,c
  1995   001750  6E81               	movwf	129,c	;volatile
  1996   001752                     
  1997                           ;main.c: 673:         PORTBbits.RB2 = (mode_counter == 2);
  1998   001752  0E02               	movlw	2
  1999   001754  1853               	xorwf	_mode_counter^0,w,c
  2000   001756  1054               	iorwf	(_mode_counter+1)^0,w,c
  2001   001758  B4D8               	btfsc	status,2,c
  2002   00175A  EFB1  F00B         	goto	u4481
  2003   00175E  EFB5  F00B         	goto	u4480
  2004   001762                     u4481:
  2005   001762  6A1B               	clrf	??_status_loop^0,c
  2006   001764  2A1B               	incf	??_status_loop^0,f,c
  2007   001766  EFB6  F00B         	goto	u4498
  2008   00176A                     u4480:
  2009   00176A  6A1B               	clrf	??_status_loop^0,c
  2010   00176C                     u4498:
  2011   00176C  461B               	rlncf	??_status_loop^0,f,c
  2012   00176E  461B               	rlncf	??_status_loop^0,f,c
  2013   001770  5081               	movf	129,w,c	;volatile
  2014   001772  181B               	xorwf	??_status_loop^0,w,c
  2015   001774  0BFB               	andlw	-5
  2016   001776  181B               	xorwf	??_status_loop^0,w,c
  2017   001778  6E81               	movwf	129,c	;volatile
  2018   00177A                     
  2019                           ;main.c: 674:         PORTBbits.RB4 = (mode_counter == 3);
  2020   00177A  0E03               	movlw	3
  2021   00177C  1853               	xorwf	_mode_counter^0,w,c
  2022   00177E  1054               	iorwf	(_mode_counter+1)^0,w,c
  2023   001780  B4D8               	btfsc	status,2,c
  2024   001782  EFC5  F00B         	goto	u4501
  2025   001786  EFC9  F00B         	goto	u4500
  2026   00178A                     u4501:
  2027   00178A  6A1B               	clrf	??_status_loop^0,c
  2028   00178C  2A1B               	incf	??_status_loop^0,f,c
  2029   00178E  EFCA  F00B         	goto	u4518
  2030   001792                     u4500:
  2031   001792  6A1B               	clrf	??_status_loop^0,c
  2032   001794                     u4518:
  2033   001794  3A1B               	swapf	??_status_loop^0,f,c
  2034   001796  5081               	movf	129,w,c	;volatile
  2035   001798  181B               	xorwf	??_status_loop^0,w,c
  2036   00179A  0BEF               	andlw	-17
  2037   00179C  181B               	xorwf	??_status_loop^0,w,c
  2038   00179E  6E81               	movwf	129,c	;volatile
  2039   0017A0                     
  2040                           ;main.c: 675:         PORTBbits.RB5 = (mode_counter == 4);
  2041   0017A0  0E04               	movlw	4
  2042   0017A2  1853               	xorwf	_mode_counter^0,w,c
  2043   0017A4  1054               	iorwf	(_mode_counter+1)^0,w,c
  2044   0017A6  B4D8               	btfsc	status,2,c
  2045   0017A8  EFD8  F00B         	goto	u4521
  2046   0017AC  EFDC  F00B         	goto	u4520
  2047   0017B0                     u4521:
  2048   0017B0  6A1B               	clrf	??_status_loop^0,c
  2049   0017B2  2A1B               	incf	??_status_loop^0,f,c
  2050   0017B4  EFDD  F00B         	goto	u4538
  2051   0017B8                     u4520:
  2052   0017B8  6A1B               	clrf	??_status_loop^0,c
  2053   0017BA                     u4538:
  2054   0017BA  3A1B               	swapf	??_status_loop^0,f,c
  2055   0017BC  461B               	rlncf	??_status_loop^0,f,c
  2056   0017BE  5081               	movf	129,w,c	;volatile
  2057   0017C0  181B               	xorwf	??_status_loop^0,w,c
  2058   0017C2  0BDF               	andlw	-33
  2059   0017C4  181B               	xorwf	??_status_loop^0,w,c
  2060   0017C6  6E81               	movwf	129,c	;volatile
  2061                           
  2062                           ;main.c: 677:     }else if(status_mode == 5){
  2063   0017C8  EFAD  F00D         	goto	l340
  2064   0017CC                     l3124:
  2065   0017CC  0E05               	movlw	5
  2066   0017CE  1857               	xorwf	_status_mode^0,w,c
  2067   0017D0  A4D8               	btfss	status,2,c
  2068   0017D2  EFED  F00B         	goto	u4541
  2069   0017D6  EFEF  F00B         	goto	u4540
  2070   0017DA                     u4541:
  2071   0017DA  EF81  F00C         	goto	l3146
  2072   0017DE                     u4540:
  2073   0017DE                     
  2074                           ;main.c: 678:         if (counter[2] >= 20){
  2075   0017DE  0100               	movlb	0	; () banked
  2076   0017E0  BF77               	btfsc	(_counter+23)& (0+255),7,b
  2077   0017E2  EF02  F00C         	goto	u4551
  2078   0017E6  5177               	movf	(_counter+23)& (0+255),w,b
  2079   0017E8  1176               	iorwf	(_counter+22)& (0+255),w,b
  2080   0017EA  1175               	iorwf	(_counter+21)& (0+255),w,b
  2081   0017EC  1174               	iorwf	(_counter+20)& (0+255),w,b
  2082   0017EE  1173               	iorwf	(_counter+19)& (0+255),w,b
  2083   0017F0  1172               	iorwf	(_counter+18)& (0+255),w,b
  2084   0017F2  1171               	iorwf	(_counter+17)& (0+255),w,b
  2085   0017F4  E109               	bnz	u4550
  2086   0017F6  0E14               	movlw	20
  2087   0017F8  5D70               	subwf	(_counter+16)& (0+255),w,b
  2088   0017FA  A0D8               	btfss	status,0,c
  2089   0017FC  EF02  F00C         	goto	u4551
  2090   001800  EF04  F00C         	goto	u4550
  2091   001804                     u4551:
  2092   001804  EF21  F00C         	goto	l3136
  2093   001808                     u4550:
  2094   001808                     
  2095                           ; BSR set to: 0
  2096                           ;main.c: 679:             counter[2] = 0;
  2097   001808  EE20  F070         	lfsr	2,_counter+16
  2098   00180C  0E07               	movlw	7
  2099   00180E                     u4561:
  2100   00180E  6ADE               	clrf	postinc2,c
  2101   001810  06E8               	decf	wreg,f,c
  2102   001812  E2FD               	bc	u4561
  2103   001814                     
  2104                           ; BSR set to: 0
  2105                           ;main.c: 680:             mode_counter ++;
  2106   001814  4A53               	infsnz	_mode_counter^0,f,c
  2107   001816  2A54               	incf	(_mode_counter+1)^0,f,c
  2108   001818                     
  2109                           ; BSR set to: 0
  2110                           ;main.c: 681:             if (mode_counter >= 5){
  2111   001818  BE54               	btfsc	(_mode_counter+1)^0,7,c
  2112   00181A  EF18  F00C         	goto	u4571
  2113   00181E  5054               	movf	(_mode_counter+1)^0,w,c
  2114   001820  E109               	bnz	u4570
  2115   001822  0E05               	movlw	5
  2116   001824  5C53               	subwf	_mode_counter^0,w,c
  2117   001826  A0D8               	btfss	status,0,c
  2118   001828  EF18  F00C         	goto	u4571
  2119   00182C  EF1A  F00C         	goto	u4570
  2120   001830                     u4571:
  2121   001830  EF21  F00C         	goto	l3136
  2122   001834                     u4570:
  2123   001834                     
  2124                           ; BSR set to: 0
  2125                           ;main.c: 682:                 status_set_mode(status_next_mode , 0, -1);
  2126   001834  0E00               	movlw	0
  2127   001836  6E07               	movwf	status_set_mode@next_mode^0,c
  2128   001838  0EFF               	movlw	255
  2129   00183A  6E08               	movwf	status_set_mode@final_mode^0,c
  2130   00183C  51C9               	movf	_status_next_mode& (0+255),w,b
  2131   00183E  EC8B  F01B         	call	_status_set_mode
  2132   001842                     l3136:
  2133                           
  2134                           ;main.c: 685:         PORTBbits.RB0 = (mode_counter == 4);
  2135   001842  0E04               	movlw	4
  2136   001844  1853               	xorwf	_mode_counter^0,w,c
  2137   001846  1054               	iorwf	(_mode_counter+1)^0,w,c
  2138   001848  B4D8               	btfsc	status,2,c
  2139   00184A  EF29  F00C         	goto	u4581
  2140   00184E  EF2D  F00C         	goto	u4580
  2141   001852                     u4581:
  2142   001852  6A1B               	clrf	??_status_loop^0,c
  2143   001854  2A1B               	incf	??_status_loop^0,f,c
  2144   001856  EF2E  F00C         	goto	u4598
  2145   00185A                     u4580:
  2146   00185A  6A1B               	clrf	??_status_loop^0,c
  2147   00185C                     u4598:
  2148   00185C  5081               	movf	129,w,c	;volatile
  2149   00185E  181B               	xorwf	??_status_loop^0,w,c
  2150   001860  0BFE               	andlw	-2
  2151   001862  181B               	xorwf	??_status_loop^0,w,c
  2152   001864  6E81               	movwf	129,c	;volatile
  2153   001866                     
  2154                           ;main.c: 686:         PORTBbits.RB1 = (mode_counter == 3);
  2155   001866  0E03               	movlw	3
  2156   001868  1853               	xorwf	_mode_counter^0,w,c
  2157   00186A  1054               	iorwf	(_mode_counter+1)^0,w,c
  2158   00186C  B4D8               	btfsc	status,2,c
  2159   00186E  EF3B  F00C         	goto	u4601
  2160   001872  EF3F  F00C         	goto	u4600
  2161   001876                     u4601:
  2162   001876  6A1B               	clrf	??_status_loop^0,c
  2163   001878  2A1B               	incf	??_status_loop^0,f,c
  2164   00187A  EF40  F00C         	goto	u4618
  2165   00187E                     u4600:
  2166   00187E  6A1B               	clrf	??_status_loop^0,c
  2167   001880                     u4618:
  2168   001880  461B               	rlncf	??_status_loop^0,f,c
  2169   001882  5081               	movf	129,w,c	;volatile
  2170   001884  181B               	xorwf	??_status_loop^0,w,c
  2171   001886  0BFD               	andlw	-3
  2172   001888  181B               	xorwf	??_status_loop^0,w,c
  2173   00188A  6E81               	movwf	129,c	;volatile
  2174   00188C                     
  2175                           ;main.c: 687:         PORTBbits.RB2 = (mode_counter == 2);
  2176   00188C  0E02               	movlw	2
  2177   00188E  1853               	xorwf	_mode_counter^0,w,c
  2178   001890  1054               	iorwf	(_mode_counter+1)^0,w,c
  2179   001892  B4D8               	btfsc	status,2,c
  2180   001894  EF4E  F00C         	goto	u4621
  2181   001898  EF52  F00C         	goto	u4620
  2182   00189C                     u4621:
  2183   00189C  6A1B               	clrf	??_status_loop^0,c
  2184   00189E  2A1B               	incf	??_status_loop^0,f,c
  2185   0018A0  EF53  F00C         	goto	u4638
  2186   0018A4                     u4620:
  2187   0018A4  6A1B               	clrf	??_status_loop^0,c
  2188   0018A6                     u4638:
  2189   0018A6  461B               	rlncf	??_status_loop^0,f,c
  2190   0018A8  461B               	rlncf	??_status_loop^0,f,c
  2191   0018AA  5081               	movf	129,w,c	;volatile
  2192   0018AC  181B               	xorwf	??_status_loop^0,w,c
  2193   0018AE  0BFB               	andlw	-5
  2194   0018B0  181B               	xorwf	??_status_loop^0,w,c
  2195   0018B2  6E81               	movwf	129,c	;volatile
  2196   0018B4                     
  2197                           ;main.c: 688:         PORTBbits.RB4 = (mode_counter == 1);
  2198   0018B4  0453               	decf	_mode_counter^0,w,c
  2199   0018B6  1054               	iorwf	(_mode_counter+1)^0,w,c
  2200   0018B8  B4D8               	btfsc	status,2,c
  2201   0018BA  EF61  F00C         	goto	u4641
  2202   0018BE  EF65  F00C         	goto	u4640
  2203   0018C2                     u4641:
  2204   0018C2  6A1B               	clrf	??_status_loop^0,c
  2205   0018C4  2A1B               	incf	??_status_loop^0,f,c
  2206   0018C6  EF66  F00C         	goto	u4658
  2207   0018CA                     u4640:
  2208   0018CA  6A1B               	clrf	??_status_loop^0,c
  2209   0018CC                     u4658:
  2210   0018CC  3A1B               	swapf	??_status_loop^0,f,c
  2211   0018CE  5081               	movf	129,w,c	;volatile
  2212   0018D0  181B               	xorwf	??_status_loop^0,w,c
  2213   0018D2  0BEF               	andlw	-17
  2214   0018D4  181B               	xorwf	??_status_loop^0,w,c
  2215   0018D6  6E81               	movwf	129,c	;volatile
  2216   0018D8                     
  2217                           ;main.c: 689:         PORTBbits.RB5 = (mode_counter == 0);
  2218   0018D8  5053               	movf	_mode_counter^0,w,c
  2219   0018DA  1054               	iorwf	(_mode_counter+1)^0,w,c
  2220   0018DC  B4D8               	btfsc	status,2,c
  2221   0018DE  EF73  F00C         	goto	u4661
  2222   0018E2  EF77  F00C         	goto	u4660
  2223   0018E6                     u4661:
  2224   0018E6  6A1B               	clrf	??_status_loop^0,c
  2225   0018E8  2A1B               	incf	??_status_loop^0,f,c
  2226   0018EA  EF78  F00C         	goto	u4678
  2227   0018EE                     u4660:
  2228   0018EE  6A1B               	clrf	??_status_loop^0,c
  2229   0018F0                     u4678:
  2230   0018F0  3A1B               	swapf	??_status_loop^0,f,c
  2231   0018F2  461B               	rlncf	??_status_loop^0,f,c
  2232   0018F4  5081               	movf	129,w,c	;volatile
  2233   0018F6  181B               	xorwf	??_status_loop^0,w,c
  2234   0018F8  0BDF               	andlw	-33
  2235   0018FA  181B               	xorwf	??_status_loop^0,w,c
  2236   0018FC  6E81               	movwf	129,c	;volatile
  2237                           
  2238                           ;main.c: 691:     }else if(status_mode == 6){
  2239   0018FE  EFAD  F00D         	goto	l340
  2240   001902                     l3146:
  2241   001902  0E06               	movlw	6
  2242   001904  1857               	xorwf	_status_mode^0,w,c
  2243   001906  A4D8               	btfss	status,2,c
  2244   001908  EF88  F00C         	goto	u4681
  2245   00190C  EF8A  F00C         	goto	u4680
  2246   001910                     u4681:
  2247   001910  EFAD  F00D         	goto	l340
  2248   001914                     u4680:
  2249   001914                     
  2250                           ;main.c: 692:         if (counter[2] >= 10){
  2251   001914  0100               	movlb	0	; () banked
  2252   001916  BF77               	btfsc	(_counter+23)& (0+255),7,b
  2253   001918  EF9D  F00C         	goto	u4691
  2254   00191C  5177               	movf	(_counter+23)& (0+255),w,b
  2255   00191E  1176               	iorwf	(_counter+22)& (0+255),w,b
  2256   001920  1175               	iorwf	(_counter+21)& (0+255),w,b
  2257   001922  1174               	iorwf	(_counter+20)& (0+255),w,b
  2258   001924  1173               	iorwf	(_counter+19)& (0+255),w,b
  2259   001926  1172               	iorwf	(_counter+18)& (0+255),w,b
  2260   001928  1171               	iorwf	(_counter+17)& (0+255),w,b
  2261   00192A  E109               	bnz	u4690
  2262   00192C  0E0A               	movlw	10
  2263   00192E  5D70               	subwf	(_counter+16)& (0+255),w,b
  2264   001930  A0D8               	btfss	status,0,c
  2265   001932  EF9D  F00C         	goto	u4691
  2266   001936  EF9F  F00C         	goto	u4690
  2267   00193A                     u4691:
  2268   00193A  EFD0  F00C         	goto	l3164
  2269   00193E                     u4690:
  2270   00193E                     
  2271                           ; BSR set to: 0
  2272                           ;main.c: 693:             counter[2] = 0;
  2273   00193E  EE20  F070         	lfsr	2,_counter+16
  2274   001942  0E07               	movlw	7
  2275   001944                     u4701:
  2276   001944  6ADE               	clrf	postinc2,c
  2277   001946  06E8               	decf	wreg,f,c
  2278   001948  E2FD               	bc	u4701
  2279   00194A                     
  2280                           ; BSR set to: 0
  2281                           ;main.c: 694:             status_intermitency_counter ++;
  2282   00194A  4BCB               	infsnz	_status_intermitency_counter& (0+255),f,b
  2283   00194C  2BCC               	incf	(_status_intermitency_counter+1)& (0+255),f,b
  2284   00194E                     
  2285                           ; BSR set to: 0
  2286                           ;main.c: 695:             if (status_intermitency_counter >= 10){
  2287   00194E  BFCC               	btfsc	(_status_intermitency_counter+1)& (0+255),7,b
  2288   001950  EFB3  F00C         	goto	u4711
  2289   001954  51CC               	movf	(_status_intermitency_counter+1)& (0+255),w,b
  2290   001956  E109               	bnz	u4710
  2291   001958  0E0A               	movlw	10
  2292   00195A  5DCB               	subwf	_status_intermitency_counter& (0+255),w,b
  2293   00195C  A0D8               	btfss	status,0,c
  2294   00195E  EFB3  F00C         	goto	u4711
  2295   001962  EFB5  F00C         	goto	u4710
  2296   001966                     u4711:
  2297   001966  EFB9  F00C         	goto	l3158
  2298   00196A                     u4710:
  2299   00196A                     
  2300                           ; BSR set to: 0
  2301                           ;main.c: 696:                 status_intermitency_counter = 0;
  2302   00196A  0E00               	movlw	0
  2303   00196C  6FCC               	movwf	(_status_intermitency_counter+1)& (0+255),b
  2304   00196E  0E00               	movlw	0
  2305   001970  6FCB               	movwf	_status_intermitency_counter& (0+255),b
  2306   001972                     l3158:
  2307                           
  2308                           ; BSR set to: 0
  2309                           ;main.c: 698:             mode_counter ++;
  2310   001972  4A53               	infsnz	_mode_counter^0,f,c
  2311   001974  2A54               	incf	(_mode_counter+1)^0,f,c
  2312   001976                     
  2313                           ; BSR set to: 0
  2314                           ;main.c: 699:             if (mode_counter >= 20){
  2315   001976  BE54               	btfsc	(_mode_counter+1)^0,7,c
  2316   001978  EFC7  F00C         	goto	u4721
  2317   00197C  5054               	movf	(_mode_counter+1)^0,w,c
  2318   00197E  E109               	bnz	u4720
  2319   001980  0E14               	movlw	20
  2320   001982  5C53               	subwf	_mode_counter^0,w,c
  2321   001984  A0D8               	btfss	status,0,c
  2322   001986  EFC7  F00C         	goto	u4721
  2323   00198A  EFC9  F00C         	goto	u4720
  2324   00198E                     u4721:
  2325   00198E  EFD0  F00C         	goto	l3164
  2326   001992                     u4720:
  2327   001992                     
  2328                           ; BSR set to: 0
  2329                           ;main.c: 700:                 status_set_mode(status_next_mode, status_final_mode, -1);
  2330   001992  C0C7  F007         	movff	_status_final_mode,status_set_mode@next_mode
  2331   001996  0EFF               	movlw	255
  2332   001998  6E08               	movwf	status_set_mode@final_mode^0,c
  2333   00199A  51C9               	movf	_status_next_mode& (0+255),w,b
  2334   00199C  EC8B  F01B         	call	_status_set_mode
  2335   0019A0                     l3164:
  2336                           
  2337                           ;main.c: 703:         int show_led;;main.c: 704:         show_led = status_intermitency_
      +                          counter >= 2;
  2338   0019A0  0100               	movlb	0	; () banked
  2339   0019A2  BFCC               	btfsc	(_status_intermitency_counter+1)& (0+255),7,b
  2340   0019A4  EFE0  F00C         	goto	u4730
  2341   0019A8  51CC               	movf	(_status_intermitency_counter+1)& (0+255),w,b
  2342   0019AA  E107               	bnz	u4731
  2343   0019AC  0E02               	movlw	2
  2344   0019AE  5DCB               	subwf	_status_intermitency_counter& (0+255),w,b
  2345   0019B0  B0D8               	btfsc	status,0,c
  2346   0019B2  EFDD  F00C         	goto	u4731
  2347   0019B6  EFE0  F00C         	goto	u4730
  2348   0019BA                     u4731:
  2349   0019BA  0E01               	movlw	1
  2350   0019BC  EFE1  F00C         	goto	u4740
  2351   0019C0                     u4730:
  2352   0019C0  0E00               	movlw	0
  2353   0019C2                     u4740:
  2354   0019C2  6E26               	movwf	status_loop@show_led^0,c
  2355   0019C4  6A27               	clrf	(status_loop@show_led+1)^0,c
  2356   0019C6                     
  2357                           ; BSR set to: 0
  2358                           ;main.c: 705:         if (status_code >= 32){
  2359   0019C6  BFC6               	btfsc	(_status_code+1)& (0+255),7,b
  2360   0019C8  EFEF  F00C         	goto	u4751
  2361   0019CC  51C6               	movf	(_status_code+1)& (0+255),w,b
  2362   0019CE  E109               	bnz	u4750
  2363   0019D0  0E20               	movlw	32
  2364   0019D2  5DC5               	subwf	_status_code& (0+255),w,b
  2365   0019D4  A0D8               	btfss	status,0,c
  2366   0019D6  EFEF  F00C         	goto	u4751
  2367   0019DA  EFF1  F00C         	goto	u4750
  2368   0019DE                     u4751:
  2369   0019DE  EFF7  F00C         	goto	l3170
  2370   0019E2                     u4750:
  2371   0019E2                     
  2372                           ; BSR set to: 0
  2373                           ;main.c: 706:             status_code = 32;
  2374   0019E2  0E00               	movlw	0
  2375   0019E4  6FC6               	movwf	(_status_code+1)& (0+255),b
  2376   0019E6  0E20               	movlw	32
  2377   0019E8  6FC5               	movwf	_status_code& (0+255),b
  2378                           
  2379                           ;main.c: 707:         }else if (status_code <= 0){
  2380   0019EA  EF08  F00D         	goto	l3174
  2381   0019EE                     l3170:
  2382                           
  2383                           ; BSR set to: 0
  2384   0019EE  BFC6               	btfsc	(_status_code+1)& (0+255),7,b
  2385   0019F0  EF04  F00D         	goto	u4760
  2386   0019F4  51C6               	movf	(_status_code+1)& (0+255),w,b
  2387   0019F6  E106               	bnz	u4761
  2388   0019F8  05C5               	decf	_status_code& (0+255),w,b
  2389   0019FA  B0D8               	btfsc	status,0,c
  2390   0019FC  EF02  F00D         	goto	u4761
  2391   001A00  EF04  F00D         	goto	u4760
  2392   001A04                     u4761:
  2393   001A04  EF08  F00D         	goto	l3174
  2394   001A08                     u4760:
  2395   001A08                     
  2396                           ; BSR set to: 0
  2397                           ;main.c: 708:             status_code = 1;
  2398   001A08  0E00               	movlw	0
  2399   001A0A  6FC6               	movwf	(_status_code+1)& (0+255),b
  2400   001A0C  0E01               	movlw	1
  2401   001A0E  6FC5               	movwf	_status_code& (0+255),b
  2402   001A10                     l3174:
  2403                           
  2404                           ; BSR set to: 0
  2405                           ;main.c: 710:         if (show_led){
  2406   001A10  5026               	movf	status_loop@show_led^0,w,c
  2407   001A12  1027               	iorwf	(status_loop@show_led+1)^0,w,c
  2408   001A14  B4D8               	btfsc	status,2,c
  2409   001A16  EF0F  F00D         	goto	u4771
  2410   001A1A  EF11  F00D         	goto	u4770
  2411   001A1E                     u4771:
  2412   001A1E  EFA8  F00D         	goto	l338
  2413   001A22                     u4770:
  2414   001A22                     
  2415                           ; BSR set to: 0
  2416                           ;main.c: 711:             PORTBbits.RB0 = (status_code % 32 >= 16);
  2417   001A22  0E1F               	movlw	31
  2418   001A24  15C5               	andwf	_status_code& (0+255),w,b
  2419   001A26  6E1B               	movwf	??_status_loop^0,c
  2420   001A28  0E00               	movlw	0
  2421   001A2A  15C6               	andwf	(_status_code+1)& (0+255),w,b
  2422   001A2C  6E1C               	movwf	(??_status_loop+1)^0,c
  2423   001A2E  BE1C               	btfsc	(??_status_loop+1)^0,7,c
  2424   001A30  EF27  F00D         	goto	u4780
  2425   001A34  501C               	movf	(??_status_loop+1)^0,w,c
  2426   001A36  E107               	bnz	u4781
  2427   001A38  0E10               	movlw	16
  2428   001A3A  5C1B               	subwf	??_status_loop^0,w,c
  2429   001A3C  B0D8               	btfsc	status,0,c
  2430   001A3E  EF23  F00D         	goto	u4781
  2431   001A42  EF27  F00D         	goto	u4780
  2432   001A46                     u4781:
  2433   001A46  6A1D               	clrf	(??_status_loop+2)^0,c
  2434   001A48  2A1D               	incf	(??_status_loop+2)^0,f,c
  2435   001A4A  EF28  F00D         	goto	u4798
  2436   001A4E                     u4780:
  2437   001A4E  6A1D               	clrf	(??_status_loop+2)^0,c
  2438   001A50                     u4798:
  2439   001A50  5081               	movf	129,w,c	;volatile
  2440   001A52  181D               	xorwf	(??_status_loop+2)^0,w,c
  2441   001A54  0BFE               	andlw	-2
  2442   001A56  181D               	xorwf	(??_status_loop+2)^0,w,c
  2443   001A58  6E81               	movwf	129,c	;volatile
  2444                           
  2445                           ;main.c: 712:             PORTBbits.RB1 = (status_code % 16 >= 8);
  2446   001A5A  0E0F               	movlw	15
  2447   001A5C  0100               	movlb	0	; () banked
  2448   001A5E  15C5               	andwf	_status_code& (0+255),w,b
  2449   001A60  6E1B               	movwf	??_status_loop^0,c
  2450   001A62  0E00               	movlw	0
  2451   001A64  15C6               	andwf	(_status_code+1)& (0+255),w,b
  2452   001A66  6E1C               	movwf	(??_status_loop+1)^0,c
  2453   001A68  BE1C               	btfsc	(??_status_loop+1)^0,7,c
  2454   001A6A  EF44  F00D         	goto	u4800
  2455   001A6E  501C               	movf	(??_status_loop+1)^0,w,c
  2456   001A70  E107               	bnz	u4801
  2457   001A72  0E08               	movlw	8
  2458   001A74  5C1B               	subwf	??_status_loop^0,w,c
  2459   001A76  B0D8               	btfsc	status,0,c
  2460   001A78  EF40  F00D         	goto	u4801
  2461   001A7C  EF44  F00D         	goto	u4800
  2462   001A80                     u4801:
  2463   001A80  6A1D               	clrf	(??_status_loop+2)^0,c
  2464   001A82  2A1D               	incf	(??_status_loop+2)^0,f,c
  2465   001A84  EF45  F00D         	goto	u4818
  2466   001A88                     u4800:
  2467   001A88  6A1D               	clrf	(??_status_loop+2)^0,c
  2468   001A8A                     u4818:
  2469   001A8A  461D               	rlncf	(??_status_loop+2)^0,f,c
  2470   001A8C  5081               	movf	129,w,c	;volatile
  2471   001A8E  181D               	xorwf	(??_status_loop+2)^0,w,c
  2472   001A90  0BFD               	andlw	-3
  2473   001A92  181D               	xorwf	(??_status_loop+2)^0,w,c
  2474   001A94  6E81               	movwf	129,c	;volatile
  2475                           
  2476                           ;main.c: 713:             PORTBbits.RB2 = (status_code % 8 >= 4);
  2477   001A96  0E07               	movlw	7
  2478   001A98  0100               	movlb	0	; () banked
  2479   001A9A  15C5               	andwf	_status_code& (0+255),w,b
  2480   001A9C  6E1B               	movwf	??_status_loop^0,c
  2481   001A9E  0E00               	movlw	0
  2482   001AA0  15C6               	andwf	(_status_code+1)& (0+255),w,b
  2483   001AA2  6E1C               	movwf	(??_status_loop+1)^0,c
  2484   001AA4  BE1C               	btfsc	(??_status_loop+1)^0,7,c
  2485   001AA6  EF62  F00D         	goto	u4820
  2486   001AAA  501C               	movf	(??_status_loop+1)^0,w,c
  2487   001AAC  E107               	bnz	u4821
  2488   001AAE  0E04               	movlw	4
  2489   001AB0  5C1B               	subwf	??_status_loop^0,w,c
  2490   001AB2  B0D8               	btfsc	status,0,c
  2491   001AB4  EF5E  F00D         	goto	u4821
  2492   001AB8  EF62  F00D         	goto	u4820
  2493   001ABC                     u4821:
  2494   001ABC  6A1D               	clrf	(??_status_loop+2)^0,c
  2495   001ABE  2A1D               	incf	(??_status_loop+2)^0,f,c
  2496   001AC0  EF63  F00D         	goto	u4838
  2497   001AC4                     u4820:
  2498   001AC4  6A1D               	clrf	(??_status_loop+2)^0,c
  2499   001AC6                     u4838:
  2500   001AC6  461D               	rlncf	(??_status_loop+2)^0,f,c
  2501   001AC8  461D               	rlncf	(??_status_loop+2)^0,f,c
  2502   001ACA  5081               	movf	129,w,c	;volatile
  2503   001ACC  181D               	xorwf	(??_status_loop+2)^0,w,c
  2504   001ACE  0BFB               	andlw	-5
  2505   001AD0  181D               	xorwf	(??_status_loop+2)^0,w,c
  2506   001AD2  6E81               	movwf	129,c	;volatile
  2507                           
  2508                           ;main.c: 714:             PORTBbits.RB4 = (status_code % 4 >= 2);
  2509   001AD4  0E03               	movlw	3
  2510   001AD6  0100               	movlb	0	; () banked
  2511   001AD8  15C5               	andwf	_status_code& (0+255),w,b
  2512   001ADA  6E1B               	movwf	??_status_loop^0,c
  2513   001ADC  0E00               	movlw	0
  2514   001ADE  15C6               	andwf	(_status_code+1)& (0+255),w,b
  2515   001AE0  6E1C               	movwf	(??_status_loop+1)^0,c
  2516   001AE2  BE1C               	btfsc	(??_status_loop+1)^0,7,c
  2517   001AE4  EF81  F00D         	goto	u4840
  2518   001AE8  501C               	movf	(??_status_loop+1)^0,w,c
  2519   001AEA  E107               	bnz	u4841
  2520   001AEC  0E02               	movlw	2
  2521   001AEE  5C1B               	subwf	??_status_loop^0,w,c
  2522   001AF0  B0D8               	btfsc	status,0,c
  2523   001AF2  EF7D  F00D         	goto	u4841
  2524   001AF6  EF81  F00D         	goto	u4840
  2525   001AFA                     u4841:
  2526   001AFA  6A1D               	clrf	(??_status_loop+2)^0,c
  2527   001AFC  2A1D               	incf	(??_status_loop+2)^0,f,c
  2528   001AFE  EF82  F00D         	goto	u4858
  2529   001B02                     u4840:
  2530   001B02  6A1D               	clrf	(??_status_loop+2)^0,c
  2531   001B04                     u4858:
  2532   001B04  3A1D               	swapf	(??_status_loop+2)^0,f,c
  2533   001B06  5081               	movf	129,w,c	;volatile
  2534   001B08  181D               	xorwf	(??_status_loop+2)^0,w,c
  2535   001B0A  0BEF               	andlw	-17
  2536   001B0C  181D               	xorwf	(??_status_loop+2)^0,w,c
  2537   001B0E  6E81               	movwf	129,c	;volatile
  2538                           
  2539                           ;main.c: 715:             PORTBbits.RB5 = (status_code % 2 >= 1);
  2540   001B10  0E01               	movlw	1
  2541   001B12  0100               	movlb	0	; () banked
  2542   001B14  15C5               	andwf	_status_code& (0+255),w,b
  2543   001B16  6E1B               	movwf	??_status_loop^0,c
  2544   001B18  0E00               	movlw	0
  2545   001B1A  15C6               	andwf	(_status_code+1)& (0+255),w,b
  2546   001B1C  6E1C               	movwf	(??_status_loop+1)^0,c
  2547   001B1E  BE1C               	btfsc	(??_status_loop+1)^0,7,c
  2548   001B20  EF9E  F00D         	goto	u4860
  2549   001B24  501C               	movf	(??_status_loop+1)^0,w,c
  2550   001B26  E106               	bnz	u4861
  2551   001B28  041B               	decf	??_status_loop^0,w,c
  2552   001B2A  B0D8               	btfsc	status,0,c
  2553   001B2C  EF9A  F00D         	goto	u4861
  2554   001B30  EF9E  F00D         	goto	u4860
  2555   001B34                     u4861:
  2556   001B34  6A1D               	clrf	(??_status_loop+2)^0,c
  2557   001B36  2A1D               	incf	(??_status_loop+2)^0,f,c
  2558   001B38  EF9F  F00D         	goto	u4878
  2559   001B3C                     u4860:
  2560   001B3C  6A1D               	clrf	(??_status_loop+2)^0,c
  2561   001B3E                     u4878:
  2562   001B3E  3A1D               	swapf	(??_status_loop+2)^0,f,c
  2563   001B40  461D               	rlncf	(??_status_loop+2)^0,f,c
  2564   001B42  5081               	movf	129,w,c	;volatile
  2565   001B44  181D               	xorwf	(??_status_loop+2)^0,w,c
  2566   001B46  0BDF               	andlw	-33
  2567   001B48  181D               	xorwf	(??_status_loop+2)^0,w,c
  2568   001B4A  6E81               	movwf	129,c	;volatile
  2569                           
  2570                           ;main.c: 716:         }else{
  2571   001B4C  EFAD  F00D         	goto	l340
  2572   001B50                     l338:
  2573                           
  2574                           ; BSR set to: 0
  2575                           ;main.c: 717:             PORTBbits.RB0 = 0;
  2576   001B50  9081               	bcf	129,0,c	;volatile
  2577                           
  2578                           ;main.c: 718:             PORTBbits.RB1 = 0;
  2579   001B52  9281               	bcf	129,1,c	;volatile
  2580                           
  2581                           ;main.c: 719:             PORTBbits.RB2 = 0;
  2582   001B54  9481               	bcf	129,2,c	;volatile
  2583                           
  2584                           ;main.c: 720:             PORTBbits.RB4 = 0;
  2585   001B56  9881               	bcf	129,4,c	;volatile
  2586                           
  2587                           ;main.c: 721:             PORTBbits.RB5 = 0;
  2588   001B58  9A81               	bcf	129,5,c	;volatile
  2589   001B5A                     l340:
  2590   001B5A  0012               	return		;funcret
  2591   001B5C                     __end_of_status_loop:
  2592                           	callstack 0
  2593                           
  2594 ;; *************** function ___awmod *****************
  2595 ;; Defined at:
  2596 ;;		line 7 in file "C:\Program Files\Microchip\xc8\v2.40\pic\sources\c99\common\awmod.c"
  2597 ;; Parameters:    Size  Location     Type
  2598 ;;  dividend        2    6[COMRAM] int 
  2599 ;;  divisor         2    8[COMRAM] int 
  2600 ;; Auto vars:     Size  Location     Type
  2601 ;;  sign            1   11[COMRAM] unsigned char 
  2602 ;;  counter         1   10[COMRAM] unsigned char 
  2603 ;; Return value:  Size  Location     Type
  2604 ;;                  2    6[COMRAM] int 
  2605 ;; Registers used:
  2606 ;;		wreg, status,2, status,0
  2607 ;; Tracked objects:
  2608 ;;		On entry : 0/0
  2609 ;;		On exit  : 0/0
  2610 ;;		Unchanged: 0/0
  2611 ;; Data sizes:     COMRAM   BANK0   BANK1   BANK2   BANK3   BANK4   BANK5   BANK6   BANK7
  2612 ;;      Params:         4       0       0       0       0       0       0       0       0
  2613 ;;      Locals:         2       0       0       0       0       0       0       0       0
  2614 ;;      Temps:          0       0       0       0       0       0       0       0       0
  2615 ;;      Totals:         6       0       0       0       0       0       0       0       0
  2616 ;;Total ram usage:        6 bytes
  2617 ;; Hardware stack levels used: 1
  2618 ;; Hardware stack levels required when called: 1
  2619 ;; This function calls:
  2620 ;;		Nothing
  2621 ;; This function is called by:
  2622 ;;		_status_loop
  2623 ;; This function uses a non-reentrant model
  2624 ;;
  2625                           
  2626                           	psect	text3
  2627   003116                     __ptext3:
  2628                           	callstack 0
  2629   003116                     ___awmod:
  2630                           	callstack 28
  2631   003116  0E00               	movlw	0
  2632   003118  6E0C               	movwf	___awmod@sign^0,c
  2633   00311A  BE08               	btfsc	(___awmod@dividend+1)^0,7,c
  2634   00311C  EF94  F018         	goto	u3130
  2635   003120  EF92  F018         	goto	u3131
  2636   003124                     u3131:
  2637   003124  EF9A  F018         	goto	l2708
  2638   003128                     u3130:
  2639   003128  6C07               	negf	___awmod@dividend^0,c
  2640   00312A  1E08               	comf	(___awmod@dividend+1)^0,f,c
  2641   00312C  B0D8               	btfsc	status,0,c
  2642   00312E  2A08               	incf	(___awmod@dividend+1)^0,f,c
  2643   003130  0E01               	movlw	1
  2644   003132  6E0C               	movwf	___awmod@sign^0,c
  2645   003134                     l2708:
  2646   003134  BE0A               	btfsc	(___awmod@divisor+1)^0,7,c
  2647   003136  EFA1  F018         	goto	u3140
  2648   00313A  EF9F  F018         	goto	u3141
  2649   00313E                     u3141:
  2650   00313E  EFA5  F018         	goto	l2712
  2651   003142                     u3140:
  2652   003142  6C09               	negf	___awmod@divisor^0,c
  2653   003144  1E0A               	comf	(___awmod@divisor+1)^0,f,c
  2654   003146  B0D8               	btfsc	status,0,c
  2655   003148  2A0A               	incf	(___awmod@divisor+1)^0,f,c
  2656   00314A                     l2712:
  2657   00314A  5009               	movf	___awmod@divisor^0,w,c
  2658   00314C  100A               	iorwf	(___awmod@divisor+1)^0,w,c
  2659   00314E  B4D8               	btfsc	status,2,c
  2660   003150  EFAC  F018         	goto	u3151
  2661   003154  EFAE  F018         	goto	u3150
  2662   003158                     u3151:
  2663   003158  EFD2  F018         	goto	l2728
  2664   00315C                     u3150:
  2665   00315C  0E01               	movlw	1
  2666   00315E  6E0B               	movwf	___awmod@counter^0,c
  2667   003160  EFB6  F018         	goto	l2718
  2668   003164                     l2716:
  2669   003164  90D8               	bcf	status,0,c
  2670   003166  3609               	rlcf	___awmod@divisor^0,f,c
  2671   003168  360A               	rlcf	(___awmod@divisor+1)^0,f,c
  2672   00316A  2A0B               	incf	___awmod@counter^0,f,c
  2673   00316C                     l2718:
  2674   00316C  AE0A               	btfss	(___awmod@divisor+1)^0,7,c
  2675   00316E  EFBB  F018         	goto	u3161
  2676   003172  EFBD  F018         	goto	u3160
  2677   003176                     u3161:
  2678   003176  EFB2  F018         	goto	l2716
  2679   00317A                     u3160:
  2680   00317A                     l2720:
  2681   00317A  5009               	movf	___awmod@divisor^0,w,c
  2682   00317C  5C07               	subwf	___awmod@dividend^0,w,c
  2683   00317E  500A               	movf	(___awmod@divisor+1)^0,w,c
  2684   003180  5808               	subwfb	(___awmod@dividend+1)^0,w,c
  2685   003182  A0D8               	btfss	status,0,c
  2686   003184  EFC6  F018         	goto	u3171
  2687   003188  EFC8  F018         	goto	u3170
  2688   00318C                     u3171:
  2689   00318C  EFCC  F018         	goto	l2724
  2690   003190                     u3170:
  2691   003190  5009               	movf	___awmod@divisor^0,w,c
  2692   003192  5E07               	subwf	___awmod@dividend^0,f,c
  2693   003194  500A               	movf	(___awmod@divisor+1)^0,w,c
  2694   003196  5A08               	subwfb	(___awmod@dividend+1)^0,f,c
  2695   003198                     l2724:
  2696   003198  90D8               	bcf	status,0,c
  2697   00319A  320A               	rrcf	(___awmod@divisor+1)^0,f,c
  2698   00319C  3209               	rrcf	___awmod@divisor^0,f,c
  2699   00319E  2E0B               	decfsz	___awmod@counter^0,f,c
  2700   0031A0  EFBD  F018         	goto	l2720
  2701   0031A4                     l2728:
  2702   0031A4  500C               	movf	___awmod@sign^0,w,c
  2703   0031A6  B4D8               	btfsc	status,2,c
  2704   0031A8  EFD8  F018         	goto	u3181
  2705   0031AC  EFDA  F018         	goto	u3180
  2706   0031B0                     u3181:
  2707   0031B0  EFDE  F018         	goto	l2732
  2708   0031B4                     u3180:
  2709   0031B4  6C07               	negf	___awmod@dividend^0,c
  2710   0031B6  1E08               	comf	(___awmod@dividend+1)^0,f,c
  2711   0031B8  B0D8               	btfsc	status,0,c
  2712   0031BA  2A08               	incf	(___awmod@dividend+1)^0,f,c
  2713   0031BC                     l2732:
  2714   0031BC  C007  F007         	movff	___awmod@dividend,?___awmod
  2715   0031C0  C008  F008         	movff	___awmod@dividend+1,?___awmod+1
  2716   0031C4  0012               	return		;funcret
  2717   0031C6                     __end_of___awmod:
  2718                           	callstack 0
  2719                           
  2720 ;; *************** function _status_init *****************
  2721 ;; Defined at:
  2722 ;;		line 561 in file "main.c"
  2723 ;; Parameters:    Size  Location     Type
  2724 ;;		None
  2725 ;; Auto vars:     Size  Location     Type
  2726 ;;  i               2    6[COMRAM] int 
  2727 ;; Return value:  Size  Location     Type
  2728 ;;                  1    wreg      void 
  2729 ;; Registers used:
  2730 ;;		wreg, fsr2l, fsr2h, status,2, status,0
  2731 ;; Tracked objects:
  2732 ;;		On entry : 0/0
  2733 ;;		On exit  : 0/0
  2734 ;;		Unchanged: 0/0
  2735 ;; Data sizes:     COMRAM   BANK0   BANK1   BANK2   BANK3   BANK4   BANK5   BANK6   BANK7
  2736 ;;      Params:         0       0       0       0       0       0       0       0       0
  2737 ;;      Locals:         2       0       0       0       0       0       0       0       0
  2738 ;;      Temps:          0       0       0       0       0       0       0       0       0
  2739 ;;      Totals:         2       0       0       0       0       0       0       0       0
  2740 ;;Total ram usage:        2 bytes
  2741 ;; Hardware stack levels used: 1
  2742 ;; Hardware stack levels required when called: 1
  2743 ;; This function calls:
  2744 ;;		Nothing
  2745 ;; This function is called by:
  2746 ;;		_main
  2747 ;; This function uses a non-reentrant model
  2748 ;;
  2749                           
  2750                           	psect	text4
  2751   003520                     __ptext4:
  2752                           	callstack 0
  2753   003520                     _status_init:
  2754                           	callstack 29
  2755   003520                     
  2756                           ;main.c: 562:     status_value = 0;
  2757   003520  0E00               	movlw	0
  2758   003522  6E56               	movwf	(_status_value+1)^0,c
  2759   003524  0E00               	movlw	0
  2760   003526  6E55               	movwf	_status_value^0,c
  2761                           
  2762                           ;main.c: 563:     status_mode = 0;
  2763   003528  0E00               	movlw	0
  2764   00352A  6E57               	movwf	_status_mode^0,c
  2765                           
  2766                           ;main.c: 564:     int_status = 0;
  2767   00352C  0E00               	movlw	0
  2768   00352E  0100               	movlb	0	; () banked
  2769   003530  6FD0               	movwf	_int_status& (0+255),b
  2770                           
  2771                           ;main.c: 565:     status_intermitency_counter = 0;
  2772   003532  0E00               	movlw	0
  2773   003534  6FCC               	movwf	(_status_intermitency_counter+1)& (0+255),b
  2774   003536  0E00               	movlw	0
  2775   003538  6FCB               	movwf	_status_intermitency_counter& (0+255),b
  2776                           
  2777                           ;main.c: 566:     mode_counter = 0;
  2778   00353A  0E00               	movlw	0
  2779   00353C  6E54               	movwf	(_mode_counter+1)^0,c
  2780   00353E  0E00               	movlw	0
  2781   003540  6E53               	movwf	_mode_counter^0,c
  2782   003542                     
  2783                           ; BSR set to: 0
  2784                           ;main.c: 568:     counter[2] = 0;
  2785   003542  EE20  F070         	lfsr	2,_counter+16
  2786   003546  0E07               	movlw	7
  2787   003548                     u4011:
  2788   003548  6ADE               	clrf	postinc2,c
  2789   00354A  06E8               	decf	wreg,f,c
  2790   00354C  E2FD               	bc	u4011
  2791   00354E                     
  2792                           ; BSR set to: 0
  2793                           ;main.c: 570:     int i;;main.c: 571:     for (i = 0;i < 5;i++){
  2794   00354E  0E00               	movlw	0
  2795   003550  6E08               	movwf	(status_init@i+1)^0,c
  2796   003552  0E00               	movlw	0
  2797   003554  6E07               	movwf	status_init@i^0,c
  2798   003556                     l3016:
  2799                           
  2800                           ;main.c: 572:         leds[i] = 0;
  2801   003556  0E9A               	movlw	low _leds
  2802   003558  2407               	addwf	status_init@i^0,w,c
  2803   00355A  6ED9               	movwf	fsr2l,c
  2804   00355C  0E00               	movlw	high _leds
  2805   00355E  2008               	addwfc	(status_init@i+1)^0,w,c
  2806   003560  6EDA               	movwf	fsr2h,c
  2807   003562  0E00               	movlw	0
  2808   003564  6EDF               	movwf	indf2,c
  2809   003566                     
  2810                           ;main.c: 573:     }
  2811   003566  4A07               	infsnz	status_init@i^0,f,c
  2812   003568  2A08               	incf	(status_init@i+1)^0,f,c
  2813   00356A  BE08               	btfsc	(status_init@i+1)^0,7,c
  2814   00356C  EFC1  F01A         	goto	u4021
  2815   003570  5008               	movf	(status_init@i+1)^0,w,c
  2816   003572  E109               	bnz	u4020
  2817   003574  0E05               	movlw	5
  2818   003576  5C07               	subwf	status_init@i^0,w,c
  2819   003578  A0D8               	btfss	status,0,c
  2820   00357A  EFC1  F01A         	goto	u4021
  2821   00357E  EFC3  F01A         	goto	u4020
  2822   003582                     u4021:
  2823   003582  EFAB  F01A         	goto	l3016
  2824   003586                     u4020:
  2825   003586  0012               	return		;funcret
  2826   003588                     __end_of_status_init:
  2827                           	callstack 0
  2828                           
  2829 ;; *************** function _read_analog *****************
  2830 ;; Defined at:
  2831 ;;		line 210 in file "main.c"
  2832 ;; Parameters:    Size  Location     Type
  2833 ;;		None
  2834 ;; Auto vars:     Size  Location     Type
  2835 ;;  aux             2   72[COMRAM] unsigned int 
  2836 ;;  i               1   74[COMRAM] unsigned char 
  2837 ;; Return value:  Size  Location     Type
  2838 ;;                  1    wreg      void 
  2839 ;; Registers used:
  2840 ;;		wreg, fsr2l, fsr2h, status,2, status,0, prodl, prodh, cstack
  2841 ;; Tracked objects:
  2842 ;;		On entry : 0/0
  2843 ;;		On exit  : 0/0
  2844 ;;		Unchanged: 0/0
  2845 ;; Data sizes:     COMRAM   BANK0   BANK1   BANK2   BANK3   BANK4   BANK5   BANK6   BANK7
  2846 ;;      Params:         0       0       0       0       0       0       0       0       0
  2847 ;;      Locals:         3       0       0       0       0       0       0       0       0
  2848 ;;      Temps:         16       0       0       0       0       0       0       0       0
  2849 ;;      Totals:        19       0       0       0       0       0       0       0       0
  2850 ;;Total ram usage:       19 bytes
  2851 ;; Hardware stack levels used: 1
  2852 ;; Hardware stack levels required when called: 2
  2853 ;; This function calls:
  2854 ;;		___aodiv
  2855 ;;		___awdiv
  2856 ;; This function is called by:
  2857 ;;		_main
  2858 ;; This function uses a non-reentrant model
  2859 ;;
  2860                           
  2861                           	psect	text5
  2862   002770                     __ptext5:
  2863                           	callstack 0
  2864   002770                     _read_analog:
  2865                           	callstack 28
  2866   002770                     
  2867                           ;main.c: 211:     unsigned int aux;;main.c: 212:     unsigned char i;;main.c: 213:     f
      +                          or (i=0;i<=5;i++){
  2868   002770  0E00               	movlw	0
  2869   002772  6E4B               	movwf	read_analog@i^0,c
  2870   002774                     l2742:
  2871                           
  2872                           ;main.c: 214:         ADCON0bits.CHS=i;
  2873   002774  C04B  F039         	movff	read_analog@i,??_read_analog
  2874   002778  4639               	rlncf	??_read_analog^0,f,c
  2875   00277A  4639               	rlncf	??_read_analog^0,f,c
  2876   00277C  50C2               	movf	194,w,c	;volatile
  2877   00277E  1839               	xorwf	??_read_analog^0,w,c
  2878   002780  0BC3               	andlw	-61
  2879   002782  1839               	xorwf	??_read_analog^0,w,c
  2880   002784  6EC2               	movwf	194,c	;volatile
  2881   002786                     
  2882                           ;main.c: 215:         ADCON0bits.GODONE=1;
  2883   002786  82C2               	bsf	194,1,c	;volatile
  2884   002788                     l114:
  2885   002788  B2C2               	btfsc	194,1,c	;volatile
  2886   00278A  EFC9  F013         	goto	u3191
  2887   00278E  EFCB  F013         	goto	u3190
  2888   002792                     u3191:
  2889   002792  EFC4  F013         	goto	l114
  2890   002796                     u3190:
  2891   002796                     
  2892                           ;main.c: 217:         aux=ADRESH*4;
  2893   002796  50C4               	movf	196,w,c	;volatile
  2894   002798  0D04               	mullw	4
  2895   00279A  CFF3 F049          	movff	prodl,read_analog@aux
  2896   00279E  CFF4 F04A          	movff	prodh,read_analog@aux+1
  2897   0027A2                     
  2898                           ;main.c: 218:         aux=aux+ADRESL/64;
  2899   0027A2  CFC3 F013          	movff	4035,___awdiv@dividend	;volatile
  2900   0027A6  6A14               	clrf	(___awdiv@dividend+1)^0,c
  2901   0027A8  0E00               	movlw	0
  2902   0027AA  6E16               	movwf	(___awdiv@divisor+1)^0,c
  2903   0027AC  0E40               	movlw	64
  2904   0027AE  6E15               	movwf	___awdiv@divisor^0,c
  2905   0027B0  EC29  F018         	call	___awdiv	;wreg free
  2906   0027B4  5049               	movf	read_analog@aux^0,w,c
  2907   0027B6  2413               	addwf	?___awdiv^0,w,c
  2908   0027B8  6E49               	movwf	read_analog@aux^0,c
  2909   0027BA  504A               	movf	(read_analog@aux+1)^0,w,c
  2910   0027BC  2014               	addwfc	(?___awdiv+1)^0,w,c
  2911   0027BE  6E4A               	movwf	(read_analog@aux+1)^0,c
  2912   0027C0                     
  2913                           ;main.c: 219:         an_input[i]=aux;
  2914   0027C0  504B               	movf	read_analog@i^0,w,c
  2915   0027C2  0D02               	mullw	2
  2916   0027C4  0EB4               	movlw	low _an_input
  2917   0027C6  24F3               	addwf	243,w,c
  2918   0027C8  6ED9               	movwf	fsr2l,c
  2919   0027CA  0E01               	movlw	high _an_input
  2920   0027CC  20F4               	addwfc	prodh,w,c
  2921   0027CE  6EDA               	movwf	fsr2h,c
  2922   0027D0  C049  FFDE         	movff	read_analog@aux,postinc2
  2923   0027D4  C04A  FFDD         	movff	read_analog@aux+1,postdec2
  2924   0027D8                     
  2925                           ;main.c: 220:         sum_read[i]+=aux;
  2926   0027D8  504B               	movf	read_analog@i^0,w,c
  2927   0027DA  0D08               	mullw	8
  2928   0027DC  0E00               	movlw	low _sum_read
  2929   0027DE  24F3               	addwf	243,w,c
  2930   0027E0  6ED9               	movwf	fsr2l,c
  2931   0027E2  0E01               	movlw	high _sum_read
  2932   0027E4  20F4               	addwfc	prodh,w,c
  2933   0027E6  6EDA               	movwf	fsr2h,c
  2934   0027E8  5049               	movf	read_analog@aux^0,w,c
  2935   0027EA  26DE               	addwf	postinc2,f,c
  2936   0027EC  504A               	movf	(read_analog@aux+1)^0,w,c
  2937   0027EE  22DE               	addwfc	postinc2,f,c
  2938   0027F0  0E00               	movlw	0
  2939   0027F2  22DE               	addwfc	postinc2,f,c
  2940   0027F4  22DE               	addwfc	postinc2,f,c
  2941   0027F6  22DE               	addwfc	postinc2,f,c
  2942   0027F8  22DE               	addwfc	postinc2,f,c
  2943   0027FA  22DE               	addwfc	postinc2,f,c
  2944   0027FC  22DE               	addwfc	postinc2,f,c
  2945   0027FE                     
  2946                           ;main.c: 221:     }
  2947   0027FE  2A4B               	incf	read_analog@i^0,f,c
  2948   002800  0E05               	movlw	5
  2949   002802  644B               	cpfsgt	read_analog@i^0,c
  2950   002804  EF06  F014         	goto	u3201
  2951   002808  EF08  F014         	goto	u3200
  2952   00280C                     u3201:
  2953   00280C  EFBA  F013         	goto	l2742
  2954   002810                     u3200:
  2955   002810                     
  2956                           ;main.c: 222:     count_reads ++;
  2957   002810  0E01               	movlw	1
  2958   002812  0100               	movlb	0	; () banked
  2959   002814  2792               	addwf	_count_reads& (0+255),f,b
  2960   002816  0E00               	movlw	0
  2961   002818  2393               	addwfc	(_count_reads+1)& (0+255),f,b
  2962   00281A  2394               	addwfc	(_count_reads+2)& (0+255),f,b
  2963   00281C  2395               	addwfc	(_count_reads+3)& (0+255),f,b
  2964   00281E  2396               	addwfc	(_count_reads+4)& (0+255),f,b
  2965   002820  2397               	addwfc	(_count_reads+5)& (0+255),f,b
  2966   002822  2398               	addwfc	(_count_reads+6)& (0+255),f,b
  2967   002824  2399               	addwfc	(_count_reads+7)& (0+255),f,b
  2968                           
  2969                           ;main.c: 223:     if (count_reads >= 25){
  2970   002826  BF99               	btfsc	(_count_reads+7)& (0+255),7,b
  2971   002828  EF25  F014         	goto	u3211
  2972   00282C  5199               	movf	(_count_reads+7)& (0+255),w,b
  2973   00282E  1198               	iorwf	(_count_reads+6)& (0+255),w,b
  2974   002830  1197               	iorwf	(_count_reads+5)& (0+255),w,b
  2975   002832  1196               	iorwf	(_count_reads+4)& (0+255),w,b
  2976   002834  1195               	iorwf	(_count_reads+3)& (0+255),w,b
  2977   002836  1194               	iorwf	(_count_reads+2)& (0+255),w,b
  2978   002838  1193               	iorwf	(_count_reads+1)& (0+255),w,b
  2979   00283A  E109               	bnz	u3210
  2980   00283C  0E19               	movlw	25
  2981   00283E  5D92               	subwf	_count_reads& (0+255),w,b
  2982   002840  A0D8               	btfss	status,0,c
  2983   002842  EF25  F014         	goto	u3211
  2984   002846  EF27  F014         	goto	u3210
  2985   00284A                     u3211:
  2986   00284A  EF9A  F014         	goto	l120
  2987   00284E                     u3210:
  2988   00284E                     
  2989                           ; BSR set to: 0
  2990                           ;main.c: 224:         for (i=0;i<=5;i++){
  2991   00284E  0E00               	movlw	0
  2992   002850  6E4B               	movwf	read_analog@i^0,c
  2993   002852                     l2766:
  2994                           
  2995                           ;main.c: 225:             avg_input[i] = sum_read[i] / count_reads;
  2996   002852  504B               	movf	read_analog@i^0,w,c
  2997   002854  0D08               	mullw	8
  2998   002856  0E00               	movlw	low _sum_read
  2999   002858  24F3               	addwf	243,w,c
  3000   00285A  6ED9               	movwf	fsr2l,c
  3001   00285C  0E01               	movlw	high _sum_read
  3002   00285E  20F4               	addwfc	prodh,w,c
  3003   002860  6EDA               	movwf	fsr2h,c
  3004   002862  CFDE F039          	movff	postinc2,??_read_analog
  3005   002866  CFDE F03A          	movff	postinc2,??_read_analog+1
  3006   00286A  CFDE F03B          	movff	postinc2,??_read_analog+2
  3007   00286E  CFDE F03C          	movff	postinc2,??_read_analog+3
  3008   002872  CFDE F03D          	movff	postinc2,??_read_analog+4
  3009   002876  CFDE F03E          	movff	postinc2,??_read_analog+5
  3010   00287A  CFDE F03F          	movff	postinc2,??_read_analog+6
  3011   00287E  CFDE F040          	movff	postinc2,??_read_analog+7
  3012   002882  C039  F01F         	movff	??_read_analog,___aodiv@dividend
  3013   002886  C03A  F020         	movff	??_read_analog+1,___aodiv@dividend+1
  3014   00288A  C03B  F021         	movff	??_read_analog+2,___aodiv@dividend+2
  3015   00288E  C03C  F022         	movff	??_read_analog+3,___aodiv@dividend+3
  3016   002892  C03D  F023         	movff	??_read_analog+4,___aodiv@dividend+4
  3017   002896  C03E  F024         	movff	??_read_analog+5,___aodiv@dividend+5
  3018   00289A  C03F  F025         	movff	??_read_analog+6,___aodiv@dividend+6
  3019   00289E  C040  F026         	movff	??_read_analog+7,___aodiv@dividend+7
  3020   0028A2  C092  F027         	movff	_count_reads,___aodiv@divisor
  3021   0028A6  C093  F028         	movff	_count_reads+1,___aodiv@divisor+1
  3022   0028AA  C094  F029         	movff	_count_reads+2,___aodiv@divisor+2
  3023   0028AE  C095  F02A         	movff	_count_reads+3,___aodiv@divisor+3
  3024   0028B2  C096  F02B         	movff	_count_reads+4,___aodiv@divisor+4
  3025   0028B6  C097  F02C         	movff	_count_reads+5,___aodiv@divisor+5
  3026   0028BA  C098  F02D         	movff	_count_reads+6,___aodiv@divisor+6
  3027   0028BE  C099  F02E         	movff	_count_reads+7,___aodiv@divisor+7
  3028   0028C2  EC9B  F014         	call	___aodiv	;wreg free
  3029   0028C6  C01F  F041         	movff	?___aodiv,??_read_analog+8
  3030   0028CA  C020  F042         	movff	?___aodiv+1,??_read_analog+9
  3031   0028CE  C021  F043         	movff	?___aodiv+2,??_read_analog+10
  3032   0028D2  C022  F044         	movff	?___aodiv+3,??_read_analog+11
  3033   0028D6  C023  F045         	movff	?___aodiv+4,??_read_analog+12
  3034   0028DA  C024  F046         	movff	?___aodiv+5,??_read_analog+13
  3035   0028DE  C025  F047         	movff	?___aodiv+6,??_read_analog+14
  3036   0028E2  C026  F048         	movff	?___aodiv+7,??_read_analog+15
  3037   0028E6  504B               	movf	read_analog@i^0,w,c
  3038   0028E8  0D02               	mullw	2
  3039   0028EA  0EA0               	movlw	low _avg_input
  3040   0028EC  24F3               	addwf	243,w,c
  3041   0028EE  6ED9               	movwf	fsr2l,c
  3042   0028F0  0E01               	movlw	high _avg_input
  3043   0028F2  20F4               	addwfc	prodh,w,c
  3044   0028F4  6EDA               	movwf	fsr2h,c
  3045   0028F6  C041  FFDE         	movff	??_read_analog+8,postinc2
  3046   0028FA  C042  FFDD         	movff	??_read_analog+9,postdec2
  3047   0028FE                     
  3048                           ;main.c: 226:             sum_read[i] = 0;
  3049   0028FE  504B               	movf	read_analog@i^0,w,c
  3050   002900  0D08               	mullw	8
  3051   002902  0E00               	movlw	low _sum_read
  3052   002904  24F3               	addwf	243,w,c
  3053   002906  6ED9               	movwf	fsr2l,c
  3054   002908  0E01               	movlw	high _sum_read
  3055   00290A  20F4               	addwfc	prodh,w,c
  3056   00290C  6EDA               	movwf	fsr2h,c
  3057   00290E  0E07               	movlw	7
  3058   002910                     u3221:
  3059   002910  6ADE               	clrf	postinc2,c
  3060   002912  06E8               	decf	wreg,f,c
  3061   002914  E2FD               	bc	u3221
  3062   002916                     
  3063                           ;main.c: 227:         }
  3064   002916  2A4B               	incf	read_analog@i^0,f,c
  3065   002918  0E05               	movlw	5
  3066   00291A  644B               	cpfsgt	read_analog@i^0,c
  3067   00291C  EF92  F014         	goto	u3231
  3068   002920  EF94  F014         	goto	u3230
  3069   002924                     u3231:
  3070   002924  EF29  F014         	goto	l2766
  3071   002928                     u3230:
  3072   002928                     
  3073                           ;main.c: 228:         count_reads = 0;
  3074   002928  EE20  F092         	lfsr	2,_count_reads
  3075   00292C  0E07               	movlw	7
  3076   00292E                     u3241:
  3077   00292E  6ADE               	clrf	postinc2,c
  3078   002930  06E8               	decf	wreg,f,c
  3079   002932  E2FD               	bc	u3241
  3080   002934                     l120:
  3081   002934  0012               	return		;funcret
  3082   002936                     __end_of_read_analog:
  3083                           	callstack 0
  3084                           
  3085 ;; *************** function ___awdiv *****************
  3086 ;; Defined at:
  3087 ;;		line 7 in file "C:\Program Files\Microchip\xc8\v2.40\pic\sources\c99\common\awdiv.c"
  3088 ;; Parameters:    Size  Location     Type
  3089 ;;  dividend        2   18[COMRAM] int 
  3090 ;;  divisor         2   20[COMRAM] int 
  3091 ;; Auto vars:     Size  Location     Type
  3092 ;;  quotient        2   24[COMRAM] int 
  3093 ;;  sign            1   23[COMRAM] unsigned char 
  3094 ;;  counter         1   22[COMRAM] unsigned char 
  3095 ;; Return value:  Size  Location     Type
  3096 ;;                  2   18[COMRAM] int 
  3097 ;; Registers used:
  3098 ;;		wreg, status,2, status,0
  3099 ;; Tracked objects:
  3100 ;;		On entry : 0/0
  3101 ;;		On exit  : 0/0
  3102 ;;		Unchanged: 0/0
  3103 ;; Data sizes:     COMRAM   BANK0   BANK1   BANK2   BANK3   BANK4   BANK5   BANK6   BANK7
  3104 ;;      Params:         4       0       0       0       0       0       0       0       0
  3105 ;;      Locals:         4       0       0       0       0       0       0       0       0
  3106 ;;      Temps:          0       0       0       0       0       0       0       0       0
  3107 ;;      Totals:         8       0       0       0       0       0       0       0       0
  3108 ;;Total ram usage:        8 bytes
  3109 ;; Hardware stack levels used: 1
  3110 ;; Hardware stack levels required when called: 1
  3111 ;; This function calls:
  3112 ;;		Nothing
  3113 ;; This function is called by:
  3114 ;;		_read_analog
  3115 ;;		_update_pwm
  3116 ;;		_status_loop
  3117 ;; This function uses a non-reentrant model
  3118 ;;
  3119                           
  3120                           	psect	text6
  3121   003052                     __ptext6:
  3122                           	callstack 0
  3123   003052                     ___awdiv:
  3124                           	callstack 28
  3125   003052  0E00               	movlw	0
  3126   003054  6E18               	movwf	___awdiv@sign^0,c
  3127   003056  BE16               	btfsc	(___awdiv@divisor+1)^0,7,c
  3128   003058  EF32  F018         	goto	u3070
  3129   00305C  EF30  F018         	goto	u3071
  3130   003060                     u3071:
  3131   003060  EF38  F018         	goto	l2664
  3132   003064                     u3070:
  3133   003064  6C15               	negf	___awdiv@divisor^0,c
  3134   003066  1E16               	comf	(___awdiv@divisor+1)^0,f,c
  3135   003068  B0D8               	btfsc	status,0,c
  3136   00306A  2A16               	incf	(___awdiv@divisor+1)^0,f,c
  3137   00306C  0E01               	movlw	1
  3138   00306E  6E18               	movwf	___awdiv@sign^0,c
  3139   003070                     l2664:
  3140   003070  BE14               	btfsc	(___awdiv@dividend+1)^0,7,c
  3141   003072  EF3F  F018         	goto	u3080
  3142   003076  EF3D  F018         	goto	u3081
  3143   00307A                     u3081:
  3144   00307A  EF45  F018         	goto	l2670
  3145   00307E                     u3080:
  3146   00307E  6C13               	negf	___awdiv@dividend^0,c
  3147   003080  1E14               	comf	(___awdiv@dividend+1)^0,f,c
  3148   003082  B0D8               	btfsc	status,0,c
  3149   003084  2A14               	incf	(___awdiv@dividend+1)^0,f,c
  3150   003086  0E01               	movlw	1
  3151   003088  1A18               	xorwf	___awdiv@sign^0,f,c
  3152   00308A                     l2670:
  3153   00308A  0E00               	movlw	0
  3154   00308C  6E1A               	movwf	(___awdiv@quotient+1)^0,c
  3155   00308E  0E00               	movlw	0
  3156   003090  6E19               	movwf	___awdiv@quotient^0,c
  3157   003092  5015               	movf	___awdiv@divisor^0,w,c
  3158   003094  1016               	iorwf	(___awdiv@divisor+1)^0,w,c
  3159   003096  B4D8               	btfsc	status,2,c
  3160   003098  EF50  F018         	goto	u3091
  3161   00309C  EF52  F018         	goto	u3090
  3162   0030A0                     u3091:
  3163   0030A0  EF7A  F018         	goto	l2692
  3164   0030A4                     u3090:
  3165   0030A4  0E01               	movlw	1
  3166   0030A6  6E17               	movwf	___awdiv@counter^0,c
  3167   0030A8  EF5A  F018         	goto	l2678
  3168   0030AC                     l2676:
  3169   0030AC  90D8               	bcf	status,0,c
  3170   0030AE  3615               	rlcf	___awdiv@divisor^0,f,c
  3171   0030B0  3616               	rlcf	(___awdiv@divisor+1)^0,f,c
  3172   0030B2  2A17               	incf	___awdiv@counter^0,f,c
  3173   0030B4                     l2678:
  3174   0030B4  AE16               	btfss	(___awdiv@divisor+1)^0,7,c
  3175   0030B6  EF5F  F018         	goto	u3101
  3176   0030BA  EF61  F018         	goto	u3100
  3177   0030BE                     u3101:
  3178   0030BE  EF56  F018         	goto	l2676
  3179   0030C2                     u3100:
  3180   0030C2                     l2680:
  3181   0030C2  90D8               	bcf	status,0,c
  3182   0030C4  3619               	rlcf	___awdiv@quotient^0,f,c
  3183   0030C6  361A               	rlcf	(___awdiv@quotient+1)^0,f,c
  3184   0030C8  5015               	movf	___awdiv@divisor^0,w,c
  3185   0030CA  5C13               	subwf	___awdiv@dividend^0,w,c
  3186   0030CC  5016               	movf	(___awdiv@divisor+1)^0,w,c
  3187   0030CE  5814               	subwfb	(___awdiv@dividend+1)^0,w,c
  3188   0030D0  A0D8               	btfss	status,0,c
  3189   0030D2  EF6D  F018         	goto	u3111
  3190   0030D6  EF6F  F018         	goto	u3110
  3191   0030DA                     u3111:
  3192   0030DA  EF74  F018         	goto	l2688
  3193   0030DE                     u3110:
  3194   0030DE  5015               	movf	___awdiv@divisor^0,w,c
  3195   0030E0  5E13               	subwf	___awdiv@dividend^0,f,c
  3196   0030E2  5016               	movf	(___awdiv@divisor+1)^0,w,c
  3197   0030E4  5A14               	subwfb	(___awdiv@dividend+1)^0,f,c
  3198   0030E6  8019               	bsf	___awdiv@quotient^0,0,c
  3199   0030E8                     l2688:
  3200   0030E8  90D8               	bcf	status,0,c
  3201   0030EA  3216               	rrcf	(___awdiv@divisor+1)^0,f,c
  3202   0030EC  3215               	rrcf	___awdiv@divisor^0,f,c
  3203   0030EE  2E17               	decfsz	___awdiv@counter^0,f,c
  3204   0030F0  EF61  F018         	goto	l2680
  3205   0030F4                     l2692:
  3206   0030F4  5018               	movf	___awdiv@sign^0,w,c
  3207   0030F6  B4D8               	btfsc	status,2,c
  3208   0030F8  EF80  F018         	goto	u3121
  3209   0030FC  EF82  F018         	goto	u3120
  3210   003100                     u3121:
  3211   003100  EF86  F018         	goto	l2696
  3212   003104                     u3120:
  3213   003104  6C19               	negf	___awdiv@quotient^0,c
  3214   003106  1E1A               	comf	(___awdiv@quotient+1)^0,f,c
  3215   003108  B0D8               	btfsc	status,0,c
  3216   00310A  2A1A               	incf	(___awdiv@quotient+1)^0,f,c
  3217   00310C                     l2696:
  3218   00310C  C019  F013         	movff	___awdiv@quotient,?___awdiv
  3219   003110  C01A  F014         	movff	___awdiv@quotient+1,?___awdiv+1
  3220   003114  0012               	return		;funcret
  3221   003116                     __end_of___awdiv:
  3222                           	callstack 0
  3223                           
  3224 ;; *************** function _loop *****************
  3225 ;; Defined at:
  3226 ;;		line 760 in file "main.c"
  3227 ;; Parameters:    Size  Location     Type
  3228 ;;		None
  3229 ;; Auto vars:     Size  Location     Type
  3230 ;;  analog_read     2   43[BANK0 ] int 
  3231 ;;  analog_read     2   41[BANK0 ] int 
  3232 ;; Return value:  Size  Location     Type
  3233 ;;                  1    wreg      void 
  3234 ;; Registers used:
  3235 ;;		wreg, fsr1l, fsr1h, fsr2l, fsr2h, status,2, status,0, tblptrl, tblptrh, tblptru, prodl, prodh, cstack
  3236 ;; Tracked objects:
  3237 ;;		On entry : 0/0
  3238 ;;		On exit  : 0/0
  3239 ;;		Unchanged: 0/0
  3240 ;; Data sizes:     COMRAM   BANK0   BANK1   BANK2   BANK3   BANK4   BANK5   BANK6   BANK7
  3241 ;;      Params:         0       0       0       0       0       0       0       0       0
  3242 ;;      Locals:         0       4       0       0       0       0       0       0       0
  3243 ;;      Temps:          0       0       8       0       0       0       0       0       0
  3244 ;;      Totals:         0       4       8       0       0       0       0       0       0
  3245 ;;Total ram usage:       12 bytes
  3246 ;; Hardware stack levels used: 1
  3247 ;; Hardware stack levels required when called: 9
  3248 ;; This function calls:
  3249 ;;		___aodiv
  3250 ;;		___omul
  3251 ;;		_printf
  3252 ;;		_read_eeprom
  3253 ;;		_read_values
  3254 ;;		_status_set_mode
  3255 ;;		_write_eeprom
  3256 ;; This function is called by:
  3257 ;;		_main
  3258 ;; This function uses a non-reentrant model
  3259 ;;
  3260                           
  3261                           	psect	text7
  3262   001B5C                     __ptext7:
  3263                           	callstack 0
  3264   001B5C                     _loop:
  3265                           	callstack 21
  3266   001B5C                     
  3267                           ;main.c: 761:     if (flag_init == 0 && !initial_state){
  3268   001B5C  0100               	movlb	0	; () banked
  3269   001B5E  51C3               	movf	_flag_init& (0+255),w,b
  3270   001B60  11C4               	iorwf	(_flag_init+1)& (0+255),w,b
  3271   001B62  A4D8               	btfss	status,2,c
  3272   001B64  EFB6  F00D         	goto	u5201
  3273   001B68  EFB8  F00D         	goto	u5200
  3274   001B6C                     u5201:
  3275   001B6C  EFE5  F00D         	goto	l3430
  3276   001B70                     u5200:
  3277   001B70                     
  3278                           ; BSR set to: 0
  3279   001B70  5058               	movf	_initial_state^0,w,c
  3280   001B72  A4D8               	btfss	status,2,c
  3281   001B74  EFBE  F00D         	goto	u5211
  3282   001B78  EFC0  F00D         	goto	u5210
  3283   001B7C                     u5211:
  3284   001B7C  EFE5  F00D         	goto	l3430
  3285   001B80                     u5210:
  3286   001B80                     
  3287                           ; BSR set to: 0
  3288                           ;main.c: 762:         flag_init = 1;
  3289   001B80  0E00               	movlw	0
  3290   001B82  6FC4               	movwf	(_flag_init+1)& (0+255),b
  3291   001B84  0E01               	movlw	1
  3292   001B86  6FC3               	movwf	_flag_init& (0+255),b
  3293   001B88                     
  3294                           ; BSR set to: 0
  3295                           ;main.c: 764:         read_eeprom();
  3296   001B88  ECC4  F01A         	call	_read_eeprom	;wreg free
  3297   001B8C                     
  3298                           ;main.c: 766:         read_values();
  3299   001B8C  EC13  F01A         	call	_read_values	;wreg free
  3300   001B90                     
  3301                           ;main.c: 768:         status_set_mode( 4 , 0 , -1);
  3302   001B90  0E00               	movlw	0
  3303   001B92  6E07               	movwf	status_set_mode@next_mode^0,c
  3304   001B94  0EFF               	movlw	255
  3305   001B96  6E08               	movwf	status_set_mode@final_mode^0,c
  3306   001B98  0E04               	movlw	4
  3307   001B9A  EC8B  F01B         	call	_status_set_mode
  3308   001B9E                     
  3309                           ;main.c: 770:         printf("motor a speed: %d\n", motor_a_speed_read_value);
  3310   001B9E  0E0E               	movlw	low (STR_3+13)
  3311   001BA0  0100               	movlb	0	; () banked
  3312   001BA2  6FF4               	movwf	printf@fmt& (0+255),b
  3313   001BA4  0E08               	movlw	high (STR_3+13)
  3314   001BA6  6FF5               	movwf	(printf@fmt+1)& (0+255),b
  3315   001BA8  C0C1  F0F6         	movff	_motor_a_speed_read_value,?_printf+2
  3316   001BAC  C0C2  F0F7         	movff	_motor_a_speed_read_value+1,?_printf+3
  3317   001BB0  ECD2  F01B         	call	_printf	;wreg free
  3318   001BB4                     
  3319                           ;main.c: 771:         printf("motor b speed: %d\n", motor_b_speed_read_value);
  3320   001BB4  0E2E               	movlw	low (STR_5+13)
  3321   001BB6  0100               	movlb	0	; () banked
  3322   001BB8  6FF4               	movwf	printf@fmt& (0+255),b
  3323   001BBA  0E08               	movlw	high (STR_5+13)
  3324   001BBC  6FF5               	movwf	(printf@fmt+1)& (0+255),b
  3325   001BBE  C0BF  F0F6         	movff	_motor_b_speed_read_value,?_printf+2
  3326   001BC2  C0C0  F0F7         	movff	_motor_b_speed_read_value+1,?_printf+3
  3327   001BC6  ECD2  F01B         	call	_printf	;wreg free
  3328   001BCA                     l3430:
  3329                           
  3330                           ;main.c: 773:     if (flag_init == 1){
  3331   001BCA  0100               	movlb	0	; () banked
  3332   001BCC  05C3               	decf	_flag_init& (0+255),w,b
  3333   001BCE  11C4               	iorwf	(_flag_init+1)& (0+255),w,b
  3334   001BD0  A4D8               	btfss	status,2,c
  3335   001BD2  EFED  F00D         	goto	u5221
  3336   001BD6  EFEF  F00D         	goto	u5220
  3337   001BDA                     u5221:
  3338   001BDA  EF83  F011         	goto	l404
  3339   001BDE                     u5220:
  3340   001BDE                     
  3341                           ; BSR set to: 0
  3342                           ;main.c: 774:         if (mode_config == 1){
  3343   001BDE  05BB               	decf	_mode_config& (0+255),w,b
  3344   001BE0  11BC               	iorwf	(_mode_config+1)& (0+255),w,b
  3345   001BE2  A4D8               	btfss	status,2,c
  3346   001BE4  EFF6  F00D         	goto	u5231
  3347   001BE8  EFF8  F00D         	goto	u5230
  3348   001BEC                     u5231:
  3349   001BEC  EFB8  F010         	goto	l3588
  3350   001BF0                     u5230:
  3351   001BF0                     
  3352                           ; BSR set to: 0
  3353                           ;main.c: 775:             if (mode == 0 && status_mode == 0){
  3354   001BF0  51BD               	movf	_mode& (0+255),w,b
  3355   001BF2  11BE               	iorwf	(_mode+1)& (0+255),w,b
  3356   001BF4  A4D8               	btfss	status,2,c
  3357   001BF6  EFFF  F00D         	goto	u5241
  3358   001BFA  EF01  F00E         	goto	u5240
  3359   001BFE                     u5241:
  3360   001BFE  EF37  F00E         	goto	l3448
  3361   001C02                     u5240:
  3362   001C02                     
  3363                           ; BSR set to: 0
  3364   001C02  5057               	movf	_status_mode^0,w,c
  3365   001C04  A4D8               	btfss	status,2,c
  3366   001C06  EF07  F00E         	goto	u5251
  3367   001C0A  EF09  F00E         	goto	u5250
  3368   001C0E                     u5251:
  3369   001C0E  EF37  F00E         	goto	l3448
  3370   001C12                     u5250:
  3371   001C12                     
  3372                           ; BSR set to: 0
  3373                           ;main.c: 776:                 mode = 1;
  3374   001C12  0E00               	movlw	0
  3375   001C14  6FBE               	movwf	(_mode+1)& (0+255),b
  3376   001C16  0E01               	movlw	1
  3377   001C18  6FBD               	movwf	_mode& (0+255),b
  3378                           
  3379                           ;main.c: 777:                 status_code = 1;
  3380   001C1A  0E00               	movlw	0
  3381   001C1C  6FC6               	movwf	(_status_code+1)& (0+255),b
  3382   001C1E  0E01               	movlw	1
  3383   001C20  6FC5               	movwf	_status_code& (0+255),b
  3384   001C22                     
  3385                           ; BSR set to: 0
  3386                           ;main.c: 778:                 if (motor_a_speed_read_value >= 0){
  3387   001C22  BFC2               	btfsc	(_motor_a_speed_read_value+1)& (0+255),7,b
  3388   001C24  EF16  F00E         	goto	u5261
  3389   001C28  EF18  F00E         	goto	u5260
  3390   001C2C                     u5261:
  3391   001C2C  EF21  F00E         	goto	l3444
  3392   001C30                     u5260:
  3393   001C30                     
  3394                           ; BSR set to: 0
  3395                           ;main.c: 779:                     status_set_mode( 6, 4, 1);
  3396   001C30  0E04               	movlw	4
  3397   001C32  6E07               	movwf	status_set_mode@next_mode^0,c
  3398   001C34  0E01               	movlw	1
  3399   001C36  6E08               	movwf	status_set_mode@final_mode^0,c
  3400   001C38  0E06               	movlw	6
  3401   001C3A  EC8B  F01B         	call	_status_set_mode
  3402                           
  3403                           ;main.c: 780:                 }else if (motor_a_speed_read_value <= 0){
  3404   001C3E  EF97  F010         	goto	l3576
  3405   001C42                     l3444:
  3406                           
  3407                           ; BSR set to: 0
  3408   001C42  BFC2               	btfsc	(_motor_a_speed_read_value+1)& (0+255),7,b
  3409   001C44  EF2E  F00E         	goto	u5270
  3410   001C48  51C2               	movf	(_motor_a_speed_read_value+1)& (0+255),w,b
  3411   001C4A  E106               	bnz	u5271
  3412   001C4C  05C1               	decf	_motor_a_speed_read_value& (0+255),w,b
  3413   001C4E  B0D8               	btfsc	status,0,c
  3414   001C50  EF2C  F00E         	goto	u5271
  3415   001C54  EF2E  F00E         	goto	u5270
  3416   001C58                     u5271:
  3417   001C58  EF97  F010         	goto	l3576
  3418   001C5C                     u5270:
  3419   001C5C                     
  3420                           ; BSR set to: 0
  3421                           ;main.c: 781:                     status_set_mode( 6, 5, 1);
  3422   001C5C  0E05               	movlw	5
  3423   001C5E  6E07               	movwf	status_set_mode@next_mode^0,c
  3424   001C60  0E01               	movlw	1
  3425   001C62  6E08               	movwf	status_set_mode@final_mode^0,c
  3426   001C64  0E06               	movlw	6
  3427   001C66  EC8B  F01B         	call	_status_set_mode
  3428   001C6A  EF97  F010         	goto	l3576
  3429   001C6E                     l3448:
  3430                           
  3431                           ; BSR set to: 0
  3432   001C6E  05BD               	decf	_mode& (0+255),w,b
  3433   001C70  11BE               	iorwf	(_mode+1)& (0+255),w,b
  3434   001C72  A4D8               	btfss	status,2,c
  3435   001C74  EF3E  F00E         	goto	u5281
  3436   001C78  EF40  F00E         	goto	u5280
  3437   001C7C                     u5281:
  3438   001C7C  EFA9  F00E         	goto	l3474
  3439   001C80                     u5280:
  3440   001C80                     
  3441                           ; BSR set to: 0
  3442                           ;main.c: 784:                 if (motor_a_speed_read_value >= 0){
  3443   001C80  BFC2               	btfsc	(_motor_a_speed_read_value+1)& (0+255),7,b
  3444   001C82  EF45  F00E         	goto	u5291
  3445   001C86  EF47  F00E         	goto	u5290
  3446   001C8A                     u5291:
  3447   001C8A  EF4D  F00E         	goto	l376
  3448   001C8E                     u5290:
  3449   001C8E                     
  3450                           ; BSR set to: 0
  3451                           ;main.c: 785:                     status_value = motor_a_speed_read_value;
  3452   001C8E  C0C1  F055         	movff	_motor_a_speed_read_value,_status_value
  3453   001C92  C0C2  F056         	movff	_motor_a_speed_read_value+1,_status_value+1
  3454                           
  3455                           ;main.c: 786:                 }else{
  3456   001C96  EF5A  F00E         	goto	l3454
  3457   001C9A                     l376:
  3458                           
  3459                           ; BSR set to: 0
  3460                           ;main.c: 787:                     status_value = -motor_a_speed_read_value;
  3461   001C9A  C0C1  F1F4         	movff	_motor_a_speed_read_value,??_loop
  3462   001C9E  C0C2  F1F5         	movff	_motor_a_speed_read_value+1,??_loop+1
  3463   001CA2  0101               	movlb	1	; () banked
  3464   001CA4  1FF4               	comf	??_loop& (0+255),f,b
  3465   001CA6  1FF5               	comf	(??_loop+1)& (0+255),f,b
  3466   001CA8  4BF4               	infsnz	??_loop& (0+255),f,b
  3467   001CAA  2BF5               	incf	(??_loop+1)& (0+255),f,b
  3468   001CAC  C1F4  F055         	movff	??_loop,_status_value
  3469   001CB0  C1F5  F056         	movff	??_loop+1,_status_value+1
  3470   001CB4                     l3454:
  3471                           
  3472                           ;main.c: 789:                 if (single_click_evt[0]){
  3473   001CB4  0100               	movlb	0	; () banked
  3474   001CB6  51A4               	movf	_single_click_evt& (0+255),w,b
  3475   001CB8  B4D8               	btfsc	status,2,c
  3476   001CBA  EF61  F00E         	goto	u5301
  3477   001CBE  EF63  F00E         	goto	u5300
  3478   001CC2                     u5301:
  3479   001CC2  EF92  F00E         	goto	l3468
  3480   001CC6                     u5300:
  3481   001CC6                     
  3482                           ; BSR set to: 0
  3483                           ;main.c: 790:                     mode = 2;
  3484   001CC6  0E00               	movlw	0
  3485   001CC8  6FBE               	movwf	(_mode+1)& (0+255),b
  3486   001CCA  0E02               	movlw	2
  3487   001CCC  6FBD               	movwf	_mode& (0+255),b
  3488                           
  3489                           ;main.c: 791:                     status_code = 2;
  3490   001CCE  0E00               	movlw	0
  3491   001CD0  6FC6               	movwf	(_status_code+1)& (0+255),b
  3492   001CD2  0E02               	movlw	2
  3493   001CD4  6FC5               	movwf	_status_code& (0+255),b
  3494   001CD6                     
  3495                           ; BSR set to: 0
  3496                           ;main.c: 792:                     if (motor_b_speed_read_value >= 0){
  3497   001CD6  BFC0               	btfsc	(_motor_b_speed_read_value+1)& (0+255),7,b
  3498   001CD8  EF70  F00E         	goto	u5311
  3499   001CDC  EF72  F00E         	goto	u5310
  3500   001CE0                     u5311:
  3501   001CE0  EF7B  F00E         	goto	l3462
  3502   001CE4                     u5310:
  3503   001CE4                     
  3504                           ; BSR set to: 0
  3505                           ;main.c: 793:                         status_set_mode( 6, 4, 1);
  3506   001CE4  0E04               	movlw	4
  3507   001CE6  6E07               	movwf	status_set_mode@next_mode^0,c
  3508   001CE8  0E01               	movlw	1
  3509   001CEA  6E08               	movwf	status_set_mode@final_mode^0,c
  3510   001CEC  0E06               	movlw	6
  3511   001CEE  EC8B  F01B         	call	_status_set_mode
  3512                           
  3513                           ;main.c: 794:                     }else if (motor_b_speed_read_value <= 0){
  3514   001CF2  EF8F  F00E         	goto	l3466
  3515   001CF6                     l3462:
  3516                           
  3517                           ; BSR set to: 0
  3518   001CF6  BFC0               	btfsc	(_motor_b_speed_read_value+1)& (0+255),7,b
  3519   001CF8  EF88  F00E         	goto	u5320
  3520   001CFC  51C0               	movf	(_motor_b_speed_read_value+1)& (0+255),w,b
  3521   001CFE  E106               	bnz	u5321
  3522   001D00  05BF               	decf	_motor_b_speed_read_value& (0+255),w,b
  3523   001D02  B0D8               	btfsc	status,0,c
  3524   001D04  EF86  F00E         	goto	u5321
  3525   001D08  EF88  F00E         	goto	u5320
  3526   001D0C                     u5321:
  3527   001D0C  EF8F  F00E         	goto	l3466
  3528   001D10                     u5320:
  3529   001D10                     
  3530                           ; BSR set to: 0
  3531                           ;main.c: 795:                         status_set_mode( 6, 5, 1);
  3532   001D10  0E05               	movlw	5
  3533   001D12  6E07               	movwf	status_set_mode@next_mode^0,c
  3534   001D14  0E01               	movlw	1
  3535   001D16  6E08               	movwf	status_set_mode@final_mode^0,c
  3536   001D18  0E06               	movlw	6
  3537   001D1A  EC8B  F01B         	call	_status_set_mode
  3538   001D1E                     l3466:
  3539                           
  3540                           ;main.c: 797:                     single_click_evt[0] = 0;
  3541   001D1E  0E00               	movlw	0
  3542   001D20  0100               	movlb	0	; () banked
  3543   001D22  6FA4               	movwf	_single_click_evt& (0+255),b
  3544   001D24                     l3468:
  3545                           
  3546                           ; BSR set to: 0
  3547                           ;main.c: 799:                 if (double_click_evt[0]){
  3548   001D24  519F               	movf	_double_click_evt& (0+255),w,b
  3549   001D26  B4D8               	btfsc	status,2,c
  3550   001D28  EF98  F00E         	goto	u5331
  3551   001D2C  EF9A  F00E         	goto	u5330
  3552   001D30                     u5331:
  3553   001D30  EF97  F010         	goto	l3576
  3554   001D34                     u5330:
  3555   001D34                     
  3556                           ; BSR set to: 0
  3557                           ;main.c: 800:                     double_click_evt[0] = 0;
  3558   001D34  0E00               	movlw	0
  3559   001D36  6F9F               	movwf	_double_click_evt& (0+255),b
  3560                           
  3561                           ;main.c: 801:                     mode = 3;
  3562   001D38  0E00               	movlw	0
  3563   001D3A  6FBE               	movwf	(_mode+1)& (0+255),b
  3564   001D3C  0E03               	movlw	3
  3565   001D3E  6FBD               	movwf	_mode& (0+255),b
  3566   001D40                     
  3567                           ; BSR set to: 0
  3568                           ;main.c: 802:                     status_set_mode( 2, -1, -1);
  3569   001D40  0EFF               	movlw	255
  3570   001D42  6E07               	movwf	status_set_mode@next_mode^0,c
  3571   001D44  0EFF               	movlw	255
  3572   001D46  6E08               	movwf	status_set_mode@final_mode^0,c
  3573   001D48  0E02               	movlw	2
  3574   001D4A  EC8B  F01B         	call	_status_set_mode
  3575   001D4E  EF97  F010         	goto	l3576
  3576   001D52                     l3474:
  3577                           
  3578                           ; BSR set to: 0
  3579   001D52  0E03               	movlw	3
  3580   001D54  19BD               	xorwf	_mode& (0+255),w,b
  3581   001D56  11BE               	iorwf	(_mode+1)& (0+255),w,b
  3582   001D58  A4D8               	btfss	status,2,c
  3583   001D5A  EFB1  F00E         	goto	u5341
  3584   001D5E  EFB3  F00E         	goto	u5340
  3585   001D62                     u5341:
  3586   001D62  EF6A  F00F         	goto	l3512
  3587   001D66                     u5340:
  3588   001D66                     
  3589                           ; BSR set to: 0
  3590                           ;main.c: 805:                 int analog_read;;main.c: 806:                 analog_read 
      +                          = avg_input[0];
  3591   001D66  C1A0  F0FA         	movff	_avg_input,loop@analog_read
  3592   001D6A  C1A1  F0FB         	movff	_avg_input+1,loop@analog_read+1
  3593   001D6E                     
  3594                           ; BSR set to: 0
  3595                           ;main.c: 808:                 status_value = (int) ( (long long) analog_read * 1000 / (l
      +                          ong long) 1023 );
  3596   001D6E  0EE8               	movlw	232
  3597   001D70  6E0F               	movwf	___omul@multiplicand^0,c
  3598   001D72  0E03               	movlw	3
  3599   001D74  6E10               	movwf	(___omul@multiplicand+1)^0,c
  3600   001D76  0E00               	movlw	0
  3601   001D78  6E11               	movwf	(___omul@multiplicand+2)^0,c
  3602   001D7A  0E00               	movlw	0
  3603   001D7C  6E12               	movwf	(___omul@multiplicand+3)^0,c
  3604   001D7E  0E00               	movlw	0
  3605   001D80  6E13               	movwf	(___omul@multiplicand+4)^0,c
  3606   001D82  0E00               	movlw	0
  3607   001D84  6E14               	movwf	(___omul@multiplicand+5)^0,c
  3608   001D86  0E00               	movlw	0
  3609   001D88  6E15               	movwf	(___omul@multiplicand+6)^0,c
  3610   001D8A  0E00               	movlw	0
  3611   001D8C  6E16               	movwf	(___omul@multiplicand+7)^0,c
  3612   001D8E  C0FA  F007         	movff	loop@analog_read,___omul@multiplier
  3613   001D92  C0FB  F008         	movff	loop@analog_read+1,___omul@multiplier+1
  3614   001D96  0E00               	movlw	0
  3615   001D98  BE08               	btfsc	(___omul@multiplier+1)^0,7,c
  3616   001D9A  0EFF               	movlw	-1
  3617   001D9C  6E09               	movwf	(___omul@multiplier+2)^0,c
  3618   001D9E  6E0A               	movwf	(___omul@multiplier+3)^0,c
  3619   001DA0  6E0B               	movwf	(___omul@multiplier+4)^0,c
  3620   001DA2  6E0C               	movwf	(___omul@multiplier+5)^0,c
  3621   001DA4  6E0D               	movwf	(___omul@multiplier+6)^0,c
  3622   001DA6  6E0E               	movwf	(___omul@multiplier+7)^0,c
  3623   001DA8  EC32  F019         	call	___omul	;wreg free
  3624   001DAC  C007  F01F         	movff	?___omul,___aodiv@dividend
  3625   001DB0  C008  F020         	movff	?___omul+1,___aodiv@dividend+1
  3626   001DB4  C009  F021         	movff	?___omul+2,___aodiv@dividend+2
  3627   001DB8  C00A  F022         	movff	?___omul+3,___aodiv@dividend+3
  3628   001DBC  C00B  F023         	movff	?___omul+4,___aodiv@dividend+4
  3629   001DC0  C00C  F024         	movff	?___omul+5,___aodiv@dividend+5
  3630   001DC4  C00D  F025         	movff	?___omul+6,___aodiv@dividend+6
  3631   001DC8  C00E  F026         	movff	?___omul+7,___aodiv@dividend+7
  3632   001DCC  0EFF               	movlw	255
  3633   001DCE  6E27               	movwf	___aodiv@divisor^0,c
  3634   001DD0  0E03               	movlw	3
  3635   001DD2  6E28               	movwf	(___aodiv@divisor+1)^0,c
  3636   001DD4  0E00               	movlw	0
  3637   001DD6  6E29               	movwf	(___aodiv@divisor+2)^0,c
  3638   001DD8  0E00               	movlw	0
  3639   001DDA  6E2A               	movwf	(___aodiv@divisor+3)^0,c
  3640   001DDC  0E00               	movlw	0
  3641   001DDE  6E2B               	movwf	(___aodiv@divisor+4)^0,c
  3642   001DE0  0E00               	movlw	0
  3643   001DE2  6E2C               	movwf	(___aodiv@divisor+5)^0,c
  3644   001DE4  0E00               	movlw	0
  3645   001DE6  6E2D               	movwf	(___aodiv@divisor+6)^0,c
  3646   001DE8  0E00               	movlw	0
  3647   001DEA  6E2E               	movwf	(___aodiv@divisor+7)^0,c
  3648   001DEC  EC9B  F014         	call	___aodiv	;wreg free
  3649   001DF0  C01F  F1F4         	movff	?___aodiv,??_loop
  3650   001DF4  C020  F1F5         	movff	?___aodiv+1,??_loop+1
  3651   001DF8  C021  F1F6         	movff	?___aodiv+2,??_loop+2
  3652   001DFC  C022  F1F7         	movff	?___aodiv+3,??_loop+3
  3653   001E00  C023  F1F8         	movff	?___aodiv+4,??_loop+4
  3654   001E04  C024  F1F9         	movff	?___aodiv+5,??_loop+5
  3655   001E08  C025  F1FA         	movff	?___aodiv+6,??_loop+6
  3656   001E0C  C026  F1FB         	movff	?___aodiv+7,??_loop+7
  3657   001E10  C1F4  F055         	movff	??_loop,_status_value
  3658   001E14  C1F5  F056         	movff	??_loop+1,_status_value+1
  3659   001E18                     
  3660                           ;main.c: 810:                 if (single_click_evt[0]){
  3661   001E18  0100               	movlb	0	; () banked
  3662   001E1A  51A4               	movf	_single_click_evt& (0+255),w,b
  3663   001E1C  B4D8               	btfsc	status,2,c
  3664   001E1E  EF13  F00F         	goto	u5351
  3665   001E22  EF15  F00F         	goto	u5350
  3666   001E26                     u5351:
  3667   001E26  EF36  F00F         	goto	l3496
  3668   001E2A                     u5350:
  3669   001E2A                     
  3670                           ; BSR set to: 0
  3671                           ;main.c: 812:                     single_click_evt[0] = 0;
  3672   001E2A  0E00               	movlw	0
  3673   001E2C  6FA4               	movwf	_single_click_evt& (0+255),b
  3674                           
  3675                           ;main.c: 814:                     persisted_data[13] = 0;
  3676   001E2E  0E00               	movlw	0
  3677   001E30  0103               	movlb	3	; () banked
  3678   001E32  6F1B               	movwf	(_persisted_data+27)& (0+255),b
  3679   001E34  0E00               	movlw	0
  3680   001E36  6F1A               	movwf	(_persisted_data+26)& (0+255),b
  3681   001E38                     
  3682                           ; BSR set to: 3
  3683                           ;main.c: 815:                     persisted_data[15] = status_value;
  3684   001E38  C055  F31E         	movff	_status_value,_persisted_data+30
  3685   001E3C  C056  F31F         	movff	_status_value+1,_persisted_data+31
  3686   001E40                     
  3687                           ; BSR set to: 3
  3688                           ;main.c: 816:                     write_eeprom();
  3689   001E40  ECE3  F018         	call	_write_eeprom	;wreg free
  3690   001E44                     
  3691                           ;main.c: 817:                     read_values();
  3692   001E44  EC13  F01A         	call	_read_values	;wreg free
  3693   001E48                     
  3694                           ;main.c: 819:                     printf("Write eeprom motor a speed: %d\n", status_valu
      +                          e);
  3695   001E48  0E01               	movlw	low STR_3
  3696   001E4A  0100               	movlb	0	; () banked
  3697   001E4C  6FF4               	movwf	printf@fmt& (0+255),b
  3698   001E4E  0E08               	movlw	high STR_3
  3699   001E50  6FF5               	movwf	(printf@fmt+1)& (0+255),b
  3700   001E52  C055  F0F6         	movff	_status_value,?_printf+2
  3701   001E56  C056  F0F7         	movff	_status_value+1,?_printf+3
  3702   001E5A  ECD2  F01B         	call	_printf	;wreg free
  3703   001E5E                     
  3704                           ;main.c: 820:                     mode = 0;
  3705   001E5E  0E00               	movlw	0
  3706   001E60  0100               	movlb	0	; () banked
  3707   001E62  6FBE               	movwf	(_mode+1)& (0+255),b
  3708   001E64  0E00               	movlw	0
  3709   001E66  6FBD               	movwf	_mode& (0+255),b
  3710   001E68                     
  3711                           ; BSR set to: 0
  3712                           ;main.c: 821:                     status_mode = 0;
  3713   001E68  0E00               	movlw	0
  3714   001E6A  6E57               	movwf	_status_mode^0,c
  3715   001E6C                     l3496:
  3716                           
  3717                           ; BSR set to: 0
  3718                           ;main.c: 823:                 if (double_click_evt[0]){
  3719   001E6C  519F               	movf	_double_click_evt& (0+255),w,b
  3720   001E6E  B4D8               	btfsc	status,2,c
  3721   001E70  EF3C  F00F         	goto	u5361
  3722   001E74  EF3E  F00F         	goto	u5360
  3723   001E78                     u5361:
  3724   001E78  EF97  F010         	goto	l3576
  3725   001E7C                     u5360:
  3726   001E7C                     
  3727                           ; BSR set to: 0
  3728                           ;main.c: 825:                     double_click_evt[0] = 0;
  3729   001E7C  0E00               	movlw	0
  3730   001E7E  6F9F               	movwf	_double_click_evt& (0+255),b
  3731                           
  3732                           ;main.c: 827:                     persisted_data[13] = 1;
  3733   001E80  0E00               	movlw	0
  3734   001E82  0103               	movlb	3	; () banked
  3735   001E84  6F1B               	movwf	(_persisted_data+27)& (0+255),b
  3736   001E86  0E01               	movlw	1
  3737   001E88  6F1A               	movwf	(_persisted_data+26)& (0+255),b
  3738   001E8A                     
  3739                           ; BSR set to: 3
  3740                           ;main.c: 828:                     persisted_data[15] = status_value;
  3741   001E8A  C055  F31E         	movff	_status_value,_persisted_data+30
  3742   001E8E  C056  F31F         	movff	_status_value+1,_persisted_data+31
  3743   001E92                     
  3744                           ; BSR set to: 3
  3745                           ;main.c: 829:                     write_eeprom();
  3746   001E92  ECE3  F018         	call	_write_eeprom	;wreg free
  3747   001E96                     
  3748                           ;main.c: 830:                     read_values();
  3749   001E96  EC13  F01A         	call	_read_values	;wreg free
  3750   001E9A                     
  3751                           ;main.c: 832:                     printf("Write eeprom motor a speed: %d\n", -status_val
      +                          ue);
  3752   001E9A  0E01               	movlw	low STR_3
  3753   001E9C  0100               	movlb	0	; () banked
  3754   001E9E  6FF4               	movwf	printf@fmt& (0+255),b
  3755   001EA0  0E08               	movlw	high STR_3
  3756   001EA2  6FF5               	movwf	(printf@fmt+1)& (0+255),b
  3757   001EA4  C055  F1F4         	movff	_status_value,??_loop
  3758   001EA8  C056  F1F5         	movff	_status_value+1,??_loop+1
  3759   001EAC  0101               	movlb	1	; () banked
  3760   001EAE  1FF4               	comf	??_loop& (0+255),f,b
  3761   001EB0  1FF5               	comf	(??_loop+1)& (0+255),f,b
  3762   001EB2  4BF4               	infsnz	??_loop& (0+255),f,b
  3763   001EB4  2BF5               	incf	(??_loop+1)& (0+255),f,b
  3764   001EB6  C1F4  F0F6         	movff	??_loop,?_printf+2
  3765   001EBA  C1F5  F0F7         	movff	??_loop+1,?_printf+3
  3766   001EBE  ECD2  F01B         	call	_printf	;wreg free
  3767   001EC2                     l3508:
  3768                           
  3769                           ;main.c: 833:                     mode = 0;
  3770   001EC2  0E00               	movlw	0
  3771   001EC4  0100               	movlb	0	; () banked
  3772   001EC6  6FBE               	movwf	(_mode+1)& (0+255),b
  3773   001EC8  0E00               	movlw	0
  3774   001ECA  6FBD               	movwf	_mode& (0+255),b
  3775   001ECC                     
  3776                           ; BSR set to: 0
  3777                           ;main.c: 834:                     status_mode = 0;
  3778   001ECC  0E00               	movlw	0
  3779   001ECE  6E57               	movwf	_status_mode^0,c
  3780   001ED0  EF97  F010         	goto	l3576
  3781   001ED4                     l3512:
  3782                           
  3783                           ; BSR set to: 0
  3784   001ED4  0E02               	movlw	2
  3785   001ED6  19BD               	xorwf	_mode& (0+255),w,b
  3786   001ED8  11BE               	iorwf	(_mode+1)& (0+255),w,b
  3787   001EDA  A4D8               	btfss	status,2,c
  3788   001EDC  EF72  F00F         	goto	u5371
  3789   001EE0  EF74  F00F         	goto	u5370
  3790   001EE4                     u5371:
  3791   001EE4  EFDD  F00F         	goto	l3538
  3792   001EE8                     u5370:
  3793   001EE8                     
  3794                           ; BSR set to: 0
  3795                           ;main.c: 838:                 if (motor_b_speed_read_value >= 0){
  3796   001EE8  BFC0               	btfsc	(_motor_b_speed_read_value+1)& (0+255),7,b
  3797   001EEA  EF79  F00F         	goto	u5381
  3798   001EEE  EF7B  F00F         	goto	u5380
  3799   001EF2                     u5381:
  3800   001EF2  EF81  F00F         	goto	l389
  3801   001EF6                     u5380:
  3802   001EF6                     
  3803                           ; BSR set to: 0
  3804                           ;main.c: 839:                     status_value = motor_b_speed_read_value;
  3805   001EF6  C0BF  F055         	movff	_motor_b_speed_read_value,_status_value
  3806   001EFA  C0C0  F056         	movff	_motor_b_speed_read_value+1,_status_value+1
  3807                           
  3808                           ;main.c: 840:                 }else{
  3809   001EFE  EF8E  F00F         	goto	l3518
  3810   001F02                     l389:
  3811                           
  3812                           ; BSR set to: 0
  3813                           ;main.c: 841:                     status_value = -motor_b_speed_read_value;
  3814   001F02  C0BF  F1F4         	movff	_motor_b_speed_read_value,??_loop
  3815   001F06  C0C0  F1F5         	movff	_motor_b_speed_read_value+1,??_loop+1
  3816   001F0A  0101               	movlb	1	; () banked
  3817   001F0C  1FF4               	comf	??_loop& (0+255),f,b
  3818   001F0E  1FF5               	comf	(??_loop+1)& (0+255),f,b
  3819   001F10  4BF4               	infsnz	??_loop& (0+255),f,b
  3820   001F12  2BF5               	incf	(??_loop+1)& (0+255),f,b
  3821   001F14  C1F4  F055         	movff	??_loop,_status_value
  3822   001F18  C1F5  F056         	movff	??_loop+1,_status_value+1
  3823   001F1C                     l3518:
  3824                           
  3825                           ;main.c: 843:                 if (single_click_evt[0]){
  3826   001F1C  0100               	movlb	0	; () banked
  3827   001F1E  51A4               	movf	_single_click_evt& (0+255),w,b
  3828   001F20  B4D8               	btfsc	status,2,c
  3829   001F22  EF95  F00F         	goto	u5391
  3830   001F26  EF97  F00F         	goto	u5390
  3831   001F2A                     u5391:
  3832   001F2A  EFC6  F00F         	goto	l3532
  3833   001F2E                     u5390:
  3834   001F2E                     
  3835                           ; BSR set to: 0
  3836                           ;main.c: 844:                     mode = 1;
  3837   001F2E  0E00               	movlw	0
  3838   001F30  6FBE               	movwf	(_mode+1)& (0+255),b
  3839   001F32  0E01               	movlw	1
  3840   001F34  6FBD               	movwf	_mode& (0+255),b
  3841                           
  3842                           ;main.c: 845:                     status_code = 1;
  3843   001F36  0E00               	movlw	0
  3844   001F38  6FC6               	movwf	(_status_code+1)& (0+255),b
  3845   001F3A  0E01               	movlw	1
  3846   001F3C  6FC5               	movwf	_status_code& (0+255),b
  3847   001F3E                     
  3848                           ; BSR set to: 0
  3849                           ;main.c: 846:                     if (motor_a_speed_read_value >= 0){
  3850   001F3E  BFC2               	btfsc	(_motor_a_speed_read_value+1)& (0+255),7,b
  3851   001F40  EFA4  F00F         	goto	u5401
  3852   001F44  EFA6  F00F         	goto	u5400
  3853   001F48                     u5401:
  3854   001F48  EFAF  F00F         	goto	l3526
  3855   001F4C                     u5400:
  3856   001F4C                     
  3857                           ; BSR set to: 0
  3858                           ;main.c: 847:                         status_set_mode( 6, 4, 1);
  3859   001F4C  0E04               	movlw	4
  3860   001F4E  6E07               	movwf	status_set_mode@next_mode^0,c
  3861   001F50  0E01               	movlw	1
  3862   001F52  6E08               	movwf	status_set_mode@final_mode^0,c
  3863   001F54  0E06               	movlw	6
  3864   001F56  EC8B  F01B         	call	_status_set_mode
  3865                           
  3866                           ;main.c: 848:                     }else if (motor_a_speed_read_value <= 0){
  3867   001F5A  EFC3  F00F         	goto	l3530
  3868   001F5E                     l3526:
  3869                           
  3870                           ; BSR set to: 0
  3871   001F5E  BFC2               	btfsc	(_motor_a_speed_read_value+1)& (0+255),7,b
  3872   001F60  EFBC  F00F         	goto	u5410
  3873   001F64  51C2               	movf	(_motor_a_speed_read_value+1)& (0+255),w,b
  3874   001F66  E106               	bnz	u5411
  3875   001F68  05C1               	decf	_motor_a_speed_read_value& (0+255),w,b
  3876   001F6A  B0D8               	btfsc	status,0,c
  3877   001F6C  EFBA  F00F         	goto	u5411
  3878   001F70  EFBC  F00F         	goto	u5410
  3879   001F74                     u5411:
  3880   001F74  EFC3  F00F         	goto	l3530
  3881   001F78                     u5410:
  3882   001F78                     
  3883                           ; BSR set to: 0
  3884                           ;main.c: 849:                         status_set_mode( 6, 5, 1);
  3885   001F78  0E05               	movlw	5
  3886   001F7A  6E07               	movwf	status_set_mode@next_mode^0,c
  3887   001F7C  0E01               	movlw	1
  3888   001F7E  6E08               	movwf	status_set_mode@final_mode^0,c
  3889   001F80  0E06               	movlw	6
  3890   001F82  EC8B  F01B         	call	_status_set_mode
  3891   001F86                     l3530:
  3892                           
  3893                           ;main.c: 851:                     single_click_evt[0] = 0;
  3894   001F86  0E00               	movlw	0
  3895   001F88  0100               	movlb	0	; () banked
  3896   001F8A  6FA4               	movwf	_single_click_evt& (0+255),b
  3897   001F8C                     l3532:
  3898                           
  3899                           ; BSR set to: 0
  3900                           ;main.c: 853:                 if (double_click_evt[0]){
  3901   001F8C  519F               	movf	_double_click_evt& (0+255),w,b
  3902   001F8E  B4D8               	btfsc	status,2,c
  3903   001F90  EFCC  F00F         	goto	u5421
  3904   001F94  EFCE  F00F         	goto	u5420
  3905   001F98                     u5421:
  3906   001F98  EF97  F010         	goto	l3576
  3907   001F9C                     u5420:
  3908   001F9C                     
  3909                           ; BSR set to: 0
  3910                           ;main.c: 854:                     double_click_evt[0] = 0;
  3911   001F9C  0E00               	movlw	0
  3912   001F9E  6F9F               	movwf	_double_click_evt& (0+255),b
  3913                           
  3914                           ;main.c: 855:                     mode = 4;
  3915   001FA0  0E00               	movlw	0
  3916   001FA2  6FBE               	movwf	(_mode+1)& (0+255),b
  3917   001FA4  0E04               	movlw	4
  3918   001FA6  6FBD               	movwf	_mode& (0+255),b
  3919   001FA8                     
  3920                           ; BSR set to: 0
  3921                           ;main.c: 856:                     status_set_mode( 2, -1, -1);
  3922   001FA8  0EFF               	movlw	255
  3923   001FAA  6E07               	movwf	status_set_mode@next_mode^0,c
  3924   001FAC  0EFF               	movlw	255
  3925   001FAE  6E08               	movwf	status_set_mode@final_mode^0,c
  3926   001FB0  0E02               	movlw	2
  3927   001FB2  EC8B  F01B         	call	_status_set_mode
  3928   001FB6  EF97  F010         	goto	l3576
  3929   001FBA                     l3538:
  3930                           
  3931                           ; BSR set to: 0
  3932   001FBA  0E04               	movlw	4
  3933   001FBC  19BD               	xorwf	_mode& (0+255),w,b
  3934   001FBE  11BE               	iorwf	(_mode+1)& (0+255),w,b
  3935   001FC0  A4D8               	btfss	status,2,c
  3936   001FC2  EFE5  F00F         	goto	u5431
  3937   001FC6  EFE7  F00F         	goto	u5430
  3938   001FCA                     u5431:
  3939   001FCA  EF97  F010         	goto	l3576
  3940   001FCE                     u5430:
  3941   001FCE                     
  3942                           ; BSR set to: 0
  3943                           ;main.c: 859:                 int analog_read;;main.c: 860:                 analog_read 
      +                          = avg_input[0];
  3944   001FCE  C1A0  F0FC         	movff	_avg_input,loop@analog_read_1372
  3945   001FD2  C1A1  F0FD         	movff	_avg_input+1,loop@analog_read_1372+1
  3946   001FD6                     
  3947                           ; BSR set to: 0
  3948                           ;main.c: 862:                 status_value = (int) ( (long long) analog_read * 1000 / (l
      +                          ong long) 1023 );
  3949   001FD6  0EE8               	movlw	232
  3950   001FD8  6E0F               	movwf	___omul@multiplicand^0,c
  3951   001FDA  0E03               	movlw	3
  3952   001FDC  6E10               	movwf	(___omul@multiplicand+1)^0,c
  3953   001FDE  0E00               	movlw	0
  3954   001FE0  6E11               	movwf	(___omul@multiplicand+2)^0,c
  3955   001FE2  0E00               	movlw	0
  3956   001FE4  6E12               	movwf	(___omul@multiplicand+3)^0,c
  3957   001FE6  0E00               	movlw	0
  3958   001FE8  6E13               	movwf	(___omul@multiplicand+4)^0,c
  3959   001FEA  0E00               	movlw	0
  3960   001FEC  6E14               	movwf	(___omul@multiplicand+5)^0,c
  3961   001FEE  0E00               	movlw	0
  3962   001FF0  6E15               	movwf	(___omul@multiplicand+6)^0,c
  3963   001FF2  0E00               	movlw	0
  3964   001FF4  6E16               	movwf	(___omul@multiplicand+7)^0,c
  3965   001FF6  C0FC  F007         	movff	loop@analog_read_1372,___omul@multiplier
  3966   001FFA  C0FD  F008         	movff	loop@analog_read_1372+1,___omul@multiplier+1
  3967   001FFE  0E00               	movlw	0
  3968   002000  BE08               	btfsc	(___omul@multiplier+1)^0,7,c
  3969   002002  0EFF               	movlw	-1
  3970   002004  6E09               	movwf	(___omul@multiplier+2)^0,c
  3971   002006  6E0A               	movwf	(___omul@multiplier+3)^0,c
  3972   002008  6E0B               	movwf	(___omul@multiplier+4)^0,c
  3973   00200A  6E0C               	movwf	(___omul@multiplier+5)^0,c
  3974   00200C  6E0D               	movwf	(___omul@multiplier+6)^0,c
  3975   00200E  6E0E               	movwf	(___omul@multiplier+7)^0,c
  3976   002010  EC32  F019         	call	___omul	;wreg free
  3977   002014  C007  F01F         	movff	?___omul,___aodiv@dividend
  3978   002018  C008  F020         	movff	?___omul+1,___aodiv@dividend+1
  3979   00201C  C009  F021         	movff	?___omul+2,___aodiv@dividend+2
  3980   002020  C00A  F022         	movff	?___omul+3,___aodiv@dividend+3
  3981   002024  C00B  F023         	movff	?___omul+4,___aodiv@dividend+4
  3982   002028  C00C  F024         	movff	?___omul+5,___aodiv@dividend+5
  3983   00202C  C00D  F025         	movff	?___omul+6,___aodiv@dividend+6
  3984   002030  C00E  F026         	movff	?___omul+7,___aodiv@dividend+7
  3985   002034  0EFF               	movlw	255
  3986   002036  6E27               	movwf	___aodiv@divisor^0,c
  3987   002038  0E03               	movlw	3
  3988   00203A  6E28               	movwf	(___aodiv@divisor+1)^0,c
  3989   00203C  0E00               	movlw	0
  3990   00203E  6E29               	movwf	(___aodiv@divisor+2)^0,c
  3991   002040  0E00               	movlw	0
  3992   002042  6E2A               	movwf	(___aodiv@divisor+3)^0,c
  3993   002044  0E00               	movlw	0
  3994   002046  6E2B               	movwf	(___aodiv@divisor+4)^0,c
  3995   002048  0E00               	movlw	0
  3996   00204A  6E2C               	movwf	(___aodiv@divisor+5)^0,c
  3997   00204C  0E00               	movlw	0
  3998   00204E  6E2D               	movwf	(___aodiv@divisor+6)^0,c
  3999   002050  0E00               	movlw	0
  4000   002052  6E2E               	movwf	(___aodiv@divisor+7)^0,c
  4001   002054  EC9B  F014         	call	___aodiv	;wreg free
  4002   002058  C01F  F1F4         	movff	?___aodiv,??_loop
  4003   00205C  C020  F1F5         	movff	?___aodiv+1,??_loop+1
  4004   002060  C021  F1F6         	movff	?___aodiv+2,??_loop+2
  4005   002064  C022  F1F7         	movff	?___aodiv+3,??_loop+3
  4006   002068  C023  F1F8         	movff	?___aodiv+4,??_loop+4
  4007   00206C  C024  F1F9         	movff	?___aodiv+5,??_loop+5
  4008   002070  C025  F1FA         	movff	?___aodiv+6,??_loop+6
  4009   002074  C026  F1FB         	movff	?___aodiv+7,??_loop+7
  4010   002078  C1F4  F055         	movff	??_loop,_status_value
  4011   00207C  C1F5  F056         	movff	??_loop+1,_status_value+1
  4012   002080                     
  4013                           ;main.c: 864:                 if (single_click_evt[0]){
  4014   002080  0100               	movlb	0	; () banked
  4015   002082  51A4               	movf	_single_click_evt& (0+255),w,b
  4016   002084  B4D8               	btfsc	status,2,c
  4017   002086  EF47  F010         	goto	u5441
  4018   00208A  EF49  F010         	goto	u5440
  4019   00208E                     u5441:
  4020   00208E  EF6A  F010         	goto	l3560
  4021   002092                     u5440:
  4022   002092                     
  4023                           ; BSR set to: 0
  4024                           ;main.c: 866:                     single_click_evt[0] = 0;
  4025   002092  0E00               	movlw	0
  4026   002094  6FA4               	movwf	_single_click_evt& (0+255),b
  4027                           
  4028                           ;main.c: 868:                     persisted_data[14] = 0;
  4029   002096  0E00               	movlw	0
  4030   002098  0103               	movlb	3	; () banked
  4031   00209A  6F1D               	movwf	(_persisted_data+29)& (0+255),b
  4032   00209C  0E00               	movlw	0
  4033   00209E  6F1C               	movwf	(_persisted_data+28)& (0+255),b
  4034   0020A0                     
  4035                           ; BSR set to: 3
  4036                           ;main.c: 869:                     persisted_data[16] = status_value;
  4037   0020A0  C055  F320         	movff	_status_value,_persisted_data+32
  4038   0020A4  C056  F321         	movff	_status_value+1,_persisted_data+33
  4039   0020A8                     
  4040                           ; BSR set to: 3
  4041                           ;main.c: 870:                     write_eeprom();
  4042   0020A8  ECE3  F018         	call	_write_eeprom	;wreg free
  4043   0020AC                     
  4044                           ;main.c: 871:                     read_values();
  4045   0020AC  EC13  F01A         	call	_read_values	;wreg free
  4046   0020B0                     
  4047                           ;main.c: 873:                     printf("Write eeprom motor b speed: %d\n", status_valu
      +                          e);
  4048   0020B0  0E21               	movlw	low STR_5
  4049   0020B2  0100               	movlb	0	; () banked
  4050   0020B4  6FF4               	movwf	printf@fmt& (0+255),b
  4051   0020B6  0E08               	movlw	high STR_5
  4052   0020B8  6FF5               	movwf	(printf@fmt+1)& (0+255),b
  4053   0020BA  C055  F0F6         	movff	_status_value,?_printf+2
  4054   0020BE  C056  F0F7         	movff	_status_value+1,?_printf+3
  4055   0020C2  ECD2  F01B         	call	_printf	;wreg free
  4056   0020C6                     
  4057                           ;main.c: 874:                     mode = 0;
  4058   0020C6  0E00               	movlw	0
  4059   0020C8  0100               	movlb	0	; () banked
  4060   0020CA  6FBE               	movwf	(_mode+1)& (0+255),b
  4061   0020CC  0E00               	movlw	0
  4062   0020CE  6FBD               	movwf	_mode& (0+255),b
  4063   0020D0                     
  4064                           ; BSR set to: 0
  4065                           ;main.c: 875:                     status_mode = 0;
  4066   0020D0  0E00               	movlw	0
  4067   0020D2  6E57               	movwf	_status_mode^0,c
  4068   0020D4                     l3560:
  4069                           
  4070                           ; BSR set to: 0
  4071                           ;main.c: 877:                 if (double_click_evt[0]){
  4072   0020D4  519F               	movf	_double_click_evt& (0+255),w,b
  4073   0020D6  B4D8               	btfsc	status,2,c
  4074   0020D8  EF70  F010         	goto	u5451
  4075   0020DC  EF72  F010         	goto	u5450
  4076   0020E0                     u5451:
  4077   0020E0  EF97  F010         	goto	l3576
  4078   0020E4                     u5450:
  4079   0020E4                     
  4080                           ; BSR set to: 0
  4081                           ;main.c: 879:                     double_click_evt[0] = 0;
  4082   0020E4  0E00               	movlw	0
  4083   0020E6  6F9F               	movwf	_double_click_evt& (0+255),b
  4084                           
  4085                           ;main.c: 881:                     persisted_data[14] = 1;
  4086   0020E8  0E00               	movlw	0
  4087   0020EA  0103               	movlb	3	; () banked
  4088   0020EC  6F1D               	movwf	(_persisted_data+29)& (0+255),b
  4089   0020EE  0E01               	movlw	1
  4090   0020F0  6F1C               	movwf	(_persisted_data+28)& (0+255),b
  4091   0020F2                     
  4092                           ; BSR set to: 3
  4093                           ;main.c: 882:                     persisted_data[16] = status_value;
  4094   0020F2  C055  F320         	movff	_status_value,_persisted_data+32
  4095   0020F6  C056  F321         	movff	_status_value+1,_persisted_data+33
  4096   0020FA                     
  4097                           ; BSR set to: 3
  4098                           ;main.c: 883:                     write_eeprom();
  4099   0020FA  ECE3  F018         	call	_write_eeprom	;wreg free
  4100   0020FE                     
  4101                           ;main.c: 884:                     read_values();
  4102   0020FE  EC13  F01A         	call	_read_values	;wreg free
  4103   002102                     
  4104                           ;main.c: 886:                     printf("Write eeprom motor b speed: %d\n", -status_val
      +                          ue);
  4105   002102  0E21               	movlw	low STR_5
  4106   002104  0100               	movlb	0	; () banked
  4107   002106  6FF4               	movwf	printf@fmt& (0+255),b
  4108   002108  0E08               	movlw	high STR_5
  4109   00210A  6FF5               	movwf	(printf@fmt+1)& (0+255),b
  4110   00210C  C055  F1F4         	movff	_status_value,??_loop
  4111   002110  C056  F1F5         	movff	_status_value+1,??_loop+1
  4112   002114  0101               	movlb	1	; () banked
  4113   002116  1FF4               	comf	??_loop& (0+255),f,b
  4114   002118  1FF5               	comf	(??_loop+1)& (0+255),f,b
  4115   00211A  4BF4               	infsnz	??_loop& (0+255),f,b
  4116   00211C  2BF5               	incf	(??_loop+1)& (0+255),f,b
  4117   00211E  C1F4  F0F6         	movff	??_loop,?_printf+2
  4118   002122  C1F5  F0F7         	movff	??_loop+1,?_printf+3
  4119   002126  ECD2  F01B         	call	_printf	;wreg free
  4120   00212A  EF61  F00F         	goto	l3508
  4121   00212E                     l3576:
  4122                           
  4123                           ;main.c: 892:             pwm[0] = 0;
  4124   00212E  0E00               	movlw	0
  4125   002130  0100               	movlb	0	; () banked
  4126   002132  6FB4               	movwf	(_pwm+1)& (0+255),b
  4127   002134  0E00               	movlw	0
  4128   002136  6FB3               	movwf	_pwm& (0+255),b
  4129   002138                     
  4130                           ; BSR set to: 0
  4131                           ;main.c: 893:             pwm[1] = 0;
  4132   002138  0E00               	movlw	0
  4133   00213A  6FB6               	movwf	(_pwm+3)& (0+255),b
  4134   00213C  0E00               	movlw	0
  4135   00213E  6FB5               	movwf	(_pwm+2)& (0+255),b
  4136   002140                     
  4137                           ; BSR set to: 0
  4138                           ;main.c: 895:             if (double_click_evt[1]){
  4139   002140  51A0               	movf	(_double_click_evt+1)& (0+255),w,b
  4140   002142  B4D8               	btfsc	status,2,c
  4141   002144  EFA6  F010         	goto	u5461
  4142   002148  EFA8  F010         	goto	u5460
  4143   00214C                     u5461:
  4144   00214C  EF83  F011         	goto	l404
  4145   002150                     u5460:
  4146   002150                     
  4147                           ; BSR set to: 0
  4148                           ;main.c: 896:                 double_click_evt[1] = 0;
  4149   002150  0E00               	movlw	0
  4150   002152  6FA0               	movwf	(_double_click_evt+1)& (0+255),b
  4151   002154                     
  4152                           ; BSR set to: 0
  4153                           ;main.c: 898:                 status_set_mode(3, -1, -1);
  4154   002154  0EFF               	movlw	255
  4155   002156  6E07               	movwf	status_set_mode@next_mode^0,c
  4156   002158  0EFF               	movlw	255
  4157   00215A  6E08               	movwf	status_set_mode@final_mode^0,c
  4158   00215C  0E03               	movlw	3
  4159   00215E  EC8B  F01B         	call	_status_set_mode
  4160   002162                     
  4161                           ;main.c: 899:                 mode_config = 2;
  4162   002162  0E00               	movlw	0
  4163   002164  0100               	movlb	0	; () banked
  4164   002166  6FBC               	movwf	(_mode_config+1)& (0+255),b
  4165   002168  0E02               	movlw	2
  4166   00216A  6FBB               	movwf	_mode_config& (0+255),b
  4167   00216C  EF83  F011         	goto	l404
  4168   002170                     l3588:
  4169                           
  4170                           ; BSR set to: 0
  4171   002170  0E02               	movlw	2
  4172   002172  19BB               	xorwf	_mode_config& (0+255),w,b
  4173   002174  11BC               	iorwf	(_mode_config+1)& (0+255),w,b
  4174   002176  A4D8               	btfss	status,2,c
  4175   002178  EFC0  F010         	goto	u5471
  4176   00217C  EFC2  F010         	goto	u5470
  4177   002180                     u5471:
  4178   002180  EF83  F011         	goto	l404
  4179   002184                     u5470:
  4180   002184                     
  4181                           ; BSR set to: 0
  4182                           ;main.c: 902:             pwm[0] = (long long) motor_a_speed_read_value * (600) / (1000)
      +                          ;
  4183   002184  0E58               	movlw	88
  4184   002186  6E0F               	movwf	___omul@multiplicand^0,c
  4185   002188  0E02               	movlw	2
  4186   00218A  6E10               	movwf	(___omul@multiplicand+1)^0,c
  4187   00218C  0E00               	movlw	0
  4188   00218E  6E11               	movwf	(___omul@multiplicand+2)^0,c
  4189   002190  0E00               	movlw	0
  4190   002192  6E12               	movwf	(___omul@multiplicand+3)^0,c
  4191   002194  0E00               	movlw	0
  4192   002196  6E13               	movwf	(___omul@multiplicand+4)^0,c
  4193   002198  0E00               	movlw	0
  4194   00219A  6E14               	movwf	(___omul@multiplicand+5)^0,c
  4195   00219C  0E00               	movlw	0
  4196   00219E  6E15               	movwf	(___omul@multiplicand+6)^0,c
  4197   0021A0  0E00               	movlw	0
  4198   0021A2  6E16               	movwf	(___omul@multiplicand+7)^0,c
  4199   0021A4  C0C1  F007         	movff	_motor_a_speed_read_value,___omul@multiplier
  4200   0021A8  C0C2  F008         	movff	_motor_a_speed_read_value+1,___omul@multiplier+1
  4201   0021AC  0E00               	movlw	0
  4202   0021AE  BE08               	btfsc	(___omul@multiplier+1)^0,7,c
  4203   0021B0  0EFF               	movlw	-1
  4204   0021B2  6E09               	movwf	(___omul@multiplier+2)^0,c
  4205   0021B4  6E0A               	movwf	(___omul@multiplier+3)^0,c
  4206   0021B6  6E0B               	movwf	(___omul@multiplier+4)^0,c
  4207   0021B8  6E0C               	movwf	(___omul@multiplier+5)^0,c
  4208   0021BA  6E0D               	movwf	(___omul@multiplier+6)^0,c
  4209   0021BC  6E0E               	movwf	(___omul@multiplier+7)^0,c
  4210   0021BE  EC32  F019         	call	___omul	;wreg free
  4211   0021C2  C007  F01F         	movff	?___omul,___aodiv@dividend
  4212   0021C6  C008  F020         	movff	?___omul+1,___aodiv@dividend+1
  4213   0021CA  C009  F021         	movff	?___omul+2,___aodiv@dividend+2
  4214   0021CE  C00A  F022         	movff	?___omul+3,___aodiv@dividend+3
  4215   0021D2  C00B  F023         	movff	?___omul+4,___aodiv@dividend+4
  4216   0021D6  C00C  F024         	movff	?___omul+5,___aodiv@dividend+5
  4217   0021DA  C00D  F025         	movff	?___omul+6,___aodiv@dividend+6
  4218   0021DE  C00E  F026         	movff	?___omul+7,___aodiv@dividend+7
  4219   0021E2  0EE8               	movlw	232
  4220   0021E4  6E27               	movwf	___aodiv@divisor^0,c
  4221   0021E6  0E03               	movlw	3
  4222   0021E8  6E28               	movwf	(___aodiv@divisor+1)^0,c
  4223   0021EA  0E00               	movlw	0
  4224   0021EC  6E29               	movwf	(___aodiv@divisor+2)^0,c
  4225   0021EE  0E00               	movlw	0
  4226   0021F0  6E2A               	movwf	(___aodiv@divisor+3)^0,c
  4227   0021F2  0E00               	movlw	0
  4228   0021F4  6E2B               	movwf	(___aodiv@divisor+4)^0,c
  4229   0021F6  0E00               	movlw	0
  4230   0021F8  6E2C               	movwf	(___aodiv@divisor+5)^0,c
  4231   0021FA  0E00               	movlw	0
  4232   0021FC  6E2D               	movwf	(___aodiv@divisor+6)^0,c
  4233   0021FE  0E00               	movlw	0
  4234   002200  6E2E               	movwf	(___aodiv@divisor+7)^0,c
  4235   002202  EC9B  F014         	call	___aodiv	;wreg free
  4236   002206  C01F  F1F4         	movff	?___aodiv,??_loop
  4237   00220A  C020  F1F5         	movff	?___aodiv+1,??_loop+1
  4238   00220E  C021  F1F6         	movff	?___aodiv+2,??_loop+2
  4239   002212  C022  F1F7         	movff	?___aodiv+3,??_loop+3
  4240   002216  C023  F1F8         	movff	?___aodiv+4,??_loop+4
  4241   00221A  C024  F1F9         	movff	?___aodiv+5,??_loop+5
  4242   00221E  C025  F1FA         	movff	?___aodiv+6,??_loop+6
  4243   002222  C026  F1FB         	movff	?___aodiv+7,??_loop+7
  4244   002226  C1F4  F0B3         	movff	??_loop,_pwm
  4245   00222A  C1F5  F0B4         	movff	??_loop+1,_pwm+1
  4246                           
  4247                           ;main.c: 903:             pwm[1] = (long long) motor_b_speed_read_value * (600) / (1000)
      +                          ;
  4248   00222E  0E58               	movlw	88
  4249   002230  6E0F               	movwf	___omul@multiplicand^0,c
  4250   002232  0E02               	movlw	2
  4251   002234  6E10               	movwf	(___omul@multiplicand+1)^0,c
  4252   002236  0E00               	movlw	0
  4253   002238  6E11               	movwf	(___omul@multiplicand+2)^0,c
  4254   00223A  0E00               	movlw	0
  4255   00223C  6E12               	movwf	(___omul@multiplicand+3)^0,c
  4256   00223E  0E00               	movlw	0
  4257   002240  6E13               	movwf	(___omul@multiplicand+4)^0,c
  4258   002242  0E00               	movlw	0
  4259   002244  6E14               	movwf	(___omul@multiplicand+5)^0,c
  4260   002246  0E00               	movlw	0
  4261   002248  6E15               	movwf	(___omul@multiplicand+6)^0,c
  4262   00224A  0E00               	movlw	0
  4263   00224C  6E16               	movwf	(___omul@multiplicand+7)^0,c
  4264   00224E  C0BF  F007         	movff	_motor_b_speed_read_value,___omul@multiplier
  4265   002252  C0C0  F008         	movff	_motor_b_speed_read_value+1,___omul@multiplier+1
  4266   002256  0E00               	movlw	0
  4267   002258  BE08               	btfsc	(___omul@multiplier+1)^0,7,c
  4268   00225A  0EFF               	movlw	-1
  4269   00225C  6E09               	movwf	(___omul@multiplier+2)^0,c
  4270   00225E  6E0A               	movwf	(___omul@multiplier+3)^0,c
  4271   002260  6E0B               	movwf	(___omul@multiplier+4)^0,c
  4272   002262  6E0C               	movwf	(___omul@multiplier+5)^0,c
  4273   002264  6E0D               	movwf	(___omul@multiplier+6)^0,c
  4274   002266  6E0E               	movwf	(___omul@multiplier+7)^0,c
  4275   002268  EC32  F019         	call	___omul	;wreg free
  4276   00226C  C007  F01F         	movff	?___omul,___aodiv@dividend
  4277   002270  C008  F020         	movff	?___omul+1,___aodiv@dividend+1
  4278   002274  C009  F021         	movff	?___omul+2,___aodiv@dividend+2
  4279   002278  C00A  F022         	movff	?___omul+3,___aodiv@dividend+3
  4280   00227C  C00B  F023         	movff	?___omul+4,___aodiv@dividend+4
  4281   002280  C00C  F024         	movff	?___omul+5,___aodiv@dividend+5
  4282   002284  C00D  F025         	movff	?___omul+6,___aodiv@dividend+6
  4283   002288  C00E  F026         	movff	?___omul+7,___aodiv@dividend+7
  4284   00228C  0EE8               	movlw	232
  4285   00228E  6E27               	movwf	___aodiv@divisor^0,c
  4286   002290  0E03               	movlw	3
  4287   002292  6E28               	movwf	(___aodiv@divisor+1)^0,c
  4288   002294  0E00               	movlw	0
  4289   002296  6E29               	movwf	(___aodiv@divisor+2)^0,c
  4290   002298  0E00               	movlw	0
  4291   00229A  6E2A               	movwf	(___aodiv@divisor+3)^0,c
  4292   00229C  0E00               	movlw	0
  4293   00229E  6E2B               	movwf	(___aodiv@divisor+4)^0,c
  4294   0022A0  0E00               	movlw	0
  4295   0022A2  6E2C               	movwf	(___aodiv@divisor+5)^0,c
  4296   0022A4  0E00               	movlw	0
  4297   0022A6  6E2D               	movwf	(___aodiv@divisor+6)^0,c
  4298   0022A8  0E00               	movlw	0
  4299   0022AA  6E2E               	movwf	(___aodiv@divisor+7)^0,c
  4300   0022AC  EC9B  F014         	call	___aodiv	;wreg free
  4301   0022B0  C01F  F1F4         	movff	?___aodiv,??_loop
  4302   0022B4  C020  F1F5         	movff	?___aodiv+1,??_loop+1
  4303   0022B8  C021  F1F6         	movff	?___aodiv+2,??_loop+2
  4304   0022BC  C022  F1F7         	movff	?___aodiv+3,??_loop+3
  4305   0022C0  C023  F1F8         	movff	?___aodiv+4,??_loop+4
  4306   0022C4  C024  F1F9         	movff	?___aodiv+5,??_loop+5
  4307   0022C8  C025  F1FA         	movff	?___aodiv+6,??_loop+6
  4308   0022CC  C026  F1FB         	movff	?___aodiv+7,??_loop+7
  4309   0022D0  C1F4  F0B5         	movff	??_loop,_pwm+2
  4310   0022D4  C1F5  F0B6         	movff	??_loop+1,_pwm+3
  4311   0022D8                     
  4312                           ;main.c: 905:             if (double_click_evt[1]){
  4313   0022D8  0100               	movlb	0	; () banked
  4314   0022DA  51A0               	movf	(_double_click_evt+1)& (0+255),w,b
  4315   0022DC  B4D8               	btfsc	status,2,c
  4316   0022DE  EF73  F011         	goto	u5481
  4317   0022E2  EF75  F011         	goto	u5480
  4318   0022E6                     u5481:
  4319   0022E6  EF83  F011         	goto	l401
  4320   0022EA                     u5480:
  4321   0022EA                     
  4322                           ; BSR set to: 0
  4323                           ;main.c: 906:                 double_click_evt[1] = 0;
  4324   0022EA  0E00               	movlw	0
  4325   0022EC  6FA0               	movwf	(_double_click_evt+1)& (0+255),b
  4326                           
  4327                           ;main.c: 908:                 mode_config = 1;
  4328   0022EE  0E00               	movlw	0
  4329   0022F0  6FBC               	movwf	(_mode_config+1)& (0+255),b
  4330   0022F2  0E01               	movlw	1
  4331   0022F4  6FBB               	movwf	_mode_config& (0+255),b
  4332                           
  4333                           ;main.c: 909:                 mode = 0;
  4334   0022F6  0E00               	movlw	0
  4335   0022F8  6FBE               	movwf	(_mode+1)& (0+255),b
  4336   0022FA  0E00               	movlw	0
  4337   0022FC  6FBD               	movwf	_mode& (0+255),b
  4338                           
  4339                           ;main.c: 910:                 status_mode = 0;
  4340   0022FE  0E00               	movlw	0
  4341   002300  6E57               	movwf	_status_mode^0,c
  4342   002302  EF83  F011         	goto	l404
  4343   002306                     l401:
  4344   002306                     l404:
  4345                           
  4346                           ; BSR set to: 0
  4347   002306  0012               	return		;funcret
  4348   002308                     __end_of_loop:
  4349                           	callstack 0
  4350                           
  4351 ;; *************** function _write_eeprom *****************
  4352 ;; Defined at:
  4353 ;;		line 257 in file "main.c"
  4354 ;; Parameters:    Size  Location     Type
  4355 ;;		None
  4356 ;; Auto vars:     Size  Location     Type
  4357 ;;  addr            1   10[COMRAM] unsigned char 
  4358 ;; Return value:  Size  Location     Type
  4359 ;;                  1    wreg      void 
  4360 ;; Registers used:
  4361 ;;		wreg, fsr2l, fsr2h, status,2, status,0
  4362 ;; Tracked objects:
  4363 ;;		On entry : 0/0
  4364 ;;		On exit  : 0/0
  4365 ;;		Unchanged: 0/0
  4366 ;; Data sizes:     COMRAM   BANK0   BANK1   BANK2   BANK3   BANK4   BANK5   BANK6   BANK7
  4367 ;;      Params:         0       0       0       0       0       0       0       0       0
  4368 ;;      Locals:         1       0       0       0       0       0       0       0       0
  4369 ;;      Temps:          4       0       0       0       0       0       0       0       0
  4370 ;;      Totals:         5       0       0       0       0       0       0       0       0
  4371 ;;Total ram usage:        5 bytes
  4372 ;; Hardware stack levels used: 1
  4373 ;; Hardware stack levels required when called: 1
  4374 ;; This function calls:
  4375 ;;		Nothing
  4376 ;; This function is called by:
  4377 ;;		_loop
  4378 ;; This function uses a non-reentrant model
  4379 ;;
  4380                           
  4381                           	psect	text8
  4382   0031C6                     __ptext8:
  4383                           	callstack 0
  4384   0031C6                     _write_eeprom:
  4385                           	callstack 28
  4386   0031C6                     
  4387                           ;main.c: 258:     unsigned char addr;;main.c: 260:     for (addr=0;addr<=100;addr++){
  4388   0031C6  0E00               	movlw	0
  4389   0031C8  6E0B               	movwf	write_eeprom@addr^0,c
  4390   0031CA                     l130:
  4391                           
  4392                           ;main.c: 261:         EEADR = addr;
  4393   0031CA  C00B  FFA9         	movff	write_eeprom@addr,4009	;volatile
  4394                           
  4395                           ;main.c: 262:         if (addr & 0x01){
  4396   0031CE  A00B               	btfss	write_eeprom@addr^0,0,c
  4397   0031D0  EFEC  F018         	goto	u2981
  4398   0031D4  EFEE  F018         	goto	u2980
  4399   0031D8                     u2981:
  4400   0031D8  EFFF  F018         	goto	l2588
  4401   0031DC                     u2980:
  4402   0031DC                     
  4403                           ;main.c: 264:             EEDATA = persisted_data[addr >> 1] & 0xFF;
  4404   0031DC  90D8               	bcf	status,0,c
  4405   0031DE  300B               	rrcf	write_eeprom@addr^0,w,c
  4406   0031E0  6E07               	movwf	??_write_eeprom^0,c
  4407   0031E2  6A08               	clrf	(??_write_eeprom+1)^0,c
  4408   0031E4  90D8               	bcf	status,0,c
  4409   0031E6  3607               	rlcf	??_write_eeprom^0,f,c
  4410   0031E8  3608               	rlcf	(??_write_eeprom+1)^0,f,c
  4411   0031EA  0E00               	movlw	low _persisted_data
  4412   0031EC  2407               	addwf	??_write_eeprom^0,w,c
  4413   0031EE  6ED9               	movwf	fsr2l,c
  4414   0031F0  0E03               	movlw	high _persisted_data
  4415   0031F2  2008               	addwfc	(??_write_eeprom+1)^0,w,c
  4416   0031F4  6EDA               	movwf	fsr2h,c
  4417   0031F6  50DF               	movf	indf2,w,c
  4418   0031F8  6EA8               	movwf	168,c	;volatile
  4419                           
  4420                           ;main.c: 265:         }else{
  4421   0031FA  EF15  F019         	goto	l2590
  4422   0031FE                     l2588:
  4423                           
  4424                           ;main.c: 267:             EEDATA = (persisted_data[addr >> 1] >> 8) & 0xFF;
  4425   0031FE  90D8               	bcf	status,0,c
  4426   003200  300B               	rrcf	write_eeprom@addr^0,w,c
  4427   003202  6E07               	movwf	??_write_eeprom^0,c
  4428   003204  6A08               	clrf	(??_write_eeprom+1)^0,c
  4429   003206  90D8               	bcf	status,0,c
  4430   003208  3607               	rlcf	??_write_eeprom^0,f,c
  4431   00320A  3608               	rlcf	(??_write_eeprom+1)^0,f,c
  4432   00320C  0E00               	movlw	low _persisted_data
  4433   00320E  2407               	addwf	??_write_eeprom^0,w,c
  4434   003210  6ED9               	movwf	fsr2l,c
  4435   003212  0E03               	movlw	high _persisted_data
  4436   003214  2008               	addwfc	(??_write_eeprom+1)^0,w,c
  4437   003216  6EDA               	movwf	fsr2h,c
  4438   003218  CFDE F009          	movff	postinc2,??_write_eeprom+2
  4439   00321C  CFDD F00A          	movff	postdec2,??_write_eeprom+3
  4440   003220  C00A  F009         	movff	??_write_eeprom+3,??_write_eeprom+2
  4441   003224  6A0A               	clrf	(??_write_eeprom+3)^0,c
  4442   003226  5009               	movf	(??_write_eeprom+2)^0,w,c
  4443   003228  6EA8               	movwf	168,c	;volatile
  4444   00322A                     l2590:
  4445                           
  4446                           ;main.c: 270:         EECON1bits.CFGS = 0;
  4447   00322A  9CA6               	bcf	166,6,c	;volsfr
  4448   00322C                     
  4449                           ;main.c: 272:         EECON1bits.EEPGD = 0;
  4450   00322C  9EA6               	bcf	166,7,c	;volsfr
  4451   00322E                     
  4452                           ;main.c: 274:         EECON1bits.WREN = 1;
  4453   00322E  84A6               	bsf	166,2,c	;volsfr
  4454   003230                     
  4455                           ;main.c: 276:         INTCONbits.GIE = 0;
  4456   003230  9EF2               	bcf	242,7,c	;volatile
  4457   003232                     
  4458                           ;main.c: 278:         EECON2 = 0x55;
  4459   003232  0E55               	movlw	85
  4460   003234  6EA7               	movwf	167,c	;volsfr
  4461   003236                     
  4462                           ;main.c: 279:         EECON2 = 0x0AA;
  4463   003236  0EAA               	movlw	170
  4464   003238  6EA7               	movwf	167,c	;volsfr
  4465   00323A                     
  4466                           ;main.c: 281:         EECON1bits.WR = 1;
  4467   00323A  82A6               	bsf	166,1,c	;volsfr
  4468   00323C                     
  4469                           ;main.c: 283:         INTCONbits.GIE = 1;
  4470   00323C  8EF2               	bsf	242,7,c	;volatile
  4471   00323E                     
  4472                           ;main.c: 285:         EECON1bits.WREN = 0;
  4473   00323E  94A6               	bcf	166,2,c	;volsfr
  4474   003240                     l134:
  4475   003240  A8A1               	btfss	4001,4,c	;volatile
  4476   003242  EF25  F019         	goto	u2991
  4477   003246  EF27  F019         	goto	u2990
  4478   00324A                     u2991:
  4479   00324A  EF20  F019         	goto	l134
  4480   00324E                     u2990:
  4481   00324E                     
  4482                           ;main.c: 288:         EEIF = 0;
  4483   00324E  98A1               	bcf	4001,4,c	;volatile
  4484   003250                     
  4485                           ;main.c: 289:     }
  4486   003250  2A0B               	incf	write_eeprom@addr^0,f,c
  4487   003252  0E64               	movlw	100
  4488   003254  640B               	cpfsgt	write_eeprom@addr^0,c
  4489   003256  EF2F  F019         	goto	u3001
  4490   00325A  EF31  F019         	goto	u3000
  4491   00325E                     u3001:
  4492   00325E  EFE5  F018         	goto	l130
  4493   003262                     u3000:
  4494   003262  0012               	return		;funcret
  4495   003264                     __end_of_write_eeprom:
  4496                           	callstack 0
  4497                           
  4498 ;; *************** function _status_set_mode *****************
  4499 ;; Defined at:
  4500 ;;		line 576 in file "main.c"
  4501 ;; Parameters:    Size  Location     Type
  4502 ;;  mode            1    wreg     unsigned char 
  4503 ;;  next_mode       1    6[COMRAM] unsigned char 
  4504 ;;  final_mode      1    7[COMRAM] unsigned char 
  4505 ;; Auto vars:     Size  Location     Type
  4506 ;;  mode            1    8[COMRAM] unsigned char 
  4507 ;; Return value:  Size  Location     Type
  4508 ;;                  1    wreg      void 
  4509 ;; Registers used:
  4510 ;;		wreg, fsr2l, fsr2h, status,2, status,0
  4511 ;; Tracked objects:
  4512 ;;		On entry : 0/0
  4513 ;;		On exit  : 0/0
  4514 ;;		Unchanged: 0/0
  4515 ;; Data sizes:     COMRAM   BANK0   BANK1   BANK2   BANK3   BANK4   BANK5   BANK6   BANK7
  4516 ;;      Params:         2       0       0       0       0       0       0       0       0
  4517 ;;      Locals:         1       0       0       0       0       0       0       0       0
  4518 ;;      Temps:          0       0       0       0       0       0       0       0       0
  4519 ;;      Totals:         3       0       0       0       0       0       0       0       0
  4520 ;;Total ram usage:        3 bytes
  4521 ;; Hardware stack levels used: 1
  4522 ;; Hardware stack levels required when called: 1
  4523 ;; This function calls:
  4524 ;;		Nothing
  4525 ;; This function is called by:
  4526 ;;		_status_loop
  4527 ;;		_loop
  4528 ;; This function uses a non-reentrant model
  4529 ;;
  4530                           
  4531                           	psect	text9
  4532   003716                     __ptext9:
  4533                           	callstack 0
  4534   003716                     _status_set_mode:
  4535                           	callstack 28
  4536                           
  4537                           ;incstack = 0
  4538                           ;status_set_mode@mode stored from wreg
  4539   003716  6E09               	movwf	status_set_mode@mode^0,c
  4540   003718                     
  4541                           ;main.c: 577:     status_mode = mode;
  4542   003718  C009  F057         	movff	status_set_mode@mode,_status_mode
  4543   00371C                     
  4544                           ;main.c: 578:     status_next_mode = next_mode;
  4545   00371C  C007  F0C9         	movff	status_set_mode@next_mode,_status_next_mode
  4546   003720  0100               	movlb	0	; () banked
  4547   003722  6BCA               	clrf	(_status_next_mode+1)& (0+255),b
  4548   003724                     
  4549                           ; BSR set to: 0
  4550                           ;main.c: 579:     status_final_mode = final_mode;
  4551   003724  C008  F0C7         	movff	status_set_mode@final_mode,_status_final_mode
  4552   003728  6BC8               	clrf	(_status_final_mode+1)& (0+255),b
  4553   00372A                     
  4554                           ; BSR set to: 0
  4555                           ;main.c: 580:     status_intermitency_counter = 0;
  4556   00372A  0E00               	movlw	0
  4557   00372C  6FCC               	movwf	(_status_intermitency_counter+1)& (0+255),b
  4558   00372E  0E00               	movlw	0
  4559   003730  6FCB               	movwf	_status_intermitency_counter& (0+255),b
  4560   003732                     
  4561                           ; BSR set to: 0
  4562                           ;main.c: 581:     mode_counter = 0;
  4563   003732  0E00               	movlw	0
  4564   003734  6E54               	movwf	(_mode_counter+1)^0,c
  4565   003736  0E00               	movlw	0
  4566   003738  6E53               	movwf	_mode_counter^0,c
  4567   00373A                     
  4568                           ; BSR set to: 0
  4569                           ;main.c: 582:     counter[2] = 0;
  4570   00373A  EE20  F070         	lfsr	2,_counter+16
  4571   00373E  0E07               	movlw	7
  4572   003740                     u3011:
  4573   003740  6ADE               	clrf	postinc2,c
  4574   003742  06E8               	decf	wreg,f,c
  4575   003744  E2FD               	bc	u3011
  4576   003746                     
  4577                           ; BSR set to: 0
  4578   003746  0012               	return		;funcret
  4579   003748                     __end_of_status_set_mode:
  4580                           	callstack 0
  4581                           
  4582 ;; *************** function _read_values *****************
  4583 ;; Defined at:
  4584 ;;		line 751 in file "main.c"
  4585 ;; Parameters:    Size  Location     Type
  4586 ;;		None
  4587 ;; Auto vars:     Size  Location     Type
  4588 ;;  b_sign          2   20[COMRAM] int 
  4589 ;;  a_sign          2   18[COMRAM] int 
  4590 ;; Return value:  Size  Location     Type
  4591 ;;                  1    wreg      void 
  4592 ;; Registers used:
  4593 ;;		wreg, status,2, status,0, prodl, prodh, cstack
  4594 ;; Tracked objects:
  4595 ;;		On entry : 0/0
  4596 ;;		On exit  : 0/0
  4597 ;;		Unchanged: 0/0
  4598 ;; Data sizes:     COMRAM   BANK0   BANK1   BANK2   BANK3   BANK4   BANK5   BANK6   BANK7
  4599 ;;      Params:         0       0       0       0       0       0       0       0       0
  4600 ;;      Locals:         4       0       0       0       0       0       0       0       0
  4601 ;;      Temps:          0       0       0       0       0       0       0       0       0
  4602 ;;      Totals:         4       0       0       0       0       0       0       0       0
  4603 ;;Total ram usage:        4 bytes
  4604 ;; Hardware stack levels used: 1
  4605 ;; Hardware stack levels required when called: 2
  4606 ;; This function calls:
  4607 ;;		___wmul
  4608 ;; This function is called by:
  4609 ;;		_loop
  4610 ;; This function uses a non-reentrant model
  4611 ;;
  4612                           
  4613                           	psect	text10
  4614   003426                     __ptext10:
  4615                           	callstack 0
  4616   003426                     _read_values:
  4617                           	callstack 27
  4618   003426                     
  4619                           ;main.c: 752:     int a_sign, b_sign;;main.c: 753:     a_sign = (persisted_data[13] == 0
      +                           ? 1 : -1);
  4620   003426  0103               	movlb	3	; () banked
  4621   003428  511A               	movf	(_persisted_data+26)& (0+255),w,b
  4622   00342A  111B               	iorwf	(_persisted_data+27)& (0+255),w,b
  4623   00342C  B4D8               	btfsc	status,2,c
  4624   00342E  EF1B  F01A         	goto	u3021
  4625   003432  EF1D  F01A         	goto	u3020
  4626   003436                     u3021:
  4627   003436  EF21  F01A         	goto	l2628
  4628   00343A                     u3020:
  4629   00343A                     
  4630                           ; BSR set to: 3
  4631   00343A  6813               	setf	read_values@a_sign^0,c
  4632   00343C  6814               	setf	(read_values@a_sign+1)^0,c
  4633   00343E  EF25  F01A         	goto	l2630
  4634   003442                     l2628:
  4635                           
  4636                           ; BSR set to: 3
  4637   003442  0E00               	movlw	0
  4638   003444  6E14               	movwf	(read_values@a_sign+1)^0,c
  4639   003446  0E01               	movlw	1
  4640   003448  6E13               	movwf	read_values@a_sign^0,c
  4641   00344A                     l2630:
  4642                           
  4643                           ; BSR set to: 3
  4644                           ;main.c: 754:     b_sign = (persisted_data[14] == 0 ? 1 : -1);
  4645   00344A  511C               	movf	(_persisted_data+28)& (0+255),w,b
  4646   00344C  111D               	iorwf	(_persisted_data+29)& (0+255),w,b
  4647   00344E  B4D8               	btfsc	status,2,c
  4648   003450  EF2C  F01A         	goto	u3031
  4649   003454  EF2E  F01A         	goto	u3030
  4650   003458                     u3031:
  4651   003458  EF32  F01A         	goto	l2634
  4652   00345C                     u3030:
  4653   00345C                     
  4654                           ; BSR set to: 3
  4655   00345C  6815               	setf	read_values@b_sign^0,c
  4656   00345E  6816               	setf	(read_values@b_sign+1)^0,c
  4657   003460  EF36  F01A         	goto	l2636
  4658   003464                     l2634:
  4659                           
  4660                           ; BSR set to: 3
  4661   003464  0E00               	movlw	0
  4662   003466  6E16               	movwf	(read_values@b_sign+1)^0,c
  4663   003468  0E01               	movlw	1
  4664   00346A  6E15               	movwf	read_values@b_sign^0,c
  4665   00346C                     l2636:
  4666                           
  4667                           ; BSR set to: 3
  4668                           ;main.c: 756:     motor_a_speed_read_value = (a_sign) * persisted_data[15];
  4669   00346C  C31E  F00D         	movff	_persisted_data+30,___wmul@multiplier
  4670   003470  C31F  F00E         	movff	_persisted_data+31,___wmul@multiplier+1
  4671   003474  C013  F00F         	movff	read_values@a_sign,___wmul@multiplicand
  4672   003478  C014  F010         	movff	read_values@a_sign+1,___wmul@multiplicand+1
  4673   00347C  ECE6  F01B         	call	___wmul	;wreg free
  4674   003480  C00D  F0C1         	movff	?___wmul,_motor_a_speed_read_value
  4675   003484  C00E  F0C2         	movff	?___wmul+1,_motor_a_speed_read_value+1
  4676   003488                     
  4677                           ;main.c: 757:     motor_b_speed_read_value = (b_sign) * persisted_data[16];
  4678   003488  C320  F00D         	movff	_persisted_data+32,___wmul@multiplier
  4679   00348C  C321  F00E         	movff	_persisted_data+33,___wmul@multiplier+1
  4680   003490  C015  F00F         	movff	read_values@b_sign,___wmul@multiplicand
  4681   003494  C016  F010         	movff	read_values@b_sign+1,___wmul@multiplicand+1
  4682   003498  ECE6  F01B         	call	___wmul	;wreg free
  4683   00349C  C00D  F0BF         	movff	?___wmul,_motor_b_speed_read_value
  4684   0034A0  C00E  F0C0         	movff	?___wmul+1,_motor_b_speed_read_value+1
  4685   0034A4  0012               	return		;funcret
  4686   0034A6                     __end_of_read_values:
  4687                           	callstack 0
  4688                           
  4689 ;; *************** function ___wmul *****************
  4690 ;; Defined at:
  4691 ;;		line 15 in file "C:\Program Files\Microchip\xc8\v2.40\pic\sources\c99\common\Umul16.c"
  4692 ;; Parameters:    Size  Location     Type
  4693 ;;  multiplier      2   12[COMRAM] unsigned int 
  4694 ;;  multiplicand    2   14[COMRAM] unsigned int 
  4695 ;; Auto vars:     Size  Location     Type
  4696 ;;  product         2   16[COMRAM] unsigned int 
  4697 ;; Return value:  Size  Location     Type
  4698 ;;                  2   12[COMRAM] unsigned int 
  4699 ;; Registers used:
  4700 ;;		wreg, status,2, status,0, prodl, prodh
  4701 ;; Tracked objects:
  4702 ;;		On entry : 0/0
  4703 ;;		On exit  : 0/0
  4704 ;;		Unchanged: 0/0
  4705 ;; Data sizes:     COMRAM   BANK0   BANK1   BANK2   BANK3   BANK4   BANK5   BANK6   BANK7
  4706 ;;      Params:         4       0       0       0       0       0       0       0       0
  4707 ;;      Locals:         2       0       0       0       0       0       0       0       0
  4708 ;;      Temps:          0       0       0       0       0       0       0       0       0
  4709 ;;      Totals:         6       0       0       0       0       0       0       0       0
  4710 ;;Total ram usage:        6 bytes
  4711 ;; Hardware stack levels used: 1
  4712 ;; Hardware stack levels required when called: 1
  4713 ;; This function calls:
  4714 ;;		Nothing
  4715 ;; This function is called by:
  4716 ;;		_status_loop
  4717 ;;		_read_values
  4718 ;; This function uses a non-reentrant model
  4719 ;;
  4720                           
  4721                           	psect	text11
  4722   0037CC                     __ptext11:
  4723                           	callstack 0
  4724   0037CC                     ___wmul:
  4725                           	callstack 28
  4726   0037CC  500D               	movf	___wmul@multiplier^0,w,c
  4727   0037CE  020F               	mulwf	___wmul@multiplicand^0,c
  4728   0037D0  CFF3 F011          	movff	prodl,___wmul@product
  4729   0037D4  CFF4 F012          	movff	prodh,___wmul@product+1
  4730   0037D8  500D               	movf	___wmul@multiplier^0,w,c
  4731   0037DA  0210               	mulwf	(___wmul@multiplicand+1)^0,c
  4732   0037DC  50F3               	movf	243,w,c
  4733   0037DE  2612               	addwf	(___wmul@product+1)^0,f,c
  4734   0037E0  500E               	movf	(___wmul@multiplier+1)^0,w,c
  4735   0037E2  020F               	mulwf	___wmul@multiplicand^0,c
  4736   0037E4  50F3               	movf	243,w,c
  4737   0037E6  2612               	addwf	(___wmul@product+1)^0,f,c
  4738   0037E8  C011  F00D         	movff	___wmul@product,?___wmul
  4739   0037EC  C012  F00E         	movff	___wmul@product+1,?___wmul+1
  4740   0037F0  0012               	return		;funcret
  4741   0037F2                     __end_of___wmul:
  4742                           	callstack 0
  4743                           
  4744 ;; *************** function _read_eeprom *****************
  4745 ;; Defined at:
  4746 ;;		line 233 in file "main.c"
  4747 ;; Parameters:    Size  Location     Type
  4748 ;;		None
  4749 ;; Auto vars:     Size  Location     Type
  4750 ;;  aux             2   10[COMRAM] unsigned int 
  4751 ;;  addr            1   12[COMRAM] unsigned char 
  4752 ;; Return value:  Size  Location     Type
  4753 ;;                  1    wreg      void 
  4754 ;; Registers used:
  4755 ;;		wreg, fsr2l, fsr2h, status,2, status,0
  4756 ;; Tracked objects:
  4757 ;;		On entry : 0/0
  4758 ;;		On exit  : 0/0
  4759 ;;		Unchanged: 0/0
  4760 ;; Data sizes:     COMRAM   BANK0   BANK1   BANK2   BANK3   BANK4   BANK5   BANK6   BANK7
  4761 ;;      Params:         0       0       0       0       0       0       0       0       0
  4762 ;;      Locals:         3       0       0       0       0       0       0       0       0
  4763 ;;      Temps:          4       0       0       0       0       0       0       0       0
  4764 ;;      Totals:         7       0       0       0       0       0       0       0       0
  4765 ;;Total ram usage:        7 bytes
  4766 ;; Hardware stack levels used: 1
  4767 ;; Hardware stack levels required when called: 1
  4768 ;; This function calls:
  4769 ;;		Nothing
  4770 ;; This function is called by:
  4771 ;;		_loop
  4772 ;; This function uses a non-reentrant model
  4773 ;;
  4774                           
  4775                           	psect	text12
  4776   003588                     __ptext12:
  4777                           	callstack 0
  4778   003588                     _read_eeprom:
  4779                           	callstack 28
  4780   003588                     
  4781                           ;main.c: 234:     unsigned char addr;;main.c: 235:     unsigned int aux;;main.c: 237:   
      +                            for (addr=0;addr<=100;addr++){
  4782   003588  0E00               	movlw	0
  4783   00358A  6E0D               	movwf	read_eeprom@addr^0,c
  4784   00358C                     l123:
  4785                           
  4786                           ;main.c: 239:         EEADR = addr;
  4787   00358C  C00D  FFA9         	movff	read_eeprom@addr,4009	;volatile
  4788                           
  4789                           ;main.c: 241:         EECON1bits.CFGS = 0;
  4790   003590  9CA6               	bcf	166,6,c	;volsfr
  4791                           
  4792                           ;main.c: 243:         EECON1bits.EEPGD = 0;
  4793   003592  9EA6               	bcf	166,7,c	;volsfr
  4794                           
  4795                           ;main.c: 245:         EECON1bits.RD = 1;
  4796   003594  80A6               	bsf	166,0,c	;volsfr
  4797                           
  4798                           ;main.c: 247:         if (addr & 0x01){
  4799   003596  A00D               	btfss	read_eeprom@addr^0,0,c
  4800   003598  EFD0  F01A         	goto	u2961
  4801   00359C  EFD2  F01A         	goto	u2960
  4802   0035A0                     u2961:
  4803   0035A0  EFE9  F01A         	goto	l125
  4804   0035A4                     u2960:
  4805   0035A4                     
  4806                           ;main.c: 249:             persisted_data[addr >> 1] = EEDATA | aux << 8;
  4807   0035A4  500B               	movf	read_eeprom@aux^0,w,c
  4808   0035A6  6E08               	movwf	(??_read_eeprom+1)^0,c
  4809   0035A8  50A8               	movf	168,w,c	;volatile
  4810   0035AA  6E07               	movwf	??_read_eeprom^0,c
  4811   0035AC  90D8               	bcf	status,0,c
  4812   0035AE  300D               	rrcf	read_eeprom@addr^0,w,c
  4813   0035B0  6E09               	movwf	(??_read_eeprom+2)^0,c
  4814   0035B2  6A0A               	clrf	(??_read_eeprom+3)^0,c
  4815   0035B4  90D8               	bcf	status,0,c
  4816   0035B6  3609               	rlcf	(??_read_eeprom+2)^0,f,c
  4817   0035B8  360A               	rlcf	(??_read_eeprom+3)^0,f,c
  4818   0035BA  0E00               	movlw	low _persisted_data
  4819   0035BC  2409               	addwf	(??_read_eeprom+2)^0,w,c
  4820   0035BE  6ED9               	movwf	fsr2l,c
  4821   0035C0  0E03               	movlw	high _persisted_data
  4822   0035C2  200A               	addwfc	(??_read_eeprom+3)^0,w,c
  4823   0035C4  6EDA               	movwf	fsr2h,c
  4824   0035C6  C007  FFDE         	movff	??_read_eeprom,postinc2
  4825   0035CA  C008  FFDD         	movff	??_read_eeprom+1,postdec2
  4826                           
  4827                           ;main.c: 250:         }else{
  4828   0035CE  EFEC  F01A         	goto	l2576
  4829   0035D2                     l125:
  4830                           
  4831                           ;main.c: 252:             aux = EEDATA;
  4832   0035D2  CFA8 F00B          	movff	4008,read_eeprom@aux	;volatile
  4833   0035D6  6A0C               	clrf	(read_eeprom@aux+1)^0,c
  4834   0035D8                     l2576:
  4835                           
  4836                           ;main.c: 254:     }
  4837   0035D8  2A0D               	incf	read_eeprom@addr^0,f,c
  4838   0035DA  0E64               	movlw	100
  4839   0035DC  640D               	cpfsgt	read_eeprom@addr^0,c
  4840   0035DE  EFF3  F01A         	goto	u2971
  4841   0035E2  EFF5  F01A         	goto	u2970
  4842   0035E6                     u2971:
  4843   0035E6  EFC6  F01A         	goto	l123
  4844   0035EA                     u2970:
  4845   0035EA  0012               	return		;funcret
  4846   0035EC                     __end_of_read_eeprom:
  4847                           	callstack 0
  4848                           
  4849 ;; *************** function _printf *****************
  4850 ;; Defined at:
  4851 ;;		line 5 in file "C:\Program Files\Microchip\xc8\v2.40\pic\sources\c99\common\printf.c"
  4852 ;; Parameters:    Size  Location     Type
  4853 ;;  fmt             2   35[BANK0 ] PTR const unsigned char 
  4854 ;;		 -> STR_6(32), STR_5(32), STR_4(32), STR_3(32), 
  4855 ;;		 -> STR_2(19), STR_1(19), 
  4856 ;; Auto vars:     Size  Location     Type
  4857 ;;  ap              2   39[BANK0 ] PTR void [1]
  4858 ;;		 -> ?_printf(2), 
  4859 ;;  ret             2    0        int 
  4860 ;; Return value:  Size  Location     Type
  4861 ;;                  2   35[BANK0 ] int 
  4862 ;; Registers used:
  4863 ;;		wreg, fsr1l, fsr1h, fsr2l, fsr2h, status,2, status,0, tblptrl, tblptrh, tblptru, cstack
  4864 ;; Tracked objects:
  4865 ;;		On entry : 0/0
  4866 ;;		On exit  : 0/0
  4867 ;;		Unchanged: 0/0
  4868 ;; Data sizes:     COMRAM   BANK0   BANK1   BANK2   BANK3   BANK4   BANK5   BANK6   BANK7
  4869 ;;      Params:         0       4       0       0       0       0       0       0       0
  4870 ;;      Locals:         0       2       0       0       0       0       0       0       0
  4871 ;;      Temps:          0       0       0       0       0       0       0       0       0
  4872 ;;      Totals:         0       6       0       0       0       0       0       0       0
  4873 ;;Total ram usage:        6 bytes
  4874 ;; Hardware stack levels used: 1
  4875 ;; Hardware stack levels required when called: 8
  4876 ;; This function calls:
  4877 ;;		_vfprintf
  4878 ;; This function is called by:
  4879 ;;		_loop
  4880 ;; This function uses a non-reentrant model
  4881 ;;
  4882                           
  4883                           	psect	text13
  4884   0037A4                     __ptext13:
  4885                           	callstack 0
  4886   0037A4                     _printf:
  4887                           	callstack 21
  4888   0037A4  0EF6               	movlw	low (?_printf+2)
  4889   0037A6  0100               	movlb	0	; () banked
  4890   0037A8  6FF8               	movwf	printf@ap& (0+255),b
  4891   0037AA  0E00               	movlw	high (?_printf+2)
  4892   0037AC  6FF9               	movwf	(printf@ap+1)& (0+255),b
  4893   0037AE                     
  4894                           ; BSR set to: 0
  4895   0037AE  0E00               	movlw	0
  4896   0037B0  6FEC               	movwf	vfprintf@fp& (0+255),b
  4897   0037B2  0E00               	movlw	0
  4898   0037B4  6FED               	movwf	(vfprintf@fp+1)& (0+255),b
  4899   0037B6  C0F4  F0EE         	movff	printf@fmt,vfprintf@fmt
  4900   0037BA  C0F5  F0EF         	movff	printf@fmt+1,vfprintf@fmt+1
  4901   0037BE  0EF8               	movlw	low printf@ap
  4902   0037C0  6FF0               	movwf	vfprintf@ap& (0+255),b
  4903   0037C2  0E00               	movlw	high printf@ap
  4904   0037C4  6FF1               	movwf	(vfprintf@ap+1)& (0+255),b
  4905   0037C6  EC21  F01B         	call	_vfprintf	;wreg free
  4906   0037CA  0012               	return		;funcret
  4907   0037CC                     __end_of_printf:
  4908                           	callstack 0
  4909                           
  4910 ;; *************** function _vfprintf *****************
  4911 ;; Defined at:
  4912 ;;		line 1520 in file "C:\Program Files\Microchip\xc8\v2.40\pic\sources\c99\common\doprnt.c"
  4913 ;; Parameters:    Size  Location     Type
  4914 ;;  fp              2   27[BANK0 ] PTR struct _IO_FILE
  4915 ;;		 -> NULL(0), 
  4916 ;;  fmt             2   29[BANK0 ] PTR const unsigned char 
  4917 ;;		 -> STR_6(32), STR_5(32), STR_4(32), STR_3(32), 
  4918 ;;		 -> STR_2(19), STR_1(19), 
  4919 ;;  ap              2   31[BANK0 ] PTR PTR void 
  4920 ;;		 -> printf@ap(2), 
  4921 ;; Auto vars:     Size  Location     Type
  4922 ;;  cfmt            2   33[BANK0 ] PTR unsigned char 
  4923 ;;		 -> STR_6(32), STR_5(32), STR_4(32), STR_3(32), 
  4924 ;;		 -> STR_2(19), STR_1(19), 
  4925 ;; Return value:  Size  Location     Type
  4926 ;;                  2   27[BANK0 ] int 
  4927 ;; Registers used:
  4928 ;;		wreg, fsr1l, fsr1h, fsr2l, fsr2h, status,2, status,0, tblptrl, tblptrh, tblptru, cstack
  4929 ;; Tracked objects:
  4930 ;;		On entry : 0/0
  4931 ;;		On exit  : 0/0
  4932 ;;		Unchanged: 0/0
  4933 ;; Data sizes:     COMRAM   BANK0   BANK1   BANK2   BANK3   BANK4   BANK5   BANK6   BANK7
  4934 ;;      Params:         0       6       0       0       0       0       0       0       0
  4935 ;;      Locals:         0       2       0       0       0       0       0       0       0
  4936 ;;      Temps:          0       0       0       0       0       0       0       0       0
  4937 ;;      Totals:         0       8       0       0       0       0       0       0       0
  4938 ;;Total ram usage:        8 bytes
  4939 ;; Hardware stack levels used: 1
  4940 ;; Hardware stack levels required when called: 7
  4941 ;; This function calls:
  4942 ;;		_vfpfcnvrt
  4943 ;; This function is called by:
  4944 ;;		_printf
  4945 ;; This function uses a non-reentrant model
  4946 ;;
  4947                           
  4948                           	psect	text14
  4949   003642                     __ptext14:
  4950                           	callstack 0
  4951   003642                     _vfprintf:
  4952                           	callstack 21
  4953   003642                     
  4954                           ;C:\Program Files\Microchip\xc8\v2.40\pic\sources\c99\common\doprnt.c: 1520: int vfprint
      +                          f(FILE *fp, const char *fmt, va_list ap);C:\Program Files\Microchip\xc8\v2.40\pic\source
      +                          s\c99\common\doprnt.c: 1521: {;C:\Program Files\Microchip\xc8\v2.40\pic\sources\c99\comm
      +                          on\doprnt.c: 1523:     char *cfmt;;C:\Program Files\Microchip\xc8\v2.40\pic\sources\c99\
      +                          common\doprnt.c: 1525:     cfmt = (char *)fmt;
  4955   003642  C0EE  F0F2         	movff	vfprintf@fmt,vfprintf@cfmt
  4956   003646  C0EF  F0F3         	movff	vfprintf@fmt+1,vfprintf@cfmt+1
  4957                           
  4958                           ;C:\Program Files\Microchip\xc8\v2.40\pic\sources\c99\common\doprnt.c: 1529:     while (
      +                          *cfmt) {
  4959   00364A  EF35  F01B         	goto	l3402
  4960   00364E                     l3400:
  4961                           
  4962                           ;C:\Program Files\Microchip\xc8\v2.40\pic\sources\c99\common\doprnt.c: 1533:    vfpfcnvr
      +                          t(fp, &cfmt, ap);
  4963   00364E  C0EC  F04B         	movff	vfprintf@fp,vfpfcnvrt@fp
  4964   003652  C0ED  F04C         	movff	vfprintf@fp+1,vfpfcnvrt@fp+1
  4965   003656  0EF2               	movlw	low vfprintf@cfmt
  4966   003658  6E4D               	movwf	vfpfcnvrt@fmt^0,c
  4967   00365A  0E00               	movlw	high vfprintf@cfmt
  4968   00365C  6E4E               	movwf	(vfpfcnvrt@fmt+1)^0,c
  4969   00365E  C0F0  F04F         	movff	vfprintf@ap,vfpfcnvrt@ap
  4970   003662  C0F1  F050         	movff	vfprintf@ap+1,vfpfcnvrt@ap+1
  4971   003666  EC11  F016         	call	_vfpfcnvrt	;wreg free
  4972   00366A                     l3402:
  4973                           
  4974                           ;C:\Program Files\Microchip\xc8\v2.40\pic\sources\c99\common\doprnt.c: 1529:     while (
      +                          *cfmt) {
  4975   00366A  C0F2  FFF6         	movff	vfprintf@cfmt,tblptrl
  4976   00366E  C0F3  FFF7         	movff	vfprintf@cfmt+1,tblptrh
  4977   003672                     	if	0	;tblptru may be non-zero
  4978   003672                     	endif
  4979   003672                     	if	0	;tblptru may be non-zero
  4980   003672                     	endif
  4981   003672  0008               	tblrd		*
  4982   003674  50F5               	movf	tablat,w,c
  4983   003676  0900               	iorlw	0
  4984   003678  A4D8               	btfss	status,2,c
  4985   00367A  EF41  F01B         	goto	u5191
  4986   00367E  EF43  F01B         	goto	u5190
  4987   003682                     u5191:
  4988   003682  EF27  F01B         	goto	l3400
  4989   003686                     u5190:
  4990   003686                     
  4991                           ;C:\Program Files\Microchip\xc8\v2.40\pic\sources\c99\common\doprnt.c: 1538:  return 0;
  4992   003686  0E00               	movlw	0
  4993   003688  0100               	movlb	0	; () banked
  4994   00368A  6FED               	movwf	(?_vfprintf+1)& (0+255),b
  4995   00368C  0E00               	movlw	0
  4996   00368E  6FEC               	movwf	?_vfprintf& (0+255),b
  4997   003690                     
  4998                           ; BSR set to: 0
  4999   003690  0012               	return		;funcret
  5000   003692                     __end_of_vfprintf:
  5001                           	callstack 0
  5002                           
  5003 ;; *************** function _vfpfcnvrt *****************
  5004 ;; Defined at:
  5005 ;;		line 1007 in file "C:\Program Files\Microchip\xc8\v2.40\pic\sources\c99\common\doprnt.c"
  5006 ;; Parameters:    Size  Location     Type
  5007 ;;  fp              2   74[COMRAM] PTR struct _IO_FILE
  5008 ;;		 -> NULL(0), 
  5009 ;;  fmt             2   76[COMRAM] PTR PTR unsigned char 
  5010 ;;		 -> vfprintf@cfmt(2), 
  5011 ;;  ap              2   78[COMRAM] PTR PTR void 
  5012 ;;		 -> printf@ap(2), 
  5013 ;; Auto vars:     Size  Location     Type
  5014 ;;  convarg         8   17[BANK0 ] struct .
  5015 ;;  cp              2   25[BANK0 ] PTR unsigned char 
  5016 ;;		 -> STR_6(32), STR_5(32), STR_4(32), STR_3(32), 
  5017 ;;		 -> STR_2(19), STR_1(19), 
  5018 ;;  i               2    0        int 
  5019 ;;  done            2    0        int 
  5020 ;;  c               1    0        unsigned char 
  5021 ;; Return value:  Size  Location     Type
  5022 ;;                  1    wreg      void 
  5023 ;; Registers used:
  5024 ;;		wreg, fsr1l, fsr1h, fsr2l, fsr2h, status,2, status,0, tblptrl, tblptrh, tblptru, cstack
  5025 ;; Tracked objects:
  5026 ;;		On entry : 0/0
  5027 ;;		On exit  : 0/0
  5028 ;;		Unchanged: 0/0
  5029 ;; Data sizes:     COMRAM   BANK0   BANK1   BANK2   BANK3   BANK4   BANK5   BANK6   BANK7
  5030 ;;      Params:         6       0       0       0       0       0       0       0       0
  5031 ;;      Locals:         0      10       0       0       0       0       0       0       0
  5032 ;;      Temps:          2       0       0       0       0       0       0       0       0
  5033 ;;      Totals:         8      10       0       0       0       0       0       0       0
  5034 ;;Total ram usage:       18 bytes
  5035 ;; Hardware stack levels used: 1
  5036 ;; Hardware stack levels required when called: 6
  5037 ;; This function calls:
  5038 ;;		_dtoa
  5039 ;;		_fputc
  5040 ;; This function is called by:
  5041 ;;		_vfprintf
  5042 ;; This function uses a non-reentrant model
  5043 ;;
  5044                           
  5045                           	psect	text15
  5046   002C22                     __ptext15:
  5047                           	callstack 0
  5048   002C22                     _vfpfcnvrt:
  5049                           	callstack 21
  5050   002C22                     
  5051                           ;C:\Program Files\Microchip\xc8\v2.40\pic\sources\c99\common\doprnt.c: 1007: vfpfcnvrt(F
      +                          ILE *fp, char *fmt[], va_list ap);C:\Program Files\Microchip\xc8\v2.40\pic\sources\c99\c
      +                          ommon\doprnt.c: 1008: {;C:\Program Files\Microchip\xc8\v2.40\pic\sources\c99\common\dopr
      +                          nt.c: 1009:     char c, *cp;;C:\Program Files\Microchip\xc8\v2.40\pic\sources\c99\common
      +                          \doprnt.c: 1010:     int done, i;;C:\Program Files\Microchip\xc8\v2.40\pic\sources\c99\c
      +                          ommon\doprnt.c: 1016:  } convarg;;C:\Program Files\Microchip\xc8\v2.40\pic\sources\c99\c
      +                          ommon\doprnt.c: 1019:     if ((*fmt)[0] == '%') {
  5052   002C22  C04D  FFD9         	movff	vfpfcnvrt@fmt,fsr2l
  5053   002C26  C04E  FFDA         	movff	vfpfcnvrt@fmt+1,fsr2h
  5054   002C2A  CFDE FFF6          	movff	postinc2,tblptrl
  5055   002C2E  CFDD FFF7          	movff	postdec2,tblptrh
  5056   002C32                     	if	0	;tblptru may be non-zero
  5057   002C32                     	endif
  5058   002C32                     	if	0	;tblptru may be non-zero
  5059   002C32                     	endif
  5060   002C32  0008               	tblrd		*
  5061   002C34  50F5               	movf	tablat,w,c
  5062   002C36  0A25               	xorlw	37
  5063   002C38  A4D8               	btfss	status,2,c
  5064   002C3A  EF21  F016         	goto	u2921
  5065   002C3E  EF23  F016         	goto	u2920
  5066   002C42                     u2921:
  5067   002C42  EFA3  F016         	goto	l2546
  5068   002C46                     u2920:
  5069   002C46                     
  5070                           ;C:\Program Files\Microchip\xc8\v2.40\pic\sources\c99\common\doprnt.c: 1020:         ++*
      +                          fmt;
  5071   002C46  C04D  FFD9         	movff	vfpfcnvrt@fmt,fsr2l
  5072   002C4A  C04E  FFDA         	movff	vfpfcnvrt@fmt+1,fsr2h
  5073   002C4E  2ADE               	incf	postinc2,f,c
  5074   002C50  0E00               	movlw	0
  5075   002C52  22DD               	addwfc	postdec2,f,c
  5076   002C54                     
  5077                           ;C:\Program Files\Microchip\xc8\v2.40\pic\sources\c99\common\doprnt.c: 1022:         fla
      +                          gs = width = 0;
  5078   002C54  0E00               	movlw	0
  5079   002C56  0100               	movlb	0	; () banked
  5080   002C58  6FB8               	movwf	(_width+1)& (0+255),b
  5081   002C5A  0E00               	movlw	0
  5082   002C5C  6FB7               	movwf	_width& (0+255),b
  5083   002C5E  C0B7  F0CF         	movff	_width,_flags
  5084   002C62                     
  5085                           ; BSR set to: 0
  5086                           ;C:\Program Files\Microchip\xc8\v2.40\pic\sources\c99\common\doprnt.c: 1023:         pre
      +                          c = -1;
  5087   002C62  69B9               	setf	_prec& (0+255),b
  5088   002C64  69BA               	setf	(_prec+1)& (0+255),b
  5089   002C66                     
  5090                           ; BSR set to: 0
  5091                           ;C:\Program Files\Microchip\xc8\v2.40\pic\sources\c99\common\doprnt.c: 1117:   cp = *fmt
      +                          ;
  5092   002C66  C04D  FFD9         	movff	vfpfcnvrt@fmt,fsr2l
  5093   002C6A  C04E  FFDA         	movff	vfpfcnvrt@fmt+1,fsr2h
  5094   002C6E  CFDE F0EA          	movff	postinc2,vfpfcnvrt@cp
  5095   002C72  CFDD F0EB          	movff	postdec2,vfpfcnvrt@cp+1
  5096   002C76                     
  5097                           ; BSR set to: 0
  5098                           ;C:\Program Files\Microchip\xc8\v2.40\pic\sources\c99\common\doprnt.c: 1187:   if (*cp =
      +                          = 'd' || *cp == 'i') {
  5099   002C76  C0EA  FFF6         	movff	vfpfcnvrt@cp,tblptrl
  5100   002C7A  C0EB  FFF7         	movff	vfpfcnvrt@cp+1,tblptrh
  5101   002C7E                     	if	0	;tblptru may be non-zero
  5102   002C7E                     	endif
  5103   002C7E                     	if	0	;tblptru may be non-zero
  5104   002C7E                     	endif
  5105   002C7E  0008               	tblrd		*
  5106   002C80  50F5               	movf	tablat,w,c
  5107   002C82  0A64               	xorlw	100
  5108   002C84  B4D8               	btfsc	status,2,c
  5109   002C86  EF47  F016         	goto	u2931
  5110   002C8A  EF49  F016         	goto	u2930
  5111   002C8E                     u2931:
  5112   002C8E  EF57  F016         	goto	l2536
  5113   002C92                     u2930:
  5114   002C92                     
  5115                           ; BSR set to: 0
  5116   002C92  C0EA  FFF6         	movff	vfpfcnvrt@cp,tblptrl
  5117   002C96  C0EB  FFF7         	movff	vfpfcnvrt@cp+1,tblptrh
  5118   002C9A                     	if	0	;tblptru may be non-zero
  5119   002C9A                     	endif
  5120   002C9A                     	if	0	;tblptru may be non-zero
  5121   002C9A                     	endif
  5122   002C9A  0008               	tblrd		*
  5123   002C9C  50F5               	movf	tablat,w,c
  5124   002C9E  0A69               	xorlw	105
  5125   002CA0  A4D8               	btfss	status,2,c
  5126   002CA2  EF55  F016         	goto	u2941
  5127   002CA6  EF57  F016         	goto	u2940
  5128   002CAA                     u2941:
  5129   002CAA  EF9A  F016         	goto	l2542
  5130   002CAE                     u2940:
  5131   002CAE                     l2536:
  5132                           
  5133                           ; BSR set to: 0
  5134                           ;C:\Program Files\Microchip\xc8\v2.40\pic\sources\c99\common\doprnt.c: 1230:    convarg.
      +                          ll = (long long)(int)(*(int *)__va_arg(*(int **)ap, (int)0));
  5135   002CAE  C04F  FFD9         	movff	vfpfcnvrt@ap,fsr2l
  5136   002CB2  C050  FFDA         	movff	vfpfcnvrt@ap+1,fsr2h
  5137   002CB6  CFDF F051          	movff	indf2,??_vfpfcnvrt
  5138   002CBA  0E02               	movlw	2
  5139   002CBC  26DE               	addwf	postinc2,f,c
  5140   002CBE  CFDF F052          	movff	indf2,??_vfpfcnvrt+1
  5141   002CC2  0E00               	movlw	0
  5142   002CC4  22DD               	addwfc	postdec2,f,c
  5143   002CC6  C051  FFD9         	movff	??_vfpfcnvrt,fsr2l
  5144   002CCA  C052  FFDA         	movff	??_vfpfcnvrt+1,fsr2h
  5145   002CCE  CFDE F0E2          	movff	postinc2,vfpfcnvrt@convarg
  5146   002CD2  CFDD F0E3          	movff	postdec2,vfpfcnvrt@convarg+1
  5147   002CD6  0E00               	movlw	0
  5148   002CD8  BFE3               	btfsc	(vfpfcnvrt@convarg+1)& (0+255),7,b
  5149   002CDA  0EFF               	movlw	-1
  5150   002CDC  6FE4               	movwf	(vfpfcnvrt@convarg+2)& (0+255),b
  5151   002CDE  6FE5               	movwf	(vfpfcnvrt@convarg+3)& (0+255),b
  5152   002CE0  6FE6               	movwf	(vfpfcnvrt@convarg+4)& (0+255),b
  5153   002CE2  6FE7               	movwf	(vfpfcnvrt@convarg+5)& (0+255),b
  5154   002CE4  6FE8               	movwf	(vfpfcnvrt@convarg+6)& (0+255),b
  5155   002CE6  6FE9               	movwf	(vfpfcnvrt@convarg+7)& (0+255),b
  5156                           
  5157                           ;C:\Program Files\Microchip\xc8\v2.40\pic\sources\c99\common\doprnt.c: 1232:    *fmt = c
      +                          p+1;
  5158   002CE8  0E01               	movlw	1
  5159   002CEA  25EA               	addwf	vfpfcnvrt@cp& (0+255),w,b
  5160   002CEC  6E51               	movwf	??_vfpfcnvrt^0,c
  5161   002CEE  0E00               	movlw	0
  5162   002CF0  21EB               	addwfc	(vfpfcnvrt@cp+1)& (0+255),w,b
  5163   002CF2  6E52               	movwf	(??_vfpfcnvrt+1)^0,c
  5164   002CF4  C04D  FFD9         	movff	vfpfcnvrt@fmt,fsr2l
  5165   002CF8  C04E  FFDA         	movff	vfpfcnvrt@fmt+1,fsr2h
  5166   002CFC  C051  FFDE         	movff	??_vfpfcnvrt,postinc2
  5167   002D00  C052  FFDD         	movff	??_vfpfcnvrt+1,postdec2
  5168   002D04                     
  5169                           ; BSR set to: 0
  5170                           ;C:\Program Files\Microchip\xc8\v2.40\pic\sources\c99\common\doprnt.c: 1233:    return (
      +                          void) dtoa(fp, convarg.ll);;	Return value of _vfpfcnvrt is never used
  5171   002D04  C04B  F039         	movff	vfpfcnvrt@fp,dtoa@fp
  5172   002D08  C04C  F03A         	movff	vfpfcnvrt@fp+1,dtoa@fp+1
  5173   002D0C  C0E2  F03B         	movff	vfpfcnvrt@convarg,dtoa@d
  5174   002D10  C0E3  F03C         	movff	vfpfcnvrt@convarg+1,dtoa@d+1
  5175   002D14  C0E4  F03D         	movff	vfpfcnvrt@convarg+2,dtoa@d+2
  5176   002D18  C0E5  F03E         	movff	vfpfcnvrt@convarg+3,dtoa@d+3
  5177   002D1C  C0E6  F03F         	movff	vfpfcnvrt@convarg+4,dtoa@d+4
  5178   002D20  C0E7  F040         	movff	vfpfcnvrt@convarg+5,dtoa@d+5
  5179   002D24  C0E8  F041         	movff	vfpfcnvrt@convarg+6,dtoa@d+6
  5180   002D28  C0E9  F042         	movff	vfpfcnvrt@convarg+7,dtoa@d+7
  5181   002D2C  EC84  F011         	call	_dtoa	;wreg free
  5182   002D30  EFB7  F016         	goto	l1145
  5183   002D34                     l2542:
  5184                           
  5185                           ;C:\Program Files\Microchip\xc8\v2.40\pic\sources\c99\common\doprnt.c: 1509:         ++*
      +                          fmt;
  5186   002D34  C04D  FFD9         	movff	vfpfcnvrt@fmt,fsr2l
  5187   002D38  C04E  FFDA         	movff	vfpfcnvrt@fmt+1,fsr2h
  5188   002D3C  2ADE               	incf	postinc2,f,c
  5189   002D3E  0E00               	movlw	0
  5190   002D40  22DD               	addwfc	postdec2,f,c
  5191   002D42  EFB7  F016         	goto	l1145
  5192   002D46                     l2546:
  5193                           
  5194                           ;C:\Program Files\Microchip\xc8\v2.40\pic\sources\c99\common\doprnt.c: 1514:     fputc((
      +                          int)(*fmt)[0], fp);
  5195   002D46  C04D  FFD9         	movff	vfpfcnvrt@fmt,fsr2l
  5196   002D4A  C04E  FFDA         	movff	vfpfcnvrt@fmt+1,fsr2h
  5197   002D4E  CFDE FFF6          	movff	postinc2,tblptrl
  5198   002D52  CFDD FFF7          	movff	postdec2,tblptrh
  5199   002D56                     	if	0	;tblptru may be non-zero
  5200   002D56                     	endif
  5201   002D56                     	if	0	;tblptru may be non-zero
  5202   002D56                     	endif
  5203   002D56  0008               	tblrd		*
  5204   002D58  50F5               	movf	tablat,w,c
  5205   002D5A  6E08               	movwf	fputc@c^0,c
  5206   002D5C  6A09               	clrf	(fputc@c+1)^0,c
  5207   002D5E  C04B  F00A         	movff	vfpfcnvrt@fp,fputc@fp
  5208   002D62  C04C  F00B         	movff	vfpfcnvrt@fp+1,fputc@fp+1
  5209   002D66  EC81  F019         	call	_fputc	;wreg free
  5210   002D6A  EF9A  F016         	goto	l2542
  5211   002D6E                     l1145:
  5212   002D6E  0012               	return		;funcret
  5213   002D70                     __end_of_vfpfcnvrt:
  5214                           	callstack 0
  5215                           
  5216 ;; *************** function _dtoa *****************
  5217 ;; Defined at:
  5218 ;;		line 443 in file "C:\Program Files\Microchip\xc8\v2.40\pic\sources\c99\common\doprnt.c"
  5219 ;; Parameters:    Size  Location     Type
  5220 ;;  fp              2   56[COMRAM] PTR struct _IO_FILE
  5221 ;;		 -> NULL(0), 
  5222 ;;  d               8   58[COMRAM] long long 
  5223 ;; Auto vars:     Size  Location     Type
  5224 ;;  n               8    6[BANK0 ] long long 
  5225 ;;  i               2   14[BANK0 ] int 
  5226 ;;  w               2    4[BANK0 ] int 
  5227 ;;  p               2    2[BANK0 ] int 
  5228 ;;  s               1   16[BANK0 ] unsigned char 
  5229 ;; Return value:  Size  Location     Type
  5230 ;;                  1    wreg      void 
  5231 ;; Registers used:
  5232 ;;		wreg, fsr1l, fsr1h, fsr2l, fsr2h, status,2, status,0, cstack
  5233 ;; Tracked objects:
  5234 ;;		On entry : 0/0
  5235 ;;		On exit  : 0/0
  5236 ;;		Unchanged: 0/0
  5237 ;; Data sizes:     COMRAM   BANK0   BANK1   BANK2   BANK3   BANK4   BANK5   BANK6   BANK7
  5238 ;;      Params:        10       0       0       0       0       0       0       0       0
  5239 ;;      Locals:         0      17       0       0       0       0       0       0       0
  5240 ;;      Temps:          8       0       0       0       0       0       0       0       0
  5241 ;;      Totals:        18      17       0       0       0       0       0       0       0
  5242 ;;Total ram usage:       35 bytes
  5243 ;; Hardware stack levels used: 1
  5244 ;; Hardware stack levels required when called: 5
  5245 ;; This function calls:
  5246 ;;		___aodiv
  5247 ;;		___aomod
  5248 ;;		_abs
  5249 ;;		_pad
  5250 ;; This function is called by:
  5251 ;;		_vfpfcnvrt
  5252 ;; This function uses a non-reentrant model
  5253 ;;
  5254                           
  5255                           	psect	text16
  5256   002308                     __ptext16:
  5257                           	callstack 0
  5258   002308                     _dtoa:
  5259                           	callstack 21
  5260   002308                     
  5261                           ;C:\Program Files\Microchip\xc8\v2.40\pic\sources\c99\common\doprnt.c: 443: static void 
      +                          dtoa(FILE *fp, long long d);C:\Program Files\Microchip\xc8\v2.40\pic\sources\c99\common\
      +                          doprnt.c: 444: {;C:\Program Files\Microchip\xc8\v2.40\pic\sources\c99\common\doprnt.c: 4
      +                          45:  char s;;C:\Program Files\Microchip\xc8\v2.40\pic\sources\c99\common\doprnt.c: 446: 
      +                              int i, p, w;;C:\Program Files\Microchip\xc8\v2.40\pic\sources\c99\common\doprnt.c: 4
      +                          47:     long long n;;C:\Program Files\Microchip\xc8\v2.40\pic\sources\c99\common\doprnt.
      +                          c: 450:     n = d;
  5262   002308  C03B  F0D7         	movff	dtoa@d,dtoa@n
  5263   00230C  C03C  F0D8         	movff	dtoa@d+1,dtoa@n+1
  5264   002310  C03D  F0D9         	movff	dtoa@d+2,dtoa@n+2
  5265   002314  C03E  F0DA         	movff	dtoa@d+3,dtoa@n+3
  5266   002318  C03F  F0DB         	movff	dtoa@d+4,dtoa@n+4
  5267   00231C  C040  F0DC         	movff	dtoa@d+5,dtoa@n+5
  5268   002320  C041  F0DD         	movff	dtoa@d+6,dtoa@n+6
  5269   002324  C042  F0DE         	movff	dtoa@d+7,dtoa@n+7
  5270   002328                     
  5271                           ;C:\Program Files\Microchip\xc8\v2.40\pic\sources\c99\common\doprnt.c: 451:     s = n < 
      +                          0 ? 1 : 0;
  5272   002328  0100               	movlb	0	; () banked
  5273   00232A  BFDE               	btfsc	(dtoa@n+7)& (0+255),7,b
  5274   00232C  EF9A  F011         	goto	u2821
  5275   002330  EF9D  F011         	goto	u2820
  5276   002334                     u2821:
  5277   002334  0E01               	movlw	1
  5278   002336  EF9E  F011         	goto	u2830
  5279   00233A                     u2820:
  5280   00233A  0E00               	movlw	0
  5281   00233C                     u2830:
  5282   00233C  6FE1               	movwf	dtoa@s& (0+255),b
  5283   00233E                     
  5284                           ; BSR set to: 0
  5285                           ;C:\Program Files\Microchip\xc8\v2.40\pic\sources\c99\common\doprnt.c: 452:     if (s) {
  5286   00233E  51E1               	movf	dtoa@s& (0+255),w,b
  5287   002340  B4D8               	btfsc	status,2,c
  5288   002342  EFA5  F011         	goto	u2841
  5289   002346  EFA7  F011         	goto	u2840
  5290   00234A                     u2841:
  5291   00234A  EFB7  F011         	goto	l2478
  5292   00234E                     u2840:
  5293   00234E                     
  5294                           ; BSR set to: 0
  5295                           ;C:\Program Files\Microchip\xc8\v2.40\pic\sources\c99\common\doprnt.c: 453:         n = 
      +                          -n;
  5296   00234E  1FDE               	comf	(dtoa@n+7)& (0+255),f,b
  5297   002350  1FDD               	comf	(dtoa@n+6)& (0+255),f,b
  5298   002352  1FDC               	comf	(dtoa@n+5)& (0+255),f,b
  5299   002354  1FDB               	comf	(dtoa@n+4)& (0+255),f,b
  5300   002356  1FDA               	comf	(dtoa@n+3)& (0+255),f,b
  5301   002358  1FD9               	comf	(dtoa@n+2)& (0+255),f,b
  5302   00235A  1FD8               	comf	(dtoa@n+1)& (0+255),f,b
  5303   00235C  6DD7               	negf	dtoa@n& (0+255),b
  5304   00235E  0E00               	movlw	0
  5305   002360  23D8               	addwfc	(dtoa@n+1)& (0+255),f,b
  5306   002362  23D9               	addwfc	(dtoa@n+2)& (0+255),f,b
  5307   002364  23DA               	addwfc	(dtoa@n+3)& (0+255),f,b
  5308   002366  23DB               	addwfc	(dtoa@n+4)& (0+255),f,b
  5309   002368  23DC               	addwfc	(dtoa@n+5)& (0+255),f,b
  5310   00236A  23DD               	addwfc	(dtoa@n+6)& (0+255),f,b
  5311   00236C  23DE               	addwfc	(dtoa@n+7)& (0+255),f,b
  5312   00236E                     l2478:
  5313                           
  5314                           ; BSR set to: 0
  5315                           ;C:\Program Files\Microchip\xc8\v2.40\pic\sources\c99\common\doprnt.c: 462:     p = (0 <
      +                           prec) ? prec : 1;
  5316   00236E  BFBA               	btfsc	(_prec+1)& (0+255),7,b
  5317   002370  EFC4  F011         	goto	u2850
  5318   002374  51BA               	movf	(_prec+1)& (0+255),w,b
  5319   002376  E106               	bnz	u2851
  5320   002378  05B9               	decf	_prec& (0+255),w,b
  5321   00237A  B0D8               	btfsc	status,0,c
  5322   00237C  EFC2  F011         	goto	u2851
  5323   002380  EFC4  F011         	goto	u2850
  5324   002384                     u2851:
  5325   002384  EFCA  F011         	goto	l1124
  5326   002388                     u2850:
  5327   002388                     
  5328                           ; BSR set to: 0
  5329   002388  0E00               	movlw	0
  5330   00238A  6FD4               	movwf	(dtoa@p+1)& (0+255),b
  5331   00238C  0E01               	movlw	1
  5332   00238E  6FD3               	movwf	dtoa@p& (0+255),b
  5333   002390  EFCE  F011         	goto	l1126
  5334   002394                     l1124:
  5335                           
  5336                           ; BSR set to: 0
  5337   002394  C0B9  F0D3         	movff	_prec,dtoa@p
  5338   002398  C0BA  F0D4         	movff	_prec+1,dtoa@p+1
  5339   00239C                     l1126:
  5340                           
  5341                           ; BSR set to: 0
  5342                           ;C:\Program Files\Microchip\xc8\v2.40\pic\sources\c99\common\doprnt.c: 463:     w = widt
      +                          h;
  5343   00239C  C0B7  F0D5         	movff	_width,dtoa@w
  5344   0023A0  C0B8  F0D6         	movff	_width+1,dtoa@w+1
  5345   0023A4                     
  5346                           ; BSR set to: 0
  5347                           ;C:\Program Files\Microchip\xc8\v2.40\pic\sources\c99\common\doprnt.c: 464:     if (s
  5348   0023A4  51E1               	movf	dtoa@s& (0+255),w,b
  5349   0023A6  B4D8               	btfsc	status,2,c
  5350   0023A8  EFD8  F011         	goto	u2861
  5351   0023AC  EFDA  F011         	goto	u2860
  5352   0023B0                     u2861:
  5353   0023B0  EFF1  F011         	goto	l1127
  5354   0023B4                     u2860:
  5355   0023B4                     
  5356                           ; BSR set to: 0
  5357                           ;C:\Program Files\Microchip\xc8\v2.40\pic\sources\c99\common\doprnt.c: 468:     ) {;C:\P
      +                          rogram Files\Microchip\xc8\v2.40\pic\sources\c99\common\doprnt.c: 469:         --w;
  5358   0023B4  07D5               	decf	dtoa@w& (0+255),f,b
  5359   0023B6  A0D8               	btfss	status,0,c
  5360   0023B8  07D6               	decf	(dtoa@w+1)& (0+255),f,b
  5361   0023BA                     
  5362                           ; BSR set to: 0
  5363                           ;C:\Program Files\Microchip\xc8\v2.40\pic\sources\c99\common\doprnt.c: 470:   s = s ? '-
      +                          ' : '+';
  5364   0023BA  51E1               	movf	dtoa@s& (0+255),w,b
  5365   0023BC  A4D8               	btfss	status,2,c
  5366   0023BE  EFE3  F011         	goto	u2871
  5367   0023C2  EFE5  F011         	goto	u2870
  5368   0023C6                     u2871:
  5369   0023C6  EFEB  F011         	goto	l2490
  5370   0023CA                     u2870:
  5371   0023CA                     
  5372                           ; BSR set to: 0
  5373   0023CA  0E00               	movlw	0
  5374   0023CC  6FD2               	movwf	(_dtoa$1899+1)& (0+255),b
  5375   0023CE  0E2B               	movlw	43
  5376   0023D0  6FD1               	movwf	_dtoa$1899& (0+255),b
  5377   0023D2  EFEF  F011         	goto	l2492
  5378   0023D6                     l2490:
  5379                           
  5380                           ; BSR set to: 0
  5381   0023D6  0E00               	movlw	0
  5382   0023D8  6FD2               	movwf	(_dtoa$1899+1)& (0+255),b
  5383   0023DA  0E2D               	movlw	45
  5384   0023DC  6FD1               	movwf	_dtoa$1899& (0+255),b
  5385   0023DE                     l2492:
  5386                           
  5387                           ; BSR set to: 0
  5388   0023DE  C0D1  F0E1         	movff	_dtoa$1899,dtoa@s
  5389   0023E2                     l1127:
  5390                           
  5391                           ; BSR set to: 0
  5392                           ;C:\Program Files\Microchip\xc8\v2.40\pic\sources\c99\common\doprnt.c: 480:     i = size
      +                          of(dbuf) - 1;
  5393   0023E2  0E00               	movlw	0
  5394   0023E4  6FE0               	movwf	(dtoa@i+1)& (0+255),b
  5395   0023E6  0E1F               	movlw	31
  5396   0023E8  6FDF               	movwf	dtoa@i& (0+255),b
  5397   0023EA                     
  5398                           ; BSR set to: 0
  5399                           ;C:\Program Files\Microchip\xc8\v2.40\pic\sources\c99\common\doprnt.c: 481:     dbuf[i] 
      +                          = '\0';
  5400   0023EA  0E00               	movlw	0
  5401   0023EC  0102               	movlb	2	; () banked
  5402   0023EE  6F1F               	movwf	(_dbuf+31)& (0+255),b
  5403                           
  5404                           ;C:\Program Files\Microchip\xc8\v2.40\pic\sources\c99\common\doprnt.c: 482:     while (!
      +                          (i < 1) && (n || (0 < p)
  5405   0023F0  EF77  F012         	goto	l2506
  5406   0023F4                     l2496:
  5407                           
  5408                           ; BSR set to: 0
  5409                           ;C:\Program Files\Microchip\xc8\v2.40\pic\sources\c99\common\doprnt.c: 486:     )) {;C:\
      +                          Program Files\Microchip\xc8\v2.40\pic\sources\c99\common\doprnt.c: 487:         --i;
  5410   0023F4  07DF               	decf	dtoa@i& (0+255),f,b
  5411   0023F6  A0D8               	btfss	status,0,c
  5412   0023F8  07E0               	decf	(dtoa@i+1)& (0+255),f,b
  5413   0023FA                     
  5414                           ; BSR set to: 0
  5415                           ;C:\Program Files\Microchip\xc8\v2.40\pic\sources\c99\common\doprnt.c: 488:         dbuf
      +                          [i] = (char)((int)'0' + abs(n % 10));
  5416   0023FA  0E00               	movlw	low _dbuf
  5417   0023FC  25DF               	addwf	dtoa@i& (0+255),w,b
  5418   0023FE  6ED9               	movwf	fsr2l,c
  5419   002400  0E02               	movlw	high _dbuf
  5420   002402  21E0               	addwfc	(dtoa@i+1)& (0+255),w,b
  5421   002404  6EDA               	movwf	fsr2h,c
  5422   002406  C0D7  F007         	movff	dtoa@n,___aomod@dividend
  5423   00240A  C0D8  F008         	movff	dtoa@n+1,___aomod@dividend+1
  5424   00240E  C0D9  F009         	movff	dtoa@n+2,___aomod@dividend+2
  5425   002412  C0DA  F00A         	movff	dtoa@n+3,___aomod@dividend+3
  5426   002416  C0DB  F00B         	movff	dtoa@n+4,___aomod@dividend+4
  5427   00241A  C0DC  F00C         	movff	dtoa@n+5,___aomod@dividend+5
  5428   00241E  C0DD  F00D         	movff	dtoa@n+6,___aomod@dividend+6
  5429   002422  C0DE  F00E         	movff	dtoa@n+7,___aomod@dividend+7
  5430   002426  0E0A               	movlw	10
  5431   002428  6E0F               	movwf	___aomod@divisor^0,c
  5432   00242A  0E00               	movlw	0
  5433   00242C  6E10               	movwf	(___aomod@divisor+1)^0,c
  5434   00242E  0E00               	movlw	0
  5435   002430  6E11               	movwf	(___aomod@divisor+2)^0,c
  5436   002432  0E00               	movlw	0
  5437   002434  6E12               	movwf	(___aomod@divisor+3)^0,c
  5438   002436  0E00               	movlw	0
  5439   002438  6E13               	movwf	(___aomod@divisor+4)^0,c
  5440   00243A  0E00               	movlw	0
  5441   00243C  6E14               	movwf	(___aomod@divisor+5)^0,c
  5442   00243E  0E00               	movlw	0
  5443   002440  6E15               	movwf	(___aomod@divisor+6)^0,c
  5444   002442  0E00               	movlw	0
  5445   002444  6E16               	movwf	(___aomod@divisor+7)^0,c
  5446   002446  EC5F  F015         	call	___aomod	;wreg free
  5447   00244A  C007  F043         	movff	?___aomod,??_dtoa
  5448   00244E  C008  F044         	movff	?___aomod+1,??_dtoa+1
  5449   002452  C009  F045         	movff	?___aomod+2,??_dtoa+2
  5450   002456  C00A  F046         	movff	?___aomod+3,??_dtoa+3
  5451   00245A  C00B  F047         	movff	?___aomod+4,??_dtoa+4
  5452   00245E  C00C  F048         	movff	?___aomod+5,??_dtoa+5
  5453   002462  C00D  F049         	movff	?___aomod+6,??_dtoa+6
  5454   002466  C00E  F04A         	movff	?___aomod+7,??_dtoa+7
  5455   00246A  C043  F019         	movff	??_dtoa,abs@a
  5456   00246E  C044  F01A         	movff	??_dtoa+1,abs@a+1
  5457   002472  EC6B  F01B         	call	_abs	;wreg free
  5458   002476  5019               	movf	?_abs^0,w,c
  5459   002478  0F30               	addlw	48
  5460   00247A  6EDF               	movwf	indf2,c
  5461   00247C                     
  5462                           ;C:\Program Files\Microchip\xc8\v2.40\pic\sources\c99\common\doprnt.c: 489:         --p;
  5463   00247C  0100               	movlb	0	; () banked
  5464   00247E  07D3               	decf	dtoa@p& (0+255),f,b
  5465   002480  A0D8               	btfss	status,0,c
  5466   002482  07D4               	decf	(dtoa@p+1)& (0+255),f,b
  5467   002484                     
  5468                           ; BSR set to: 0
  5469                           ;C:\Program Files\Microchip\xc8\v2.40\pic\sources\c99\common\doprnt.c: 490:         --w;
  5470   002484  07D5               	decf	dtoa@w& (0+255),f,b
  5471   002486  A0D8               	btfss	status,0,c
  5472   002488  07D6               	decf	(dtoa@w+1)& (0+255),f,b
  5473   00248A                     
  5474                           ; BSR set to: 0
  5475                           ;C:\Program Files\Microchip\xc8\v2.40\pic\sources\c99\common\doprnt.c: 491:         n = 
      +                          n / 10;
  5476   00248A  C0D7  F01F         	movff	dtoa@n,___aodiv@dividend
  5477   00248E  C0D8  F020         	movff	dtoa@n+1,___aodiv@dividend+1
  5478   002492  C0D9  F021         	movff	dtoa@n+2,___aodiv@dividend+2
  5479   002496  C0DA  F022         	movff	dtoa@n+3,___aodiv@dividend+3
  5480   00249A  C0DB  F023         	movff	dtoa@n+4,___aodiv@dividend+4
  5481   00249E  C0DC  F024         	movff	dtoa@n+5,___aodiv@dividend+5
  5482   0024A2  C0DD  F025         	movff	dtoa@n+6,___aodiv@dividend+6
  5483   0024A6  C0DE  F026         	movff	dtoa@n+7,___aodiv@dividend+7
  5484   0024AA  0E0A               	movlw	10
  5485   0024AC  6E27               	movwf	___aodiv@divisor^0,c
  5486   0024AE  0E00               	movlw	0
  5487   0024B0  6E28               	movwf	(___aodiv@divisor+1)^0,c
  5488   0024B2  0E00               	movlw	0
  5489   0024B4  6E29               	movwf	(___aodiv@divisor+2)^0,c
  5490   0024B6  0E00               	movlw	0
  5491   0024B8  6E2A               	movwf	(___aodiv@divisor+3)^0,c
  5492   0024BA  0E00               	movlw	0
  5493   0024BC  6E2B               	movwf	(___aodiv@divisor+4)^0,c
  5494   0024BE  0E00               	movlw	0
  5495   0024C0  6E2C               	movwf	(___aodiv@divisor+5)^0,c
  5496   0024C2  0E00               	movlw	0
  5497   0024C4  6E2D               	movwf	(___aodiv@divisor+6)^0,c
  5498   0024C6  0E00               	movlw	0
  5499   0024C8  6E2E               	movwf	(___aodiv@divisor+7)^0,c
  5500   0024CA  EC9B  F014         	call	___aodiv	;wreg free
  5501   0024CE  C01F  F0D7         	movff	?___aodiv,dtoa@n
  5502   0024D2  C020  F0D8         	movff	?___aodiv+1,dtoa@n+1
  5503   0024D6  C021  F0D9         	movff	?___aodiv+2,dtoa@n+2
  5504   0024DA  C022  F0DA         	movff	?___aodiv+3,dtoa@n+3
  5505   0024DE  C023  F0DB         	movff	?___aodiv+4,dtoa@n+4
  5506   0024E2  C024  F0DC         	movff	?___aodiv+5,dtoa@n+5
  5507   0024E6  C025  F0DD         	movff	?___aodiv+6,dtoa@n+6
  5508   0024EA  C026  F0DE         	movff	?___aodiv+7,dtoa@n+7
  5509   0024EE                     l2506:
  5510                           
  5511                           ;C:\Program Files\Microchip\xc8\v2.40\pic\sources\c99\common\doprnt.c: 482:     while (!
      +                          (i < 1) && (n || (0 < p)
  5512   0024EE  0100               	movlb	0	; () banked
  5513   0024F0  BFE0               	btfsc	(dtoa@i+1)& (0+255),7,b
  5514   0024F2  EF83  F012         	goto	u2881
  5515   0024F6  51E0               	movf	(dtoa@i+1)& (0+255),w,b
  5516   0024F8  E108               	bnz	u2880
  5517   0024FA  05DF               	decf	dtoa@i& (0+255),w,b
  5518   0024FC  A0D8               	btfss	status,0,c
  5519   0024FE  EF83  F012         	goto	u2881
  5520   002502  EF85  F012         	goto	u2880
  5521   002506                     u2881:
  5522   002506  EFA1  F012         	goto	l2512
  5523   00250A                     u2880:
  5524   00250A                     
  5525                           ; BSR set to: 0
  5526   00250A  51D7               	movf	dtoa@n& (0+255),w,b
  5527   00250C  11D8               	iorwf	(dtoa@n+1)& (0+255),w,b
  5528   00250E  11D9               	iorwf	(dtoa@n+2)& (0+255),w,b
  5529   002510  11DA               	iorwf	(dtoa@n+3)& (0+255),w,b
  5530   002512  11DB               	iorwf	(dtoa@n+4)& (0+255),w,b
  5531   002514  11DC               	iorwf	(dtoa@n+5)& (0+255),w,b
  5532   002516  11DD               	iorwf	(dtoa@n+6)& (0+255),w,b
  5533   002518  11DE               	iorwf	(dtoa@n+7)& (0+255),w,b
  5534   00251A  A4D8               	btfss	status,2,c
  5535   00251C  EF92  F012         	goto	u2891
  5536   002520  EF94  F012         	goto	u2890
  5537   002524                     u2891:
  5538   002524  EFFA  F011         	goto	l2496
  5539   002528                     u2890:
  5540   002528                     
  5541                           ; BSR set to: 0
  5542   002528  BFD4               	btfsc	(dtoa@p+1)& (0+255),7,b
  5543   00252A  EFA1  F012         	goto	u2900
  5544   00252E  51D4               	movf	(dtoa@p+1)& (0+255),w,b
  5545   002530  E106               	bnz	u2901
  5546   002532  05D3               	decf	dtoa@p& (0+255),w,b
  5547   002534  B0D8               	btfsc	status,0,c
  5548   002536  EF9F  F012         	goto	u2901
  5549   00253A  EFA1  F012         	goto	u2900
  5550   00253E                     u2901:
  5551   00253E  EFFA  F011         	goto	l2496
  5552   002542                     u2900:
  5553   002542                     l2512:
  5554                           
  5555                           ; BSR set to: 0
  5556                           ;C:\Program Files\Microchip\xc8\v2.40\pic\sources\c99\common\doprnt.c: 495:     if (s !=
      +                           0) {
  5557   002542  51E1               	movf	dtoa@s& (0+255),w,b
  5558   002544  B4D8               	btfsc	status,2,c
  5559   002546  EFA7  F012         	goto	u2911
  5560   00254A  EFA9  F012         	goto	u2910
  5561   00254E                     u2911:
  5562   00254E  EFB4  F012         	goto	l2518
  5563   002552                     u2910:
  5564   002552                     
  5565                           ; BSR set to: 0
  5566                           ;C:\Program Files\Microchip\xc8\v2.40\pic\sources\c99\common\doprnt.c: 496:         --i;
  5567   002552  07DF               	decf	dtoa@i& (0+255),f,b
  5568   002554  A0D8               	btfss	status,0,c
  5569   002556  07E0               	decf	(dtoa@i+1)& (0+255),f,b
  5570   002558                     
  5571                           ; BSR set to: 0
  5572                           ;C:\Program Files\Microchip\xc8\v2.40\pic\sources\c99\common\doprnt.c: 497:         dbuf
      +                          [i] = s;
  5573   002558  0E00               	movlw	low _dbuf
  5574   00255A  25DF               	addwf	dtoa@i& (0+255),w,b
  5575   00255C  6ED9               	movwf	fsr2l,c
  5576   00255E  0E02               	movlw	high _dbuf
  5577   002560  21E0               	addwfc	(dtoa@i+1)& (0+255),w,b
  5578   002562  6EDA               	movwf	fsr2h,c
  5579   002564  C0E1  FFDF         	movff	dtoa@s,indf2
  5580   002568                     l2518:
  5581                           
  5582                           ; BSR set to: 0
  5583                           ;C:\Program Files\Microchip\xc8\v2.40\pic\sources\c99\common\doprnt.c: 501:     return (
      +                          void) pad(fp, &dbuf[i], w);
  5584   002568  C039  F018         	movff	dtoa@fp,pad@fp
  5585   00256C  C03A  F019         	movff	dtoa@fp+1,pad@fp+1
  5586   002570  0E00               	movlw	low _dbuf
  5587   002572  25DF               	addwf	dtoa@i& (0+255),w,b
  5588   002574  6E1A               	movwf	pad@buf^0,c
  5589   002576  0E02               	movlw	high _dbuf
  5590   002578  21E0               	addwfc	(dtoa@i+1)& (0+255),w,b
  5591   00257A  6E1B               	movwf	(pad@buf+1)^0,c
  5592   00257C  C0D5  F01C         	movff	dtoa@w,pad@p
  5593   002580  C0D6  F01D         	movff	dtoa@w+1,pad@p+1
  5594   002584  EC53  F01A         	call	_pad	;wreg free
  5595   002588  0012               	return		;funcret
  5596   00258A                     __end_of_dtoa:
  5597                           	callstack 0
  5598                           
  5599 ;; *************** function _pad *****************
  5600 ;; Defined at:
  5601 ;;		line 133 in file "C:\Program Files\Microchip\xc8\v2.40\pic\sources\c99\common\doprnt.c"
  5602 ;; Parameters:    Size  Location     Type
  5603 ;;  fp              2   23[COMRAM] PTR struct _IO_FILE
  5604 ;;		 -> NULL(0), 
  5605 ;;  buf             2   25[COMRAM] PTR unsigned char 
  5606 ;;		 -> dbuf(32), 
  5607 ;;  p               2   27[COMRAM] int 
  5608 ;; Auto vars:     Size  Location     Type
  5609 ;;  w               2   32[COMRAM] int 
  5610 ;;  i               2   30[COMRAM] int 
  5611 ;; Return value:  Size  Location     Type
  5612 ;;                  1    wreg      void 
  5613 ;; Registers used:
  5614 ;;		wreg, fsr1l, fsr1h, fsr2l, fsr2h, status,2, status,0, cstack
  5615 ;; Tracked objects:
  5616 ;;		On entry : 0/0
  5617 ;;		On exit  : 0/0
  5618 ;;		Unchanged: 0/0
  5619 ;; Data sizes:     COMRAM   BANK0   BANK1   BANK2   BANK3   BANK4   BANK5   BANK6   BANK7
  5620 ;;      Params:         6       0       0       0       0       0       0       0       0
  5621 ;;      Locals:         4       0       0       0       0       0       0       0       0
  5622 ;;      Temps:          1       0       0       0       0       0       0       0       0
  5623 ;;      Totals:        11       0       0       0       0       0       0       0       0
  5624 ;;Total ram usage:       11 bytes
  5625 ;; Hardware stack levels used: 1
  5626 ;; Hardware stack levels required when called: 4
  5627 ;; This function calls:
  5628 ;;		_fputc
  5629 ;;		_fputs
  5630 ;; This function is called by:
  5631 ;;		_dtoa
  5632 ;; This function uses a non-reentrant model
  5633 ;;
  5634                           
  5635                           	psect	text17
  5636   0034A6                     __ptext17:
  5637                           	callstack 0
  5638   0034A6                     _pad:
  5639                           	callstack 21
  5640   0034A6                     
  5641                           ;C:\Program Files\Microchip\xc8\v2.40\pic\sources\c99\common\doprnt.c: 133: static void 
      +                          pad(FILE *fp, char *buf, int p);C:\Program Files\Microchip\xc8\v2.40\pic\sources\c99\com
      +                          mon\doprnt.c: 134: {;C:\Program Files\Microchip\xc8\v2.40\pic\sources\c99\common\doprnt.
      +                          c: 135:     int i, w;;C:\Program Files\Microchip\xc8\v2.40\pic\sources\c99\common\doprnt
      +                          .c: 145:     w = (p < 0) ? 0 : p;
  5642   0034A6  BE1D               	btfsc	(pad@p+1)^0,7,c
  5643   0034A8  EF58  F01A         	goto	u2791
  5644   0034AC  EF5A  F01A         	goto	u2790
  5645   0034B0                     u2791:
  5646   0034B0  EF60  F01A         	goto	l2456
  5647   0034B4                     u2790:
  5648   0034B4  C01C  F021         	movff	pad@p,pad@w
  5649   0034B8  C01D  F022         	movff	pad@p+1,pad@w+1
  5650   0034BC  EF64  F01A         	goto	l1115
  5651   0034C0                     l2456:
  5652   0034C0  0E00               	movlw	0
  5653   0034C2  6E22               	movwf	(pad@w+1)^0,c
  5654   0034C4  0E00               	movlw	0
  5655   0034C6  6E21               	movwf	pad@w^0,c
  5656   0034C8                     l1115:
  5657                           
  5658                           ;C:\Program Files\Microchip\xc8\v2.40\pic\sources\c99\common\doprnt.c: 146:     i = 0;
  5659   0034C8  0E00               	movlw	0
  5660   0034CA  6E20               	movwf	(pad@i+1)^0,c
  5661   0034CC  0E00               	movlw	0
  5662   0034CE  6E1F               	movwf	pad@i^0,c
  5663                           
  5664                           ;C:\Program Files\Microchip\xc8\v2.40\pic\sources\c99\common\doprnt.c: 147:     while (i
      +                           < w) {
  5665   0034D0  EF76  F01A         	goto	l2462
  5666   0034D4                     l2458:
  5667                           
  5668                           ;C:\Program Files\Microchip\xc8\v2.40\pic\sources\c99\common\doprnt.c: 148:         fput
      +                          c(' ', fp);
  5669   0034D4  0E00               	movlw	0
  5670   0034D6  6E09               	movwf	(fputc@c+1)^0,c
  5671   0034D8  0E20               	movlw	32
  5672   0034DA  6E08               	movwf	fputc@c^0,c
  5673   0034DC  C018  F00A         	movff	pad@fp,fputc@fp
  5674   0034E0  C019  F00B         	movff	pad@fp+1,fputc@fp+1
  5675   0034E4  EC81  F019         	call	_fputc	;wreg free
  5676   0034E8                     
  5677                           ;C:\Program Files\Microchip\xc8\v2.40\pic\sources\c99\common\doprnt.c: 149:         ++i;
  5678   0034E8  4A1F               	infsnz	pad@i^0,f,c
  5679   0034EA  2A20               	incf	(pad@i+1)^0,f,c
  5680   0034EC                     l2462:
  5681                           
  5682                           ;C:\Program Files\Microchip\xc8\v2.40\pic\sources\c99\common\doprnt.c: 147:     while (i
      +                           < w) {
  5683   0034EC  5021               	movf	pad@w^0,w,c
  5684   0034EE  5C1F               	subwf	pad@i^0,w,c
  5685   0034F0  5020               	movf	(pad@i+1)^0,w,c
  5686   0034F2  0A80               	xorlw	128
  5687   0034F4  6E1E               	movwf	??_pad^0,c
  5688   0034F6  5022               	movf	(pad@w+1)^0,w,c
  5689   0034F8  0A80               	xorlw	128
  5690   0034FA  581E               	subwfb	??_pad^0,w,c
  5691   0034FC  A0D8               	btfss	status,0,c
  5692   0034FE  EF83  F01A         	goto	u2801
  5693   003502  EF85  F01A         	goto	u2800
  5694   003506                     u2801:
  5695   003506  EF6A  F01A         	goto	l2458
  5696   00350A                     u2800:
  5697   00350A                     
  5698                           ;C:\Program Files\Microchip\xc8\v2.40\pic\sources\c99\common\doprnt.c: 156:         fput
      +                          s((const char *)buf, fp);
  5699   00350A  C01A  F011         	movff	pad@buf,fputs@s
  5700   00350E  C01B  F012         	movff	pad@buf+1,fputs@s+1
  5701   003512  C018  F013         	movff	pad@fp,fputs@fp
  5702   003516  C019  F014         	movff	pad@fp+1,fputs@fp+1
  5703   00351A  EC49  F01B         	call	_fputs	;wreg free
  5704   00351E  0012               	return		;funcret
  5705   003520                     __end_of_pad:
  5706                           	callstack 0
  5707                           
  5708 ;; *************** function _fputs *****************
  5709 ;; Defined at:
  5710 ;;		line 8 in file "C:\Program Files\Microchip\xc8\v2.40\pic\sources\c99\common\nf_fputs.c"
  5711 ;; Parameters:    Size  Location     Type
  5712 ;;  s               2   16[COMRAM] PTR const unsigned char 
  5713 ;;		 -> dbuf(32), 
  5714 ;;  fp              2   18[COMRAM] PTR struct _IO_FILE
  5715 ;;		 -> NULL(0), 
  5716 ;; Auto vars:     Size  Location     Type
  5717 ;;  i               2   21[COMRAM] int 
  5718 ;;  c               1   20[COMRAM] unsigned char 
  5719 ;; Return value:  Size  Location     Type
  5720 ;;                  2   16[COMRAM] int 
  5721 ;; Registers used:
  5722 ;;		wreg, fsr1l, fsr1h, fsr2l, fsr2h, status,2, status,0, cstack
  5723 ;; Tracked objects:
  5724 ;;		On entry : 0/0
  5725 ;;		On exit  : 0/0
  5726 ;;		Unchanged: 0/0
  5727 ;; Data sizes:     COMRAM   BANK0   BANK1   BANK2   BANK3   BANK4   BANK5   BANK6   BANK7
  5728 ;;      Params:         4       0       0       0       0       0       0       0       0
  5729 ;;      Locals:         3       0       0       0       0       0       0       0       0
  5730 ;;      Temps:          0       0       0       0       0       0       0       0       0
  5731 ;;      Totals:         7       0       0       0       0       0       0       0       0
  5732 ;;Total ram usage:        7 bytes
  5733 ;; Hardware stack levels used: 1
  5734 ;; Hardware stack levels required when called: 3
  5735 ;; This function calls:
  5736 ;;		_fputc
  5737 ;; This function is called by:
  5738 ;;		_pad
  5739 ;; This function uses a non-reentrant model
  5740 ;;
  5741                           
  5742                           	psect	text18
  5743   003692                     __ptext18:
  5744                           	callstack 0
  5745   003692                     _fputs:
  5746                           	callstack 21
  5747   003692  0E00               	movlw	0
  5748   003694  6E17               	movwf	(fputs@i+1)^0,c
  5749   003696  0E00               	movlw	0
  5750   003698  6E16               	movwf	fputs@i^0,c
  5751   00369A  EF5A  F01B         	goto	l2370
  5752   00369E                     l2366:
  5753   00369E  C015  F008         	movff	fputs@c,fputc@c
  5754   0036A2  6A09               	clrf	(fputc@c+1)^0,c
  5755   0036A4  C013  F00A         	movff	fputs@fp,fputc@fp
  5756   0036A8  C014  F00B         	movff	fputs@fp+1,fputc@fp+1
  5757   0036AC  EC81  F019         	call	_fputc	;wreg free
  5758   0036B0  4A16               	infsnz	fputs@i^0,f,c
  5759   0036B2  2A17               	incf	(fputs@i+1)^0,f,c
  5760   0036B4                     l2370:
  5761   0036B4  5016               	movf	fputs@i^0,w,c
  5762   0036B6  2411               	addwf	fputs@s^0,w,c
  5763   0036B8  6ED9               	movwf	fsr2l,c
  5764   0036BA  5017               	movf	(fputs@i+1)^0,w,c
  5765   0036BC  2012               	addwfc	(fputs@s+1)^0,w,c
  5766   0036BE  6EDA               	movwf	fsr2h,c
  5767   0036C0  50DF               	movf	indf2,w,c
  5768   0036C2  6E15               	movwf	fputs@c^0,c
  5769   0036C4  5015               	movf	fputs@c^0,w,c
  5770   0036C6  A4D8               	btfss	status,2,c
  5771   0036C8  EF68  F01B         	goto	u2651
  5772   0036CC  EF6A  F01B         	goto	u2650
  5773   0036D0                     u2651:
  5774   0036D0  EF4F  F01B         	goto	l2366
  5775   0036D4                     u2650:
  5776   0036D4  0012               	return		;funcret
  5777   0036D6                     __end_of_fputs:
  5778                           	callstack 0
  5779                           
  5780 ;; *************** function _fputc *****************
  5781 ;; Defined at:
  5782 ;;		line 8 in file "C:\Program Files\Microchip\xc8\v2.40\pic\sources\c99\common\nf_fputc.c"
  5783 ;; Parameters:    Size  Location     Type
  5784 ;;  c               2    7[COMRAM] int 
  5785 ;;  fp              2    9[COMRAM] PTR struct _IO_FILE
  5786 ;;		 -> NULL(0), 
  5787 ;; Auto vars:     Size  Location     Type
  5788 ;;		None
  5789 ;; Return value:  Size  Location     Type
  5790 ;;                  2    7[COMRAM] int 
  5791 ;; Registers used:
  5792 ;;		wreg, fsr1l, fsr1h, fsr2l, fsr2h, status,2, status,0, cstack
  5793 ;; Tracked objects:
  5794 ;;		On entry : 0/0
  5795 ;;		On exit  : 0/0
  5796 ;;		Unchanged: 0/0
  5797 ;; Data sizes:     COMRAM   BANK0   BANK1   BANK2   BANK3   BANK4   BANK5   BANK6   BANK7
  5798 ;;      Params:         4       0       0       0       0       0       0       0       0
  5799 ;;      Locals:         0       0       0       0       0       0       0       0       0
  5800 ;;      Temps:          5       0       0       0       0       0       0       0       0
  5801 ;;      Totals:         9       0       0       0       0       0       0       0       0
  5802 ;;Total ram usage:        9 bytes
  5803 ;; Hardware stack levels used: 1
  5804 ;; Hardware stack levels required when called: 2
  5805 ;; This function calls:
  5806 ;;		_putch
  5807 ;; This function is called by:
  5808 ;;		_pad
  5809 ;;		_vfpfcnvrt
  5810 ;;		_fputs
  5811 ;; This function uses a non-reentrant model
  5812 ;;
  5813                           
  5814                           	psect	text19
  5815   003302                     __ptext19:
  5816                           	callstack 0
  5817   003302                     _fputc:
  5818                           	callstack 24
  5819   003302  500A               	movf	fputc@fp^0,w,c
  5820   003304  100B               	iorwf	(fputc@fp+1)^0,w,c
  5821   003306  B4D8               	btfsc	status,2,c
  5822   003308  EF88  F019         	goto	u2611
  5823   00330C  EF8A  F019         	goto	u2610
  5824   003310                     u2611:
  5825   003310  EF93  F019         	goto	l2354
  5826   003314                     u2610:
  5827   003314  500A               	movf	fputc@fp^0,w,c
  5828   003316  100B               	iorwf	(fputc@fp+1)^0,w,c
  5829   003318  A4D8               	btfss	status,2,c
  5830   00331A  EF91  F019         	goto	u2621
  5831   00331E  EF93  F019         	goto	u2620
  5832   003322                     u2621:
  5833   003322  EF98  F019         	goto	l2356
  5834   003326                     u2620:
  5835   003326                     l2354:
  5836   003326  5008               	movf	fputc@c^0,w,c
  5837   003328  ECF9  F01B         	call	_putch
  5838   00332C  EFCB  F019         	goto	l1170
  5839   003330                     l2356:
  5840   003330  EE20 F009          	lfsr	2,9
  5841   003334  500A               	movf	fputc@fp^0,w,c
  5842   003336  26D9               	addwf	fsr2l,f,c
  5843   003338  500B               	movf	(fputc@fp+1)^0,w,c
  5844   00333A  22DA               	addwfc	fsr2h,f,c
  5845   00333C  50DE               	movf	postinc2,w,c
  5846   00333E  10DE               	iorwf	postinc2,w,c
  5847   003340  B4D8               	btfsc	status,2,c
  5848   003342  EFA5  F019         	goto	u2631
  5849   003346  EFA7  F019         	goto	u2630
  5850   00334A                     u2631:
  5851   00334A  EFC2  F019         	goto	l2360
  5852   00334E                     u2630:
  5853   00334E  EE20 F009          	lfsr	2,9
  5854   003352  500A               	movf	fputc@fp^0,w,c
  5855   003354  26D9               	addwf	fsr2l,f,c
  5856   003356  500B               	movf	(fputc@fp+1)^0,w,c
  5857   003358  22DA               	addwfc	fsr2h,f,c
  5858   00335A  EE10 F003          	lfsr	1,3
  5859   00335E  500A               	movf	fputc@fp^0,w,c
  5860   003360  26E1               	addwf	fsr1l,f,c
  5861   003362  500B               	movf	(fputc@fp+1)^0,w,c
  5862   003364  22E2               	addwfc	fsr1h,f,c
  5863   003366  50DE               	movf	postinc2,w,c
  5864   003368  5CE6               	subwf	postinc1,w,c
  5865   00336A  50E6               	movf	postinc1,w,c
  5866   00336C  0A80               	xorlw	128
  5867   00336E  6E10               	movwf	(??_fputc+4)^0,c
  5868   003370  50DE               	movf	postinc2,w,c
  5869   003372  0A80               	xorlw	128
  5870   003374  5810               	subwfb	(??_fputc+4)^0,w,c
  5871   003376  B0D8               	btfsc	status,0,c
  5872   003378  EFC0  F019         	goto	u2641
  5873   00337C  EFC2  F019         	goto	u2640
  5874   003380                     u2641:
  5875   003380  EFCB  F019         	goto	l1170
  5876   003384                     u2640:
  5877   003384                     l2360:
  5878   003384  EE20 F003          	lfsr	2,3
  5879   003388  500A               	movf	fputc@fp^0,w,c
  5880   00338A  26D9               	addwf	fsr2l,f,c
  5881   00338C  500B               	movf	(fputc@fp+1)^0,w,c
  5882   00338E  22DA               	addwfc	fsr2h,f,c
  5883   003390  2ADE               	incf	postinc2,f,c
  5884   003392  0E00               	movlw	0
  5885   003394  22DD               	addwfc	postdec2,f,c
  5886   003396                     l1170:
  5887   003396  0012               	return		;funcret
  5888   003398                     __end_of_fputc:
  5889                           	callstack 0
  5890                           
  5891 ;; *************** function _putch *****************
  5892 ;; Defined at:
  5893 ;;		line 293 in file "main.c"
  5894 ;; Parameters:    Size  Location     Type
  5895 ;;  data            1    wreg     unsigned char 
  5896 ;; Auto vars:     Size  Location     Type
  5897 ;;  data            1    6[COMRAM] unsigned char 
  5898 ;; Return value:  Size  Location     Type
  5899 ;;                  1    wreg      void 
  5900 ;; Registers used:
  5901 ;;		wreg
  5902 ;; Tracked objects:
  5903 ;;		On entry : 0/0
  5904 ;;		On exit  : 0/0
  5905 ;;		Unchanged: 0/0
  5906 ;; Data sizes:     COMRAM   BANK0   BANK1   BANK2   BANK3   BANK4   BANK5   BANK6   BANK7
  5907 ;;      Params:         0       0       0       0       0       0       0       0       0
  5908 ;;      Locals:         1       0       0       0       0       0       0       0       0
  5909 ;;      Temps:          0       0       0       0       0       0       0       0       0
  5910 ;;      Totals:         1       0       0       0       0       0       0       0       0
  5911 ;;Total ram usage:        1 bytes
  5912 ;; Hardware stack levels used: 1
  5913 ;; Hardware stack levels required when called: 1
  5914 ;; This function calls:
  5915 ;;		Nothing
  5916 ;; This function is called by:
  5917 ;;		_fputc
  5918 ;; This function uses a non-reentrant model
  5919 ;;
  5920                           
  5921                           	psect	text20
  5922   0037F2                     __ptext20:
  5923                           	callstack 0
  5924   0037F2                     _putch:
  5925                           	callstack 24
  5926                           
  5927                           ;incstack = 0
  5928                           ;putch@data stored from wreg
  5929   0037F2  6E07               	movwf	putch@data^0,c
  5930   0037F4                     l140:
  5931                           
  5932                           ;main.c: 294:     while( ! TXIF)
  5933   0037F4  A89E               	btfss	3998,4,c	;volatile
  5934   0037F6  EFFF  F01B         	goto	u2601
  5935   0037FA  EF01  F01C         	goto	u2600
  5936   0037FE                     u2601:
  5937   0037FE  EFFA  F01B         	goto	l140
  5938   003802                     u2600:
  5939   003802                     
  5940                           ;main.c: 296:     TXREG = data;
  5941   003802  C007  FFAD         	movff	putch@data,4013	;volatile
  5942   003806  0012               	return		;funcret
  5943   003808                     __end_of_putch:
  5944                           	callstack 0
  5945                           
  5946 ;; *************** function _abs *****************
  5947 ;; Defined at:
  5948 ;;		line 1 in file "C:\Program Files\Microchip\xc8\v2.40\pic\sources\c99\common\abs.c"
  5949 ;; Parameters:    Size  Location     Type
  5950 ;;  a               2   24[COMRAM] int 
  5951 ;; Auto vars:     Size  Location     Type
  5952 ;;		None
  5953 ;; Return value:  Size  Location     Type
  5954 ;;                  2   24[COMRAM] int 
  5955 ;; Registers used:
  5956 ;;		wreg, status,2, status,0
  5957 ;; Tracked objects:
  5958 ;;		On entry : 0/0
  5959 ;;		On exit  : 0/0
  5960 ;;		Unchanged: 0/0
  5961 ;; Data sizes:     COMRAM   BANK0   BANK1   BANK2   BANK3   BANK4   BANK5   BANK6   BANK7
  5962 ;;      Params:         2       0       0       0       0       0       0       0       0
  5963 ;;      Locals:         0       0       0       0       0       0       0       0       0
  5964 ;;      Temps:          2       0       0       0       0       0       0       0       0
  5965 ;;      Totals:         4       0       0       0       0       0       0       0       0
  5966 ;;Total ram usage:        4 bytes
  5967 ;; Hardware stack levels used: 1
  5968 ;; Hardware stack levels required when called: 1
  5969 ;; This function calls:
  5970 ;;		Nothing
  5971 ;; This function is called by:
  5972 ;;		_dtoa
  5973 ;; This function uses a non-reentrant model
  5974 ;;
  5975                           
  5976                           	psect	text21
  5977   0036D6                     __ptext21:
  5978                           	callstack 0
  5979   0036D6                     _abs:
  5980                           	callstack 24
  5981   0036D6  BE1A               	btfsc	(abs@a+1)^0,7,c
  5982   0036D8  EF78  F01B         	goto	u2810
  5983   0036DC  501A               	movf	(abs@a+1)^0,w,c
  5984   0036DE  E106               	bnz	u2811
  5985   0036E0  0419               	decf	abs@a^0,w,c
  5986   0036E2  B0D8               	btfsc	status,0,c
  5987   0036E4  EF76  F01B         	goto	u2811
  5988   0036E8  EF78  F01B         	goto	u2810
  5989   0036EC                     u2811:
  5990   0036EC  EF86  F01B         	goto	l1155
  5991   0036F0                     u2810:
  5992   0036F0  C019  F01B         	movff	abs@a,??_abs
  5993   0036F4  C01A  F01C         	movff	abs@a+1,??_abs+1
  5994   0036F8  1E1B               	comf	??_abs^0,f,c
  5995   0036FA  1E1C               	comf	(??_abs+1)^0,f,c
  5996   0036FC  4A1B               	infsnz	??_abs^0,f,c
  5997   0036FE  2A1C               	incf	(??_abs+1)^0,f,c
  5998   003700  C01B  F019         	movff	??_abs,?_abs
  5999   003704  C01C  F01A         	movff	??_abs+1,?_abs+1
  6000   003708  EF8A  F01B         	goto	l1158
  6001   00370C                     l1155:
  6002   00370C  C019  F019         	movff	abs@a,?_abs
  6003   003710  C01A  F01A         	movff	abs@a+1,?_abs+1
  6004   003714                     l1158:
  6005   003714  0012               	return		;funcret
  6006   003716                     __end_of_abs:
  6007                           	callstack 0
  6008                           
  6009 ;; *************** function ___aomod *****************
  6010 ;; Defined at:
  6011 ;;		line 9 in file "C:\Program Files\Microchip\xc8\v2.40\pic\sources\c99\common\aomod.c"
  6012 ;; Parameters:    Size  Location     Type
  6013 ;;  dividend        8    6[COMRAM] long long 
  6014 ;;  divisor         8   14[COMRAM] long long 
  6015 ;; Auto vars:     Size  Location     Type
  6016 ;;  sign            1   23[COMRAM] unsigned char 
  6017 ;;  counter         1   22[COMRAM] unsigned char 
  6018 ;; Return value:  Size  Location     Type
  6019 ;;                  8    6[COMRAM] long long 
  6020 ;; Registers used:
  6021 ;;		wreg, status,2, status,0
  6022 ;; Tracked objects:
  6023 ;;		On entry : 0/0
  6024 ;;		On exit  : 0/0
  6025 ;;		Unchanged: 0/0
  6026 ;; Data sizes:     COMRAM   BANK0   BANK1   BANK2   BANK3   BANK4   BANK5   BANK6   BANK7
  6027 ;;      Params:        16       0       0       0       0       0       0       0       0
  6028 ;;      Locals:         2       0       0       0       0       0       0       0       0
  6029 ;;      Temps:          0       0       0       0       0       0       0       0       0
  6030 ;;      Totals:        18       0       0       0       0       0       0       0       0
  6031 ;;Total ram usage:       18 bytes
  6032 ;; Hardware stack levels used: 1
  6033 ;; Hardware stack levels required when called: 1
  6034 ;; This function calls:
  6035 ;;		Nothing
  6036 ;; This function is called by:
  6037 ;;		_dtoa
  6038 ;; This function uses a non-reentrant model
  6039 ;;
  6040                           
  6041                           	psect	text22
  6042   002ABE                     __ptext22:
  6043                           	callstack 0
  6044   002ABE                     ___aomod:
  6045                           	callstack 24
  6046   002ABE  0E00               	movlw	0
  6047   002AC0  6E18               	movwf	___aomod@sign^0,c
  6048   002AC2  BE0E               	btfsc	(___aomod@dividend+7)^0,7,c
  6049   002AC4  EF68  F015         	goto	u2730
  6050   002AC8  EF66  F015         	goto	u2731
  6051   002ACC                     u2731:
  6052   002ACC  EF7A  F015         	goto	l2424
  6053   002AD0                     u2730:
  6054   002AD0  1E0E               	comf	(___aomod@dividend+7)^0,f,c
  6055   002AD2  1E0D               	comf	(___aomod@dividend+6)^0,f,c
  6056   002AD4  1E0C               	comf	(___aomod@dividend+5)^0,f,c
  6057   002AD6  1E0B               	comf	(___aomod@dividend+4)^0,f,c
  6058   002AD8  1E0A               	comf	(___aomod@dividend+3)^0,f,c
  6059   002ADA  1E09               	comf	(___aomod@dividend+2)^0,f,c
  6060   002ADC  1E08               	comf	(___aomod@dividend+1)^0,f,c
  6061   002ADE  6C07               	negf	___aomod@dividend^0,c
  6062   002AE0  0E00               	movlw	0
  6063   002AE2  2208               	addwfc	(___aomod@dividend+1)^0,f,c
  6064   002AE4  2209               	addwfc	(___aomod@dividend+2)^0,f,c
  6065   002AE6  220A               	addwfc	(___aomod@dividend+3)^0,f,c
  6066   002AE8  220B               	addwfc	(___aomod@dividend+4)^0,f,c
  6067   002AEA  220C               	addwfc	(___aomod@dividend+5)^0,f,c
  6068   002AEC  220D               	addwfc	(___aomod@dividend+6)^0,f,c
  6069   002AEE  220E               	addwfc	(___aomod@dividend+7)^0,f,c
  6070   002AF0  0E01               	movlw	1
  6071   002AF2  6E18               	movwf	___aomod@sign^0,c
  6072   002AF4                     l2424:
  6073   002AF4  BE16               	btfsc	(___aomod@divisor+7)^0,7,c
  6074   002AF6  EF81  F015         	goto	u2740
  6075   002AFA  EF7F  F015         	goto	u2741
  6076   002AFE                     u2741:
  6077   002AFE  EF91  F015         	goto	l2428
  6078   002B02                     u2740:
  6079   002B02  1E16               	comf	(___aomod@divisor+7)^0,f,c
  6080   002B04  1E15               	comf	(___aomod@divisor+6)^0,f,c
  6081   002B06  1E14               	comf	(___aomod@divisor+5)^0,f,c
  6082   002B08  1E13               	comf	(___aomod@divisor+4)^0,f,c
  6083   002B0A  1E12               	comf	(___aomod@divisor+3)^0,f,c
  6084   002B0C  1E11               	comf	(___aomod@divisor+2)^0,f,c
  6085   002B0E  1E10               	comf	(___aomod@divisor+1)^0,f,c
  6086   002B10  6C0F               	negf	___aomod@divisor^0,c
  6087   002B12  0E00               	movlw	0
  6088   002B14  2210               	addwfc	(___aomod@divisor+1)^0,f,c
  6089   002B16  2211               	addwfc	(___aomod@divisor+2)^0,f,c
  6090   002B18  2212               	addwfc	(___aomod@divisor+3)^0,f,c
  6091   002B1A  2213               	addwfc	(___aomod@divisor+4)^0,f,c
  6092   002B1C  2214               	addwfc	(___aomod@divisor+5)^0,f,c
  6093   002B1E  2215               	addwfc	(___aomod@divisor+6)^0,f,c
  6094   002B20  2216               	addwfc	(___aomod@divisor+7)^0,f,c
  6095   002B22                     l2428:
  6096   002B22  500F               	movf	___aomod@divisor^0,w,c
  6097   002B24  1010               	iorwf	(___aomod@divisor+1)^0,w,c
  6098   002B26  1011               	iorwf	(___aomod@divisor+2)^0,w,c
  6099   002B28  1012               	iorwf	(___aomod@divisor+3)^0,w,c
  6100   002B2A  1013               	iorwf	(___aomod@divisor+4)^0,w,c
  6101   002B2C  1014               	iorwf	(___aomod@divisor+5)^0,w,c
  6102   002B2E  1015               	iorwf	(___aomod@divisor+6)^0,w,c
  6103   002B30  1016               	iorwf	(___aomod@divisor+7)^0,w,c
  6104   002B32  B4D8               	btfsc	status,2,c
  6105   002B34  EF9E  F015         	goto	u2751
  6106   002B38  EFA0  F015         	goto	u2750
  6107   002B3C                     u2751:
  6108   002B3C  EFE8  F015         	goto	l2444
  6109   002B40                     u2750:
  6110   002B40  0E01               	movlw	1
  6111   002B42  6E17               	movwf	___aomod@counter^0,c
  6112   002B44  EFAE  F015         	goto	l2434
  6113   002B48                     l2432:
  6114   002B48  90D8               	bcf	status,0,c
  6115   002B4A  360F               	rlcf	___aomod@divisor^0,f,c
  6116   002B4C  3610               	rlcf	(___aomod@divisor+1)^0,f,c
  6117   002B4E  3611               	rlcf	(___aomod@divisor+2)^0,f,c
  6118   002B50  3612               	rlcf	(___aomod@divisor+3)^0,f,c
  6119   002B52  3613               	rlcf	(___aomod@divisor+4)^0,f,c
  6120   002B54  3614               	rlcf	(___aomod@divisor+5)^0,f,c
  6121   002B56  3615               	rlcf	(___aomod@divisor+6)^0,f,c
  6122   002B58  3616               	rlcf	(___aomod@divisor+7)^0,f,c
  6123   002B5A  2A17               	incf	___aomod@counter^0,f,c
  6124   002B5C                     l2434:
  6125   002B5C  AE16               	btfss	(___aomod@divisor+7)^0,7,c
  6126   002B5E  EFB3  F015         	goto	u2761
  6127   002B62  EFB5  F015         	goto	u2760
  6128   002B66                     u2761:
  6129   002B66  EFA4  F015         	goto	l2432
  6130   002B6A                     u2760:
  6131   002B6A                     l2436:
  6132   002B6A  500F               	movf	___aomod@divisor^0,w,c
  6133   002B6C  5C07               	subwf	___aomod@dividend^0,w,c
  6134   002B6E  5010               	movf	(___aomod@divisor+1)^0,w,c
  6135   002B70  5808               	subwfb	(___aomod@dividend+1)^0,w,c
  6136   002B72  5011               	movf	(___aomod@divisor+2)^0,w,c
  6137   002B74  5809               	subwfb	(___aomod@dividend+2)^0,w,c
  6138   002B76  5012               	movf	(___aomod@divisor+3)^0,w,c
  6139   002B78  580A               	subwfb	(___aomod@dividend+3)^0,w,c
  6140   002B7A  5013               	movf	(___aomod@divisor+4)^0,w,c
  6141   002B7C  580B               	subwfb	(___aomod@dividend+4)^0,w,c
  6142   002B7E  5014               	movf	(___aomod@divisor+5)^0,w,c
  6143   002B80  580C               	subwfb	(___aomod@dividend+5)^0,w,c
  6144   002B82  5015               	movf	(___aomod@divisor+6)^0,w,c
  6145   002B84  580D               	subwfb	(___aomod@dividend+6)^0,w,c
  6146   002B86  5016               	movf	(___aomod@divisor+7)^0,w,c
  6147   002B88  580E               	subwfb	(___aomod@dividend+7)^0,w,c
  6148   002B8A  A0D8               	btfss	status,0,c
  6149   002B8C  EFCA  F015         	goto	u2771
  6150   002B90  EFCC  F015         	goto	u2770
  6151   002B94                     u2771:
  6152   002B94  EFDC  F015         	goto	l2440
  6153   002B98                     u2770:
  6154   002B98  500F               	movf	___aomod@divisor^0,w,c
  6155   002B9A  5E07               	subwf	___aomod@dividend^0,f,c
  6156   002B9C  5010               	movf	(___aomod@divisor+1)^0,w,c
  6157   002B9E  5A08               	subwfb	(___aomod@dividend+1)^0,f,c
  6158   002BA0  5011               	movf	(___aomod@divisor+2)^0,w,c
  6159   002BA2  5A09               	subwfb	(___aomod@dividend+2)^0,f,c
  6160   002BA4  5012               	movf	(___aomod@divisor+3)^0,w,c
  6161   002BA6  5A0A               	subwfb	(___aomod@dividend+3)^0,f,c
  6162   002BA8  5013               	movf	(___aomod@divisor+4)^0,w,c
  6163   002BAA  5A0B               	subwfb	(___aomod@dividend+4)^0,f,c
  6164   002BAC  5014               	movf	(___aomod@divisor+5)^0,w,c
  6165   002BAE  5A0C               	subwfb	(___aomod@dividend+5)^0,f,c
  6166   002BB0  5015               	movf	(___aomod@divisor+6)^0,w,c
  6167   002BB2  5A0D               	subwfb	(___aomod@dividend+6)^0,f,c
  6168   002BB4  5016               	movf	(___aomod@divisor+7)^0,w,c
  6169   002BB6  5A0E               	subwfb	(___aomod@dividend+7)^0,f,c
  6170   002BB8                     l2440:
  6171   002BB8  90D8               	bcf	status,0,c
  6172   002BBA  3216               	rrcf	(___aomod@divisor+7)^0,f,c
  6173   002BBC  3215               	rrcf	(___aomod@divisor+6)^0,f,c
  6174   002BBE  3214               	rrcf	(___aomod@divisor+5)^0,f,c
  6175   002BC0  3213               	rrcf	(___aomod@divisor+4)^0,f,c
  6176   002BC2  3212               	rrcf	(___aomod@divisor+3)^0,f,c
  6177   002BC4  3211               	rrcf	(___aomod@divisor+2)^0,f,c
  6178   002BC6  3210               	rrcf	(___aomod@divisor+1)^0,f,c
  6179   002BC8  320F               	rrcf	___aomod@divisor^0,f,c
  6180   002BCA  2E17               	decfsz	___aomod@counter^0,f,c
  6181   002BCC  EFB5  F015         	goto	l2436
  6182   002BD0                     l2444:
  6183   002BD0  5018               	movf	___aomod@sign^0,w,c
  6184   002BD2  B4D8               	btfsc	status,2,c
  6185   002BD4  EFEE  F015         	goto	u2781
  6186   002BD8  EFF0  F015         	goto	u2780
  6187   002BDC                     u2781:
  6188   002BDC  EF00  F016         	goto	l2448
  6189   002BE0                     u2780:
  6190   002BE0  1E0E               	comf	(___aomod@dividend+7)^0,f,c
  6191   002BE2  1E0D               	comf	(___aomod@dividend+6)^0,f,c
  6192   002BE4  1E0C               	comf	(___aomod@dividend+5)^0,f,c
  6193   002BE6  1E0B               	comf	(___aomod@dividend+4)^0,f,c
  6194   002BE8  1E0A               	comf	(___aomod@dividend+3)^0,f,c
  6195   002BEA  1E09               	comf	(___aomod@dividend+2)^0,f,c
  6196   002BEC  1E08               	comf	(___aomod@dividend+1)^0,f,c
  6197   002BEE  6C07               	negf	___aomod@dividend^0,c
  6198   002BF0  0E00               	movlw	0
  6199   002BF2  2208               	addwfc	(___aomod@dividend+1)^0,f,c
  6200   002BF4  2209               	addwfc	(___aomod@dividend+2)^0,f,c
  6201   002BF6  220A               	addwfc	(___aomod@dividend+3)^0,f,c
  6202   002BF8  220B               	addwfc	(___aomod@dividend+4)^0,f,c
  6203   002BFA  220C               	addwfc	(___aomod@dividend+5)^0,f,c
  6204   002BFC  220D               	addwfc	(___aomod@dividend+6)^0,f,c
  6205   002BFE  220E               	addwfc	(___aomod@dividend+7)^0,f,c
  6206   002C00                     l2448:
  6207   002C00  C007  F007         	movff	___aomod@dividend,?___aomod
  6208   002C04  C008  F008         	movff	___aomod@dividend+1,?___aomod+1
  6209   002C08  C009  F009         	movff	___aomod@dividend+2,?___aomod+2
  6210   002C0C  C00A  F00A         	movff	___aomod@dividend+3,?___aomod+3
  6211   002C10  C00B  F00B         	movff	___aomod@dividend+4,?___aomod+4
  6212   002C14  C00C  F00C         	movff	___aomod@dividend+5,?___aomod+5
  6213   002C18  C00D  F00D         	movff	___aomod@dividend+6,?___aomod+6
  6214   002C1C  C00E  F00E         	movff	___aomod@dividend+7,?___aomod+7
  6215   002C20  0012               	return		;funcret
  6216   002C22                     __end_of___aomod:
  6217                           	callstack 0
  6218                           
  6219 ;; *************** function ___aodiv *****************
  6220 ;; Defined at:
  6221 ;;		line 9 in file "C:\Program Files\Microchip\xc8\v2.40\pic\sources\c99\common\aodiv.c"
  6222 ;; Parameters:    Size  Location     Type
  6223 ;;  dividend        8   30[COMRAM] long long 
  6224 ;;  divisor         8   38[COMRAM] long long 
  6225 ;; Auto vars:     Size  Location     Type
  6226 ;;  quotient        8   48[COMRAM] long long 
  6227 ;;  sign            1   47[COMRAM] unsigned char 
  6228 ;;  counter         1   46[COMRAM] unsigned char 
  6229 ;; Return value:  Size  Location     Type
  6230 ;;                  8   30[COMRAM] long long 
  6231 ;; Registers used:
  6232 ;;		wreg, fsr2l, fsr2h, status,2, status,0
  6233 ;; Tracked objects:
  6234 ;;		On entry : 0/0
  6235 ;;		On exit  : 0/0
  6236 ;;		Unchanged: 0/0
  6237 ;; Data sizes:     COMRAM   BANK0   BANK1   BANK2   BANK3   BANK4   BANK5   BANK6   BANK7
  6238 ;;      Params:        16       0       0       0       0       0       0       0       0
  6239 ;;      Locals:        10       0       0       0       0       0       0       0       0
  6240 ;;      Temps:          0       0       0       0       0       0       0       0       0
  6241 ;;      Totals:        26       0       0       0       0       0       0       0       0
  6242 ;;Total ram usage:       26 bytes
  6243 ;; Hardware stack levels used: 1
  6244 ;; Hardware stack levels required when called: 1
  6245 ;; This function calls:
  6246 ;;		Nothing
  6247 ;; This function is called by:
  6248 ;;		_read_analog
  6249 ;;		_loop
  6250 ;;		_dtoa
  6251 ;; This function uses a non-reentrant model
  6252 ;;
  6253                           
  6254                           	psect	text23
  6255   002936                     __ptext23:
  6256                           	callstack 0
  6257   002936                     ___aodiv:
  6258                           	callstack 28
  6259   002936  0E00               	movlw	0
  6260   002938  6E30               	movwf	___aodiv@sign^0,c
  6261   00293A  BE2E               	btfsc	(___aodiv@divisor+7)^0,7,c
  6262   00293C  EFA4  F014         	goto	u2660
  6263   002940  EFA2  F014         	goto	u2661
  6264   002944                     u2661:
  6265   002944  EFB6  F014         	goto	l2380
  6266   002948                     u2660:
  6267   002948  1E2E               	comf	(___aodiv@divisor+7)^0,f,c
  6268   00294A  1E2D               	comf	(___aodiv@divisor+6)^0,f,c
  6269   00294C  1E2C               	comf	(___aodiv@divisor+5)^0,f,c
  6270   00294E  1E2B               	comf	(___aodiv@divisor+4)^0,f,c
  6271   002950  1E2A               	comf	(___aodiv@divisor+3)^0,f,c
  6272   002952  1E29               	comf	(___aodiv@divisor+2)^0,f,c
  6273   002954  1E28               	comf	(___aodiv@divisor+1)^0,f,c
  6274   002956  6C27               	negf	___aodiv@divisor^0,c
  6275   002958  0E00               	movlw	0
  6276   00295A  2228               	addwfc	(___aodiv@divisor+1)^0,f,c
  6277   00295C  2229               	addwfc	(___aodiv@divisor+2)^0,f,c
  6278   00295E  222A               	addwfc	(___aodiv@divisor+3)^0,f,c
  6279   002960  222B               	addwfc	(___aodiv@divisor+4)^0,f,c
  6280   002962  222C               	addwfc	(___aodiv@divisor+5)^0,f,c
  6281   002964  222D               	addwfc	(___aodiv@divisor+6)^0,f,c
  6282   002966  222E               	addwfc	(___aodiv@divisor+7)^0,f,c
  6283   002968  0E01               	movlw	1
  6284   00296A  6E30               	movwf	___aodiv@sign^0,c
  6285   00296C                     l2380:
  6286   00296C  BE26               	btfsc	(___aodiv@dividend+7)^0,7,c
  6287   00296E  EFBD  F014         	goto	u2670
  6288   002972  EFBB  F014         	goto	u2671
  6289   002976                     u2671:
  6290   002976  EFCF  F014         	goto	l2386
  6291   00297A                     u2670:
  6292   00297A  1E26               	comf	(___aodiv@dividend+7)^0,f,c
  6293   00297C  1E25               	comf	(___aodiv@dividend+6)^0,f,c
  6294   00297E  1E24               	comf	(___aodiv@dividend+5)^0,f,c
  6295   002980  1E23               	comf	(___aodiv@dividend+4)^0,f,c
  6296   002982  1E22               	comf	(___aodiv@dividend+3)^0,f,c
  6297   002984  1E21               	comf	(___aodiv@dividend+2)^0,f,c
  6298   002986  1E20               	comf	(___aodiv@dividend+1)^0,f,c
  6299   002988  6C1F               	negf	___aodiv@dividend^0,c
  6300   00298A  0E00               	movlw	0
  6301   00298C  2220               	addwfc	(___aodiv@dividend+1)^0,f,c
  6302   00298E  2221               	addwfc	(___aodiv@dividend+2)^0,f,c
  6303   002990  2222               	addwfc	(___aodiv@dividend+3)^0,f,c
  6304   002992  2223               	addwfc	(___aodiv@dividend+4)^0,f,c
  6305   002994  2224               	addwfc	(___aodiv@dividend+5)^0,f,c
  6306   002996  2225               	addwfc	(___aodiv@dividend+6)^0,f,c
  6307   002998  2226               	addwfc	(___aodiv@dividend+7)^0,f,c
  6308   00299A  0E01               	movlw	1
  6309   00299C  1A30               	xorwf	___aodiv@sign^0,f,c
  6310   00299E                     l2386:
  6311   00299E  EE20  F031         	lfsr	2,___aodiv@quotient
  6312   0029A2  0E07               	movlw	7
  6313   0029A4                     u2681:
  6314   0029A4  6ADE               	clrf	postinc2,c
  6315   0029A6  06E8               	decf	wreg,f,c
  6316   0029A8  E2FD               	bc	u2681
  6317   0029AA  5027               	movf	___aodiv@divisor^0,w,c
  6318   0029AC  1028               	iorwf	(___aodiv@divisor+1)^0,w,c
  6319   0029AE  1029               	iorwf	(___aodiv@divisor+2)^0,w,c
  6320   0029B0  102A               	iorwf	(___aodiv@divisor+3)^0,w,c
  6321   0029B2  102B               	iorwf	(___aodiv@divisor+4)^0,w,c
  6322   0029B4  102C               	iorwf	(___aodiv@divisor+5)^0,w,c
  6323   0029B6  102D               	iorwf	(___aodiv@divisor+6)^0,w,c
  6324   0029B8  102E               	iorwf	(___aodiv@divisor+7)^0,w,c
  6325   0029BA  B4D8               	btfsc	status,2,c
  6326   0029BC  EFE2  F014         	goto	u2691
  6327   0029C0  EFE4  F014         	goto	u2690
  6328   0029C4                     u2691:
  6329   0029C4  EF36  F015         	goto	l2408
  6330   0029C8                     u2690:
  6331   0029C8  0E01               	movlw	1
  6332   0029CA  6E2F               	movwf	___aodiv@counter^0,c
  6333   0029CC  EFF2  F014         	goto	l2394
  6334   0029D0                     l2392:
  6335   0029D0  90D8               	bcf	status,0,c
  6336   0029D2  3627               	rlcf	___aodiv@divisor^0,f,c
  6337   0029D4  3628               	rlcf	(___aodiv@divisor+1)^0,f,c
  6338   0029D6  3629               	rlcf	(___aodiv@divisor+2)^0,f,c
  6339   0029D8  362A               	rlcf	(___aodiv@divisor+3)^0,f,c
  6340   0029DA  362B               	rlcf	(___aodiv@divisor+4)^0,f,c
  6341   0029DC  362C               	rlcf	(___aodiv@divisor+5)^0,f,c
  6342   0029DE  362D               	rlcf	(___aodiv@divisor+6)^0,f,c
  6343   0029E0  362E               	rlcf	(___aodiv@divisor+7)^0,f,c
  6344   0029E2  2A2F               	incf	___aodiv@counter^0,f,c
  6345   0029E4                     l2394:
  6346   0029E4  AE2E               	btfss	(___aodiv@divisor+7)^0,7,c
  6347   0029E6  EFF7  F014         	goto	u2701
  6348   0029EA  EFF9  F014         	goto	u2700
  6349   0029EE                     u2701:
  6350   0029EE  EFE8  F014         	goto	l2392
  6351   0029F2                     u2700:
  6352   0029F2                     l2396:
  6353   0029F2  90D8               	bcf	status,0,c
  6354   0029F4  3631               	rlcf	___aodiv@quotient^0,f,c
  6355   0029F6  3632               	rlcf	(___aodiv@quotient+1)^0,f,c
  6356   0029F8  3633               	rlcf	(___aodiv@quotient+2)^0,f,c
  6357   0029FA  3634               	rlcf	(___aodiv@quotient+3)^0,f,c
  6358   0029FC  3635               	rlcf	(___aodiv@quotient+4)^0,f,c
  6359   0029FE  3636               	rlcf	(___aodiv@quotient+5)^0,f,c
  6360   002A00  3637               	rlcf	(___aodiv@quotient+6)^0,f,c
  6361   002A02  3638               	rlcf	(___aodiv@quotient+7)^0,f,c
  6362   002A04  5027               	movf	___aodiv@divisor^0,w,c
  6363   002A06  5C1F               	subwf	___aodiv@dividend^0,w,c
  6364   002A08  5028               	movf	(___aodiv@divisor+1)^0,w,c
  6365   002A0A  5820               	subwfb	(___aodiv@dividend+1)^0,w,c
  6366   002A0C  5029               	movf	(___aodiv@divisor+2)^0,w,c
  6367   002A0E  5821               	subwfb	(___aodiv@dividend+2)^0,w,c
  6368   002A10  502A               	movf	(___aodiv@divisor+3)^0,w,c
  6369   002A12  5822               	subwfb	(___aodiv@dividend+3)^0,w,c
  6370   002A14  502B               	movf	(___aodiv@divisor+4)^0,w,c
  6371   002A16  5823               	subwfb	(___aodiv@dividend+4)^0,w,c
  6372   002A18  502C               	movf	(___aodiv@divisor+5)^0,w,c
  6373   002A1A  5824               	subwfb	(___aodiv@dividend+5)^0,w,c
  6374   002A1C  502D               	movf	(___aodiv@divisor+6)^0,w,c
  6375   002A1E  5825               	subwfb	(___aodiv@dividend+6)^0,w,c
  6376   002A20  502E               	movf	(___aodiv@divisor+7)^0,w,c
  6377   002A22  5826               	subwfb	(___aodiv@dividend+7)^0,w,c
  6378   002A24  A0D8               	btfss	status,0,c
  6379   002A26  EF17  F015         	goto	u2711
  6380   002A2A  EF19  F015         	goto	u2710
  6381   002A2E                     u2711:
  6382   002A2E  EF2A  F015         	goto	l2404
  6383   002A32                     u2710:
  6384   002A32  5027               	movf	___aodiv@divisor^0,w,c
  6385   002A34  5E1F               	subwf	___aodiv@dividend^0,f,c
  6386   002A36  5028               	movf	(___aodiv@divisor+1)^0,w,c
  6387   002A38  5A20               	subwfb	(___aodiv@dividend+1)^0,f,c
  6388   002A3A  5029               	movf	(___aodiv@divisor+2)^0,w,c
  6389   002A3C  5A21               	subwfb	(___aodiv@dividend+2)^0,f,c
  6390   002A3E  502A               	movf	(___aodiv@divisor+3)^0,w,c
  6391   002A40  5A22               	subwfb	(___aodiv@dividend+3)^0,f,c
  6392   002A42  502B               	movf	(___aodiv@divisor+4)^0,w,c
  6393   002A44  5A23               	subwfb	(___aodiv@dividend+4)^0,f,c
  6394   002A46  502C               	movf	(___aodiv@divisor+5)^0,w,c
  6395   002A48  5A24               	subwfb	(___aodiv@dividend+5)^0,f,c
  6396   002A4A  502D               	movf	(___aodiv@divisor+6)^0,w,c
  6397   002A4C  5A25               	subwfb	(___aodiv@dividend+6)^0,f,c
  6398   002A4E  502E               	movf	(___aodiv@divisor+7)^0,w,c
  6399   002A50  5A26               	subwfb	(___aodiv@dividend+7)^0,f,c
  6400   002A52  8031               	bsf	___aodiv@quotient^0,0,c
  6401   002A54                     l2404:
  6402   002A54  90D8               	bcf	status,0,c
  6403   002A56  322E               	rrcf	(___aodiv@divisor+7)^0,f,c
  6404   002A58  322D               	rrcf	(___aodiv@divisor+6)^0,f,c
  6405   002A5A  322C               	rrcf	(___aodiv@divisor+5)^0,f,c
  6406   002A5C  322B               	rrcf	(___aodiv@divisor+4)^0,f,c
  6407   002A5E  322A               	rrcf	(___aodiv@divisor+3)^0,f,c
  6408   002A60  3229               	rrcf	(___aodiv@divisor+2)^0,f,c
  6409   002A62  3228               	rrcf	(___aodiv@divisor+1)^0,f,c
  6410   002A64  3227               	rrcf	___aodiv@divisor^0,f,c
  6411   002A66  2E2F               	decfsz	___aodiv@counter^0,f,c
  6412   002A68  EFF9  F014         	goto	l2396
  6413   002A6C                     l2408:
  6414   002A6C  5030               	movf	___aodiv@sign^0,w,c
  6415   002A6E  B4D8               	btfsc	status,2,c
  6416   002A70  EF3C  F015         	goto	u2721
  6417   002A74  EF3E  F015         	goto	u2720
  6418   002A78                     u2721:
  6419   002A78  EF4E  F015         	goto	l2412
  6420   002A7C                     u2720:
  6421   002A7C  1E38               	comf	(___aodiv@quotient+7)^0,f,c
  6422   002A7E  1E37               	comf	(___aodiv@quotient+6)^0,f,c
  6423   002A80  1E36               	comf	(___aodiv@quotient+5)^0,f,c
  6424   002A82  1E35               	comf	(___aodiv@quotient+4)^0,f,c
  6425   002A84  1E34               	comf	(___aodiv@quotient+3)^0,f,c
  6426   002A86  1E33               	comf	(___aodiv@quotient+2)^0,f,c
  6427   002A88  1E32               	comf	(___aodiv@quotient+1)^0,f,c
  6428   002A8A  6C31               	negf	___aodiv@quotient^0,c
  6429   002A8C  0E00               	movlw	0
  6430   002A8E  2232               	addwfc	(___aodiv@quotient+1)^0,f,c
  6431   002A90  2233               	addwfc	(___aodiv@quotient+2)^0,f,c
  6432   002A92  2234               	addwfc	(___aodiv@quotient+3)^0,f,c
  6433   002A94  2235               	addwfc	(___aodiv@quotient+4)^0,f,c
  6434   002A96  2236               	addwfc	(___aodiv@quotient+5)^0,f,c
  6435   002A98  2237               	addwfc	(___aodiv@quotient+6)^0,f,c
  6436   002A9A  2238               	addwfc	(___aodiv@quotient+7)^0,f,c
  6437   002A9C                     l2412:
  6438   002A9C  C031  F01F         	movff	___aodiv@quotient,?___aodiv
  6439   002AA0  C032  F020         	movff	___aodiv@quotient+1,?___aodiv+1
  6440   002AA4  C033  F021         	movff	___aodiv@quotient+2,?___aodiv+2
  6441   002AA8  C034  F022         	movff	___aodiv@quotient+3,?___aodiv+3
  6442   002AAC  C035  F023         	movff	___aodiv@quotient+4,?___aodiv+4
  6443   002AB0  C036  F024         	movff	___aodiv@quotient+5,?___aodiv+5
  6444   002AB4  C037  F025         	movff	___aodiv@quotient+6,?___aodiv+6
  6445   002AB8  C038  F026         	movff	___aodiv@quotient+7,?___aodiv+7
  6446   002ABC  0012               	return		;funcret
  6447   002ABE                     __end_of___aodiv:
  6448                           	callstack 0
  6449                           
  6450 ;; *************** function ___omul *****************
  6451 ;; Defined at:
  6452 ;;		line 91 in file "C:\Program Files\Microchip\xc8\v2.40\pic\sources\c99\common\Umul64.c"
  6453 ;; Parameters:    Size  Location     Type
  6454 ;;  multiplier      8    6[COMRAM] unsigned long long 
  6455 ;;  multiplicand    8   14[COMRAM] unsigned long long 
  6456 ;; Auto vars:     Size  Location     Type
  6457 ;;  product         8   22[COMRAM] unsigned long long 
  6458 ;; Return value:  Size  Location     Type
  6459 ;;                  8    6[COMRAM] unsigned long long 
  6460 ;; Registers used:
  6461 ;;		wreg, fsr2l, fsr2h, status,2, status,0
  6462 ;; Tracked objects:
  6463 ;;		On entry : 0/0
  6464 ;;		On exit  : 0/0
  6465 ;;		Unchanged: 0/0
  6466 ;; Data sizes:     COMRAM   BANK0   BANK1   BANK2   BANK3   BANK4   BANK5   BANK6   BANK7
  6467 ;;      Params:        16       0       0       0       0       0       0       0       0
  6468 ;;      Locals:         8       0       0       0       0       0       0       0       0
  6469 ;;      Temps:          0       0       0       0       0       0       0       0       0
  6470 ;;      Totals:        24       0       0       0       0       0       0       0       0
  6471 ;;Total ram usage:       24 bytes
  6472 ;; Hardware stack levels used: 1
  6473 ;; Hardware stack levels required when called: 1
  6474 ;; This function calls:
  6475 ;;		Nothing
  6476 ;; This function is called by:
  6477 ;;		_loop
  6478 ;; This function uses a non-reentrant model
  6479 ;;
  6480                           
  6481                           	psect	text24
  6482   003264                     __ptext24:
  6483                           	callstack 0
  6484   003264                     ___omul:
  6485                           	callstack 28
  6486   003264  EE20  F017         	lfsr	2,___omul@product
  6487   003268  0E07               	movlw	7
  6488   00326A                     u3041:
  6489   00326A  6ADE               	clrf	postinc2,c
  6490   00326C  06E8               	decf	wreg,f,c
  6491   00326E  E2FD               	bc	u3041
  6492   003270                     l2648:
  6493   003270  A007               	btfss	___omul@multiplier^0,0,c
  6494   003272  EF3D  F019         	goto	u3051
  6495   003276  EF3F  F019         	goto	u3050
  6496   00327A                     u3051:
  6497   00327A  EF4F  F019         	goto	l2652
  6498   00327E                     u3050:
  6499   00327E  500F               	movf	___omul@multiplicand^0,w,c
  6500   003280  2617               	addwf	___omul@product^0,f,c
  6501   003282  5010               	movf	(___omul@multiplicand+1)^0,w,c
  6502   003284  2218               	addwfc	(___omul@product+1)^0,f,c
  6503   003286  5011               	movf	(___omul@multiplicand+2)^0,w,c
  6504   003288  2219               	addwfc	(___omul@product+2)^0,f,c
  6505   00328A  5012               	movf	(___omul@multiplicand+3)^0,w,c
  6506   00328C  221A               	addwfc	(___omul@product+3)^0,f,c
  6507   00328E  5013               	movf	(___omul@multiplicand+4)^0,w,c
  6508   003290  221B               	addwfc	(___omul@product+4)^0,f,c
  6509   003292  5014               	movf	(___omul@multiplicand+5)^0,w,c
  6510   003294  221C               	addwfc	(___omul@product+5)^0,f,c
  6511   003296  5015               	movf	(___omul@multiplicand+6)^0,w,c
  6512   003298  221D               	addwfc	(___omul@product+6)^0,f,c
  6513   00329A  5016               	movf	(___omul@multiplicand+7)^0,w,c
  6514   00329C  221E               	addwfc	(___omul@product+7)^0,f,c
  6515   00329E                     l2652:
  6516   00329E  90D8               	bcf	status,0,c
  6517   0032A0  360F               	rlcf	___omul@multiplicand^0,f,c
  6518   0032A2  3610               	rlcf	(___omul@multiplicand+1)^0,f,c
  6519   0032A4  3611               	rlcf	(___omul@multiplicand+2)^0,f,c
  6520   0032A6  3612               	rlcf	(___omul@multiplicand+3)^0,f,c
  6521   0032A8  3613               	rlcf	(___omul@multiplicand+4)^0,f,c
  6522   0032AA  3614               	rlcf	(___omul@multiplicand+5)^0,f,c
  6523   0032AC  3615               	rlcf	(___omul@multiplicand+6)^0,f,c
  6524   0032AE  3616               	rlcf	(___omul@multiplicand+7)^0,f,c
  6525   0032B0  90D8               	bcf	status,0,c
  6526   0032B2  320E               	rrcf	(___omul@multiplier+7)^0,f,c
  6527   0032B4  320D               	rrcf	(___omul@multiplier+6)^0,f,c
  6528   0032B6  320C               	rrcf	(___omul@multiplier+5)^0,f,c
  6529   0032B8  320B               	rrcf	(___omul@multiplier+4)^0,f,c
  6530   0032BA  320A               	rrcf	(___omul@multiplier+3)^0,f,c
  6531   0032BC  3209               	rrcf	(___omul@multiplier+2)^0,f,c
  6532   0032BE  3208               	rrcf	(___omul@multiplier+1)^0,f,c
  6533   0032C0  3207               	rrcf	___omul@multiplier^0,f,c
  6534   0032C2  5007               	movf	___omul@multiplier^0,w,c
  6535   0032C4  1008               	iorwf	(___omul@multiplier+1)^0,w,c
  6536   0032C6  1009               	iorwf	(___omul@multiplier+2)^0,w,c
  6537   0032C8  100A               	iorwf	(___omul@multiplier+3)^0,w,c
  6538   0032CA  100B               	iorwf	(___omul@multiplier+4)^0,w,c
  6539   0032CC  100C               	iorwf	(___omul@multiplier+5)^0,w,c
  6540   0032CE  100D               	iorwf	(___omul@multiplier+6)^0,w,c
  6541   0032D0  100E               	iorwf	(___omul@multiplier+7)^0,w,c
  6542   0032D2  A4D8               	btfss	status,2,c
  6543   0032D4  EF6E  F019         	goto	u3061
  6544   0032D8  EF70  F019         	goto	u3060
  6545   0032DC                     u3061:
  6546   0032DC  EF38  F019         	goto	l2648
  6547   0032E0                     u3060:
  6548   0032E0  C017  F007         	movff	___omul@product,?___omul
  6549   0032E4  C018  F008         	movff	___omul@product+1,?___omul+1
  6550   0032E8  C019  F009         	movff	___omul@product+2,?___omul+2
  6551   0032EC  C01A  F00A         	movff	___omul@product+3,?___omul+3
  6552   0032F0  C01B  F00B         	movff	___omul@product+4,?___omul+4
  6553   0032F4  C01C  F00C         	movff	___omul@product+5,?___omul+5
  6554   0032F8  C01D  F00D         	movff	___omul@product+6,?___omul+6
  6555   0032FC  C01E  F00E         	movff	___omul@product+7,?___omul+7
  6556   003300  0012               	return		;funcret
  6557   003302                     __end_of___omul:
  6558                           	callstack 0
  6559                           
  6560 ;; *************** function _init_vars *****************
  6561 ;; Defined at:
  6562 ;;		line 313 in file "main.c"
  6563 ;; Parameters:    Size  Location     Type
  6564 ;;		None
  6565 ;; Auto vars:     Size  Location     Type
  6566 ;;  i               2    8[COMRAM] int 
  6567 ;; Return value:  Size  Location     Type
  6568 ;;                  1    wreg      void 
  6569 ;; Registers used:
  6570 ;;		wreg, fsr2l, fsr2h, status,2, status,0
  6571 ;; Tracked objects:
  6572 ;;		On entry : 0/0
  6573 ;;		On exit  : 0/0
  6574 ;;		Unchanged: 0/0
  6575 ;; Data sizes:     COMRAM   BANK0   BANK1   BANK2   BANK3   BANK4   BANK5   BANK6   BANK7
  6576 ;;      Params:         0       0       0       0       0       0       0       0       0
  6577 ;;      Locals:         2       0       0       0       0       0       0       0       0
  6578 ;;      Temps:          2       0       0       0       0       0       0       0       0
  6579 ;;      Totals:         4       0       0       0       0       0       0       0       0
  6580 ;;Total ram usage:        4 bytes
  6581 ;; Hardware stack levels used: 1
  6582 ;; Hardware stack levels required when called: 1
  6583 ;; This function calls:
  6584 ;;		Nothing
  6585 ;; This function is called by:
  6586 ;;		_main
  6587 ;; This function uses a non-reentrant model
  6588 ;;
  6589                           
  6590                           	psect	text25
  6591   002F86                     __ptext25:
  6592                           	callstack 0
  6593   002F86                     _init_vars:
  6594                           	callstack 29
  6595   002F86                     
  6596                           ;main.c: 314:     int i;;main.c: 315:     for (i=0;i<5;i++){
  6597   002F86  0E00               	movlw	0
  6598   002F88  6E0A               	movwf	(init_vars@i+1)^0,c
  6599   002F8A  0E00               	movlw	0
  6600   002F8C  6E09               	movwf	init_vars@i^0,c
  6601   002F8E                     l2782:
  6602                           
  6603                           ;main.c: 316:         counter[i] = 0;
  6604   002F8E  C009  F007         	movff	init_vars@i,??_init_vars
  6605   002F92  C00A  F008         	movff	init_vars@i+1,??_init_vars+1
  6606   002F96  90D8               	bcf	status,0,c
  6607   002F98  3607               	rlcf	??_init_vars^0,f,c
  6608   002F9A  3608               	rlcf	(??_init_vars+1)^0,f,c
  6609   002F9C  90D8               	bcf	status,0,c
  6610   002F9E  3607               	rlcf	??_init_vars^0,f,c
  6611   002FA0  3608               	rlcf	(??_init_vars+1)^0,f,c
  6612   002FA2  90D8               	bcf	status,0,c
  6613   002FA4  3607               	rlcf	??_init_vars^0,f,c
  6614   002FA6  3608               	rlcf	(??_init_vars+1)^0,f,c
  6615   002FA8  0E60               	movlw	low _counter
  6616   002FAA  2407               	addwf	??_init_vars^0,w,c
  6617   002FAC  6ED9               	movwf	fsr2l,c
  6618   002FAE  0E00               	movlw	high _counter
  6619   002FB0  2008               	addwfc	(??_init_vars+1)^0,w,c
  6620   002FB2  6EDA               	movwf	fsr2h,c
  6621   002FB4  0E07               	movlw	7
  6622   002FB6                     u3251:
  6623   002FB6  6ADE               	clrf	postinc2,c
  6624   002FB8  06E8               	decf	wreg,f,c
  6625   002FBA  E2FD               	bc	u3251
  6626   002FBC                     
  6627                           ;main.c: 318:     }
  6628   002FBC  4A09               	infsnz	init_vars@i^0,f,c
  6629   002FBE  2A0A               	incf	(init_vars@i+1)^0,f,c
  6630   002FC0  BE0A               	btfsc	(init_vars@i+1)^0,7,c
  6631   002FC2  EFEC  F017         	goto	u3261
  6632   002FC6  500A               	movf	(init_vars@i+1)^0,w,c
  6633   002FC8  E109               	bnz	u3260
  6634   002FCA  0E05               	movlw	5
  6635   002FCC  5C09               	subwf	init_vars@i^0,w,c
  6636   002FCE  A0D8               	btfss	status,0,c
  6637   002FD0  EFEC  F017         	goto	u3261
  6638   002FD4  EFEE  F017         	goto	u3260
  6639   002FD8                     u3261:
  6640   002FD8  EFC7  F017         	goto	l2782
  6641   002FDC                     u3260:
  6642   002FDC                     
  6643                           ;main.c: 319:     pwm[0] = 0;
  6644   002FDC  0E00               	movlw	0
  6645   002FDE  0100               	movlb	0	; () banked
  6646   002FE0  6FB4               	movwf	(_pwm+1)& (0+255),b
  6647   002FE2  0E00               	movlw	0
  6648   002FE4  6FB3               	movwf	_pwm& (0+255),b
  6649                           
  6650                           ;main.c: 320:     pwm[1] = 0;
  6651   002FE6  0E00               	movlw	0
  6652   002FE8  6FB6               	movwf	(_pwm+3)& (0+255),b
  6653   002FEA  0E00               	movlw	0
  6654   002FEC  6FB5               	movwf	(_pwm+2)& (0+255),b
  6655                           
  6656                           ;main.c: 321:     for (i=0;i<5;i++){
  6657   002FEE  0E00               	movlw	0
  6658   002FF0  6E0A               	movwf	(init_vars@i+1)^0,c
  6659   002FF2  0E00               	movlw	0
  6660   002FF4  6E09               	movwf	init_vars@i^0,c
  6661   002FF6                     l2794:
  6662                           
  6663                           ;main.c: 322:         sum_read[i] = 0;
  6664   002FF6  C009  F007         	movff	init_vars@i,??_init_vars
  6665   002FFA  C00A  F008         	movff	init_vars@i+1,??_init_vars+1
  6666   002FFE  90D8               	bcf	status,0,c
  6667   003000  3607               	rlcf	??_init_vars^0,f,c
  6668   003002  3608               	rlcf	(??_init_vars+1)^0,f,c
  6669   003004  90D8               	bcf	status,0,c
  6670   003006  3607               	rlcf	??_init_vars^0,f,c
  6671   003008  3608               	rlcf	(??_init_vars+1)^0,f,c
  6672   00300A  90D8               	bcf	status,0,c
  6673   00300C  3607               	rlcf	??_init_vars^0,f,c
  6674   00300E  3608               	rlcf	(??_init_vars+1)^0,f,c
  6675   003010  0E00               	movlw	low _sum_read
  6676   003012  2407               	addwf	??_init_vars^0,w,c
  6677   003014  6ED9               	movwf	fsr2l,c
  6678   003016  0E01               	movlw	high _sum_read
  6679   003018  2008               	addwfc	(??_init_vars+1)^0,w,c
  6680   00301A  6EDA               	movwf	fsr2h,c
  6681   00301C  0E07               	movlw	7
  6682   00301E                     u3271:
  6683   00301E  6ADE               	clrf	postinc2,c
  6684   003020  06E8               	decf	wreg,f,c
  6685   003022  E2FD               	bc	u3271
  6686   003024                     
  6687                           ;main.c: 323:     }
  6688   003024  4A09               	infsnz	init_vars@i^0,f,c
  6689   003026  2A0A               	incf	(init_vars@i+1)^0,f,c
  6690   003028  BE0A               	btfsc	(init_vars@i+1)^0,7,c
  6691   00302A  EF20  F018         	goto	u3281
  6692   00302E  500A               	movf	(init_vars@i+1)^0,w,c
  6693   003030  E109               	bnz	u3280
  6694   003032  0E05               	movlw	5
  6695   003034  5C09               	subwf	init_vars@i^0,w,c
  6696   003036  A0D8               	btfss	status,0,c
  6697   003038  EF20  F018         	goto	u3281
  6698   00303C  EF22  F018         	goto	u3280
  6699   003040                     u3281:
  6700   003040  EFFB  F017         	goto	l2794
  6701   003044                     u3280:
  6702   003044                     
  6703                           ;main.c: 324:     count_reads = 0;
  6704   003044  EE20  F092         	lfsr	2,_count_reads
  6705   003048  0E07               	movlw	7
  6706   00304A                     u3291:
  6707   00304A  6ADE               	clrf	postinc2,c
  6708   00304C  06E8               	decf	wreg,f,c
  6709   00304E  E2FD               	bc	u3291
  6710   003050  0012               	return		;funcret
  6711   003052                     __end_of_init_vars:
  6712                           	callstack 0
  6713                           
  6714 ;; *************** function _init *****************
  6715 ;; Defined at:
  6716 ;;		line 743 in file "main.c"
  6717 ;; Parameters:    Size  Location     Type
  6718 ;;		None
  6719 ;; Auto vars:     Size  Location     Type
  6720 ;;		None
  6721 ;; Return value:  Size  Location     Type
  6722 ;;                  1    wreg      void 
  6723 ;; Registers used:
  6724 ;;		wreg, status,2
  6725 ;; Tracked objects:
  6726 ;;		On entry : 0/0
  6727 ;;		On exit  : 0/0
  6728 ;;		Unchanged: 0/0
  6729 ;; Data sizes:     COMRAM   BANK0   BANK1   BANK2   BANK3   BANK4   BANK5   BANK6   BANK7
  6730 ;;      Params:         0       0       0       0       0       0       0       0       0
  6731 ;;      Locals:         0       0       0       0       0       0       0       0       0
  6732 ;;      Temps:          0       0       0       0       0       0       0       0       0
  6733 ;;      Totals:         0       0       0       0       0       0       0       0       0
  6734 ;;Total ram usage:        0 bytes
  6735 ;; Hardware stack levels used: 1
  6736 ;; Hardware stack levels required when called: 1
  6737 ;; This function calls:
  6738 ;;		Nothing
  6739 ;; This function is called by:
  6740 ;;		_main
  6741 ;; This function uses a non-reentrant model
  6742 ;;
  6743                           
  6744                           	psect	text26
  6745   003778                     __ptext26:
  6746                           	callstack 0
  6747   003778                     _init:
  6748                           	callstack 29
  6749   003778                     
  6750                           ;main.c: 744:     flag_init = 0;
  6751   003778  0E00               	movlw	0
  6752   00377A  0100               	movlb	0	; () banked
  6753   00377C  6FC4               	movwf	(_flag_init+1)& (0+255),b
  6754   00377E  0E00               	movlw	0
  6755   003780  6FC3               	movwf	_flag_init& (0+255),b
  6756                           
  6757                           ;main.c: 745:     motor_a_speed_read_value = 0;
  6758   003782  0E00               	movlw	0
  6759   003784  6FC2               	movwf	(_motor_a_speed_read_value+1)& (0+255),b
  6760   003786  0E00               	movlw	0
  6761   003788  6FC1               	movwf	_motor_a_speed_read_value& (0+255),b
  6762                           
  6763                           ;main.c: 746:     motor_b_speed_read_value = 0;
  6764   00378A  0E00               	movlw	0
  6765   00378C  6FC0               	movwf	(_motor_b_speed_read_value+1)& (0+255),b
  6766   00378E  0E00               	movlw	0
  6767   003790  6FBF               	movwf	_motor_b_speed_read_value& (0+255),b
  6768                           
  6769                           ;main.c: 747:     mode = 0;
  6770   003792  0E00               	movlw	0
  6771   003794  6FBE               	movwf	(_mode+1)& (0+255),b
  6772   003796  0E00               	movlw	0
  6773   003798  6FBD               	movwf	_mode& (0+255),b
  6774                           
  6775                           ;main.c: 748:     mode_config = 1;
  6776   00379A  0E00               	movlw	0
  6777   00379C  6FBC               	movwf	(_mode_config+1)& (0+255),b
  6778   00379E  0E01               	movlw	1
  6779   0037A0  6FBB               	movwf	_mode_config& (0+255),b
  6780   0037A2                     
  6781                           ; BSR set to: 0
  6782   0037A2  0012               	return		;funcret
  6783   0037A4                     __end_of_init:
  6784                           	callstack 0
  6785                           
  6786 ;; *************** function _config_micro *****************
  6787 ;; Defined at:
  6788 ;;		line 75 in file "main.c"
  6789 ;; Parameters:    Size  Location     Type
  6790 ;;		None
  6791 ;; Auto vars:     Size  Location     Type
  6792 ;;		None
  6793 ;; Return value:  Size  Location     Type
  6794 ;;                  1    wreg      void 
  6795 ;; Registers used:
  6796 ;;		wreg, status,2
  6797 ;; Tracked objects:
  6798 ;;		On entry : 0/0
  6799 ;;		On exit  : 0/0
  6800 ;;		Unchanged: 0/0
  6801 ;; Data sizes:     COMRAM   BANK0   BANK1   BANK2   BANK3   BANK4   BANK5   BANK6   BANK7
  6802 ;;      Params:         0       0       0       0       0       0       0       0       0
  6803 ;;      Locals:         0       0       0       0       0       0       0       0       0
  6804 ;;      Temps:          0       0       0       0       0       0       0       0       0
  6805 ;;      Totals:         0       0       0       0       0       0       0       0       0
  6806 ;;Total ram usage:        0 bytes
  6807 ;; Hardware stack levels used: 1
  6808 ;; Hardware stack levels required when called: 1
  6809 ;; This function calls:
  6810 ;;		Nothing
  6811 ;; This function is called by:
  6812 ;;		_main
  6813 ;; This function uses a non-reentrant model
  6814 ;;
  6815                           
  6816                           	psect	text27
  6817   002E98                     __ptext27:
  6818                           	callstack 0
  6819   002E98                     _config_micro:
  6820                           	callstack 29
  6821   002E98                     
  6822                           ;main.c: 77:     OSCCONbits.IRCF = 7;
  6823   002E98  0E70               	movlw	112
  6824   002E9A  12D3               	iorwf	211,f,c	;volatile
  6825                           
  6826                           ;main.c: 80:     CMCON=0x07;
  6827   002E9C  0E07               	movlw	7
  6828   002E9E  6EB4               	movwf	180,c	;volatile
  6829   002EA0                     
  6830                           ;main.c: 83:     UCONbits.USBEN = 0;
  6831   002EA0  966D               	bcf	109,3,c	;volatile
  6832   002EA2                     
  6833                           ;main.c: 84:     UCFGbits.UTRDIS = 1;
  6834   002EA2  866F               	bsf	111,3,c	;volatile
  6835   002EA4                     
  6836                           ;main.c: 87:     T0CONbits.TMR0ON = 0;
  6837   002EA4  9ED5               	bcf	213,7,c	;volatile
  6838   002EA6                     
  6839                           ;main.c: 88:     T0CONbits.T08BIT = 0;
  6840   002EA6  9CD5               	bcf	213,6,c	;volatile
  6841   002EA8                     
  6842                           ;main.c: 89:     T0CONbits.T0CS = 0;
  6843   002EA8  9AD5               	bcf	213,5,c	;volatile
  6844   002EAA                     
  6845                           ;main.c: 90:     T0CONbits.PSA = 0;
  6846   002EAA  96D5               	bcf	213,3,c	;volatile
  6847                           
  6848                           ;main.c: 91:     T0CONbits.T0PS = 0b101;
  6849   002EAC  50D5               	movf	213,w,c	;volatile
  6850   002EAE  0BF8               	andlw	-8
  6851   002EB0  0905               	iorlw	5
  6852   002EB2  6ED5               	movwf	213,c	;volatile
  6853   002EB4                     
  6854                           ;main.c: 94:     INTCON2bits.TMR0IP = 1;
  6855   002EB4  84F1               	bsf	241,2,c	;volatile
  6856   002EB6                     
  6857                           ;main.c: 95:     INTCONbits.TMR0IE = 1;
  6858   002EB6  8AF2               	bsf	242,5,c	;volatile
  6859   002EB8                     
  6860                           ;main.c: 96:     RCONbits.IPEN = 0;
  6861   002EB8  9ED0               	bcf	208,7,c	;volatile
  6862                           
  6863                           ;main.c: 99:     TMR0H = 0xF8;
  6864   002EBA  0EF8               	movlw	248
  6865   002EBC  6ED7               	movwf	215,c	;volatile
  6866                           
  6867                           ;main.c: 100:     TMR0L = 0xAC;
  6868   002EBE  0EAC               	movlw	172
  6869   002EC0  6ED6               	movwf	214,c	;volatile
  6870   002EC2                     
  6871                           ;main.c: 105:     T1CONbits.TMR1ON = 0;
  6872   002EC2  90CD               	bcf	205,0,c	;volatile
  6873   002EC4                     
  6874                           ;main.c: 106:     T1CONbits.T1RD16 = 0;
  6875   002EC4  9ECD               	bcf	205,7,c	;volatile
  6876   002EC6                     
  6877                           ;main.c: 107:     T1CONbits.T1RUN = 0;
  6878   002EC6  9CCD               	bcf	205,6,c	;volatile
  6879                           
  6880                           ;main.c: 108:     T1CONbits.T1CKPS = 0;
  6881   002EC8  0ECF               	movlw	-49
  6882   002ECA  16CD               	andwf	205,f,c	;volatile
  6883   002ECC                     
  6884                           ;main.c: 109:     T1CONbits.T1OSCEN = 0;
  6885   002ECC  96CD               	bcf	205,3,c	;volatile
  6886   002ECE                     
  6887                           ;main.c: 110:     T1CONbits.TMR1CS = 0;
  6888   002ECE  92CD               	bcf	205,1,c	;volatile
  6889   002ED0                     
  6890                           ;main.c: 113:     INTCONbits.GIE = 1;
  6891   002ED0  8EF2               	bsf	242,7,c	;volatile
  6892   002ED2                     
  6893                           ;main.c: 114:     T0CONbits.TMR0ON = 1;
  6894   002ED2  8ED5               	bsf	213,7,c	;volatile
  6895   002ED4                     
  6896                           ;main.c: 115:     T1CONbits.TMR1ON = 1;
  6897   002ED4  80CD               	bsf	205,0,c	;volatile
  6898                           
  6899                           ;main.c: 117:     TMR1H = 0xF8;
  6900   002ED6  0EF8               	movlw	248
  6901   002ED8  6ECF               	movwf	207,c	;volatile
  6902                           
  6903                           ;main.c: 118:     TMR1L = 0x2F;
  6904   002EDA  0E2F               	movlw	47
  6905   002EDC  6ECE               	movwf	206,c	;volatile
  6906   002EDE                     
  6907                           ;main.c: 123:     T2CONbits.TMR2ON=0;
  6908   002EDE  94CA               	bcf	202,2,c	;volatile
  6909                           
  6910                           ;main.c: 124:     T2CONbits.TOUTPS=0b01;
  6911   002EE0  50CA               	movf	202,w,c	;volatile
  6912   002EE2  0B87               	andlw	-121
  6913   002EE4  0908               	iorlw	8
  6914   002EE6  6ECA               	movwf	202,c	;volatile
  6915                           
  6916                           ;main.c: 125:     T2CONbits.T2CKPS=0b01;
  6917   002EE8  50CA               	movf	202,w,c	;volatile
  6918   002EEA  0BFC               	andlw	-4
  6919   002EEC  0901               	iorlw	1
  6920   002EEE  6ECA               	movwf	202,c	;volatile
  6921                           
  6922                           ;main.c: 128:     CCP1CONbits.CCP1M = 0b1100;
  6923   002EF0  50BD               	movf	189,w,c	;volatile
  6924   002EF2  0BF0               	andlw	-16
  6925   002EF4  090C               	iorlw	12
  6926   002EF6  6EBD               	movwf	189,c	;volatile
  6927                           
  6928                           ;main.c: 129:     CCP2CONbits.CCP2M = 0b1100;
  6929   002EF8  50BA               	movf	186,w,c	;volatile
  6930   002EFA  0BF0               	andlw	-16
  6931   002EFC  090C               	iorlw	12
  6932   002EFE  6EBA               	movwf	186,c	;volatile
  6933                           
  6934                           ;main.c: 130:     PR2=149;
  6935   002F00  0E95               	movlw	149
  6936   002F02  6ECB               	movwf	203,c	;volatile
  6937                           
  6938                           ;main.c: 134:     CCP1CONbits.DC1B = 0;
  6939   002F04  0ECF               	movlw	-49
  6940   002F06  16BD               	andwf	189,f,c	;volatile
  6941                           
  6942                           ;main.c: 135:     CCP2CONbits.DC2B = 0;
  6943   002F08  0ECF               	movlw	-49
  6944   002F0A  16BA               	andwf	186,f,c	;volatile
  6945                           
  6946                           ;main.c: 136:     CCPR1L = 0;
  6947   002F0C  0E00               	movlw	0
  6948   002F0E  6EBE               	movwf	190,c	;volatile
  6949                           
  6950                           ;main.c: 137:     CCPR2L = 0;
  6951   002F10  0E00               	movlw	0
  6952   002F12  6EBB               	movwf	187,c	;volatile
  6953   002F14                     
  6954                           ;main.c: 139:     T2CONbits.TMR2ON=1;
  6955   002F14  84CA               	bsf	202,2,c	;volatile
  6956                           
  6957                           ;main.c: 142:     ADCON0bits.CHS=0;
  6958   002F16  0EC3               	movlw	-61
  6959   002F18  16C2               	andwf	194,f,c	;volatile
  6960   002F1A                     
  6961                           ;main.c: 143:     ADCON0bits.GODONE=0;
  6962   002F1A  92C2               	bcf	194,1,c	;volatile
  6963   002F1C                     
  6964                           ;main.c: 144:     ADCON0bits.ADON=1;
  6965   002F1C  80C2               	bsf	194,0,c	;volatile
  6966                           
  6967                           ;main.c: 146:     ADCON1bits.VCFG = 0;
  6968   002F1E  0ECF               	movlw	-49
  6969   002F20  16C1               	andwf	193,f,c	;volatile
  6970                           
  6971                           ;main.c: 147:     ADCON1bits.PCFG = 0b1001;
  6972   002F22  50C1               	movf	193,w,c	;volatile
  6973   002F24  0BF0               	andlw	-16
  6974   002F26  0909               	iorlw	9
  6975   002F28  6EC1               	movwf	193,c	;volatile
  6976   002F2A                     
  6977                           ;main.c: 149:     ADCON2bits.ADFM=0;
  6978   002F2A  9EC0               	bcf	192,7,c	;volatile
  6979                           
  6980                           ;main.c: 150:     ADCON2bits.ACQT=7;
  6981   002F2C  0E38               	movlw	56
  6982   002F2E  12C0               	iorwf	192,f,c	;volatile
  6983                           
  6984                           ;main.c: 151:     ADCON2bits.ADCS=6;
  6985   002F30  50C0               	movf	192,w,c	;volatile
  6986   002F32  0BF8               	andlw	-8
  6987   002F34  0906               	iorlw	6
  6988   002F36  6EC0               	movwf	192,c	;volatile
  6989   002F38                     
  6990                           ;main.c: 156:     TRISCbits.RC6 = 1;
  6991   002F38  8C94               	bsf	148,6,c	;volatile
  6992   002F3A                     
  6993                           ;main.c: 157:     TRISCbits.RC7 = 1;
  6994   002F3A  8E94               	bsf	148,7,c	;volatile
  6995   002F3C                     
  6996                           ;main.c: 159:     BAUDCONbits.RXDTP=0;
  6997   002F3C  9AB8               	bcf	184,5,c	;volatile
  6998   002F3E                     
  6999                           ;main.c: 160:     BAUDCONbits.TXCKP=0;
  7000   002F3E  98B8               	bcf	184,4,c	;volatile
  7001   002F40                     
  7002                           ;main.c: 161:     BAUDCONbits.BRG16=1;
  7003   002F40  86B8               	bsf	184,3,c	;volatile
  7004   002F42                     
  7005                           ;main.c: 163:     BAUDCONbits.WUE=0;
  7006   002F42  92B8               	bcf	184,1,c	;volatile
  7007   002F44                     
  7008                           ;main.c: 164:     BAUDCONbits.ABDEN=0;
  7009   002F44  90B8               	bcf	184,0,c	;volatile
  7010                           
  7011                           ;main.c: 165:     SPBRG=51;
  7012   002F46  0E33               	movlw	51
  7013   002F48  6EAF               	movwf	175,c	;volatile
  7014                           
  7015                           ;main.c: 166:     SPBRGH=0;
  7016   002F4A  0E00               	movlw	0
  7017   002F4C  6EB0               	movwf	176,c	;volatile
  7018   002F4E                     
  7019                           ;main.c: 167:     TXSTAbits.CSRC=0;
  7020   002F4E  9EAC               	bcf	172,7,c	;volatile
  7021   002F50                     
  7022                           ;main.c: 168:     TXSTAbits.TX9=0;
  7023   002F50  9CAC               	bcf	172,6,c	;volatile
  7024   002F52                     
  7025                           ;main.c: 169:     TXSTAbits.TXEN=1;
  7026   002F52  8AAC               	bsf	172,5,c	;volatile
  7027   002F54                     
  7028                           ;main.c: 170:     TXSTAbits.SYNC=0;
  7029   002F54  98AC               	bcf	172,4,c	;volatile
  7030   002F56                     
  7031                           ;main.c: 172:     TXSTAbits.BRGH=0;
  7032   002F56  94AC               	bcf	172,2,c	;volatile
  7033   002F58                     
  7034                           ;main.c: 173:     RCSTAbits.RX9=0;
  7035   002F58  9CAB               	bcf	171,6,c	;volatile
  7036   002F5A                     
  7037                           ;main.c: 174:     RCSTAbits.CREN=1;
  7038   002F5A  88AB               	bsf	171,4,c	;volatile
  7039   002F5C                     
  7040                           ;main.c: 175:     RCSTAbits.SPEN=1;
  7041   002F5C  8EAB               	bsf	171,7,c	;volatile
  7042   002F5E                     
  7043                           ;main.c: 181:     TRISBbits.RB0 = 0;
  7044   002F5E  9093               	bcf	147,0,c	;volatile
  7045   002F60                     
  7046                           ;main.c: 182:     TRISBbits.RB1 = 0;
  7047   002F60  9293               	bcf	147,1,c	;volatile
  7048   002F62                     
  7049                           ;main.c: 183:     TRISBbits.RB2 = 0;
  7050   002F62  9493               	bcf	147,2,c	;volatile
  7051   002F64                     
  7052                           ;main.c: 184:     TRISBbits.RB4 = 0;
  7053   002F64  9893               	bcf	147,4,c	;volatile
  7054   002F66                     
  7055                           ;main.c: 185:     TRISBbits.RB5 = 0;
  7056   002F66  9A93               	bcf	147,5,c	;volatile
  7057   002F68                     
  7058                           ;main.c: 188:     TRISDbits.RD2 = 1;
  7059   002F68  8495               	bsf	149,2,c	;volatile
  7060   002F6A                     
  7061                           ;main.c: 189:     TRISDbits.RD3 = 1;
  7062   002F6A  8695               	bsf	149,3,c	;volatile
  7063   002F6C                     
  7064                           ;main.c: 192:     TRISAbits.RA0 = 1;
  7065   002F6C  8092               	bsf	146,0,c	;volatile
  7066   002F6E                     
  7067                           ;main.c: 193:     TRISAbits.RA1 = 1;
  7068   002F6E  8292               	bsf	146,1,c	;volatile
  7069   002F70                     
  7070                           ;main.c: 194:     TRISAbits.RA2 = 1;
  7071   002F70  8492               	bsf	146,2,c	;volatile
  7072   002F72                     
  7073                           ;main.c: 195:     TRISAbits.RA3 = 1;
  7074   002F72  8692               	bsf	146,3,c	;volatile
  7075   002F74                     
  7076                           ;main.c: 196:     TRISAbits.RA4 = 1;
  7077   002F74  8892               	bsf	146,4,c	;volatile
  7078   002F76                     
  7079                           ;main.c: 197:     TRISEbits.RE0 = 1;
  7080   002F76  8096               	bsf	150,0,c	;volatile
  7081   002F78                     
  7082                           ;main.c: 200:     TRISDbits.RD1 = 0;
  7083   002F78  9295               	bcf	149,1,c	;volatile
  7084   002F7A                     
  7085                           ;main.c: 201:     TRISDbits.RD0 = 0;
  7086   002F7A  9095               	bcf	149,0,c	;volatile
  7087   002F7C                     
  7088                           ;main.c: 202:     TRISCbits.RC1 = 0;
  7089   002F7C  9294               	bcf	148,1,c	;volatile
  7090   002F7E                     
  7091                           ;main.c: 203:     TRISCbits.RC0 = 0;
  7092   002F7E  9094               	bcf	148,0,c	;volatile
  7093   002F80                     
  7094                           ;main.c: 204:     TRISBbits.RB3 = 0;
  7095   002F80  9693               	bcf	147,3,c	;volatile
  7096   002F82                     
  7097                           ;main.c: 205:     TRISCbits.RC2 = 0;
  7098   002F82  9494               	bcf	148,2,c	;volatile
  7099   002F84  0012               	return		;funcret
  7100   002F86                     __end_of_config_micro:
  7101                           	callstack 0
  7102                           
  7103 ;; *************** function _buttons_loop *****************
  7104 ;; Defined at:
  7105 ;;		line 404 in file "main.c"
  7106 ;; Parameters:    Size  Location     Type
  7107 ;;		None
  7108 ;; Auto vars:     Size  Location     Type
  7109 ;;  click_evt       5   16[COMRAM] unsigned char [5]
  7110 ;;  i               2   21[COMRAM] int 
  7111 ;;  i               2   23[COMRAM] int 
  7112 ;; Return value:  Size  Location     Type
  7113 ;;                  1    wreg      void 
  7114 ;; Registers used:
  7115 ;;		wreg, fsr2l, fsr2h, status,2, status,0
  7116 ;; Tracked objects:
  7117 ;;		On entry : 0/0
  7118 ;;		On exit  : 0/0
  7119 ;;		Unchanged: 0/0
  7120 ;; Data sizes:     COMRAM   BANK0   BANK1   BANK2   BANK3   BANK4   BANK5   BANK6   BANK7
  7121 ;;      Params:         0       0       0       0       0       0       0       0       0
  7122 ;;      Locals:         9       0       0       0       0       0       0       0       0
  7123 ;;      Temps:         10       0       0       0       0       0       0       0       0
  7124 ;;      Totals:        19       0       0       0       0       0       0       0       0
  7125 ;;Total ram usage:       19 bytes
  7126 ;; Hardware stack levels used: 1
  7127 ;; Hardware stack levels required when called: 1
  7128 ;; This function calls:
  7129 ;;		Nothing
  7130 ;; This function is called by:
  7131 ;;		_main
  7132 ;; This function uses a non-reentrant model
  7133 ;;
  7134                           
  7135                           	psect	text28
  7136   000842                     __ptext28:
  7137                           	callstack 0
  7138   000842                     _buttons_loop:
  7139                           	callstack 29
  7140   000842                     
  7141                           ;main.c: 405:     if (b_state[0] == 0){
  7142   000842  0100               	movlb	0	; () banked
  7143   000844  51AE               	movf	_b_state& (0+255),w,b
  7144   000846  A4D8               	btfss	status,2,c
  7145   000848  EF28  F004         	goto	u3501
  7146   00084C  EF2A  F004         	goto	u3500
  7147   000850                     u3501:
  7148   000850  EF35  F004         	goto	l2860
  7149   000854                     u3500:
  7150   000854                     
  7151                           ; BSR set to: 0
  7152                           ;main.c: 406:         if (PORTDbits.RD2){
  7153   000854  A483               	btfss	131,2,c	;volatile
  7154   000856  EF2F  F004         	goto	u3511
  7155   00085A  EF31  F004         	goto	u3510
  7156   00085E                     u3511:
  7157   00085E  EF4E  F004         	goto	l217
  7158   000862                     u3510:
  7159   000862                     
  7160                           ; BSR set to: 0
  7161                           ;main.c: 407:             b[0] = 0;
  7162   000862  0E00               	movlw	0
  7163   000864  6FA9               	movwf	_b& (0+255),b
  7164   000866  EF4E  F004         	goto	l217
  7165   00086A                     l2860:
  7166                           
  7167                           ; BSR set to: 0
  7168   00086A  05AE               	decf	_b_state& (0+255),w,b
  7169   00086C  B4D8               	btfsc	status,2,c
  7170   00086E  EF3B  F004         	goto	u3521
  7171   000872  EF3D  F004         	goto	u3520
  7172   000876                     u3521:
  7173   000876  EF45  F004         	goto	l220
  7174   00087A                     u3520:
  7175   00087A                     
  7176                           ; BSR set to: 0
  7177   00087A  5058               	movf	_initial_state^0,w,c
  7178   00087C  B4D8               	btfsc	status,2,c
  7179   00087E  EF43  F004         	goto	u3531
  7180   000882  EF45  F004         	goto	u3530
  7181   000886                     u3531:
  7182   000886  EF4E  F004         	goto	l217
  7183   00088A                     u3530:
  7184   00088A                     l220:
  7185                           
  7186                           ; BSR set to: 0
  7187                           ;main.c: 410:         if (!PORTDbits.RD2){
  7188   00088A  B483               	btfsc	131,2,c	;volatile
  7189   00088C  EF4A  F004         	goto	u3541
  7190   000890  EF4C  F004         	goto	u3540
  7191   000894                     u3541:
  7192   000894  EF4E  F004         	goto	l217
  7193   000898                     u3540:
  7194   000898                     
  7195                           ; BSR set to: 0
  7196                           ;main.c: 411:             b[0] = 1;
  7197   000898  0E01               	movlw	1
  7198   00089A  6FA9               	movwf	_b& (0+255),b
  7199   00089C                     l217:
  7200                           
  7201                           ; BSR set to: 0
  7202                           ;main.c: 414:     if (b_state[1] == 0){
  7203   00089C  51AF               	movf	(_b_state+1)& (0+255),w,b
  7204   00089E  A4D8               	btfss	status,2,c
  7205   0008A0  EF54  F004         	goto	u3551
  7206   0008A4  EF56  F004         	goto	u3550
  7207   0008A8                     u3551:
  7208   0008A8  EF61  F004         	goto	l2870
  7209   0008AC                     u3550:
  7210   0008AC                     
  7211                           ; BSR set to: 0
  7212                           ;main.c: 415:         if (PORTDbits.RD3){
  7213   0008AC  A683               	btfss	131,3,c	;volatile
  7214   0008AE  EF5B  F004         	goto	u3561
  7215   0008B2  EF5D  F004         	goto	u3560
  7216   0008B6                     u3561:
  7217   0008B6  EF72  F004         	goto	l224
  7218   0008BA                     u3560:
  7219   0008BA                     
  7220                           ; BSR set to: 0
  7221                           ;main.c: 416:             b[1] = 0;
  7222   0008BA  0E00               	movlw	0
  7223   0008BC  6FAA               	movwf	(_b+1)& (0+255),b
  7224   0008BE  EF72  F004         	goto	l224
  7225   0008C2                     l2870:
  7226                           
  7227                           ; BSR set to: 0
  7228   0008C2  05AF               	decf	(_b_state+1)& (0+255),w,b
  7229   0008C4  A4D8               	btfss	status,2,c
  7230   0008C6  EF67  F004         	goto	u3571
  7231   0008CA  EF69  F004         	goto	u3570
  7232   0008CE                     u3571:
  7233   0008CE  EF72  F004         	goto	l224
  7234   0008D2                     u3570:
  7235   0008D2                     
  7236                           ; BSR set to: 0
  7237                           ;main.c: 419:         if (!PORTDbits.RD3){
  7238   0008D2  B683               	btfsc	131,3,c	;volatile
  7239   0008D4  EF6E  F004         	goto	u3581
  7240   0008D8  EF70  F004         	goto	u3580
  7241   0008DC                     u3581:
  7242   0008DC  EF72  F004         	goto	l224
  7243   0008E0                     u3580:
  7244   0008E0                     
  7245                           ; BSR set to: 0
  7246                           ;main.c: 420:             b[1] = 1;
  7247   0008E0  0E01               	movlw	1
  7248   0008E2  6FAA               	movwf	(_b+1)& (0+255),b
  7249   0008E4                     l224:
  7250                           
  7251                           ; BSR set to: 0
  7252                           ;main.c: 423:     int i;;main.c: 424:     if (initial_state){
  7253   0008E4  5058               	movf	_initial_state^0,w,c
  7254   0008E6  B4D8               	btfsc	status,2,c
  7255   0008E8  EF78  F004         	goto	u3591
  7256   0008EC  EF7A  F004         	goto	u3590
  7257   0008F0                     u3591:
  7258   0008F0  EF28  F005         	goto	l2900
  7259   0008F4                     u3590:
  7260   0008F4                     
  7261                           ; BSR set to: 0
  7262                           ;main.c: 425:         if (counter[0] >= 20){
  7263   0008F4  BF67               	btfsc	(_counter+7)& (0+255),7,b
  7264   0008F6  EF8C  F004         	goto	u3601
  7265   0008FA  5167               	movf	(_counter+7)& (0+255),w,b
  7266   0008FC  1166               	iorwf	(_counter+6)& (0+255),w,b
  7267   0008FE  1165               	iorwf	(_counter+5)& (0+255),w,b
  7268   000900  1164               	iorwf	(_counter+4)& (0+255),w,b
  7269   000902  1163               	iorwf	(_counter+3)& (0+255),w,b
  7270   000904  1162               	iorwf	(_counter+2)& (0+255),w,b
  7271   000906  1161               	iorwf	(_counter+1)& (0+255),w,b
  7272   000908  E109               	bnz	u3600
  7273   00090A  0E14               	movlw	20
  7274   00090C  5D60               	subwf	_counter& (0+255),w,b
  7275   00090E  A0D8               	btfss	status,0,c
  7276   000910  EF8C  F004         	goto	u3601
  7277   000914  EF8E  F004         	goto	u3600
  7278   000918                     u3601:
  7279   000918  EF1D  F009         	goto	l268
  7280   00091C                     u3600:
  7281   00091C                     
  7282                           ; BSR set to: 0
  7283                           ;main.c: 426:             counter[0] = 0;
  7284   00091C  EE20  F060         	lfsr	2,_counter
  7285   000920  0E07               	movlw	7
  7286   000922                     u3611:
  7287   000922  6ADE               	clrf	postinc2,c
  7288   000924  06E8               	decf	wreg,f,c
  7289   000926  E2FD               	bc	u3611
  7290   000928                     
  7291                           ; BSR set to: 0
  7292                           ;main.c: 427:             if (!b[0]){
  7293   000928  51A9               	movf	_b& (0+255),w,b
  7294   00092A  A4D8               	btfss	status,2,c
  7295   00092C  EF9A  F004         	goto	u3621
  7296   000930  EF9C  F004         	goto	u3620
  7297   000934                     u3621:
  7298   000934  EF23  F005         	goto	l2898
  7299   000938                     u3620:
  7300   000938                     
  7301                           ; BSR set to: 0
  7302                           ;main.c: 428:                 initial_state = 0;
  7303   000938  0E00               	movlw	0
  7304   00093A  6E58               	movwf	_initial_state^0,c
  7305   00093C                     
  7306                           ; BSR set to: 0
  7307                           ;main.c: 429:                 counter[0] = 0;
  7308   00093C  EE20  F060         	lfsr	2,_counter
  7309   000940  0E07               	movlw	7
  7310   000942                     u3631:
  7311   000942  6ADE               	clrf	postinc2,c
  7312   000944  06E8               	decf	wreg,f,c
  7313   000946  E2FD               	bc	u3631
  7314   000948                     
  7315                           ; BSR set to: 0
  7316                           ;main.c: 430:                 for (i = 0;i < 2;i++){
  7317   000948  0E00               	movlw	0
  7318   00094A  6E19               	movwf	(buttons_loop@i+1)^0,c
  7319   00094C  0E00               	movlw	0
  7320   00094E  6E18               	movwf	buttons_loop@i^0,c
  7321   000950                     l2892:
  7322                           
  7323                           ;main.c: 431:                     b_state[i] = 0;
  7324   000950  0EAE               	movlw	low _b_state
  7325   000952  2418               	addwf	buttons_loop@i^0,w,c
  7326   000954  6ED9               	movwf	fsr2l,c
  7327   000956  0E00               	movlw	high _b_state
  7328   000958  2019               	addwfc	(buttons_loop@i+1)^0,w,c
  7329   00095A  6EDA               	movwf	fsr2h,c
  7330   00095C  0E00               	movlw	0
  7331   00095E  6EDF               	movwf	indf2,c
  7332                           
  7333                           ;main.c: 432:                     b[i] = 0;
  7334   000960  0EA9               	movlw	low _b
  7335   000962  2418               	addwf	buttons_loop@i^0,w,c
  7336   000964  6ED9               	movwf	fsr2l,c
  7337   000966  0E00               	movlw	high _b
  7338   000968  2019               	addwfc	(buttons_loop@i+1)^0,w,c
  7339   00096A  6EDA               	movwf	fsr2h,c
  7340   00096C  0E00               	movlw	0
  7341   00096E  6EDF               	movwf	indf2,c
  7342                           
  7343                           ;main.c: 433:                     last_b[i] = 0;
  7344   000970  0EEF               	movlw	low _last_b
  7345   000972  2418               	addwf	buttons_loop@i^0,w,c
  7346   000974  6ED9               	movwf	fsr2l,c
  7347   000976  0E01               	movlw	high _last_b
  7348   000978  2019               	addwfc	(buttons_loop@i+1)^0,w,c
  7349   00097A  6EDA               	movwf	fsr2h,c
  7350   00097C  0E00               	movlw	0
  7351   00097E  6EDF               	movwf	indf2,c
  7352                           
  7353                           ;main.c: 435:                     b_counter[i] = 0;
  7354   000980  C018  F007         	movff	buttons_loop@i,??_buttons_loop
  7355   000984  C019  F008         	movff	buttons_loop@i+1,??_buttons_loop+1
  7356   000988  90D8               	bcf	status,0,c
  7357   00098A  3607               	rlcf	??_buttons_loop^0,f,c
  7358   00098C  3608               	rlcf	(??_buttons_loop+1)^0,f,c
  7359   00098E  90D8               	bcf	status,0,c
  7360   000990  3607               	rlcf	??_buttons_loop^0,f,c
  7361   000992  3608               	rlcf	(??_buttons_loop+1)^0,f,c
  7362   000994  90D8               	bcf	status,0,c
  7363   000996  3607               	rlcf	??_buttons_loop^0,f,c
  7364   000998  3608               	rlcf	(??_buttons_loop+1)^0,f,c
  7365   00099A  0E78               	movlw	low _b_counter
  7366   00099C  2407               	addwf	??_buttons_loop^0,w,c
  7367   00099E  6ED9               	movwf	fsr2l,c
  7368   0009A0  0E01               	movlw	high _b_counter
  7369   0009A2  2008               	addwfc	(??_buttons_loop+1)^0,w,c
  7370   0009A4  6EDA               	movwf	fsr2h,c
  7371   0009A6  0E07               	movlw	7
  7372   0009A8                     u3641:
  7373   0009A8  6ADE               	clrf	postinc2,c
  7374   0009AA  06E8               	decf	wreg,f,c
  7375   0009AC  E2FD               	bc	u3641
  7376                           
  7377                           ;main.c: 436:                     state_counter[i] = 0;
  7378   0009AE  C018  F007         	movff	buttons_loop@i,??_buttons_loop
  7379   0009B2  C019  F008         	movff	buttons_loop@i+1,??_buttons_loop+1
  7380   0009B6  90D8               	bcf	status,0,c
  7381   0009B8  3607               	rlcf	??_buttons_loop^0,f,c
  7382   0009BA  3608               	rlcf	(??_buttons_loop+1)^0,f,c
  7383   0009BC  90D8               	bcf	status,0,c
  7384   0009BE  3607               	rlcf	??_buttons_loop^0,f,c
  7385   0009C0  3608               	rlcf	(??_buttons_loop+1)^0,f,c
  7386   0009C2  90D8               	bcf	status,0,c
  7387   0009C4  3607               	rlcf	??_buttons_loop^0,f,c
  7388   0009C6  3608               	rlcf	(??_buttons_loop+1)^0,f,c
  7389   0009C8  0E50               	movlw	low _state_counter
  7390   0009CA  2407               	addwf	??_buttons_loop^0,w,c
  7391   0009CC  6ED9               	movwf	fsr2l,c
  7392   0009CE  0E01               	movlw	high _state_counter
  7393   0009D0  2008               	addwfc	(??_buttons_loop+1)^0,w,c
  7394   0009D2  6EDA               	movwf	fsr2h,c
  7395   0009D4  0E07               	movlw	7
  7396   0009D6                     u3651:
  7397   0009D6  6ADE               	clrf	postinc2,c
  7398   0009D8  06E8               	decf	wreg,f,c
  7399   0009DA  E2FD               	bc	u3651
  7400                           
  7401                           ;main.c: 437:                     combination_state[i] = 0;
  7402   0009DC  90D8               	bcf	status,0,c
  7403   0009DE  3418               	rlcf	buttons_loop@i^0,w,c
  7404   0009E0  6ED9               	movwf	fsr2l,c
  7405   0009E2  3419               	rlcf	(buttons_loop@i+1)^0,w,c
  7406   0009E4  6EDA               	movwf	fsr2h,c
  7407   0009E6  0E88               	movlw	low _combination_state
  7408   0009E8  26D9               	addwf	fsr2l,f,c
  7409   0009EA  0E00               	movlw	high _combination_state
  7410   0009EC  22DA               	addwfc	fsr2h,f,c
  7411   0009EE  0E00               	movlw	0
  7412   0009F0  6EDE               	movwf	postinc2,c
  7413   0009F2  0E00               	movlw	0
  7414   0009F4  6EDD               	movwf	postdec2,c
  7415                           
  7416                           ;main.c: 438:                     single_click_evt[i] = 0;
  7417   0009F6  0EA4               	movlw	low _single_click_evt
  7418   0009F8  2418               	addwf	buttons_loop@i^0,w,c
  7419   0009FA  6ED9               	movwf	fsr2l,c
  7420   0009FC  0E00               	movlw	high _single_click_evt
  7421   0009FE  2019               	addwfc	(buttons_loop@i+1)^0,w,c
  7422   000A00  6EDA               	movwf	fsr2h,c
  7423   000A02  0E00               	movlw	0
  7424   000A04  6EDF               	movwf	indf2,c
  7425                           
  7426                           ;main.c: 439:                     double_click_evt[i] = 0;
  7427   000A06  0E9F               	movlw	low _double_click_evt
  7428   000A08  2418               	addwf	buttons_loop@i^0,w,c
  7429   000A0A  6ED9               	movwf	fsr2l,c
  7430   000A0C  0E00               	movlw	high _double_click_evt
  7431   000A0E  2019               	addwfc	(buttons_loop@i+1)^0,w,c
  7432   000A10  6EDA               	movwf	fsr2h,c
  7433   000A12  0E00               	movlw	0
  7434   000A14  6EDF               	movwf	indf2,c
  7435                           
  7436                           ;main.c: 440:                     triple_click_evt[i] = 0;
  7437   000A16  0EE0               	movlw	low _triple_click_evt
  7438   000A18  2418               	addwf	buttons_loop@i^0,w,c
  7439   000A1A  6ED9               	movwf	fsr2l,c
  7440   000A1C  0E01               	movlw	high _triple_click_evt
  7441   000A1E  2019               	addwfc	(buttons_loop@i+1)^0,w,c
  7442   000A20  6EDA               	movwf	fsr2h,c
  7443   000A22  0E00               	movlw	0
  7444   000A24  6EDF               	movwf	indf2,c
  7445   000A26                     
  7446                           ;main.c: 441:                 }
  7447   000A26  4A18               	infsnz	buttons_loop@i^0,f,c
  7448   000A28  2A19               	incf	(buttons_loop@i+1)^0,f,c
  7449   000A2A  BE19               	btfsc	(buttons_loop@i+1)^0,7,c
  7450   000A2C  EF21  F005         	goto	u3661
  7451   000A30  5019               	movf	(buttons_loop@i+1)^0,w,c
  7452   000A32  E109               	bnz	u3660
  7453   000A34  0E02               	movlw	2
  7454   000A36  5C18               	subwf	buttons_loop@i^0,w,c
  7455   000A38  A0D8               	btfss	status,0,c
  7456   000A3A  EF21  F005         	goto	u3661
  7457   000A3E  EF23  F005         	goto	u3660
  7458   000A42                     u3661:
  7459   000A42  EFA8  F004         	goto	l2892
  7460   000A46                     u3660:
  7461   000A46                     l2898:
  7462                           
  7463                           ;main.c: 443:             b[0] = 0;
  7464   000A46  0E00               	movlw	0
  7465   000A48  0100               	movlb	0	; () banked
  7466   000A4A  6FA9               	movwf	_b& (0+255),b
  7467   000A4C  EF1D  F009         	goto	l268
  7468   000A50                     l2900:
  7469                           
  7470                           ; BSR set to: 0
  7471   000A50  BF67               	btfsc	(_counter+7)& (0+255),7,b
  7472   000A52  EF39  F005         	goto	u3671
  7473   000A56  5167               	movf	(_counter+7)& (0+255),w,b
  7474   000A58  1166               	iorwf	(_counter+6)& (0+255),w,b
  7475   000A5A  1165               	iorwf	(_counter+5)& (0+255),w,b
  7476   000A5C  1164               	iorwf	(_counter+4)& (0+255),w,b
  7477   000A5E  1163               	iorwf	(_counter+3)& (0+255),w,b
  7478   000A60  1162               	iorwf	(_counter+2)& (0+255),w,b
  7479   000A62  1161               	iorwf	(_counter+1)& (0+255),w,b
  7480   000A64  E108               	bnz	u3670
  7481   000A66  0560               	decf	_counter& (0+255),w,b
  7482   000A68  A0D8               	btfss	status,0,c
  7483   000A6A  EF39  F005         	goto	u3671
  7484   000A6E  EF3B  F005         	goto	u3670
  7485   000A72                     u3671:
  7486   000A72  EF1D  F009         	goto	l268
  7487   000A76                     u3670:
  7488   000A76                     
  7489                           ; BSR set to: 0
  7490                           ;main.c: 446:         counter[0] = 0;
  7491   000A76  EE20  F060         	lfsr	2,_counter
  7492   000A7A  0E07               	movlw	7
  7493   000A7C                     u3681:
  7494   000A7C  6ADE               	clrf	postinc2,c
  7495   000A7E  06E8               	decf	wreg,f,c
  7496   000A80  E2FD               	bc	u3681
  7497   000A82                     
  7498                           ; BSR set to: 0
  7499                           ;main.c: 448:         sum_iterations += iterations;
  7500   000A82  0101               	movlb	1	; () banked
  7501   000A84  51D8               	movf	_iterations& (0+255),w,b
  7502   000A86  27D0               	addwf	_sum_iterations& (0+255),f,b
  7503   000A88  51D9               	movf	(_iterations+1)& (0+255),w,b
  7504   000A8A  23D1               	addwfc	(_sum_iterations+1)& (0+255),f,b
  7505   000A8C  51DA               	movf	(_iterations+2)& (0+255),w,b
  7506   000A8E  23D2               	addwfc	(_sum_iterations+2)& (0+255),f,b
  7507   000A90  51DB               	movf	(_iterations+3)& (0+255),w,b
  7508   000A92  23D3               	addwfc	(_sum_iterations+3)& (0+255),f,b
  7509   000A94  51DC               	movf	(_iterations+4)& (0+255),w,b
  7510   000A96  23D4               	addwfc	(_sum_iterations+4)& (0+255),f,b
  7511   000A98  51DD               	movf	(_iterations+5)& (0+255),w,b
  7512   000A9A  23D5               	addwfc	(_sum_iterations+5)& (0+255),f,b
  7513   000A9C  51DE               	movf	(_iterations+6)& (0+255),w,b
  7514   000A9E  23D6               	addwfc	(_sum_iterations+6)& (0+255),f,b
  7515   000AA0  51DF               	movf	(_iterations+7)& (0+255),w,b
  7516   000AA2  23D7               	addwfc	(_sum_iterations+7)& (0+255),f,b
  7517   000AA4                     
  7518                           ; BSR set to: 1
  7519                           ;main.c: 449:         amount_cycles ++;
  7520   000AA4  0E01               	movlw	1
  7521   000AA6  27C8               	addwf	_amount_cycles& (0+255),f,b
  7522   000AA8  0E00               	movlw	0
  7523   000AAA  23C9               	addwfc	(_amount_cycles+1)& (0+255),f,b
  7524   000AAC  23CA               	addwfc	(_amount_cycles+2)& (0+255),f,b
  7525   000AAE  23CB               	addwfc	(_amount_cycles+3)& (0+255),f,b
  7526   000AB0  23CC               	addwfc	(_amount_cycles+4)& (0+255),f,b
  7527   000AB2  23CD               	addwfc	(_amount_cycles+5)& (0+255),f,b
  7528   000AB4  23CE               	addwfc	(_amount_cycles+6)& (0+255),f,b
  7529   000AB6  23CF               	addwfc	(_amount_cycles+7)& (0+255),f,b
  7530                           
  7531                           ;main.c: 450:         iterations = 0;
  7532   000AB8  EE21  F0D8         	lfsr	2,_iterations
  7533   000ABC  0E07               	movlw	7
  7534   000ABE                     u3691:
  7535   000ABE  6ADE               	clrf	postinc2,c
  7536   000AC0  06E8               	decf	wreg,f,c
  7537   000AC2  E2FD               	bc	u3691
  7538   000AC4                     
  7539                           ; BSR set to: 1
  7540                           ;main.c: 453:         for (i = 0;i < 2;i++){
  7541   000AC4  0E00               	movlw	0
  7542   000AC6  6E19               	movwf	(buttons_loop@i+1)^0,c
  7543   000AC8  0E00               	movlw	0
  7544   000ACA  6E18               	movwf	buttons_loop@i^0,c
  7545   000ACC                     l2914:
  7546                           
  7547                           ;main.c: 454:             if (b_state[i] == 0){
  7548   000ACC  0EAE               	movlw	low _b_state
  7549   000ACE  2418               	addwf	buttons_loop@i^0,w,c
  7550   000AD0  6ED9               	movwf	fsr2l,c
  7551   000AD2  0E00               	movlw	high _b_state
  7552   000AD4  2019               	addwfc	(buttons_loop@i+1)^0,w,c
  7553   000AD6  6EDA               	movwf	fsr2h,c
  7554   000AD8  50DF               	movf	indf2,w,c
  7555   000ADA  A4D8               	btfss	status,2,c
  7556   000ADC  EF72  F005         	goto	u3701
  7557   000AE0  EF74  F005         	goto	u3700
  7558   000AE4                     u3701:
  7559   000AE4  EF15  F006         	goto	l2924
  7560   000AE8                     u3700:
  7561   000AE8                     
  7562                           ;main.c: 455:                 if (b[i]){
  7563   000AE8  0EA9               	movlw	low _b
  7564   000AEA  2418               	addwf	buttons_loop@i^0,w,c
  7565   000AEC  6ED9               	movwf	fsr2l,c
  7566   000AEE  0E00               	movlw	high _b
  7567   000AF0  2019               	addwfc	(buttons_loop@i+1)^0,w,c
  7568   000AF2  6EDA               	movwf	fsr2h,c
  7569   000AF4  50DF               	movf	indf2,w,c
  7570   000AF6  B4D8               	btfsc	status,2,c
  7571   000AF8  EF80  F005         	goto	u3711
  7572   000AFC  EF82  F005         	goto	u3710
  7573   000B00                     u3711:
  7574   000B00  EFF4  F005         	goto	l2922
  7575   000B04                     u3710:
  7576   000B04                     
  7577                           ;main.c: 456:                     b_counter[i] ++;
  7578   000B04  C018  F007         	movff	buttons_loop@i,??_buttons_loop
  7579   000B08  C019  F008         	movff	buttons_loop@i+1,??_buttons_loop+1
  7580   000B0C  90D8               	bcf	status,0,c
  7581   000B0E  3607               	rlcf	??_buttons_loop^0,f,c
  7582   000B10  3608               	rlcf	(??_buttons_loop+1)^0,f,c
  7583   000B12  90D8               	bcf	status,0,c
  7584   000B14  3607               	rlcf	??_buttons_loop^0,f,c
  7585   000B16  3608               	rlcf	(??_buttons_loop+1)^0,f,c
  7586   000B18  90D8               	bcf	status,0,c
  7587   000B1A  3607               	rlcf	??_buttons_loop^0,f,c
  7588   000B1C  3608               	rlcf	(??_buttons_loop+1)^0,f,c
  7589   000B1E  0E78               	movlw	low _b_counter
  7590   000B20  2407               	addwf	??_buttons_loop^0,w,c
  7591   000B22  6ED9               	movwf	fsr2l,c
  7592   000B24  0E01               	movlw	high _b_counter
  7593   000B26  2008               	addwfc	(??_buttons_loop+1)^0,w,c
  7594   000B28  6EDA               	movwf	fsr2h,c
  7595   000B2A  2ADE               	incf	postinc2,f,c
  7596   000B2C  0E00               	movlw	0
  7597   000B2E  22DE               	addwfc	postinc2,f,c
  7598   000B30  22DE               	addwfc	postinc2,f,c
  7599   000B32  22DE               	addwfc	postinc2,f,c
  7600   000B34  22DE               	addwfc	postinc2,f,c
  7601   000B36  22DE               	addwfc	postinc2,f,c
  7602   000B38  22DE               	addwfc	postinc2,f,c
  7603   000B3A  22DE               	addwfc	postinc2,f,c
  7604                           
  7605                           ;main.c: 457:                     if (b_counter[i] >= 2){
  7606   000B3C  C018  F007         	movff	buttons_loop@i,??_buttons_loop
  7607   000B40  C019  F008         	movff	buttons_loop@i+1,??_buttons_loop+1
  7608   000B44  90D8               	bcf	status,0,c
  7609   000B46  3607               	rlcf	??_buttons_loop^0,f,c
  7610   000B48  3608               	rlcf	(??_buttons_loop+1)^0,f,c
  7611   000B4A  90D8               	bcf	status,0,c
  7612   000B4C  3607               	rlcf	??_buttons_loop^0,f,c
  7613   000B4E  3608               	rlcf	(??_buttons_loop+1)^0,f,c
  7614   000B50  90D8               	bcf	status,0,c
  7615   000B52  3607               	rlcf	??_buttons_loop^0,f,c
  7616   000B54  3608               	rlcf	(??_buttons_loop+1)^0,f,c
  7617   000B56  0E78               	movlw	low _b_counter
  7618   000B58  2407               	addwf	??_buttons_loop^0,w,c
  7619   000B5A  6ED9               	movwf	fsr2l,c
  7620   000B5C  0E01               	movlw	high _b_counter
  7621   000B5E  2008               	addwfc	(??_buttons_loop+1)^0,w,c
  7622   000B60  6EDA               	movwf	fsr2h,c
  7623   000B62  0E07               	movlw	7
  7624   000B64  BEDB               	btfsc	plusw2,7,c
  7625   000B66  EFD1  F005         	goto	u3721
  7626   000B6A  0E07               	movlw	7
  7627   000B6C  50DB               	movf	plusw2,w,c
  7628   000B6E  E11B               	bnz	u3720
  7629   000B70  0E06               	movlw	6
  7630   000B72  50DB               	movf	plusw2,w,c
  7631   000B74  E118               	bnz	u3720
  7632   000B76  0E05               	movlw	5
  7633   000B78  50DB               	movf	plusw2,w,c
  7634   000B7A  E115               	bnz	u3720
  7635   000B7C  0E04               	movlw	4
  7636   000B7E  50DB               	movf	plusw2,w,c
  7637   000B80  E112               	bnz	u3720
  7638   000B82  0E03               	movlw	3
  7639   000B84  50DB               	movf	plusw2,w,c
  7640   000B86  E10F               	bnz	u3720
  7641   000B88  0E02               	movlw	2
  7642   000B8A  50DB               	movf	plusw2,w,c
  7643   000B8C  E10C               	bnz	u3720
  7644   000B8E  0E01               	movlw	1
  7645   000B90  50DB               	movf	plusw2,w,c
  7646   000B92  E109               	bnz	u3720
  7647   000B94  0E02               	movlw	2
  7648   000B96  5CDE               	subwf	postinc2,w,c
  7649   000B98  A0D8               	btfss	status,0,c
  7650   000B9A  EFD1  F005         	goto	u3721
  7651   000B9E  EFD3  F005         	goto	u3720
  7652   000BA2                     u3721:
  7653   000BA2  EFC2  F006         	goto	l2934
  7654   000BA6                     u3720:
  7655   000BA6                     
  7656                           ;main.c: 458:                         b_state[i] = 1;
  7657   000BA6  0EAE               	movlw	low _b_state
  7658   000BA8  2418               	addwf	buttons_loop@i^0,w,c
  7659   000BAA  6ED9               	movwf	fsr2l,c
  7660   000BAC  0E00               	movlw	high _b_state
  7661   000BAE  2019               	addwfc	(buttons_loop@i+1)^0,w,c
  7662   000BB0  6EDA               	movwf	fsr2h,c
  7663   000BB2  0E01               	movlw	1
  7664   000BB4  6EDF               	movwf	indf2,c
  7665                           
  7666                           ;main.c: 459:                         b_counter[i] = 0;
  7667   000BB6  C018  F007         	movff	buttons_loop@i,??_buttons_loop
  7668   000BBA  C019  F008         	movff	buttons_loop@i+1,??_buttons_loop+1
  7669   000BBE  90D8               	bcf	status,0,c
  7670   000BC0  3607               	rlcf	??_buttons_loop^0,f,c
  7671   000BC2  3608               	rlcf	(??_buttons_loop+1)^0,f,c
  7672   000BC4  90D8               	bcf	status,0,c
  7673   000BC6  3607               	rlcf	??_buttons_loop^0,f,c
  7674   000BC8  3608               	rlcf	(??_buttons_loop+1)^0,f,c
  7675   000BCA  90D8               	bcf	status,0,c
  7676   000BCC  3607               	rlcf	??_buttons_loop^0,f,c
  7677   000BCE  3608               	rlcf	(??_buttons_loop+1)^0,f,c
  7678   000BD0  0E78               	movlw	low _b_counter
  7679   000BD2  2407               	addwf	??_buttons_loop^0,w,c
  7680   000BD4  6ED9               	movwf	fsr2l,c
  7681   000BD6  0E01               	movlw	high _b_counter
  7682   000BD8  2008               	addwfc	(??_buttons_loop+1)^0,w,c
  7683   000BDA  6EDA               	movwf	fsr2h,c
  7684   000BDC  0E07               	movlw	7
  7685   000BDE                     u3731:
  7686   000BDE  6ADE               	clrf	postinc2,c
  7687   000BE0  06E8               	decf	wreg,f,c
  7688   000BE2  E2FD               	bc	u3731
  7689   000BE4  EFC2  F006         	goto	l2934
  7690   000BE8                     l2922:
  7691                           
  7692                           ;main.c: 462:                     b[i] = 1;
  7693   000BE8  0EA9               	movlw	low _b
  7694   000BEA  2418               	addwf	buttons_loop@i^0,w,c
  7695   000BEC  6ED9               	movwf	fsr2l,c
  7696   000BEE  0E00               	movlw	high _b
  7697   000BF0  2019               	addwfc	(buttons_loop@i+1)^0,w,c
  7698   000BF2  6EDA               	movwf	fsr2h,c
  7699   000BF4  0E01               	movlw	1
  7700   000BF6  6EDF               	movwf	indf2,c
  7701                           
  7702                           ;main.c: 463:                     b_counter[i] = 0;
  7703   000BF8  C018  F007         	movff	buttons_loop@i,??_buttons_loop
  7704   000BFC  C019  F008         	movff	buttons_loop@i+1,??_buttons_loop+1
  7705   000C00  90D8               	bcf	status,0,c
  7706   000C02  3607               	rlcf	??_buttons_loop^0,f,c
  7707   000C04  3608               	rlcf	(??_buttons_loop+1)^0,f,c
  7708   000C06  90D8               	bcf	status,0,c
  7709   000C08  3607               	rlcf	??_buttons_loop^0,f,c
  7710   000C0A  3608               	rlcf	(??_buttons_loop+1)^0,f,c
  7711   000C0C  90D8               	bcf	status,0,c
  7712   000C0E  3607               	rlcf	??_buttons_loop^0,f,c
  7713   000C10  3608               	rlcf	(??_buttons_loop+1)^0,f,c
  7714   000C12  0E78               	movlw	low _b_counter
  7715   000C14  2407               	addwf	??_buttons_loop^0,w,c
  7716   000C16  6ED9               	movwf	fsr2l,c
  7717   000C18  0E01               	movlw	high _b_counter
  7718   000C1A  2008               	addwfc	(??_buttons_loop+1)^0,w,c
  7719   000C1C  6EDA               	movwf	fsr2h,c
  7720   000C1E  0E07               	movlw	7
  7721   000C20                     u3741:
  7722   000C20  6ADE               	clrf	postinc2,c
  7723   000C22  06E8               	decf	wreg,f,c
  7724   000C24  E2FD               	bc	u3741
  7725   000C26  EFC2  F006         	goto	l2934
  7726   000C2A                     l2924:
  7727   000C2A  0EAE               	movlw	low _b_state
  7728   000C2C  2418               	addwf	buttons_loop@i^0,w,c
  7729   000C2E  6ED9               	movwf	fsr2l,c
  7730   000C30  0E00               	movlw	high _b_state
  7731   000C32  2019               	addwfc	(buttons_loop@i+1)^0,w,c
  7732   000C34  6EDA               	movwf	fsr2h,c
  7733   000C36  04DE               	decf	postinc2,w,c
  7734   000C38  A4D8               	btfss	status,2,c
  7735   000C3A  EF21  F006         	goto	u3751
  7736   000C3E  EF23  F006         	goto	u3750
  7737   000C42                     u3751:
  7738   000C42  EFC2  F006         	goto	l2934
  7739   000C46                     u3750:
  7740   000C46                     
  7741                           ;main.c: 466:                 if (!b[i]){
  7742   000C46  0EA9               	movlw	low _b
  7743   000C48  2418               	addwf	buttons_loop@i^0,w,c
  7744   000C4A  6ED9               	movwf	fsr2l,c
  7745   000C4C  0E00               	movlw	high _b
  7746   000C4E  2019               	addwfc	(buttons_loop@i+1)^0,w,c
  7747   000C50  6EDA               	movwf	fsr2h,c
  7748   000C52  50DF               	movf	indf2,w,c
  7749   000C54  A4D8               	btfss	status,2,c
  7750   000C56  EF2F  F006         	goto	u3761
  7751   000C5A  EF31  F006         	goto	u3760
  7752   000C5E                     u3761:
  7753   000C5E  EFA3  F006         	goto	l2932
  7754   000C62                     u3760:
  7755   000C62                     
  7756                           ;main.c: 467:                     b_counter[i] ++;
  7757   000C62  C018  F007         	movff	buttons_loop@i,??_buttons_loop
  7758   000C66  C019  F008         	movff	buttons_loop@i+1,??_buttons_loop+1
  7759   000C6A  90D8               	bcf	status,0,c
  7760   000C6C  3607               	rlcf	??_buttons_loop^0,f,c
  7761   000C6E  3608               	rlcf	(??_buttons_loop+1)^0,f,c
  7762   000C70  90D8               	bcf	status,0,c
  7763   000C72  3607               	rlcf	??_buttons_loop^0,f,c
  7764   000C74  3608               	rlcf	(??_buttons_loop+1)^0,f,c
  7765   000C76  90D8               	bcf	status,0,c
  7766   000C78  3607               	rlcf	??_buttons_loop^0,f,c
  7767   000C7A  3608               	rlcf	(??_buttons_loop+1)^0,f,c
  7768   000C7C  0E78               	movlw	low _b_counter
  7769   000C7E  2407               	addwf	??_buttons_loop^0,w,c
  7770   000C80  6ED9               	movwf	fsr2l,c
  7771   000C82  0E01               	movlw	high _b_counter
  7772   000C84  2008               	addwfc	(??_buttons_loop+1)^0,w,c
  7773   000C86  6EDA               	movwf	fsr2h,c
  7774   000C88  2ADE               	incf	postinc2,f,c
  7775   000C8A  0E00               	movlw	0
  7776   000C8C  22DE               	addwfc	postinc2,f,c
  7777   000C8E  22DE               	addwfc	postinc2,f,c
  7778   000C90  22DE               	addwfc	postinc2,f,c
  7779   000C92  22DE               	addwfc	postinc2,f,c
  7780   000C94  22DE               	addwfc	postinc2,f,c
  7781   000C96  22DE               	addwfc	postinc2,f,c
  7782   000C98  22DE               	addwfc	postinc2,f,c
  7783                           
  7784                           ;main.c: 468:                     if (b_counter[i] >= 2){
  7785   000C9A  C018  F007         	movff	buttons_loop@i,??_buttons_loop
  7786   000C9E  C019  F008         	movff	buttons_loop@i+1,??_buttons_loop+1
  7787   000CA2  90D8               	bcf	status,0,c
  7788   000CA4  3607               	rlcf	??_buttons_loop^0,f,c
  7789   000CA6  3608               	rlcf	(??_buttons_loop+1)^0,f,c
  7790   000CA8  90D8               	bcf	status,0,c
  7791   000CAA  3607               	rlcf	??_buttons_loop^0,f,c
  7792   000CAC  3608               	rlcf	(??_buttons_loop+1)^0,f,c
  7793   000CAE  90D8               	bcf	status,0,c
  7794   000CB0  3607               	rlcf	??_buttons_loop^0,f,c
  7795   000CB2  3608               	rlcf	(??_buttons_loop+1)^0,f,c
  7796   000CB4  0E78               	movlw	low _b_counter
  7797   000CB6  2407               	addwf	??_buttons_loop^0,w,c
  7798   000CB8  6ED9               	movwf	fsr2l,c
  7799   000CBA  0E01               	movlw	high _b_counter
  7800   000CBC  2008               	addwfc	(??_buttons_loop+1)^0,w,c
  7801   000CBE  6EDA               	movwf	fsr2h,c
  7802   000CC0  0E07               	movlw	7
  7803   000CC2  BEDB               	btfsc	plusw2,7,c
  7804   000CC4  EF80  F006         	goto	u3771
  7805   000CC8  0E07               	movlw	7
  7806   000CCA  50DB               	movf	plusw2,w,c
  7807   000CCC  E11B               	bnz	u3770
  7808   000CCE  0E06               	movlw	6
  7809   000CD0  50DB               	movf	plusw2,w,c
  7810   000CD2  E118               	bnz	u3770
  7811   000CD4  0E05               	movlw	5
  7812   000CD6  50DB               	movf	plusw2,w,c
  7813   000CD8  E115               	bnz	u3770
  7814   000CDA  0E04               	movlw	4
  7815   000CDC  50DB               	movf	plusw2,w,c
  7816   000CDE  E112               	bnz	u3770
  7817   000CE0  0E03               	movlw	3
  7818   000CE2  50DB               	movf	plusw2,w,c
  7819   000CE4  E10F               	bnz	u3770
  7820   000CE6  0E02               	movlw	2
  7821   000CE8  50DB               	movf	plusw2,w,c
  7822   000CEA  E10C               	bnz	u3770
  7823   000CEC  0E01               	movlw	1
  7824   000CEE  50DB               	movf	plusw2,w,c
  7825   000CF0  E109               	bnz	u3770
  7826   000CF2  0E02               	movlw	2
  7827   000CF4  5CDE               	subwf	postinc2,w,c
  7828   000CF6  A0D8               	btfss	status,0,c
  7829   000CF8  EF80  F006         	goto	u3771
  7830   000CFC  EF82  F006         	goto	u3770
  7831   000D00                     u3771:
  7832   000D00  EFC2  F006         	goto	l2934
  7833   000D04                     u3770:
  7834   000D04                     
  7835                           ;main.c: 469:                         b_state[i] = 0;
  7836   000D04  0EAE               	movlw	low _b_state
  7837   000D06  2418               	addwf	buttons_loop@i^0,w,c
  7838   000D08  6ED9               	movwf	fsr2l,c
  7839   000D0A  0E00               	movlw	high _b_state
  7840   000D0C  2019               	addwfc	(buttons_loop@i+1)^0,w,c
  7841   000D0E  6EDA               	movwf	fsr2h,c
  7842   000D10  0E00               	movlw	0
  7843   000D12  6EDF               	movwf	indf2,c
  7844                           
  7845                           ;main.c: 470:                         b_counter[i] = 0;
  7846   000D14  C018  F007         	movff	buttons_loop@i,??_buttons_loop
  7847   000D18  C019  F008         	movff	buttons_loop@i+1,??_buttons_loop+1
  7848   000D1C  90D8               	bcf	status,0,c
  7849   000D1E  3607               	rlcf	??_buttons_loop^0,f,c
  7850   000D20  3608               	rlcf	(??_buttons_loop+1)^0,f,c
  7851   000D22  90D8               	bcf	status,0,c
  7852   000D24  3607               	rlcf	??_buttons_loop^0,f,c
  7853   000D26  3608               	rlcf	(??_buttons_loop+1)^0,f,c
  7854   000D28  90D8               	bcf	status,0,c
  7855   000D2A  3607               	rlcf	??_buttons_loop^0,f,c
  7856   000D2C  3608               	rlcf	(??_buttons_loop+1)^0,f,c
  7857   000D2E  0E78               	movlw	low _b_counter
  7858   000D30  2407               	addwf	??_buttons_loop^0,w,c
  7859   000D32  6ED9               	movwf	fsr2l,c
  7860   000D34  0E01               	movlw	high _b_counter
  7861   000D36  2008               	addwfc	(??_buttons_loop+1)^0,w,c
  7862   000D38  6EDA               	movwf	fsr2h,c
  7863   000D3A  0E07               	movlw	7
  7864   000D3C                     u3781:
  7865   000D3C  6ADE               	clrf	postinc2,c
  7866   000D3E  06E8               	decf	wreg,f,c
  7867   000D40  E2FD               	bc	u3781
  7868   000D42  EFC2  F006         	goto	l2934
  7869   000D46                     l2932:
  7870                           
  7871                           ;main.c: 473:                     b[i] = 0;
  7872   000D46  0EA9               	movlw	low _b
  7873   000D48  2418               	addwf	buttons_loop@i^0,w,c
  7874   000D4A  6ED9               	movwf	fsr2l,c
  7875   000D4C  0E00               	movlw	high _b
  7876   000D4E  2019               	addwfc	(buttons_loop@i+1)^0,w,c
  7877   000D50  6EDA               	movwf	fsr2h,c
  7878   000D52  0E00               	movlw	0
  7879   000D54  6EDF               	movwf	indf2,c
  7880                           
  7881                           ;main.c: 474:                     b_counter[i] = 0;
  7882   000D56  C018  F007         	movff	buttons_loop@i,??_buttons_loop
  7883   000D5A  C019  F008         	movff	buttons_loop@i+1,??_buttons_loop+1
  7884   000D5E  90D8               	bcf	status,0,c
  7885   000D60  3607               	rlcf	??_buttons_loop^0,f,c
  7886   000D62  3608               	rlcf	(??_buttons_loop+1)^0,f,c
  7887   000D64  90D8               	bcf	status,0,c
  7888   000D66  3607               	rlcf	??_buttons_loop^0,f,c
  7889   000D68  3608               	rlcf	(??_buttons_loop+1)^0,f,c
  7890   000D6A  90D8               	bcf	status,0,c
  7891   000D6C  3607               	rlcf	??_buttons_loop^0,f,c
  7892   000D6E  3608               	rlcf	(??_buttons_loop+1)^0,f,c
  7893   000D70  0E78               	movlw	low _b_counter
  7894   000D72  2407               	addwf	??_buttons_loop^0,w,c
  7895   000D74  6ED9               	movwf	fsr2l,c
  7896   000D76  0E01               	movlw	high _b_counter
  7897   000D78  2008               	addwfc	(??_buttons_loop+1)^0,w,c
  7898   000D7A  6EDA               	movwf	fsr2h,c
  7899   000D7C  0E07               	movlw	7
  7900   000D7E                     u3791:
  7901   000D7E  6ADE               	clrf	postinc2,c
  7902   000D80  06E8               	decf	wreg,f,c
  7903   000D82  E2FD               	bc	u3791
  7904   000D84                     l2934:
  7905                           
  7906                           ;main.c: 477:         }
  7907   000D84  4A18               	infsnz	buttons_loop@i^0,f,c
  7908   000D86  2A19               	incf	(buttons_loop@i+1)^0,f,c
  7909   000D88  BE19               	btfsc	(buttons_loop@i+1)^0,7,c
  7910   000D8A  EFD0  F006         	goto	u3801
  7911   000D8E  5019               	movf	(buttons_loop@i+1)^0,w,c
  7912   000D90  E109               	bnz	u3800
  7913   000D92  0E02               	movlw	2
  7914   000D94  5C18               	subwf	buttons_loop@i^0,w,c
  7915   000D96  A0D8               	btfss	status,0,c
  7916   000D98  EFD0  F006         	goto	u3801
  7917   000D9C  EFD2  F006         	goto	u3800
  7918   000DA0                     u3801:
  7919   000DA0  EF66  F005         	goto	l2914
  7920   000DA4                     u3800:
  7921   000DA4                     
  7922                           ;main.c: 480:         char click_evt[5];;main.c: 482:         for (i = 0;i < 2;i++){
  7923   000DA4  0E00               	movlw	0
  7924   000DA6  6E19               	movwf	(buttons_loop@i+1)^0,c
  7925   000DA8  0E00               	movlw	0
  7926   000DAA  6E18               	movwf	buttons_loop@i^0,c
  7927   000DAC                     l2944:
  7928                           
  7929                           ;main.c: 483:             click_evt[i] = 0;
  7930   000DAC  0E11               	movlw	low buttons_loop@click_evt
  7931   000DAE  2418               	addwf	buttons_loop@i^0,w,c
  7932   000DB0  6ED9               	movwf	fsr2l,c
  7933   000DB2  0E00               	movlw	high buttons_loop@click_evt
  7934   000DB4  2019               	addwfc	(buttons_loop@i+1)^0,w,c
  7935   000DB6  6EDA               	movwf	fsr2h,c
  7936   000DB8  0E00               	movlw	0
  7937   000DBA  6EDF               	movwf	indf2,c
  7938                           
  7939                           ;main.c: 485:             if (last_b[i] == 0 && b_state[i] == 1){
  7940   000DBC  0EEF               	movlw	low _last_b
  7941   000DBE  2418               	addwf	buttons_loop@i^0,w,c
  7942   000DC0  6ED9               	movwf	fsr2l,c
  7943   000DC2  0E01               	movlw	high _last_b
  7944   000DC4  2019               	addwfc	(buttons_loop@i+1)^0,w,c
  7945   000DC6  6EDA               	movwf	fsr2h,c
  7946   000DC8  50DF               	movf	indf2,w,c
  7947   000DCA  A4D8               	btfss	status,2,c
  7948   000DCC  EFEA  F006         	goto	u3811
  7949   000DD0  EFEC  F006         	goto	u3810
  7950   000DD4                     u3811:
  7951   000DD4  EF13  F007         	goto	l2950
  7952   000DD8                     u3810:
  7953   000DD8  0EAE               	movlw	low _b_state
  7954   000DDA  2418               	addwf	buttons_loop@i^0,w,c
  7955   000DDC  6ED9               	movwf	fsr2l,c
  7956   000DDE  0E00               	movlw	high _b_state
  7957   000DE0  2019               	addwfc	(buttons_loop@i+1)^0,w,c
  7958   000DE2  6EDA               	movwf	fsr2h,c
  7959   000DE4  04DE               	decf	postinc2,w,c
  7960   000DE6  A4D8               	btfss	status,2,c
  7961   000DE8  EFF8  F006         	goto	u3821
  7962   000DEC  EFFA  F006         	goto	u3820
  7963   000DF0                     u3821:
  7964   000DF0  EF13  F007         	goto	l2950
  7965   000DF4                     u3820:
  7966   000DF4                     
  7967                           ;main.c: 487:                 press_evt[i] ++;
  7968   000DF4  0EEA               	movlw	low _press_evt
  7969   000DF6  2418               	addwf	buttons_loop@i^0,w,c
  7970   000DF8  6ED9               	movwf	fsr2l,c
  7971   000DFA  0E01               	movlw	high _press_evt
  7972   000DFC  2019               	addwfc	(buttons_loop@i+1)^0,w,c
  7973   000DFE  6EDA               	movwf	fsr2h,c
  7974   000E00  2ADF               	incf	indf2,f,c
  7975                           
  7976                           ;main.c: 488:                 click_evt[i] = 1;
  7977   000E02  0E11               	movlw	low buttons_loop@click_evt
  7978   000E04  2418               	addwf	buttons_loop@i^0,w,c
  7979   000E06  6ED9               	movwf	fsr2l,c
  7980   000E08  0E00               	movlw	high buttons_loop@click_evt
  7981   000E0A  2019               	addwfc	(buttons_loop@i+1)^0,w,c
  7982   000E0C  6EDA               	movwf	fsr2h,c
  7983   000E0E  0E01               	movlw	1
  7984   000E10  6EDF               	movwf	indf2,c
  7985                           
  7986                           ;main.c: 490:                 last_b[i] = 1;
  7987   000E12  0EEF               	movlw	low _last_b
  7988   000E14  2418               	addwf	buttons_loop@i^0,w,c
  7989   000E16  6ED9               	movwf	fsr2l,c
  7990   000E18  0E01               	movlw	high _last_b
  7991   000E1A  2019               	addwfc	(buttons_loop@i+1)^0,w,c
  7992   000E1C  6EDA               	movwf	fsr2h,c
  7993   000E1E  0E01               	movlw	1
  7994   000E20  6EDF               	movwf	indf2,c
  7995                           
  7996                           ;main.c: 491:             }else if (last_b[i] == 1 && b_state[i] == 0){
  7997   000E22  EF3E  F007         	goto	l2956
  7998   000E26                     l2950:
  7999   000E26  0EEF               	movlw	low _last_b
  8000   000E28  2418               	addwf	buttons_loop@i^0,w,c
  8001   000E2A  6ED9               	movwf	fsr2l,c
  8002   000E2C  0E01               	movlw	high _last_b
  8003   000E2E  2019               	addwfc	(buttons_loop@i+1)^0,w,c
  8004   000E30  6EDA               	movwf	fsr2h,c
  8005   000E32  04DE               	decf	postinc2,w,c
  8006   000E34  A4D8               	btfss	status,2,c
  8007   000E36  EF1F  F007         	goto	u3831
  8008   000E3A  EF21  F007         	goto	u3830
  8009   000E3E                     u3831:
  8010   000E3E  EF3E  F007         	goto	l2956
  8011   000E42                     u3830:
  8012   000E42  0EAE               	movlw	low _b_state
  8013   000E44  2418               	addwf	buttons_loop@i^0,w,c
  8014   000E46  6ED9               	movwf	fsr2l,c
  8015   000E48  0E00               	movlw	high _b_state
  8016   000E4A  2019               	addwfc	(buttons_loop@i+1)^0,w,c
  8017   000E4C  6EDA               	movwf	fsr2h,c
  8018   000E4E  50DF               	movf	indf2,w,c
  8019   000E50  A4D8               	btfss	status,2,c
  8020   000E52  EF2D  F007         	goto	u3841
  8021   000E56  EF2F  F007         	goto	u3840
  8022   000E5A                     u3841:
  8023   000E5A  EF3E  F007         	goto	l2956
  8024   000E5E                     u3840:
  8025   000E5E                     
  8026                           ;main.c: 493:                 release_evt[i] ++;
  8027   000E5E  0EE5               	movlw	low _release_evt
  8028   000E60  2418               	addwf	buttons_loop@i^0,w,c
  8029   000E62  6ED9               	movwf	fsr2l,c
  8030   000E64  0E01               	movlw	high _release_evt
  8031   000E66  2019               	addwfc	(buttons_loop@i+1)^0,w,c
  8032   000E68  6EDA               	movwf	fsr2h,c
  8033   000E6A  2ADF               	incf	indf2,f,c
  8034                           
  8035                           ;main.c: 495:                 last_b[i] = 0;
  8036   000E6C  0EEF               	movlw	low _last_b
  8037   000E6E  2418               	addwf	buttons_loop@i^0,w,c
  8038   000E70  6ED9               	movwf	fsr2l,c
  8039   000E72  0E01               	movlw	high _last_b
  8040   000E74  2019               	addwfc	(buttons_loop@i+1)^0,w,c
  8041   000E76  6EDA               	movwf	fsr2h,c
  8042   000E78  0E00               	movlw	0
  8043   000E7A  6EDF               	movwf	indf2,c
  8044   000E7C                     l2956:
  8045                           
  8046                           ;main.c: 497:         }
  8047   000E7C  4A18               	infsnz	buttons_loop@i^0,f,c
  8048   000E7E  2A19               	incf	(buttons_loop@i+1)^0,f,c
  8049   000E80  BE19               	btfsc	(buttons_loop@i+1)^0,7,c
  8050   000E82  EF4C  F007         	goto	u3851
  8051   000E86  5019               	movf	(buttons_loop@i+1)^0,w,c
  8052   000E88  E109               	bnz	u3850
  8053   000E8A  0E02               	movlw	2
  8054   000E8C  5C18               	subwf	buttons_loop@i^0,w,c
  8055   000E8E  A0D8               	btfss	status,0,c
  8056   000E90  EF4C  F007         	goto	u3851
  8057   000E94  EF4E  F007         	goto	u3850
  8058   000E98                     u3851:
  8059   000E98  EFD6  F006         	goto	l2944
  8060   000E9C                     u3850:
  8061   000E9C                     
  8062                           ;main.c: 500:         int i;;main.c: 502:         for (i = 0;i < 2;i++){
  8063   000E9C  0E00               	movlw	0
  8064   000E9E  6E17               	movwf	(buttons_loop@i_1323+1)^0,c
  8065   000EA0  0E00               	movlw	0
  8066   000EA2  6E16               	movwf	buttons_loop@i_1323^0,c
  8067   000EA4                     l2966:
  8068                           
  8069                           ;main.c: 503:             if (combination_state[i] == 0){
  8070   000EA4  90D8               	bcf	status,0,c
  8071   000EA6  3416               	rlcf	buttons_loop@i_1323^0,w,c
  8072   000EA8  6ED9               	movwf	fsr2l,c
  8073   000EAA  3417               	rlcf	(buttons_loop@i_1323+1)^0,w,c
  8074   000EAC  6EDA               	movwf	fsr2h,c
  8075   000EAE  0E88               	movlw	low _combination_state
  8076   000EB0  26D9               	addwf	fsr2l,f,c
  8077   000EB2  0E00               	movlw	high _combination_state
  8078   000EB4  22DA               	addwfc	fsr2h,f,c
  8079   000EB6  50DE               	movf	postinc2,w,c
  8080   000EB8  10DE               	iorwf	postinc2,w,c
  8081   000EBA  A4D8               	btfss	status,2,c
  8082   000EBC  EF62  F007         	goto	u3861
  8083   000EC0  EF64  F007         	goto	u3860
  8084   000EC4                     u3861:
  8085   000EC4  EF98  F007         	goto	l2972
  8086   000EC8                     u3860:
  8087   000EC8                     
  8088                           ;main.c: 505:                 if (click_evt[i]){
  8089   000EC8  0E11               	movlw	low buttons_loop@click_evt
  8090   000ECA  2416               	addwf	buttons_loop@i_1323^0,w,c
  8091   000ECC  6ED9               	movwf	fsr2l,c
  8092   000ECE  0E00               	movlw	high buttons_loop@click_evt
  8093   000ED0  2017               	addwfc	(buttons_loop@i_1323+1)^0,w,c
  8094   000ED2  6EDA               	movwf	fsr2h,c
  8095   000ED4  50DF               	movf	indf2,w,c
  8096   000ED6  B4D8               	btfsc	status,2,c
  8097   000ED8  EF70  F007         	goto	u3871
  8098   000EDC  EF72  F007         	goto	u3870
  8099   000EE0                     u3871:
  8100   000EE0  EF0D  F009         	goto	l3002
  8101   000EE4                     u3870:
  8102   000EE4                     
  8103                           ;main.c: 506:                     state_counter[i] = 0;
  8104   000EE4  C016  F007         	movff	buttons_loop@i_1323,??_buttons_loop
  8105   000EE8  C017  F008         	movff	buttons_loop@i_1323+1,??_buttons_loop+1
  8106   000EEC  90D8               	bcf	status,0,c
  8107   000EEE  3607               	rlcf	??_buttons_loop^0,f,c
  8108   000EF0  3608               	rlcf	(??_buttons_loop+1)^0,f,c
  8109   000EF2  90D8               	bcf	status,0,c
  8110   000EF4  3607               	rlcf	??_buttons_loop^0,f,c
  8111   000EF6  3608               	rlcf	(??_buttons_loop+1)^0,f,c
  8112   000EF8  90D8               	bcf	status,0,c
  8113   000EFA  3607               	rlcf	??_buttons_loop^0,f,c
  8114   000EFC  3608               	rlcf	(??_buttons_loop+1)^0,f,c
  8115   000EFE  0E50               	movlw	low _state_counter
  8116   000F00  2407               	addwf	??_buttons_loop^0,w,c
  8117   000F02  6ED9               	movwf	fsr2l,c
  8118   000F04  0E01               	movlw	high _state_counter
  8119   000F06  2008               	addwfc	(??_buttons_loop+1)^0,w,c
  8120   000F08  6EDA               	movwf	fsr2h,c
  8121   000F0A  0E07               	movlw	7
  8122   000F0C                     u3881:
  8123   000F0C  6ADE               	clrf	postinc2,c
  8124   000F0E  06E8               	decf	wreg,f,c
  8125   000F10  E2FD               	bc	u3881
  8126                           
  8127                           ;main.c: 507:                     combination_state[i] = 1;
  8128   000F12  90D8               	bcf	status,0,c
  8129   000F14  3416               	rlcf	buttons_loop@i_1323^0,w,c
  8130   000F16  6ED9               	movwf	fsr2l,c
  8131   000F18  3417               	rlcf	(buttons_loop@i_1323+1)^0,w,c
  8132   000F1A  6EDA               	movwf	fsr2h,c
  8133   000F1C  0E88               	movlw	low _combination_state
  8134   000F1E  26D9               	addwf	fsr2l,f,c
  8135   000F20  0E00               	movlw	high _combination_state
  8136   000F22  22DA               	addwfc	fsr2h,f,c
  8137   000F24  0E01               	movlw	1
  8138   000F26  6EDE               	movwf	postinc2,c
  8139   000F28  0E00               	movlw	0
  8140   000F2A  6EDD               	movwf	postdec2,c
  8141   000F2C  EF0D  F009         	goto	l3002
  8142   000F30                     l2972:
  8143   000F30  90D8               	bcf	status,0,c
  8144   000F32  3416               	rlcf	buttons_loop@i_1323^0,w,c
  8145   000F34  6ED9               	movwf	fsr2l,c
  8146   000F36  3417               	rlcf	(buttons_loop@i_1323+1)^0,w,c
  8147   000F38  6EDA               	movwf	fsr2h,c
  8148   000F3A  0E88               	movlw	low _combination_state
  8149   000F3C  26D9               	addwf	fsr2l,f,c
  8150   000F3E  0E00               	movlw	high _combination_state
  8151   000F40  22DA               	addwfc	fsr2h,f,c
  8152   000F42  28DE               	incf	postinc2,w,c
  8153   000F44  E108               	bnz	u3890
  8154   000F46  28DE               	incf	postinc2,w,c
  8155   000F48  B4D8               	btfsc	status,2,c
  8156   000F4A  EFA9  F007         	goto	u3891
  8157   000F4E  EFAB  F007         	goto	u3890
  8158   000F52                     u3891:
  8159   000F52  EFA1  F008         	goto	l2994
  8160   000F56                     u3890:
  8161   000F56  90D8               	bcf	status,0,c
  8162   000F58  3416               	rlcf	buttons_loop@i_1323^0,w,c
  8163   000F5A  6ED9               	movwf	fsr2l,c
  8164   000F5C  3417               	rlcf	(buttons_loop@i_1323+1)^0,w,c
  8165   000F5E  6EDA               	movwf	fsr2h,c
  8166   000F60  0E88               	movlw	low _combination_state
  8167   000F62  26D9               	addwf	fsr2l,f,c
  8168   000F64  0E00               	movlw	high _combination_state
  8169   000F66  22DA               	addwfc	fsr2h,f,c
  8170   000F68  50DE               	movf	postinc2,w,c
  8171   000F6A  10DE               	iorwf	postinc2,w,c
  8172   000F6C  B4D8               	btfsc	status,2,c
  8173   000F6E  EFBB  F007         	goto	u3901
  8174   000F72  EFBD  F007         	goto	u3900
  8175   000F76                     u3901:
  8176   000F76  EFA1  F008         	goto	l2994
  8177   000F7A                     u3900:
  8178   000F7A                     
  8179                           ;main.c: 511:                 if (click_evt[i]){
  8180   000F7A  0E11               	movlw	low buttons_loop@click_evt
  8181   000F7C  2416               	addwf	buttons_loop@i_1323^0,w,c
  8182   000F7E  6ED9               	movwf	fsr2l,c
  8183   000F80  0E00               	movlw	high buttons_loop@click_evt
  8184   000F82  2017               	addwfc	(buttons_loop@i_1323+1)^0,w,c
  8185   000F84  6EDA               	movwf	fsr2h,c
  8186   000F86  50DF               	movf	indf2,w,c
  8187   000F88  B4D8               	btfsc	status,2,c
  8188   000F8A  EFC9  F007         	goto	u3911
  8189   000F8E  EFCB  F007         	goto	u3910
  8190   000F92                     u3911:
  8191   000F92  EFD7  F007         	goto	l256
  8192   000F96                     u3910:
  8193   000F96                     
  8194                           ;main.c: 512:                     combination_state[i] ++;
  8195   000F96  90D8               	bcf	status,0,c
  8196   000F98  3416               	rlcf	buttons_loop@i_1323^0,w,c
  8197   000F9A  6ED9               	movwf	fsr2l,c
  8198   000F9C  3417               	rlcf	(buttons_loop@i_1323+1)^0,w,c
  8199   000F9E  6EDA               	movwf	fsr2h,c
  8200   000FA0  0E88               	movlw	low _combination_state
  8201   000FA2  26D9               	addwf	fsr2l,f,c
  8202   000FA4  0E00               	movlw	high _combination_state
  8203   000FA6  22DA               	addwfc	fsr2h,f,c
  8204   000FA8  2ADE               	incf	postinc2,f,c
  8205   000FAA  0E00               	movlw	0
  8206   000FAC  22DD               	addwfc	postdec2,f,c
  8207   000FAE                     l256:
  8208                           
  8209                           ;main.c: 514:                 if (state_counter[i] >= 30){
  8210   000FAE  C016  F007         	movff	buttons_loop@i_1323,??_buttons_loop
  8211   000FB2  C017  F008         	movff	buttons_loop@i_1323+1,??_buttons_loop+1
  8212   000FB6  90D8               	bcf	status,0,c
  8213   000FB8  3607               	rlcf	??_buttons_loop^0,f,c
  8214   000FBA  3608               	rlcf	(??_buttons_loop+1)^0,f,c
  8215   000FBC  90D8               	bcf	status,0,c
  8216   000FBE  3607               	rlcf	??_buttons_loop^0,f,c
  8217   000FC0  3608               	rlcf	(??_buttons_loop+1)^0,f,c
  8218   000FC2  90D8               	bcf	status,0,c
  8219   000FC4  3607               	rlcf	??_buttons_loop^0,f,c
  8220   000FC6  3608               	rlcf	(??_buttons_loop+1)^0,f,c
  8221   000FC8  0E50               	movlw	low _state_counter
  8222   000FCA  2407               	addwf	??_buttons_loop^0,w,c
  8223   000FCC  6ED9               	movwf	fsr2l,c
  8224   000FCE  0E01               	movlw	high _state_counter
  8225   000FD0  2008               	addwfc	(??_buttons_loop+1)^0,w,c
  8226   000FD2  6EDA               	movwf	fsr2h,c
  8227   000FD4  0E07               	movlw	7
  8228   000FD6  BEDB               	btfsc	plusw2,7,c
  8229   000FD8  EF0A  F008         	goto	u3921
  8230   000FDC  0E07               	movlw	7
  8231   000FDE  50DB               	movf	plusw2,w,c
  8232   000FE0  E11B               	bnz	u3920
  8233   000FE2  0E06               	movlw	6
  8234   000FE4  50DB               	movf	plusw2,w,c
  8235   000FE6  E118               	bnz	u3920
  8236   000FE8  0E05               	movlw	5
  8237   000FEA  50DB               	movf	plusw2,w,c
  8238   000FEC  E115               	bnz	u3920
  8239   000FEE  0E04               	movlw	4
  8240   000FF0  50DB               	movf	plusw2,w,c
  8241   000FF2  E112               	bnz	u3920
  8242   000FF4  0E03               	movlw	3
  8243   000FF6  50DB               	movf	plusw2,w,c
  8244   000FF8  E10F               	bnz	u3920
  8245   000FFA  0E02               	movlw	2
  8246   000FFC  50DB               	movf	plusw2,w,c
  8247   000FFE  E10C               	bnz	u3920
  8248   001000  0E01               	movlw	1
  8249   001002  50DB               	movf	plusw2,w,c
  8250   001004  E109               	bnz	u3920
  8251   001006  0E1E               	movlw	30
  8252   001008  5CDE               	subwf	postinc2,w,c
  8253   00100A  A0D8               	btfss	status,0,c
  8254   00100C  EF0A  F008         	goto	u3921
  8255   001010  EF0C  F008         	goto	u3920
  8256   001014                     u3921:
  8257   001014  EF83  F008         	goto	l2992
  8258   001018                     u3920:
  8259   001018                     
  8260                           ;main.c: 516:                     if (combination_state[i] == 1){
  8261   001018  90D8               	bcf	status,0,c
  8262   00101A  3416               	rlcf	buttons_loop@i_1323^0,w,c
  8263   00101C  6ED9               	movwf	fsr2l,c
  8264   00101E  3417               	rlcf	(buttons_loop@i_1323+1)^0,w,c
  8265   001020  6EDA               	movwf	fsr2h,c
  8266   001022  0E88               	movlw	low _combination_state
  8267   001024  26D9               	addwf	fsr2l,f,c
  8268   001026  0E00               	movlw	high _combination_state
  8269   001028  22DA               	addwfc	fsr2h,f,c
  8270   00102A  04DE               	decf	postinc2,w,c
  8271   00102C  10DE               	iorwf	postinc2,w,c
  8272   00102E  A4D8               	btfss	status,2,c
  8273   001030  EF1C  F008         	goto	u3931
  8274   001034  EF1E  F008         	goto	u3930
  8275   001038                     u3931:
  8276   001038  EF27  F008         	goto	l2984
  8277   00103C                     u3930:
  8278   00103C                     
  8279                           ;main.c: 517:                         single_click_evt[i] ++;
  8280   00103C  0EA4               	movlw	low _single_click_evt
  8281   00103E  2416               	addwf	buttons_loop@i_1323^0,w,c
  8282   001040  6ED9               	movwf	fsr2l,c
  8283   001042  0E00               	movlw	high _single_click_evt
  8284   001044  2017               	addwfc	(buttons_loop@i_1323+1)^0,w,c
  8285   001046  6EDA               	movwf	fsr2h,c
  8286   001048  2ADF               	incf	indf2,f,c
  8287                           
  8288                           ;main.c: 518:                     }else if (combination_state[i] == 2){
  8289   00104A  EF5D  F008         	goto	l259
  8290   00104E                     l2984:
  8291   00104E  90D8               	bcf	status,0,c
  8292   001050  3416               	rlcf	buttons_loop@i_1323^0,w,c
  8293   001052  6ED9               	movwf	fsr2l,c
  8294   001054  3417               	rlcf	(buttons_loop@i_1323+1)^0,w,c
  8295   001056  6EDA               	movwf	fsr2h,c
  8296   001058  0E88               	movlw	low _combination_state
  8297   00105A  26D9               	addwf	fsr2l,f,c
  8298   00105C  0E00               	movlw	high _combination_state
  8299   00105E  22DA               	addwfc	fsr2h,f,c
  8300   001060  0E02               	movlw	2
  8301   001062  18DE               	xorwf	postinc2,w,c
  8302   001064  10DE               	iorwf	postinc2,w,c
  8303   001066  A4D8               	btfss	status,2,c
  8304   001068  EF38  F008         	goto	u3941
  8305   00106C  EF3A  F008         	goto	u3940
  8306   001070                     u3941:
  8307   001070  EF43  F008         	goto	l2988
  8308   001074                     u3940:
  8309   001074                     
  8310                           ;main.c: 519:                         double_click_evt[i] ++;
  8311   001074  0E9F               	movlw	low _double_click_evt
  8312   001076  2416               	addwf	buttons_loop@i_1323^0,w,c
  8313   001078  6ED9               	movwf	fsr2l,c
  8314   00107A  0E00               	movlw	high _double_click_evt
  8315   00107C  2017               	addwfc	(buttons_loop@i_1323+1)^0,w,c
  8316   00107E  6EDA               	movwf	fsr2h,c
  8317   001080  2ADF               	incf	indf2,f,c
  8318                           
  8319                           ;main.c: 520:                     }else if(combination_state[i] == 3){
  8320   001082  EF5D  F008         	goto	l259
  8321   001086                     l2988:
  8322   001086  90D8               	bcf	status,0,c
  8323   001088  3416               	rlcf	buttons_loop@i_1323^0,w,c
  8324   00108A  6ED9               	movwf	fsr2l,c
  8325   00108C  3417               	rlcf	(buttons_loop@i_1323+1)^0,w,c
  8326   00108E  6EDA               	movwf	fsr2h,c
  8327   001090  0E88               	movlw	low _combination_state
  8328   001092  26D9               	addwf	fsr2l,f,c
  8329   001094  0E00               	movlw	high _combination_state
  8330   001096  22DA               	addwfc	fsr2h,f,c
  8331   001098  0E03               	movlw	3
  8332   00109A  18DE               	xorwf	postinc2,w,c
  8333   00109C  10DE               	iorwf	postinc2,w,c
  8334   00109E  A4D8               	btfss	status,2,c
  8335   0010A0  EF54  F008         	goto	u3951
  8336   0010A4  EF56  F008         	goto	u3950
  8337   0010A8                     u3951:
  8338   0010A8  EF5D  F008         	goto	l259
  8339   0010AC                     u3950:
  8340   0010AC                     
  8341                           ;main.c: 521:                         triple_click_evt[i] ++;
  8342   0010AC  0EE0               	movlw	low _triple_click_evt
  8343   0010AE  2416               	addwf	buttons_loop@i_1323^0,w,c
  8344   0010B0  6ED9               	movwf	fsr2l,c
  8345   0010B2  0E01               	movlw	high _triple_click_evt
  8346   0010B4  2017               	addwfc	(buttons_loop@i_1323+1)^0,w,c
  8347   0010B6  6EDA               	movwf	fsr2h,c
  8348   0010B8  2ADF               	incf	indf2,f,c
  8349   0010BA                     l259:
  8350                           
  8351                           ;main.c: 523:                     state_counter[i] = 0;
  8352   0010BA  C016  F007         	movff	buttons_loop@i_1323,??_buttons_loop
  8353   0010BE  C017  F008         	movff	buttons_loop@i_1323+1,??_buttons_loop+1
  8354   0010C2  90D8               	bcf	status,0,c
  8355   0010C4  3607               	rlcf	??_buttons_loop^0,f,c
  8356   0010C6  3608               	rlcf	(??_buttons_loop+1)^0,f,c
  8357   0010C8  90D8               	bcf	status,0,c
  8358   0010CA  3607               	rlcf	??_buttons_loop^0,f,c
  8359   0010CC  3608               	rlcf	(??_buttons_loop+1)^0,f,c
  8360   0010CE  90D8               	bcf	status,0,c
  8361   0010D0  3607               	rlcf	??_buttons_loop^0,f,c
  8362   0010D2  3608               	rlcf	(??_buttons_loop+1)^0,f,c
  8363   0010D4  0E50               	movlw	low _state_counter
  8364   0010D6  2407               	addwf	??_buttons_loop^0,w,c
  8365   0010D8  6ED9               	movwf	fsr2l,c
  8366   0010DA  0E01               	movlw	high _state_counter
  8367   0010DC  2008               	addwfc	(??_buttons_loop+1)^0,w,c
  8368   0010DE  6EDA               	movwf	fsr2h,c
  8369   0010E0  0E07               	movlw	7
  8370   0010E2                     u3961:
  8371   0010E2  6ADE               	clrf	postinc2,c
  8372   0010E4  06E8               	decf	wreg,f,c
  8373   0010E6  E2FD               	bc	u3961
  8374                           
  8375                           ;main.c: 524:                     combination_state[i] = -1;
  8376   0010E8  90D8               	bcf	status,0,c
  8377   0010EA  3416               	rlcf	buttons_loop@i_1323^0,w,c
  8378   0010EC  6ED9               	movwf	fsr2l,c
  8379   0010EE  3417               	rlcf	(buttons_loop@i_1323+1)^0,w,c
  8380   0010F0  6EDA               	movwf	fsr2h,c
  8381   0010F2  0E88               	movlw	low _combination_state
  8382   0010F4  26D9               	addwf	fsr2l,f,c
  8383   0010F6  0E00               	movlw	high _combination_state
  8384   0010F8  22DA               	addwfc	fsr2h,f,c
  8385   0010FA  0EFF               	movlw	255
  8386   0010FC  6EDE               	movwf	postinc2,c
  8387   0010FE  0EFF               	movlw	255
  8388   001100  6EDD               	movwf	postdec2,c
  8389                           
  8390                           ;main.c: 525:                 }else{
  8391   001102  EF0D  F009         	goto	l3002
  8392   001106                     l2992:
  8393                           
  8394                           ;main.c: 526:                     state_counter[i] ++;
  8395   001106  C016  F007         	movff	buttons_loop@i_1323,??_buttons_loop
  8396   00110A  C017  F008         	movff	buttons_loop@i_1323+1,??_buttons_loop+1
  8397   00110E  90D8               	bcf	status,0,c
  8398   001110  3607               	rlcf	??_buttons_loop^0,f,c
  8399   001112  3608               	rlcf	(??_buttons_loop+1)^0,f,c
  8400   001114  90D8               	bcf	status,0,c
  8401   001116  3607               	rlcf	??_buttons_loop^0,f,c
  8402   001118  3608               	rlcf	(??_buttons_loop+1)^0,f,c
  8403   00111A  90D8               	bcf	status,0,c
  8404   00111C  3607               	rlcf	??_buttons_loop^0,f,c
  8405   00111E  3608               	rlcf	(??_buttons_loop+1)^0,f,c
  8406   001120  0E50               	movlw	low _state_counter
  8407   001122  2407               	addwf	??_buttons_loop^0,w,c
  8408   001124  6ED9               	movwf	fsr2l,c
  8409   001126  0E01               	movlw	high _state_counter
  8410   001128  2008               	addwfc	(??_buttons_loop+1)^0,w,c
  8411   00112A  6EDA               	movwf	fsr2h,c
  8412   00112C  2ADE               	incf	postinc2,f,c
  8413   00112E  0E00               	movlw	0
  8414   001130  22DE               	addwfc	postinc2,f,c
  8415   001132  22DE               	addwfc	postinc2,f,c
  8416   001134  22DE               	addwfc	postinc2,f,c
  8417   001136  22DE               	addwfc	postinc2,f,c
  8418   001138  22DE               	addwfc	postinc2,f,c
  8419   00113A  22DE               	addwfc	postinc2,f,c
  8420   00113C  22DE               	addwfc	postinc2,f,c
  8421   00113E  EF0D  F009         	goto	l3002
  8422   001142                     l2994:
  8423   001142  90D8               	bcf	status,0,c
  8424   001144  3416               	rlcf	buttons_loop@i_1323^0,w,c
  8425   001146  6ED9               	movwf	fsr2l,c
  8426   001148  3417               	rlcf	(buttons_loop@i_1323+1)^0,w,c
  8427   00114A  6EDA               	movwf	fsr2h,c
  8428   00114C  0E88               	movlw	low _combination_state
  8429   00114E  26D9               	addwf	fsr2l,f,c
  8430   001150  0E00               	movlw	high _combination_state
  8431   001152  22DA               	addwfc	fsr2h,f,c
  8432   001154  28DE               	incf	postinc2,w,c
  8433   001156  E106               	bnz	u3971
  8434   001158  28DE               	incf	postinc2,w,c
  8435   00115A  A4D8               	btfss	status,2,c
  8436   00115C  EFB2  F008         	goto	u3971
  8437   001160  EFB4  F008         	goto	u3970
  8438   001164                     u3971:
  8439   001164  EF0D  F009         	goto	l3002
  8440   001168                     u3970:
  8441   001168                     
  8442                           ;main.c: 529:                 if (state_counter[i] >= 10){
  8443   001168  C016  F007         	movff	buttons_loop@i_1323,??_buttons_loop
  8444   00116C  C017  F008         	movff	buttons_loop@i_1323+1,??_buttons_loop+1
  8445   001170  90D8               	bcf	status,0,c
  8446   001172  3607               	rlcf	??_buttons_loop^0,f,c
  8447   001174  3608               	rlcf	(??_buttons_loop+1)^0,f,c
  8448   001176  90D8               	bcf	status,0,c
  8449   001178  3607               	rlcf	??_buttons_loop^0,f,c
  8450   00117A  3608               	rlcf	(??_buttons_loop+1)^0,f,c
  8451   00117C  90D8               	bcf	status,0,c
  8452   00117E  3607               	rlcf	??_buttons_loop^0,f,c
  8453   001180  3608               	rlcf	(??_buttons_loop+1)^0,f,c
  8454   001182  0E50               	movlw	low _state_counter
  8455   001184  2407               	addwf	??_buttons_loop^0,w,c
  8456   001186  6ED9               	movwf	fsr2l,c
  8457   001188  0E01               	movlw	high _state_counter
  8458   00118A  2008               	addwfc	(??_buttons_loop+1)^0,w,c
  8459   00118C  6EDA               	movwf	fsr2h,c
  8460   00118E  0E07               	movlw	7
  8461   001190  BEDB               	btfsc	plusw2,7,c
  8462   001192  EFE7  F008         	goto	u3981
  8463   001196  0E07               	movlw	7
  8464   001198  50DB               	movf	plusw2,w,c
  8465   00119A  E11B               	bnz	u3980
  8466   00119C  0E06               	movlw	6
  8467   00119E  50DB               	movf	plusw2,w,c
  8468   0011A0  E118               	bnz	u3980
  8469   0011A2  0E05               	movlw	5
  8470   0011A4  50DB               	movf	plusw2,w,c
  8471   0011A6  E115               	bnz	u3980
  8472   0011A8  0E04               	movlw	4
  8473   0011AA  50DB               	movf	plusw2,w,c
  8474   0011AC  E112               	bnz	u3980
  8475   0011AE  0E03               	movlw	3
  8476   0011B0  50DB               	movf	plusw2,w,c
  8477   0011B2  E10F               	bnz	u3980
  8478   0011B4  0E02               	movlw	2
  8479   0011B6  50DB               	movf	plusw2,w,c
  8480   0011B8  E10C               	bnz	u3980
  8481   0011BA  0E01               	movlw	1
  8482   0011BC  50DB               	movf	plusw2,w,c
  8483   0011BE  E109               	bnz	u3980
  8484   0011C0  0E0A               	movlw	10
  8485   0011C2  5CDE               	subwf	postinc2,w,c
  8486   0011C4  A0D8               	btfss	status,0,c
  8487   0011C6  EFE7  F008         	goto	u3981
  8488   0011CA  EFE9  F008         	goto	u3980
  8489   0011CE                     u3981:
  8490   0011CE  EF83  F008         	goto	l2992
  8491   0011D2                     u3980:
  8492   0011D2                     
  8493                           ;main.c: 531:                     combination_state[i] = 0;
  8494   0011D2  90D8               	bcf	status,0,c
  8495   0011D4  3416               	rlcf	buttons_loop@i_1323^0,w,c
  8496   0011D6  6ED9               	movwf	fsr2l,c
  8497   0011D8  3417               	rlcf	(buttons_loop@i_1323+1)^0,w,c
  8498   0011DA  6EDA               	movwf	fsr2h,c
  8499   0011DC  0E88               	movlw	low _combination_state
  8500   0011DE  26D9               	addwf	fsr2l,f,c
  8501   0011E0  0E00               	movlw	high _combination_state
  8502   0011E2  22DA               	addwfc	fsr2h,f,c
  8503   0011E4  0E00               	movlw	0
  8504   0011E6  6EDE               	movwf	postinc2,c
  8505   0011E8  0E00               	movlw	0
  8506   0011EA  6EDD               	movwf	postdec2,c
  8507                           
  8508                           ;main.c: 532:                     state_counter[i] = 0;
  8509   0011EC  C016  F007         	movff	buttons_loop@i_1323,??_buttons_loop
  8510   0011F0  C017  F008         	movff	buttons_loop@i_1323+1,??_buttons_loop+1
  8511   0011F4  90D8               	bcf	status,0,c
  8512   0011F6  3607               	rlcf	??_buttons_loop^0,f,c
  8513   0011F8  3608               	rlcf	(??_buttons_loop+1)^0,f,c
  8514   0011FA  90D8               	bcf	status,0,c
  8515   0011FC  3607               	rlcf	??_buttons_loop^0,f,c
  8516   0011FE  3608               	rlcf	(??_buttons_loop+1)^0,f,c
  8517   001200  90D8               	bcf	status,0,c
  8518   001202  3607               	rlcf	??_buttons_loop^0,f,c
  8519   001204  3608               	rlcf	(??_buttons_loop+1)^0,f,c
  8520   001206  0E50               	movlw	low _state_counter
  8521   001208  2407               	addwf	??_buttons_loop^0,w,c
  8522   00120A  6ED9               	movwf	fsr2l,c
  8523   00120C  0E01               	movlw	high _state_counter
  8524   00120E  2008               	addwfc	(??_buttons_loop+1)^0,w,c
  8525   001210  6EDA               	movwf	fsr2h,c
  8526   001212  0E07               	movlw	7
  8527   001214                     u3991:
  8528   001214  6ADE               	clrf	postinc2,c
  8529   001216  06E8               	decf	wreg,f,c
  8530   001218  E2FD               	bc	u3991
  8531   00121A                     l3002:
  8532                           
  8533                           ;main.c: 537:         }
  8534   00121A  4A16               	infsnz	buttons_loop@i_1323^0,f,c
  8535   00121C  2A17               	incf	(buttons_loop@i_1323+1)^0,f,c
  8536   00121E  BE17               	btfsc	(buttons_loop@i_1323+1)^0,7,c
  8537   001220  EF1B  F009         	goto	u4001
  8538   001224  5017               	movf	(buttons_loop@i_1323+1)^0,w,c
  8539   001226  E109               	bnz	u4000
  8540   001228  0E02               	movlw	2
  8541   00122A  5C16               	subwf	buttons_loop@i_1323^0,w,c
  8542   00122C  A0D8               	btfss	status,0,c
  8543   00122E  EF1B  F009         	goto	u4001
  8544   001232  EF1D  F009         	goto	u4000
  8545   001236                     u4001:
  8546   001236  EF52  F007         	goto	l2966
  8547   00123A                     u4000:
  8548   00123A                     l268:
  8549   00123A  0012               	return		;funcret
  8550   00123C                     __end_of_buttons_loop:
  8551                           	callstack 0
  8552                           
  8553 ;; *************** function _buttons_init *****************
  8554 ;; Defined at:
  8555 ;;		line 382 in file "main.c"
  8556 ;; Parameters:    Size  Location     Type
  8557 ;;		None
  8558 ;; Auto vars:     Size  Location     Type
  8559 ;;  i               2    8[COMRAM] int 
  8560 ;; Return value:  Size  Location     Type
  8561 ;;                  1    wreg      void 
  8562 ;; Registers used:
  8563 ;;		wreg, fsr2l, fsr2h, status,2, status,0
  8564 ;; Tracked objects:
  8565 ;;		On entry : 0/0
  8566 ;;		On exit  : 0/0
  8567 ;;		Unchanged: 0/0
  8568 ;; Data sizes:     COMRAM   BANK0   BANK1   BANK2   BANK3   BANK4   BANK5   BANK6   BANK7
  8569 ;;      Params:         0       0       0       0       0       0       0       0       0
  8570 ;;      Locals:         2       0       0       0       0       0       0       0       0
  8571 ;;      Temps:          2       0       0       0       0       0       0       0       0
  8572 ;;      Totals:         4       0       0       0       0       0       0       0       0
  8573 ;;Total ram usage:        4 bytes
  8574 ;; Hardware stack levels used: 1
  8575 ;; Hardware stack levels required when called: 1
  8576 ;; This function calls:
  8577 ;;		Nothing
  8578 ;; This function is called by:
  8579 ;;		_main
  8580 ;; This function uses a non-reentrant model
  8581 ;;
  8582                           
  8583                           	psect	text29
  8584   002D70                     __ptext29:
  8585                           	callstack 0
  8586   002D70                     _buttons_init:
  8587                           	callstack 29
  8588   002D70                     
  8589                           ;main.c: 383:     int i;;main.c: 384:     for (i = 0;i < 2;i++){
  8590   002D70  0E00               	movlw	0
  8591   002D72  6E0A               	movwf	(buttons_init@i+1)^0,c
  8592   002D74  0E00               	movlw	0
  8593   002D76  6E09               	movwf	buttons_init@i^0,c
  8594   002D78                     l2840:
  8595                           
  8596                           ;main.c: 385:         b_state[i] = 0;
  8597   002D78  0EAE               	movlw	low _b_state
  8598   002D7A  2409               	addwf	buttons_init@i^0,w,c
  8599   002D7C  6ED9               	movwf	fsr2l,c
  8600   002D7E  0E00               	movlw	high _b_state
  8601   002D80  200A               	addwfc	(buttons_init@i+1)^0,w,c
  8602   002D82  6EDA               	movwf	fsr2h,c
  8603   002D84  0E00               	movlw	0
  8604   002D86  6EDF               	movwf	indf2,c
  8605                           
  8606                           ;main.c: 386:         b[i] = 0;
  8607   002D88  0EA9               	movlw	low _b
  8608   002D8A  2409               	addwf	buttons_init@i^0,w,c
  8609   002D8C  6ED9               	movwf	fsr2l,c
  8610   002D8E  0E00               	movlw	high _b
  8611   002D90  200A               	addwfc	(buttons_init@i+1)^0,w,c
  8612   002D92  6EDA               	movwf	fsr2h,c
  8613   002D94  0E00               	movlw	0
  8614   002D96  6EDF               	movwf	indf2,c
  8615                           
  8616                           ;main.c: 387:         last_b[i] = 0;
  8617   002D98  0EEF               	movlw	low _last_b
  8618   002D9A  2409               	addwf	buttons_init@i^0,w,c
  8619   002D9C  6ED9               	movwf	fsr2l,c
  8620   002D9E  0E01               	movlw	high _last_b
  8621   002DA0  200A               	addwfc	(buttons_init@i+1)^0,w,c
  8622   002DA2  6EDA               	movwf	fsr2h,c
  8623   002DA4  0E00               	movlw	0
  8624   002DA6  6EDF               	movwf	indf2,c
  8625                           
  8626                           ;main.c: 389:         b_counter[i] = 0;
  8627   002DA8  C009  F007         	movff	buttons_init@i,??_buttons_init
  8628   002DAC  C00A  F008         	movff	buttons_init@i+1,??_buttons_init+1
  8629   002DB0  90D8               	bcf	status,0,c
  8630   002DB2  3607               	rlcf	??_buttons_init^0,f,c
  8631   002DB4  3608               	rlcf	(??_buttons_init+1)^0,f,c
  8632   002DB6  90D8               	bcf	status,0,c
  8633   002DB8  3607               	rlcf	??_buttons_init^0,f,c
  8634   002DBA  3608               	rlcf	(??_buttons_init+1)^0,f,c
  8635   002DBC  90D8               	bcf	status,0,c
  8636   002DBE  3607               	rlcf	??_buttons_init^0,f,c
  8637   002DC0  3608               	rlcf	(??_buttons_init+1)^0,f,c
  8638   002DC2  0E78               	movlw	low _b_counter
  8639   002DC4  2407               	addwf	??_buttons_init^0,w,c
  8640   002DC6  6ED9               	movwf	fsr2l,c
  8641   002DC8  0E01               	movlw	high _b_counter
  8642   002DCA  2008               	addwfc	(??_buttons_init+1)^0,w,c
  8643   002DCC  6EDA               	movwf	fsr2h,c
  8644   002DCE  0E07               	movlw	7
  8645   002DD0                     u3441:
  8646   002DD0  6ADE               	clrf	postinc2,c
  8647   002DD2  06E8               	decf	wreg,f,c
  8648   002DD4  E2FD               	bc	u3441
  8649                           
  8650                           ;main.c: 390:         state_counter[i] = 0;
  8651   002DD6  C009  F007         	movff	buttons_init@i,??_buttons_init
  8652   002DDA  C00A  F008         	movff	buttons_init@i+1,??_buttons_init+1
  8653   002DDE  90D8               	bcf	status,0,c
  8654   002DE0  3607               	rlcf	??_buttons_init^0,f,c
  8655   002DE2  3608               	rlcf	(??_buttons_init+1)^0,f,c
  8656   002DE4  90D8               	bcf	status,0,c
  8657   002DE6  3607               	rlcf	??_buttons_init^0,f,c
  8658   002DE8  3608               	rlcf	(??_buttons_init+1)^0,f,c
  8659   002DEA  90D8               	bcf	status,0,c
  8660   002DEC  3607               	rlcf	??_buttons_init^0,f,c
  8661   002DEE  3608               	rlcf	(??_buttons_init+1)^0,f,c
  8662   002DF0  0E50               	movlw	low _state_counter
  8663   002DF2  2407               	addwf	??_buttons_init^0,w,c
  8664   002DF4  6ED9               	movwf	fsr2l,c
  8665   002DF6  0E01               	movlw	high _state_counter
  8666   002DF8  2008               	addwfc	(??_buttons_init+1)^0,w,c
  8667   002DFA  6EDA               	movwf	fsr2h,c
  8668   002DFC  0E07               	movlw	7
  8669   002DFE                     u3451:
  8670   002DFE  6ADE               	clrf	postinc2,c
  8671   002E00  06E8               	decf	wreg,f,c
  8672   002E02  E2FD               	bc	u3451
  8673                           
  8674                           ;main.c: 391:         combination_state[i] = 0;
  8675   002E04  90D8               	bcf	status,0,c
  8676   002E06  3409               	rlcf	buttons_init@i^0,w,c
  8677   002E08  6ED9               	movwf	fsr2l,c
  8678   002E0A  340A               	rlcf	(buttons_init@i+1)^0,w,c
  8679   002E0C  6EDA               	movwf	fsr2h,c
  8680   002E0E  0E88               	movlw	low _combination_state
  8681   002E10  26D9               	addwf	fsr2l,f,c
  8682   002E12  0E00               	movlw	high _combination_state
  8683   002E14  22DA               	addwfc	fsr2h,f,c
  8684   002E16  0E00               	movlw	0
  8685   002E18  6EDE               	movwf	postinc2,c
  8686   002E1A  0E00               	movlw	0
  8687   002E1C  6EDD               	movwf	postdec2,c
  8688                           
  8689                           ;main.c: 392:         single_click_evt[i] = 0;
  8690   002E1E  0EA4               	movlw	low _single_click_evt
  8691   002E20  2409               	addwf	buttons_init@i^0,w,c
  8692   002E22  6ED9               	movwf	fsr2l,c
  8693   002E24  0E00               	movlw	high _single_click_evt
  8694   002E26  200A               	addwfc	(buttons_init@i+1)^0,w,c
  8695   002E28  6EDA               	movwf	fsr2h,c
  8696   002E2A  0E00               	movlw	0
  8697   002E2C  6EDF               	movwf	indf2,c
  8698                           
  8699                           ;main.c: 393:         double_click_evt[i] = 0;
  8700   002E2E  0E9F               	movlw	low _double_click_evt
  8701   002E30  2409               	addwf	buttons_init@i^0,w,c
  8702   002E32  6ED9               	movwf	fsr2l,c
  8703   002E34  0E00               	movlw	high _double_click_evt
  8704   002E36  200A               	addwfc	(buttons_init@i+1)^0,w,c
  8705   002E38  6EDA               	movwf	fsr2h,c
  8706   002E3A  0E00               	movlw	0
  8707   002E3C  6EDF               	movwf	indf2,c
  8708                           
  8709                           ;main.c: 394:         triple_click_evt[i] = 0;
  8710   002E3E  0EE0               	movlw	low _triple_click_evt
  8711   002E40  2409               	addwf	buttons_init@i^0,w,c
  8712   002E42  6ED9               	movwf	fsr2l,c
  8713   002E44  0E01               	movlw	high _triple_click_evt
  8714   002E46  200A               	addwfc	(buttons_init@i+1)^0,w,c
  8715   002E48  6EDA               	movwf	fsr2h,c
  8716   002E4A  0E00               	movlw	0
  8717   002E4C  6EDF               	movwf	indf2,c
  8718   002E4E                     
  8719                           ;main.c: 395:     }
  8720   002E4E  4A09               	infsnz	buttons_init@i^0,f,c
  8721   002E50  2A0A               	incf	(buttons_init@i+1)^0,f,c
  8722   002E52  BE0A               	btfsc	(buttons_init@i+1)^0,7,c
  8723   002E54  EF35  F017         	goto	u3461
  8724   002E58  500A               	movf	(buttons_init@i+1)^0,w,c
  8725   002E5A  E109               	bnz	u3460
  8726   002E5C  0E02               	movlw	2
  8727   002E5E  5C09               	subwf	buttons_init@i^0,w,c
  8728   002E60  A0D8               	btfss	status,0,c
  8729   002E62  EF35  F017         	goto	u3461
  8730   002E66  EF37  F017         	goto	u3460
  8731   002E6A                     u3461:
  8732   002E6A  EFBC  F016         	goto	l2840
  8733   002E6E                     u3460:
  8734   002E6E                     
  8735                           ;main.c: 396:     initial_state = 1;
  8736   002E6E  0E01               	movlw	1
  8737   002E70  6E58               	movwf	_initial_state^0,c
  8738   002E72                     
  8739                           ;main.c: 399:     iterations = 0;
  8740   002E72  EE21  F0D8         	lfsr	2,_iterations
  8741   002E76  0E07               	movlw	7
  8742   002E78                     u3471:
  8743   002E78  6ADE               	clrf	postinc2,c
  8744   002E7A  06E8               	decf	wreg,f,c
  8745   002E7C  E2FD               	bc	u3471
  8746   002E7E                     
  8747                           ;main.c: 400:     sum_iterations = 0;
  8748   002E7E  EE21  F0D0         	lfsr	2,_sum_iterations
  8749   002E82  0E07               	movlw	7
  8750   002E84                     u3481:
  8751   002E84  6ADE               	clrf	postinc2,c
  8752   002E86  06E8               	decf	wreg,f,c
  8753   002E88  E2FD               	bc	u3481
  8754   002E8A                     
  8755                           ;main.c: 401:     amount_cycles = 0;
  8756   002E8A  EE21  F0C8         	lfsr	2,_amount_cycles
  8757   002E8E  0E07               	movlw	7
  8758   002E90                     u3491:
  8759   002E90  6ADE               	clrf	postinc2,c
  8760   002E92  06E8               	decf	wreg,f,c
  8761   002E94  E2FD               	bc	u3491
  8762   002E96  0012               	return		;funcret
  8763   002E98                     __end_of_buttons_init:
  8764                           	callstack 0
  8765                           
  8766 ;; *************** function _enc *****************
  8767 ;; Defined at:
  8768 ;;		line 299 in file "main.c"
  8769 ;; Parameters:    Size  Location     Type
  8770 ;;		None
  8771 ;; Auto vars:     Size  Location     Type
  8772 ;;  i               2    4[COMRAM] int 
  8773 ;; Return value:  Size  Location     Type
  8774 ;;                  1    wreg      void 
  8775 ;; Registers used:
  8776 ;;		wreg, fsr2l, fsr2h, status,2, status,0
  8777 ;; Tracked objects:
  8778 ;;		On entry : 0/0
  8779 ;;		On exit  : 0/0
  8780 ;;		Unchanged: 0/0
  8781 ;; Data sizes:     COMRAM   BANK0   BANK1   BANK2   BANK3   BANK4   BANK5   BANK6   BANK7
  8782 ;;      Params:         0       0       0       0       0       0       0       0       0
  8783 ;;      Locals:         2       0       0       0       0       0       0       0       0
  8784 ;;      Temps:          4       0       0       0       0       0       0       0       0
  8785 ;;      Totals:         6       0       0       0       0       0       0       0       0
  8786 ;;Total ram usage:        6 bytes
  8787 ;; Hardware stack levels used: 1
  8788 ;; This function calls:
  8789 ;;		Nothing
  8790 ;; This function is called by:
  8791 ;;		Interrupt level 2
  8792 ;; This function uses a non-reentrant model
  8793 ;;
  8794                           
  8795                           	psect	intcode
  8796   000008                     __pintcode:
  8797                           	callstack 0
  8798   000008                     _enc:
  8799                           	callstack 21
  8800                           
  8801                           ;incstack = 0
  8802   000008  8259               	bsf	int$flags,1,c	;set compiler interrupt flag (level 2)
  8803   00000A  EDCC  F019         	call	int_func,f	;refresh shadow registers
  8804                           
  8805                           	psect	intcode_body
  8806   003398                     __pintcode_body:
  8807                           	callstack 21
  8808   003398                     int_func:
  8809                           	callstack 21
  8810   003398  0006               	pop		; remove dummy address from shadow register refresh
  8811   00339A  CFD9 F003          	movff	fsr2l,??_enc+2
  8812   00339E  CFDA F004          	movff	fsr2h,??_enc+3
  8813   0033A2                     
  8814                           ;main.c: 300:     if (TMR0IF){
  8815   0033A2  A4F2               	btfss	4082,2,c	;volatile
  8816   0033A4  EFD6  F019         	goto	i2u517_41
  8817   0033A8  EFD8  F019         	goto	i2u517_40
  8818   0033AC                     i2u517_41:
  8819   0033AC  EF0D  F01A         	goto	i2l151
  8820   0033B0                     i2u517_40:
  8821   0033B0                     
  8822                           ;main.c: 302:         TMR0H = 0xF8;
  8823   0033B0  0EF8               	movlw	248
  8824   0033B2  6ED7               	movwf	215,c	;volatile
  8825                           
  8826                           ;main.c: 303:         TMR0L = 0xAC;
  8827   0033B4  0EAC               	movlw	172
  8828   0033B6  6ED6               	movwf	214,c	;volatile
  8829   0033B8                     
  8830                           ;main.c: 304:         TMR0IF = 0;
  8831   0033B8  94F2               	bcf	4082,2,c	;volatile
  8832                           
  8833                           ;main.c: 306:         int i;;main.c: 307:         for (i=0;i<5;i++){
  8834   0033BA  0E00               	movlw	0
  8835   0033BC  6E06               	movwf	(enc@i+1)^0,c
  8836   0033BE  0E00               	movlw	0
  8837   0033C0  6E05               	movwf	enc@i^0,c
  8838   0033C2                     i2l3372:
  8839                           
  8840                           ;main.c: 308:             counter[i] ++;
  8841   0033C2  C005  F001         	movff	enc@i,??_enc
  8842   0033C6  C006  F002         	movff	enc@i+1,??_enc+1
  8843   0033CA  90D8               	bcf	status,0,c
  8844   0033CC  3601               	rlcf	??_enc^0,f,c
  8845   0033CE  3602               	rlcf	(??_enc+1)^0,f,c
  8846   0033D0  90D8               	bcf	status,0,c
  8847   0033D2  3601               	rlcf	??_enc^0,f,c
  8848   0033D4  3602               	rlcf	(??_enc+1)^0,f,c
  8849   0033D6  90D8               	bcf	status,0,c
  8850   0033D8  3601               	rlcf	??_enc^0,f,c
  8851   0033DA  3602               	rlcf	(??_enc+1)^0,f,c
  8852   0033DC  0E60               	movlw	low _counter
  8853   0033DE  2401               	addwf	??_enc^0,w,c
  8854   0033E0  6ED9               	movwf	fsr2l,c
  8855   0033E2  0E00               	movlw	high _counter
  8856   0033E4  2002               	addwfc	(??_enc+1)^0,w,c
  8857   0033E6  6EDA               	movwf	fsr2h,c
  8858   0033E8  2ADE               	incf	postinc2,f,c
  8859   0033EA  0E00               	movlw	0
  8860   0033EC  22DE               	addwfc	postinc2,f,c
  8861   0033EE  22DE               	addwfc	postinc2,f,c
  8862   0033F0  22DE               	addwfc	postinc2,f,c
  8863   0033F2  22DE               	addwfc	postinc2,f,c
  8864   0033F4  22DE               	addwfc	postinc2,f,c
  8865   0033F6  22DE               	addwfc	postinc2,f,c
  8866   0033F8  22DE               	addwfc	postinc2,f,c
  8867   0033FA                     
  8868                           ;main.c: 309:         }
  8869   0033FA  4A05               	infsnz	enc@i^0,f,c
  8870   0033FC  2A06               	incf	(enc@i+1)^0,f,c
  8871   0033FE  BE06               	btfsc	(enc@i+1)^0,7,c
  8872   003400  EF0B  F01A         	goto	i2u518_41
  8873   003404  5006               	movf	(enc@i+1)^0,w,c
  8874   003406  E109               	bnz	i2u518_40
  8875   003408  0E05               	movlw	5
  8876   00340A  5C05               	subwf	enc@i^0,w,c
  8877   00340C  A0D8               	btfss	status,0,c
  8878   00340E  EF0B  F01A         	goto	i2u518_41
  8879   003412  EF0D  F01A         	goto	i2u518_40
  8880   003416                     i2u518_41:
  8881   003416  EFE1  F019         	goto	i2l3372
  8882   00341A                     i2u518_40:
  8883   00341A                     i2l151:
  8884   00341A  C004  FFDA         	movff	??_enc+3,fsr2h
  8885   00341E  C003  FFD9         	movff	??_enc+2,fsr2l
  8886   003422  9259               	bcf	int$flags,1,c	;clear compiler interrupt flag (level 2)
  8887   003424  0011               	retfie		f
  8888   003426                     __end_of_enc:
  8889                           	callstack 0
  8890                           
  8891                           	psect	rparam
  8892   000000                     
  8893                           	psect	temp
  8894   000059                     btemp:
  8895                           	callstack 0
  8896   000059                     	ds	1
  8897   000000                     int$flags	set	btemp
  8898   000000                     wtemp8	set	btemp+1
  8899   000000                     ttemp5	set	btemp+1
  8900   000000                     ttemp6	set	btemp+4
  8901   000000                     ttemp7	set	btemp+8
  8902                           
  8903                           	psect	idloc
  8904                           
  8905                           ;Config register IDLOC0 @ 0x200000
  8906                           ;	unspecified, using default values
  8907   200000                     	org	2097152
  8908   200000  FF                 	db	255
  8909                           
  8910                           ;Config register IDLOC1 @ 0x200001
  8911                           ;	unspecified, using default values
  8912   200001                     	org	2097153
  8913   200001  FF                 	db	255
  8914                           
  8915                           ;Config register IDLOC2 @ 0x200002
  8916                           ;	unspecified, using default values
  8917   200002                     	org	2097154
  8918   200002  FF                 	db	255
  8919                           
  8920                           ;Config register IDLOC3 @ 0x200003
  8921                           ;	unspecified, using default values
  8922   200003                     	org	2097155
  8923   200003  FF                 	db	255
  8924                           
  8925                           ;Config register IDLOC4 @ 0x200004
  8926                           ;	unspecified, using default values
  8927   200004                     	org	2097156
  8928   200004  FF                 	db	255
  8929                           
  8930                           ;Config register IDLOC5 @ 0x200005
  8931                           ;	unspecified, using default values
  8932   200005                     	org	2097157
  8933   200005  FF                 	db	255
  8934                           
  8935                           ;Config register IDLOC6 @ 0x200006
  8936                           ;	unspecified, using default values
  8937   200006                     	org	2097158
  8938   200006  FF                 	db	255
  8939                           
  8940                           ;Config register IDLOC7 @ 0x200007
  8941                           ;	unspecified, using default values
  8942   200007                     	org	2097159
  8943   200007  FF                 	db	255
  8944                           
  8945                           	psect	config
  8946                           
  8947                           ;Config register CONFIG1L @ 0x300000
  8948                           ;	PLL Prescaler Selection bits
  8949                           ;	PLLDIV = 5, Divide by 5 (20 MHz oscillator input)
  8950                           ;	System Clock Postscaler Selection bits
  8951                           ;	CPUDIV = OSC1_PLL2, [Primary Oscillator Src: /1][96 MHz PLL Src: /2]
  8952                           ;	USB Clock Selection bit (used in Full-Speed USB mode only; UCFG:FSEN = 1)
  8953                           ;	USBDIV = 2, USB clock source comes from the 96 MHz PLL divided by 2
  8954   300000                     	org	3145728
  8955   300000  24                 	db	36
  8956                           
  8957                           ;Config register CONFIG1H @ 0x300001
  8958                           ;	Oscillator Selection bits
  8959                           ;	FOSC = HSPLL_HS, HS oscillator, PLL enabled (HSPLL)
  8960                           ;	Fail-Safe Clock Monitor Enable bit
  8961                           ;	FCMEN = OFF, Fail-Safe Clock Monitor disabled
  8962                           ;	Internal/External Oscillator Switchover bit
  8963                           ;	IESO = OFF, Oscillator Switchover mode disabled
  8964   300001                     	org	3145729
  8965   300001  0E                 	db	14
  8966                           
  8967                           ;Config register CONFIG2L @ 0x300002
  8968                           ;	Power-up Timer Enable bit
  8969                           ;	PWRT = OFF, PWRT disabled
  8970                           ;	Brown-out Reset Enable bits
  8971                           ;	BOR = OFF, Brown-out Reset disabled in hardware and software
  8972                           ;	Brown-out Reset Voltage bits
  8973                           ;	BORV = 3, Minimum setting 2.05V
  8974                           ;	USB Voltage Regulator Enable bit
  8975                           ;	VREGEN = OFF, USB voltage regulator disabled
  8976   300002                     	org	3145730
  8977   300002  19                 	db	25
  8978                           
  8979                           ;Config register CONFIG2H @ 0x300003
  8980                           ;	Watchdog Timer Enable bit
  8981                           ;	WDT = OFF, WDT disabled (control is placed on the SWDTEN bit)
  8982                           ;	Watchdog Timer Postscale Select bits
  8983                           ;	WDTPS = 32768, 1:32768
  8984   300003                     	org	3145731
  8985   300003  1E                 	db	30
  8986                           
  8987                           ; Padding undefined space
  8988   300004                     	org	3145732
  8989   300004  FF                 	db	255
  8990                           
  8991                           ;Config register CONFIG3H @ 0x300005
  8992                           ;	CCP2 MUX bit
  8993                           ;	CCP2MX = OFF, CCP2 input/output is multiplexed with RB3
  8994                           ;	PORTB A/D Enable bit
  8995                           ;	PBADEN = OFF, PORTB<4:0> pins are configured as digital I/O on Reset
  8996                           ;	Low-Power Timer 1 Oscillator Enable bit
  8997                           ;	LPT1OSC = OFF, Timer1 configured for higher power operation
  8998                           ;	MCLR Pin Enable bit
  8999                           ;	MCLRE = OFF, RE3 input pin enabled; MCLR pin disabled
  9000   300005                     	org	3145733
  9001   300005  00                 	db	0
  9002                           
  9003                           ;Config register CONFIG4L @ 0x300006
  9004                           ;	Stack Full/Underflow Reset Enable bit
  9005                           ;	STVREN = ON, Stack full/underflow will cause Reset
  9006                           ;	Single-Supply ICSP Enable bit
  9007                           ;	LVP = OFF, Single-Supply ICSP disabled
  9008                           ;	Dedicated In-Circuit Debug/Programming Port (ICPORT) Enable bit
  9009                           ;	ICPRT = OFF, ICPORT disabled
  9010                           ;	Extended Instruction Set Enable bit
  9011                           ;	XINST = OFF, Instruction set extension and Indexed Addressing mode disabled (Legacy mo
      +                          de)
  9012                           ;	Background Debugger Enable bit
  9013                           ;	DEBUG = OFF, Background debugger disabled, RB6 and RB7 configured as general purpose I
      +                          /O pins
  9014   300006                     	org	3145734
  9015   300006  81                 	db	129
  9016                           
  9017                           ; Padding undefined space
  9018   300007                     	org	3145735
  9019   300007  FF                 	db	255
  9020                           
  9021                           ;Config register CONFIG5L @ 0x300008
  9022                           ;	Code Protection bit
  9023                           ;	CP0 = OFF, Block 0 (000800-001FFFh) is not code-protected
  9024                           ;	Code Protection bit
  9025                           ;	CP1 = OFF, Block 1 (002000-003FFFh) is not code-protected
  9026                           ;	Code Protection bit
  9027                           ;	CP2 = OFF, Block 2 (004000-005FFFh) is not code-protected
  9028                           ;	Code Protection bit
  9029                           ;	CP3 = OFF, Block 3 (006000-007FFFh) is not code-protected
  9030   300008                     	org	3145736
  9031   300008  0F                 	db	15
  9032                           
  9033                           ;Config register CONFIG5H @ 0x300009
  9034                           ;	Boot Block Code Protection bit
  9035                           ;	CPB = OFF, Boot block (000000-0007FFh) is not code-protected
  9036                           ;	Data EEPROM Code Protection bit
  9037                           ;	CPD = OFF, Data EEPROM is not code-protected
  9038   300009                     	org	3145737
  9039   300009  C0                 	db	192
  9040                           
  9041                           ;Config register CONFIG6L @ 0x30000A
  9042                           ;	Write Protection bit
  9043                           ;	WRT0 = OFF, Block 0 (000800-001FFFh) is not write-protected
  9044                           ;	Write Protection bit
  9045                           ;	WRT1 = OFF, Block 1 (002000-003FFFh) is not write-protected
  9046                           ;	Write Protection bit
  9047                           ;	WRT2 = OFF, Block 2 (004000-005FFFh) is not write-protected
  9048                           ;	Write Protection bit
  9049                           ;	WRT3 = OFF, Block 3 (006000-007FFFh) is not write-protected
  9050   30000A                     	org	3145738
  9051   30000A  0F                 	db	15
  9052                           
  9053                           ;Config register CONFIG6H @ 0x30000B
  9054                           ;	Configuration Register Write Protection bit
  9055                           ;	WRTC = OFF, Configuration registers (300000-3000FFh) are not write-protected
  9056                           ;	Boot Block Write Protection bit
  9057                           ;	WRTB = OFF, Boot block (000000-0007FFh) is not write-protected
  9058                           ;	Data EEPROM Write Protection bit
  9059                           ;	WRTD = OFF, Data EEPROM is not write-protected
  9060   30000B                     	org	3145739
  9061   30000B  E0                 	db	224
  9062                           
  9063                           ;Config register CONFIG7L @ 0x30000C
  9064                           ;	Table Read Protection bit
  9065                           ;	EBTR0 = OFF, Block 0 (000800-001FFFh) is not protected from table reads executed in ot
      +                          her blocks
  9066                           ;	Table Read Protection bit
  9067                           ;	EBTR1 = OFF, Block 1 (002000-003FFFh) is not protected from table reads executed in ot
      +                          her blocks
  9068                           ;	Table Read Protection bit
  9069                           ;	EBTR2 = OFF, Block 2 (004000-005FFFh) is not protected from table reads executed in ot
      +                          her blocks
  9070                           ;	Table Read Protection bit
  9071                           ;	EBTR3 = OFF, Block 3 (006000-007FFFh) is not protected from table reads executed in ot
      +                          her blocks
  9072   30000C                     	org	3145740
  9073   30000C  0F                 	db	15
  9074                           
  9075                           ;Config register CONFIG7H @ 0x30000D
  9076                           ;	Boot Block Table Read Protection bit
  9077                           ;	EBTRB = OFF, Boot block (000000-0007FFh) is not protected from table reads executed in
      +                           other blocks
  9078   30000D                     	org	3145741
  9079   30000D  40                 	db	64
  9080                           tosu	equ	0xFFF
  9081                           tosh	equ	0xFFE
  9082                           tosl	equ	0xFFD
  9083                           stkptr	equ	0xFFC
  9084                           pclatu	equ	0xFFB
  9085                           pclath	equ	0xFFA
  9086                           pcl	equ	0xFF9
  9087                           tblptru	equ	0xFF8
  9088                           tblptrh	equ	0xFF7
  9089                           tblptrl	equ	0xFF6
  9090                           tablat	equ	0xFF5
  9091                           prodh	equ	0xFF4
  9092                           prodl	equ	0xFF3
  9093                           indf0	equ	0xFEF
  9094                           postinc0	equ	0xFEE
  9095                           postdec0	equ	0xFED
  9096                           preinc0	equ	0xFEC
  9097                           plusw0	equ	0xFEB
  9098                           fsr0h	equ	0xFEA
  9099                           fsr0l	equ	0xFE9
  9100                           wreg	equ	0xFE8
  9101                           indf1	equ	0xFE7
  9102                           postinc1	equ	0xFE6
  9103                           postdec1	equ	0xFE5
  9104                           preinc1	equ	0xFE4
  9105                           plusw1	equ	0xFE3
  9106                           fsr1h	equ	0xFE2
  9107                           fsr1l	equ	0xFE1
  9108                           bsr	equ	0xFE0
  9109                           indf2	equ	0xFDF
  9110                           postinc2	equ	0xFDE
  9111                           postdec2	equ	0xFDD
  9112                           preinc2	equ	0xFDC
  9113                           plusw2	equ	0xFDB
  9114                           fsr2h	equ	0xFDA
  9115                           fsr2l	equ	0xFD9
  9116                           status	equ	0xFD8

Data Sizes:
    Strings     64
    Constant    0
    Data        0
    BSS         651
    Persistent  0
    Stack       0

Auto Spaces:
    Space          Size  Autos    Used
    COMRAM           94     82      88
    BANK0           160     45     158
    BANK1           256      8     252
    BANK2           256      0      32
    BANK3           256      0     256
    BANK4           256      0       0
    BANK5           256      0       0
    BANK6           256      0       0
    BANK7           256      0       0

Pointer List with Targets:

    fputs@s	PTR const unsigned char  size(2) Largest target is 32
		 -> dbuf(BANK2[32]), 

    fputs@fp	PTR struct _IO_FILE size(2) Largest target is 0
		 -> NULL(NULL[0]), 

    S1831$source	PTR const unsigned char  size(2) Largest target is 0

    fputc@fp...source	PTR const unsigned char  size(2) Largest target is 0

    S1831$buffer	PTR unsigned char  size(2) Largest target is 0

    fputc@fp...buffer	PTR unsigned char  size(2) Largest target is 0

    fputc@fp	PTR struct _IO_FILE size(2) Largest target is 0
		 -> NULL(NULL[0]), 

    vfprintf@ap	PTR PTR void  size(2) Largest target is 2
		 -> printf@ap(BANK0[2]), 

    vfprintf@fp	PTR struct _IO_FILE size(2) Largest target is 0
		 -> NULL(NULL[0]), 

    vfprintf@fmt	PTR const unsigned char  size(2) Largest target is 32
		 -> STR_6(CODE[32]), STR_5(CODE[32]), STR_4(CODE[32]), STR_3(CODE[32]), 
		 -> STR_2(CODE[19]), STR_1(CODE[19]), 

    vfprintf@cfmt	PTR unsigned char  size(2) Largest target is 32
		 -> STR_6(CODE[32]), STR_5(CODE[32]), STR_4(CODE[32]), STR_3(CODE[32]), 
		 -> STR_2(CODE[19]), STR_1(CODE[19]), 

    vfpfcnvrt@fp	PTR struct _IO_FILE size(2) Largest target is 0
		 -> NULL(NULL[0]), 

    vfpfcnvrt@ap	PTR PTR void  size(2) Largest target is 2
		 -> printf@ap(BANK0[2]), 

    vfpfcnvrt@cp	PTR unsigned char  size(2) Largest target is 32
		 -> STR_6(CODE[32]), STR_5(CODE[32]), STR_4(CODE[32]), STR_3(CODE[32]), 
		 -> STR_2(CODE[19]), STR_1(CODE[19]), 

    vfpfcnvrt@fmt	PTR PTR unsigned char  size(2) Largest target is 2
		 -> vfprintf@cfmt(BANK0[2]), 

    S1871$vp	PTR void  size(2) Largest target is 0

    convarg.vp	PTR void  size(2) Largest target is 0

    dtoa@fp	PTR struct _IO_FILE size(2) Largest target is 0
		 -> NULL(NULL[0]), 

    pad@buf	PTR unsigned char  size(2) Largest target is 32
		 -> dbuf(BANK2[32]), 

    pad@fp	PTR struct _IO_FILE size(2) Largest target is 0
		 -> NULL(NULL[0]), 

    printf@fmt	PTR const unsigned char  size(2) Largest target is 32
		 -> STR_6(CODE[32]), STR_5(CODE[32]), STR_4(CODE[32]), STR_3(CODE[32]), 
		 -> STR_2(CODE[19]), STR_1(CODE[19]), 

    printf@ap	PTR void [1] size(2) Largest target is 2
		 -> ?_printf(BANK0[2]), 


Critical Paths under _main in COMRAM

    _update_pwm->___awdiv
    _status_loop->___awdiv
    _read_analog->___aodiv
    ___awdiv->___wmul
    _read_values->___wmul
    ___wmul->___awmod
    _vfprintf->_vfpfcnvrt
    _vfpfcnvrt->_dtoa
    _dtoa->___aodiv
    _pad->_fputs
    _fputs->_fputc
    _fputc->_putch
    _abs->___aomod
    ___aodiv->___omul

Critical Paths under _enc in COMRAM

    None.

Critical Paths under _main in BANK0

    _main->_loop
    _loop->_printf
    _printf->_vfprintf
    _vfprintf->_vfpfcnvrt
    _vfpfcnvrt->_dtoa

Critical Paths under _enc in BANK0

    None.

Critical Paths under _main in BANK1

    _main->_loop

Critical Paths under _enc in BANK1

    None.

Critical Paths under _main in BANK2

    None.

Critical Paths under _enc in BANK2

    None.

Critical Paths under _main in BANK3

    None.

Critical Paths under _enc in BANK3

    None.

Critical Paths under _main in BANK4

    None.

Critical Paths under _enc in BANK4

    None.

Critical Paths under _main in BANK5

    None.

Critical Paths under _enc in BANK5

    None.

Critical Paths under _main in BANK6

    None.

Critical Paths under _enc in BANK6

    None.

Critical Paths under _main in BANK7

    None.

Critical Paths under _enc in BANK7

    None.

Call Graph Tables:

 ---------------------------------------------------------------------------------
 (Depth) Function   	        Calls       Base Space   Used Autos Params    Refs
 ---------------------------------------------------------------------------------
 (0) _main                                                 0     0      0   21969
                       _buttons_init
                       _buttons_loop
                       _config_micro
                               _init
                          _init_vars
                               _loop
                        _read_analog
                        _status_init
                        _status_loop
                         _update_pwm
 ---------------------------------------------------------------------------------
 (1) _update_pwm                                           5     5      0    1332
                                             26 COMRAM     5     5      0
                            ___awdiv
 ---------------------------------------------------------------------------------
 (1) _status_loop                                         17    17      0    4412
                                             26 COMRAM    17    17      0
                            ___awdiv
                            ___awmod
                             ___wmul
                    _status_set_mode
 ---------------------------------------------------------------------------------
 (2) ___awmod                                              6     2      4     448
                                              6 COMRAM     6     2      4
 ---------------------------------------------------------------------------------
 (1) _status_init                                          2     2      0      68
                                              6 COMRAM     2     2      0
 ---------------------------------------------------------------------------------
 (1) _read_analog                                         19    19      0    2564
                                             56 COMRAM    19    19      0
                            ___aodiv
                            ___awdiv
 ---------------------------------------------------------------------------------
 (2) ___awdiv                                              8     4      4    1060
                                             18 COMRAM     8     4      4
                            ___awmod (ARG)
                             ___wmul (ARG)
 ---------------------------------------------------------------------------------
 (1) _loop                                                12    12      0   11659
                                             41 BANK0      4     4      0
                                              0 BANK1      8     8      0
                            ___aodiv
                             ___omul
                             _printf
                        _read_eeprom
                        _read_values
                    _status_set_mode
                       _write_eeprom
 ---------------------------------------------------------------------------------
 (2) _write_eeprom                                         5     5      0     134
                                              6 COMRAM     5     5      0
 ---------------------------------------------------------------------------------
 (2) _status_set_mode                                      3     1      2    2042
                                              6 COMRAM     3     1      2
 ---------------------------------------------------------------------------------
 (2) _read_values                                          4     4      0     663
                                             18 COMRAM     4     4      0
                             ___wmul
 ---------------------------------------------------------------------------------
 (2) ___wmul                                               6     2      4     615
                                             12 COMRAM     6     2      4
                            ___awmod (ARG)
 ---------------------------------------------------------------------------------
 (2) _read_eeprom                                          7     7      0     135
                                              6 COMRAM     7     7      0
 ---------------------------------------------------------------------------------
 (2) _printf                                               8     4      4    6579
                                             35 BANK0      6     2      4
                           _vfprintf
 ---------------------------------------------------------------------------------
 (3) _vfprintf                                             8     2      6    5958
                                             27 BANK0      8     2      6
                          _vfpfcnvrt
 ---------------------------------------------------------------------------------
 (4) _vfpfcnvrt                                           23    17      6    5497
                                             74 COMRAM     8     2      6
                                             17 BANK0     10    10      0
                               _dtoa
                              _fputc
 ---------------------------------------------------------------------------------
 (5) _dtoa                                                35    25     10    4321
                                             56 COMRAM    18     8     10
                                              0 BANK0     17    17      0
                            ___aodiv
                            ___aomod
                                _abs
                                _pad
 ---------------------------------------------------------------------------------
 (6) _pad                                                 11     5      6    1911
                                             23 COMRAM    11     5      6
                              _fputc
                              _fputs
 ---------------------------------------------------------------------------------
 (7) _fputs                                                7     3      4     887
                                             16 COMRAM     7     3      4
                              _fputc
 ---------------------------------------------------------------------------------
 (5) _fputc                                                9     5      4     638
                                              7 COMRAM     9     5      4
                              _putch
 ---------------------------------------------------------------------------------
 (6) _putch                                                1     1      0      22
                                              6 COMRAM     1     1      0
 ---------------------------------------------------------------------------------
 (6) _abs                                                  4     2      2     142
                                             24 COMRAM     4     2      2
                            ___aomod (ARG)
 ---------------------------------------------------------------------------------
 (6) ___aomod                                             18     2     16     448
                                              6 COMRAM    18     2     16
 ---------------------------------------------------------------------------------
 (2) ___aodiv                                             26    10     16    1212
                                             30 COMRAM    26    10     16
                             ___omul (ARG)
 ---------------------------------------------------------------------------------
 (2) ___omul                                              24     8     16     826
                                              6 COMRAM    24     8     16
 ---------------------------------------------------------------------------------
 (1) _init_vars                                            4     4      0     136
                                              6 COMRAM     4     4      0
 ---------------------------------------------------------------------------------
 (1) _init                                                 0     0      0       0
 ---------------------------------------------------------------------------------
 (1) _config_micro                                         0     0      0       0
 ---------------------------------------------------------------------------------
 (1) _buttons_loop                                        19    19      0    1554
                                              6 COMRAM    19    19      0
 ---------------------------------------------------------------------------------
 (1) _buttons_init                                         4     4      0     244
                                              6 COMRAM     4     4      0
 ---------------------------------------------------------------------------------
 Estimated maximum stack depth 7
 ---------------------------------------------------------------------------------
 (Depth) Function   	        Calls       Base Space   Used Autos Params    Refs
 ---------------------------------------------------------------------------------
 (10) _enc                                                 6     6      0      68
                                              0 COMRAM     6     6      0
 ---------------------------------------------------------------------------------
 Estimated maximum stack depth 10
 ---------------------------------------------------------------------------------

 Call Graph Graphs:

 _main (ROOT)
   _buttons_init
   _buttons_loop
   _config_micro
   _init
   _init_vars
   _loop
     ___aodiv
       ___omul (ARG)
     ___omul
     _printf
       _vfprintf
         _vfpfcnvrt
           _dtoa
             ___aodiv
             ___aomod
             _abs
               ___aomod (ARG)
             _pad
               _fputc
                 _putch
               _fputs
                 _fputc
           _fputc
     _read_eeprom
     _read_values
       ___wmul
         ___awmod (ARG)
     _status_set_mode
     _write_eeprom
   _read_analog
     ___aodiv
     ___awdiv
       ___awmod (ARG)
       ___wmul (ARG)
   _status_init
   _status_loop
     ___awdiv
     ___awmod
     ___wmul
     _status_set_mode
   _update_pwm
     ___awdiv

 _enc (ROOT)

 Address spaces:
Name               Size   Autos  Total    Cost      Usage
BIGRAM             7FF      0       0      41        0.0%
EEDATA             100      0       0       0        0.0%
BITBANK7           100      0       0      18        0.0%
BANK7              100      0       0      19        0.0%
BITBANK6           100      0       0      16        0.0%
BANK6              100      0       0      17        0.0%
BITBANK5           100      0       0      14        0.0%
BANK5              100      0       0      15        0.0%
BITBANK4           100      0       0      12        0.0%
BANK4              100      0       0      13        0.0%
BITBANK3           100      0       0      10        0.0%
BANK3              100      0     100      11      100.0%
BITBANK2           100      0       0       8        0.0%
BANK2              100      0      20       9       12.5%
BITBANK1           100      0       0       6        0.0%
BANK1              100      8      FC       7       98.4%
BITBANK0            A0      0       0       4        0.0%
BANK0               A0     2D      9E       5       98.8%
BITCOMRAM           5E      0       0       0        0.0%
COMRAM              5E     52      58       1       93.6%
BITBIGSFRhhlh       19      0       0      21        0.0%
BITBIGSFRllhhll     11      0       0      37        0.0%
BITBIGSFRllhhlh      E      0       0      36        0.0%
BITBIGSFRhhh         D      0       0      20        0.0%
BITBIGSFRlll         D      0       0      39        0.0%
BITBIGSFRllhhhl      7      0       0      35        0.0%
BITBIGSFRlhlllh      5      0       0      25        0.0%
BITBIGSFRllhhhl      4      0       0      33        0.0%
BITBIGSFRllhhhh      3      0       0      30        0.0%
BITBIGSFRlhllll      3      0       0      29        0.0%
BITBIGSFRllhhhl      2      0       0      34        0.0%
BITBIGSFRlhh         2      0       0      23        0.0%
BITBIGSFRllhhhl      1      0       0      32        0.0%
BITBIGSFRllhhhl      1      0       0      31        0.0%
BITBIGSFRlhllll      1      0       0      28        0.0%
BITBIGSFRlhllll      1      0       0      27        0.0%
BITBIGSFRlhlllh      1      0       0      26        0.0%
BITBIGSFRlhllh       1      0       0      24        0.0%
BITBIGSFRllhl        1      0       0      38        0.0%
BITBIGSFRhl          1      0       0      22        0.0%
BIGSFR               0      0       0     200        0.0%
BITSFR               0      0       0     200        0.0%
SFR                  0      0       0     200        0.0%
STACK                0      0       0       2        0.0%
NULL                 0      0       0       0        0.0%
ABS                  0      0     312      40        0.0%
DATA                 0      0     312       3        0.0%
CODE                 0      0       0       0        0.0%


Microchip Technology PIC18 Macro Assembler V2.40 build 20220703182018 
Symbol Table                                                                                   Wed Jul 16 00:12:35 2025

                          _b 00A9                 ___awdiv@sign 0018          ___wmul@multiplicand 000F  
                        l120 2934                          l130 31CA                          l114 2788  
                        l123 358C                          l212 2E96                          l220 088A  
                        l140 37F4                          l109 2F84                          l125 35D2  
                        l134 3240                          l143 3806                          l127 35EA  
                        l224 08E4                          l136 324E                          l217 089C  
                        l137 3262                          l401 2306                          l171 26CE  
                        l163 25DC                          l404 2306                          l340 1B5A  
                        l317 1510                          l158 3050                          l415 37F0  
                        l256 0FAE                          l432 32E0                          l353 37A2  
                        l433 3300                          l177 276E                          l338 1B50  
                        l259 10BA                          l268 123A                          l364 34A4  
                        l293 3586                          l542 2C20                          l296 3746  
                        l376 1C9A                          l529 2ABC                          l389 1F02  
                        l646 3114                          l659 31C4                          _PR2 000FCB  
                        _abs 36D6                          _enc 0008                          _pad 34A6  
                        _pwm 00B3     _motor_a_speed_read_value 00C1                 ___awmod@sign 000C  
                        prod 000FF3                          wreg 000FE8                  _status_code 00C5  
                _status_init 3520                  _status_mode 0057                  _status_loop 123C  
                       l1115 34C8                         ?_abs 0019                         l1124 2394  
                       l1126 239C                         l1119 351E                         l1127 23E2  
                       l1151 3690                         l1145 2D6E                         l3002 121A  
                       l1170 3396                         l1138 2588                         l3010 354E  
                       l1155 370C                         l3004 121E                         l3020 356A  
                       l3100 1654                         l1093 37CA                         l1158 3714  
                       l3006 3520                         l3110 16E2                         l3102 1696  
                       l3030 1294                         l3022 123C                         l1600 2ED0  
                       l2400 2A32                         l3016 3556                         l3008 3542  
                       l3120 177A                         l3112 16FE                         l3104 16A8  
                       l3040 12E0                         l3032 1298                         l3024 124C  
                       l1610 2F1A                         l1602 2ED2                         l2410 2A7C  
                       l2402 2A52                         l1178 36D4                         l3018 3566  
                       l3130 1814                         l3122 17A0                         l3106 16D2  
                       l3114 170C                         l3050 1394                         l3042 12EE  
                       l3034 12B4                         l3026 125E                         l1620 2F3C  
                       l1612 2F1C                         l1604 2ED4                         l2412 2A9C  
                       l2404 2A54                         l2420 2AD0                         l2500 247C  
                       l3140 188C                         l3132 1818                         l3116 172E  
                       l3108 16DE                         l3124 17CC                         l3052 139C  
                       l3044 12F6                         l3036 12BC                         l3028 1288  
                       l1630 2F4E                         l1622 2F3E                         l1614 2F2A  
                       l1606 2EDE                         l2406 2A66                         l2430 2B40  
                       l2422 2AF0                         l2350 3302                         l2510 2528  
                       l2502 2484                         l3150 193E                         l3142 18B4  
                       l3134 1834                         l3126 17DE                         l3118 1752  
                       l3070 1422                         l3062 13C4                         l3054 13A0  
                       l3038 12D8                         l3046 12FE                         l1640 2F58  
                       l1632 2F50                         l1624 2F40                         l1616 2F38  
                       l1608 2F14                         l2408 2A6C                         l2440 2BB8  
                       l2432 2B48                         l2424 2AF4                         l2416 2ABE  
                       l2360 3384                         l2352 3314                         l2512 2542  
                       l2504 248A                         l3400 364E                         l2600 3236  
                       l3160 1976                         l3152 194A                         l3144 18D8  
                       l3128 1808                         l3136 1842                         l3080 14A2  
                       l3072 1432                         l3064 13E2                         l3056 13BC  
                       l3048 1342                         l1650 2F62                         l1642 2F5A  
                       l1634 2F52                         l1626 2F42                         l1618 2F3A  
                       l1570 2E98                         l2442 2BCA                         l2434 2B5C  
                       l2426 2B02                         l2418 2AC2                         l2346 37F4  
                       l2354 3326                         l2370 36B4                         l2514 2552  
                       l2506 24EE                         l2530 2C66                         l2522 2C22  
                       l3402 366A                         l3410 37AE                         l2610 3252  
                       l2602 323A                         l3170 19EE                         l3162 1992  
                       l3154 194E                         l3138 1866                         l3146 1902  
                       l3090 155A                         l3082 14B4                         l3074 1436  
                       l3066 13F6                         ?_enc 0001                         l1660 2F6C  
                       l1652 2F64                         l1644 2F5C                         l1636 2F54  
                       l1628 2F44                         l1580 2EA8                         l1572 2EA0  
                       l2380 296C                         l2372 2936                         l2436 2B6A  
                       l2444 2BD0                         l2428 2B22                         l2348 3802  
                       l2356 3330                         l2364 3692                         l2460 34E8  
                       l2452 34A6                         l2516 2558                         l2508 250A  
                       l2532 2C76                         l2524 2C46                         l3404 3686  
                       l2620 3732                         l2612 3718                         l2604 323C  
                       l3500 1E8A                         l3420 1B88                         l2700 3116  
                       l3172 1A08                         l3156 196A                         l3164 19A0  
                       l3148 1914                         l3092 1566                         l3084 14D2  
                       l3076 1452                         l3068 140E                         l1670 2F76  
                       l1662 2F6E                         l1654 2F66                         l1646 2F5E  
                       l1638 2F56                         l1590 2EC2                         l1582 2EAA  
                       l1574 2EA2                         l2390 29C8                         l2382 297A  
                       l2374 293A                         l2446 2BE0                         l2438 2B98  
                       l2358 334E                         l2366 369E                         l2462 34EC  
                       l2454 34B4                         l2518 2568                         l2470 2308  
                       l2542 2D34                         l2534 2C92                         l2526 2C54  
                       l2630 344A                         l2622 373A                         l2614 371C  
                       l2606 323E                         l3510 1ECC                         l3502 1E92  
                       l3422 1B8C                         l3430 1BCA                         l3414 1B5C  
                       l2710 3142                         l2702 311A                         l3174 1A10  
                       l3166 19C6                         l3158 1972                         l3094 159E  
                       l3078 1462                         l3086 151E                         l1680 2F80  
                       l1672 2F78                         l1664 2F70                         l1656 2F68  
                       l1648 2F60                         l1592 2EC4                         l1584 2EB4  
                       l1576 2EA4                         l2800 3044                         l2392 29D0  
                       l2384 299A                         l2376 2948                         l2448 2C00  
                       l2368 36B0                         l2464 350A                         l2456 34C0  
                       l2480 2388                         l2472 2328                         l2536 2CAE  
                       l2528 2C62                         l3408 37A4                         l2552 37CC  
                       l2632 345C                         l2624 3426                         l2616 3724  
                       l2608 3250                         l3520 1F2E                         l3504 1E96  
                       l3512 1ED4                         l3440 1C22                         l3432 1BDE  
                       l3424 1B90                         l3416 1B70                         l2720 317A  
                       l2712 314A                         l2704 3128                         l3176 1A22  
                       l3168 19E2                         l3096 15DA                         l3088 1530  
                       l3600 3750                         l1682 2F82                         l1674 2F7A  
                       l1666 2F72                         l1658 2F6A                         l1594 2EC6  
                       l1586 2EB6                         l1578 2EA6                         l3178 3778  
                       l2650 327E                         l2394 29E4                         l2386 299E  
                       l2378 2968                         l2466 36D6                         l2458 34D4  
                       l2490 23D6                         l2482 23A4                         l2474 233E  
                       l2538 2D04                         l2546 2D46                         l2554 37E8  
                       l2634 3464                         l2626 343A                         l2618 372A  
                       l3530 1F86                         l3522 1F3E                         l3514 1EE8  
                       l3506 1E9A                         l3450 1C80                         l3442 1C30  
                       l3434 1BF0                         l3426 1B9E                         l3418 1B80  
                       l2730 31B4                         l2722 3190                         l2714 315C  
                       l2706 3130                         l3098 1618                         l2810 25E4  
                       l2802 258A                         l3610 3764                         l3602 3754  
                       l2900 0A50                         l1676 2F7C                         l1668 2F74  
                       l1596 2ECC                         l1588 2EB8                         l2652 329E  
                       l2396 29F2                         l2388 29AA                         l2468 36F0  
                       l2492 23DE                         l2484 23B4                         l2476 234E  
                       l2636 346C                         l2628 3442                         l2580 31C6  
                       l3540 1FCE                         l3524 1F4C                         l3532 1F8C  
                       l3516 1EF6                         l3508 1EC2                         l3460 1CE4  
                       l3452 1C8E                         l3444 1C42                         l3436 1C02  
                       l3428 1BB4                         l2660 3064                         l2732 31BC  
                       l2724 3198                         l2716 3164                         l2708 3134  
                       l2820 269A                         l2812 2648                         l2804 25A8  
                       l3612 3768                         l3604 3758                         l2902 0A76  
                       l1678 2F7E                         l1598 2ECE                         l2654 32B0  
                       l2646 3264                         l2398 2A04                         l2494 23EA  
                       l2486 23BA                         l2478 236E                         l2574 35A4  
                       l2638 3488                         l2590 322A                         l3550 20A8  
                       l3542 1FD6                         l3534 1F9C                         l3526 1F5E  
                       l3518 1F1C                         l3470 1D34                         l3462 1CF6  
                       l3454 1CB4                         l3446 1C5C                         l3438 1C12  
                       l2670 308A                         l2662 306C                         l2750 27C0  
                       l2742 2774                         l2726 319E                         l2718 316C  
                       l2830 2742                         l2822 26A6                         l2814 2650  
                       l2806 25B4                         l3614 376C                         l3606 375C  
                       l2840 2D78                         l2920 0BA6                         l2904 0A82  
                       l2648 3270                         l2496 23F4                         l2488 23CA  
                       l2576 35D8                         l2568 3588                         l2592 322C  
                       l3552 20AC                         l3560 20D4                         l3544 2080  
                       l3536 1FA8                         l3528 1F78                         l3480 1E18  
                       l3472 1D40                         l3464 1D10                         l3456 1CC6  
                       l3448 1C6E                         l2680 30C2                         l2672 3092  
                       l2664 3070                         l2656 3052                         l2760 284E  
                       l2752 27D8                         l2744 2786                         l2736 2770  
                       l2728 31A4                         l2832 2756                         l2824 26C2  
                       l2816 2664                         l2808 25D0                         l3608 3760  
                       l2850 2E7E                         l2842 2E4E                         l2834 2D70  
                       l2930 0D04                         l2922 0BE8                         l2914 0ACC  
                       l2906 0AA4                         l2498 23FA                         l2578 35DA  
                       l2594 322E                         l2586 31DC                         l3570 2102  
                       l3562 20E4                         l3554 20B0                         l3546 2092  
                       l3538 1FBA                         l3490 1E48                         l3482 1E2A  
                       l3466 1D1E                         l3458 1CD6                         l3474 1D52  
                       l2690 30EE                         l2682 30C8                         l2674 30A4  
                       l2666 307E                         l2658 3056                         l2770 2916  
                       l2754 27FE                         l2746 2796                         l2826 26D6  
                       l2818 267C                         l2852 2E8A                         l2844 2E52  
                       l2932 0D46                         l2916 0AE8                         l2924 0C2A  
                       l2908 0AC4                         l2860 086A                         l2596 3230  
                       l2588 31FE                         l3580 2140                         l3564 20F2  
                       l3556 20C6                         l3548 20A0                         l3492 1E5E  
                       l3484 1E38                         l3476 1D66                         l3468 1D24  
                       l2684 30DE                         l2676 30AC                         l2692 30F4  
                       l2668 3086                         l2772 2918                         l2756 2800  
                       l2748 27A2                         l2828 273A                         l2846 2E6E  
                       l2950 0E26                         l2926 0C46                         l2934 0D84  
                       l2918 0B04                         l2870 08C2                         l2862 087A  
                       l2854 0842                         l2782 2F8E                         l3398 3642  
                       l2598 3232                         l3590 2184                         l3582 2150  
                       l3566 20FA                         l3558 20D0                         l3494 1E68  
                       l3486 1E40                         l3478 1D6E                         l2694 3104  
                       l2686 30E6                         l2678 30B4                         l2774 2928  
                       l2766 2852                         l2758 2810                         ?_pad 0018  
                       l2848 2E72                         l2960 0E9C                         l2952 0E42  
                       l2944 0DAC                         l2936 0D88                         l2928 0C62  
                       l2880 0928                         l2872 08D2                         l2864 0898  
                       l2856 0854                         l2784 2FBC                         l2776 2F86  
                       l3592 22D8                         l3584 2154                         l3568 20FE  
                       l3488 1E44                         l3496 1E6C                         l3576 212E  
                       l2696 310C                         l2688 30E8                         l2768 28FE  
                       l2970 0EE4                         l2954 0E5E                         l2946 0DD8  
                       l2938 0DA4                         l2882 0938                         l2874 08E0  
                       l2866 08AC                         l2858 0862                         l2794 2FF6  
                       l2786 2FC0                         l3594 22EA                         l3586 2162  
                       l3578 2138                         l3498 1E7C                         l2980 1018  
                       l2972 0F30                         l2956 0E7C                         l2948 0DF4  
                       l2892 0950                         l2884 093C                         l2876 08F4  
                       l2868 08BA                         l2796 3024                         l2788 2FDC  
                       l3588 2170                         l3596 3748                         l2990 10AC  
                       l2982 103C                         l2974 0F56                         l2966 0EA4  
                       l2958 0E80                         l2894 0A26                         l2886 0948  
                       l2878 091C                         l2798 3028                         l3598 374C  
                       l2984 104E                         l2992 1106                         l2976 0F7A  
                       l2968 0EC8                         l2896 0A2A                         l2986 1074  
                       l2978 0F96                         l2994 1142                         l2898 0A46  
                       l2996 1168                         l2988 1086                         l2998 11D2  
                       _EEIF 007D0C                         STR_1 080E                         STR_2 082E  
                       STR_3 0801                         STR_4 0801                         STR_5 0821  
                       STR_6 0821                         u3000 3262                         u3001 325E  
                       u3011 3740                         u3020 343A                         u3100 30C2  
                       u3021 3436                         u3101 30BE                         u3030 345C  
                       u3110 30DE                         u3031 3458                         u3111 30DA  
                       u4000 123A                         u3120 3104                         u3200 2810  
                       u4001 1236                         u3041 326A                         u3121 3100  
                       u3201 280C                         u3050 327E                         u3210 284E  
                       u3130 3128                         u3051 327A                         u3211 284A  
                       u4011 3548                         u3131 3124                         u3060 32E0  
                       u4020 3586                         u3140 3142                         u4100 1394  
                       u3300 25A8                         u3061 32DC                         u3221 2910  
                       u4021 3582                         u3141 313E                         u4101 1390  
                       u3301 25A4                         u3070 3064                         u3230 2928  
                       u3150 315C                         u4110 13E2                         u4030 124C  
                       u3310 25D0                         u3071 3060                         u3231 2924  
                       u3151 3158                         u4111 13DE                         u4031 1248  
                       u3311 25CC                         u2600 3802                         u3080 307E  
                       u3160 317A                         u4200 14B4                         u4120 140E  
                       u4040 125E                         u3320 2602                         u2601 37FE  
                       u3081 307A                         u3241 292E                         u3161 3176  
                       u4201 14B0                         u4121 140A                         u4041 125A  
                       u3321 25FA                         u2610 3314                         u3090 30A4  
                       u3170 3190                         u4210 14D2                         u4130 1452  
                       u4050 1288                         u3410 2714                         u3251 2FB6  
                       u2611 3310                         u3091 30A0                         u3171 318C  
                       u4211 14CE                         u4131 144E                         u4051 1284  
                       u3411 270C                         u3500 0854                         u3260 2FDC  
                       u2700 29F2                         u2620 3326                         u3180 31B4  
                       u4300 1592                         u4140 1462                         u3340 2622  
                       u3501 0850                         u3261 2FD8                         u2701 29EE  
                       u2621 3322                         u3181 31B0                         u4301 158A  
                       u4141 145E                         u4061 128E                         u3341 261A  
                       u3510 0862                         u2710 2A32                         u2630 334E  
                       u3190 2796                         u4070 12B4                         u3430 273A  
                       u3511 085E                         u3271 301E                         u2711 2A2E  
                       u2631 334A                         u3191 2792                         u4071 12B0  
                       u3431 2736                         u3600 091C                         u3520 087A  
                       u3280 3044                         u2720 2A7C                         u2640 3384  
                       u2800 350A                         u5200 1B70                         u4400 16A8  
                       u4320 15CC                         u4080 12D8                         u3408 26F6  
                       u3360 2648                         u3441 2DD0                         u3601 0918  
                       u3521 0876                         u3281 3040                         u2721 2A78  
                       u2641 3380                         u2801 3506                         u5201 1B6C  
                       u4401 16A4                         u4321 15C4                         u4225 14DA  
                       u4081 12D4                         u3361 2644                         u3530 088A  
                       u2730 2AD0                         u2810 36F0                         u2650 36D4  
                       u5210 1B80                         u4410 16D2                         u4226 14DC  
                       u4090 12EE                         u3370 269A                         u3338 2604  
                       u3451 2DFE                         u3611 0922                         u3531 0886  
                       u3291 304A                         u2731 2ACC                         u2811 36EC  
                       u2651 36D0                         u5211 1B7C                         u4411 16CE  
                       u4235 14E6                         u4155 146C                         u4091 12EA  
                       u3371 2696                         u3460 2E6E                         u3700 0AE8  
                       u3620 0938                         u3540 0898                         u2660 2948  
                       u2740 2B02                         u2900 2542                         u2820 233A  
                       u5300 1CC6                         u5220 1BDE                         u4500 1792  
                       u4340 1608                         u4236 14E8                         u4156 146E  
                       u3428 2716                         u3380 26C2                         u3461 2E6A  
                       u3701 0AE4                         u3621 0934                         u3541 0894  
                       u2661 2944                         u2741 2AFE                         u2901 253E  
                       u2821 2334                         u5301 1CC2                         u5221 1BDA  
                       u4501 178A                         u4421 16D8                         u4341 1600  
                       u4245 14F2                         u4165 1478                         u3381 26BE  
                       u3710 0B04                         u3550 08AC                         u2670 297A  
                       u2750 2B40                         u2910 2552                         u2830 233C  
                       u5310 1CE4                         u5230 1BF0                         u4430 16FE  
                       u4318 1594                         u4270 1530                         u4246 14F4  
                       u4166 147A                         u3390 26F4                         u3358 2624  
                       u3471 2E78                         u3711 0B00                         u3631 0942  
                       u3551 08A8                         u2671 2976                         u2751 2B3C  
                       u2911 254E                         u5311 1CE0                         u5231 1BEC  
                       u4431 16FA                         u4271 152C                         u4255 14FE  
                       u4175 1484                         u3391 26EC                         u3800 0DA4  
                       u3720 0BA6                         u3560 08BA                         u2760 2B6A  
                       u2840 234E                         u2920 2C46                         u5400 1F4C  
                       u5320 1D10                         u5240 1C02                         u4600 187E  
                       u4520 17B8                         u4440 1722                         u4360 1646  
                       u4280 155A                         u4256 1500                         u4176 1486  
                       u3481 2E84                         u3801 0DA0                         u3721 0BA2  
                       u3641 09A8                         u3561 08B6                         u2681 29A4  
                       u2761 2B66                         u2841 234A                         u2921 2C42  
                       u5401 1F48                         u5321 1D0C                         u5241 1BFE  
                       u4601 1876                         u4521 17B0                         u4441 171A  
                       u4361 163E                         u4281 1556                         u4265 150A  
                       u4185 1490                         u3810 0DD8                         u3570 08D2  
                       u2690 29C8                         u2770 2B98                         u2850 2388  
                       u2930 2C92                         u5410 1F78                         u5330 1D34  
                       u5250 1C12                         u4338 15CE                         u4266 150C  
                       u4186 1492                         u3491 2E90                         u3811 0DD4  
                       u3731 0BDE                         u3651 09D6                         u3571 08CE  
                       u2691 29C4                         u2771 2B94                         u2851 2384  
                       u2931 2C8E                         u5411 1F74                         u5331 1D30  
                       u5251 1C0E                         u4291 1560                         u4195 149C  
                       u3900 0F7A                         u3820 0DF4                         u3660 0A46  
                       u3580 08E0                         u2780 2BE0                         u2860 23B4  
                       u2940 2CAE                         u5420 1F9C                         u5340 1D66  
                       u5260 1C30                         u4620 18A4                         u4540 17DE  
                       u4460 1744                         u4380 1682                         u4196 149E  
                       u3901 0F76                         u3821 0DF0                         u3741 0C20  
                       u3661 0A42                         u3581 08DC                         u2781 2BDC  
                       u2861 23B0                         u2941 2CAA                         u5421 1F98  
                       u5341 1D62                         u5261 1C2C                         u4701 1944  
                       u4621 189C                         u4541 17DA                         u4461 173C  
                       u4381 167A                         u3910 0F96                         u3830 0E42  
                       u3750 0C46                         u3670 0A76                         u3590 08F4  
                       u2790 34B4                         u2870 23CA                         u5190 3686  
                       u5430 1FCE                         u5350 1E2A                         u5270 1C5C  
                       u4710 196A                         u4550 1808                         u4518 1794  
                       u4358 160A                         u3911 0F92                         u3831 0E3E  
                       u3751 0C42                         u3671 0A72                         u3591 08F0  
                       u2791 34B0                         u2871 23C6                         u5191 3682  
                       u5431 1FCA                         u5351 1E26                         u5271 1C58  
                       u4711 1966                         u4551 1804                         u3920 1018  
                       u3840 0E5E                         u3760 0C62                         u2880 250A  
                       u2960 35A4                         u5440 2092                         u5360 1E7C  
                       u5280 1C80                         u4800 1A88                         u4720 1992  
                       u4640 18CA                         u4480 176A                         u3921 1014  
                       u3841 0E5A                         u3761 0C5E                         u3681 0A7C  
                       u2881 2506                         u2961 35A0                         u5441 208E  
                       u5361 1E78                         u5281 1C7C                         u4801 1A80  
                       u4721 198E                         u4641 18C2                         u4561 180E  
                       u4481 1762                         u3930 103C                         u3850 0E9C  
                       u3770 0D04                         u2890 2528                         u2970 35EA  
                       u5450 20E4                         u5370 1EE8                         u5290 1C8E  
                       u4730 19C0                         u4618 1880                         u4570 1834  
                       u4538 17BA                         u4458 1724                         u4378 1648  
                       u3931 1038                         u3851 0E98                         u3771 0D00  
                       u3691 0ABE                         u2891 2524                         u2971 35E6  
                       u5451 20E0                         u5371 1EE4                         u5291 1C8A  
                       u4731 19BA                         u4571 1830                         u3940 1074  
                       u3860 0EC8                         u2980 31DC                         u5460 2150  
                       u5380 1EF6                         u4820 1AC4                         u4740 19C2  
                       u4660 18EE                         u4580 185A                         u3941 1070  
                       u3861 0EC4                         u3781 0D3C                         u2981 31D8  
                       u5461 214C                         u5381 1EF2                         u4821 1ABC  
                       u4661 18E6                         u4581 1852                         u3950 10AC  
                       u3870 0EE4                         u2990 324E                         u5470 2184  
                       u5390 1F2E                         u4750 19E2                         u4638 18A6  
                       u4478 1746                         u4398 1684                         u3951 10A8  
                       u3871 0EE0                         u3791 0D7E                         u2991 324A  
                       u5471 2180                         u5391 1F2A                         u4751 19DE  
                       u5480 22EA                         u4840 1B02                         u4760 1A08  
                       u4680 1914                         u3961 10E2                         u3881 0F0C  
                       u5481 22E6                         u4841 1AFA                         u4761 1A04  
                       u4681 1910                         u3970 1168                         u3890 0F56  
                       u4818 1A8A                         u4770 1A22                         u4690 193E  
                       u4658 18CC                         u4498 176C                         u3971 1164  
                       u3891 0F52                         u4771 1A1E                         u4691 193A  
                       u3980 11D2                         u4860 1B3C                         u4780 1A4E  
                       u3981 11CE                         u4861 1B34                         u4781 1A46  
                       u4838 1AC6                         u4678 18F0                         u4598 185C  
                       u3991 1214                         u4858 1B04                         u4878 1B3E  
                       u4798 1A50                         _TXIF 007CF4                         abs@a 0019  
                       _dbuf 0200                         _main 3748                         _leds 009A  
                       _dtoa 2308                         enc@i 0005                         _init 3778  
                       _mode 00BD                         _loop 1B5C                         _prec 00B9  
              _state_counter 0150                         pad@i 001F                         pad@p 001C  
                       fsr1h 000FE2                         fsr2h 000FDA                         indf2 000FDF  
                       fsr1l 000FE1                         pad@w 0021                         fsr2l 000FD9  
                       btemp 0059               ??_config_micro 0007                         prodh 000FF4  
                       prodl 000FF3                         start 000E                 ___param_bank 000000  
                      ??_abs 001B                        ??_enc 0001                        ??_pad 001E  
               _status_value 0055              __end_of___aodiv 2ABE                        ?_main 0001  
                      ?_dtoa 0039              __end_of___aomod 2C22                        ?_init 0001  
       loop@analog_read_1372 00FC              __end_of___awdiv 3116                        _EEADR 000FA9  
                      ?_loop 0001              __end_of___awmod 31C6                        _CMCON 000FB4  
            ___awdiv@divisor 0015                        i2l151 341A              ___awdiv@counter 0017  
               vfpfcnvrt@fmt 004D                        _TMR0H 000FD7                        _TMR1H 000FCF  
                      _TMR0L 000FD6                        _TMR1L 000FCE                        _SPBRG 000FAF  
                      _TXREG 000FAD                 ?_read_analog 0001                 ?_read_eeprom 0001  
                      _flags 00CF                 ?_read_values 0001                        _fputc 3302  
                      _fputs 3692                        pad@fp 0018                        _width 00B7  
                      _putch 37F2                        dtoa@d 003B                        dtoa@i 00DF  
                      dtoa@n 00D7                        dtoa@p 00D3                        dtoa@s 00E1  
                      dtoa@w 00D5                        tablat 000FF5                        plusw2 000FDB  
                      ttemp5 005A                        ttemp6 005D                        ttemp7 0061  
                      status 000FD8                        wtemp8 005A              __initialization 35EC  
               __end_of_main 3778                 __end_of_dtoa 258A                 __end_of_init 37A4  
               __end_of_loop 2308                       ??_main 0053                       ??_dtoa 0043  
                     ??_init 0007                       ??_loop 01F4                __activetblptr 000001  
                     ?_fputc 0008                       ?_fputs 0011                       _ADRESH 000FC4  
                     _ADRESL 000FC3                       _EEDATA 000FA8                       _CCPR1L 000FBE  
                     _CCPR2L 000FBB                       _EECON2 000FA7             ___awdiv@dividend 0013  
                     ?_putch 0001                       i2l3362 33A2                       i2l3372 33C2  
                     i2l3364 33B0                       i2l3374 33FA                       i2l3366 33B8  
                     i2l3376 33FE                       _TMR0IF 007F92                       _SPBRGH 000FB0  
               _write_eeprom 31C6     _motor_b_speed_read_value 00BF                ?_buttons_init 0001  
              ?_buttons_loop 0001                 vfprintf@cfmt 00F2                       ___omul 3264  
                  ??___aodiv 002F                    ??___aomod 0017                       ___wmul 37CC  
                  ??___awdiv 0017                    ??___awmod 000B          status_loop@half_led 0028  
                     _last_b 01EF                       clear_0 35F4                       clear_1 3606  
                     clear_2 3612                       clear_3 361E             ___awdiv@quotient 0019  
            ___awmod@divisor 0009                       isa$std 000001              ___awmod@counter 000B  
                     _printf 37A4                       pad@buf 001A                       dtoa@fp 0039  
                     fputc@c 0008                       fputs@c 0015                       fputs@i 0016  
                     fputs@s 0011         __end_of_config_micro 2F86                 __mediumconst 0000  
                     tblptrh 000FF7                       tblptrl 000FF6                       tblptru 000FF8  
           __end_of_vfprintf 3692          status_loop@show_led 0026                   __accesstop 0060  
    __end_of__initialization 3630             _status_next_mode 00C9                ___rparam_used 000001  
           _status_persisted 00CD               ??_buttons_init 0007               ??_buttons_loop 0007  
             __pcstackCOMRAM 0001                __end_of_fputc 3398                __end_of_fputs 36D6  
              __end_of_putch 3808                 status_init@i 0007                 status_loop@i 002A  
         buttons_loop@i_1323 0016                 ?_status_init 0001                 ?_status_loop 0001  
                    ??_fputc 000C                      ??_fputs 0015                      ??_putch 0007  
                 __pbssBANK0 0060                   __pbssBANK1 0100                   __pbssBANK2 0200  
                 __pbssBANK3 0300                _initial_state 0058                      ?___omul 0007  
                    ?___wmul 000D          ___omul@multiplicand 000F               _sum_iterations 01D0  
                    ?_printf 00F4             write_eeprom@addr 000B               _persisted_data 0300  
          _combination_state 0088            ??_status_set_mode 0009                      __Hparam 0000  
                    __Lparam 0000                      ___aodiv 2936                      ___aomod 2ABE  
                    ___awdiv 3052                      ___awmod 3116                    ?_vfprintf 00EC  
               __psmallconst 0800                      _b_state 00AE                      __pcinit 35EC  
                    __ramtop 0800                      __ptext0 3748                      __ptext1 258A  
                    __ptext2 123C                      __ptext3 3116                      __ptext4 3520  
                    __ptext5 2770                      __ptext6 3052                      __ptext7 1B5C  
          _status_final_mode 00C7                      __ptext8 31C6                      __ptext9 3716  
                  _T0CONbits 000FD5                    _T1CONbits 000FCD                      _counter 0060  
                  _T2CONbits 000FCA                   _int_status 00D0            __end_of_init_vars 3052  
           ___awmod@dividend 0007                   _iterations 01D8         __end_of_buttons_init 2E98  
       __end_of_buttons_loop 123C        buttons_loop@click_evt 0011               __pintcode_body 3398  
       end_of_initialization 3630               ___omul@product 0017                      fputc@fp 000A  
                    int_func 3398                      fputs@fp 0013                 read_analog@i 004B  
  status_set_mode@final_mode 0008                 _config_micro 2E98            __end_of_vfpfcnvrt 2D70  
           _triple_click_evt 01E0                    _RCSTAbits 000FAB                      postdec1 000FE5  
                    postdec2 000FDD                      postinc0 000FEE                      postinc1 000FE6  
                    postinc2 000FDE             vfpfcnvrt@convarg 00E2                   ??_vfprintf 0053  
   status_set_mode@next_mode 0007          status_set_mode@mode 0009                    _PORTBbits 000F81  
                  _PORTCbits 000F82                    _PORTDbits 000F83                    _TRISAbits 000F92  
                  _TRISBbits 000F93                    _TRISCbits 000F94                    _TRISDbits 000F95  
                  _TRISEbits 000F96                   _update_pwm 258A                  _CCP1CONbits 000FBD  
                _CCP2CONbits 000FBA                    _TXSTAbits 000FAC               __end_of___omul 3302  
                vfpfcnvrt@ap 004F                  vfpfcnvrt@cp 00EA                  vfpfcnvrt@fp 004B  
             __end_of___wmul 37F2                  _BAUDCONbits 000FB8             _single_click_evt 00A4  
             __end_of_printf 37CC          start_initialization 35EC                  __end_of_abs 3716  
                __end_of_enc 3426                  __end_of_pad 3520            ___omul@multiplier 0007  
             update_pwm@pwm0 001C               update_pwm@pwm1 001E                  vfprintf@fmt 00EE  
                   ??___omul 0017                     ??___wmul 0011                   init_vars@i 0009  
                   ??_printf 0053                ??_read_analog 0039                  __pbssCOMRAM 0053  
              ??_read_eeprom 0007              _status_set_mode 3716                __pcstackBANK0 00D1  
              __pcstackBANK1 01F4             ___aodiv@dividend 001F                  ?_update_pwm 0001  
              ??_read_values 0013                    _b_counter 0178                    _dtoa$1899 00D1  
           _double_click_evt 009F                 _buttons_init 2D70                 _buttons_loop 0842  
                  __pintcode 0008                     ?___aodiv 001F                     ?___aomod 0007  
                   ?___awdiv 0013             ___aodiv@quotient 0031                     ?___awmod 0007  
                  _flag_init 00C3                    _avg_input 01A0                  __smallconst 0800  
     status_loop@half_status 0024                 _mode_counter 0053                    _init_vars 2F86  
        __end_of_read_analog 2936          __end_of_read_eeprom 35EC               ___wmul@product 0011  
        __end_of_read_values 34A6                ?_write_eeprom 0001              read_eeprom@addr 000D  
                   i2u517_40 33B0                     i2u517_41 33AC                     i2u518_40 341A  
                   i2u518_41 3416                     _UCFGbits 000F6F                     _RCONbits 000FD0  
                   _UCONbits 000F6D                    _press_evt 01EA                    _vfpfcnvrt 2C22  
    __end_of_status_set_mode 3748                   _ADCON0bits 000FC2                   _ADCON1bits 000FC1  
                 _ADCON2bits 000FC0            ___wmul@multiplier 000D                   ?_init_vars 0001  
                _INTCON2bits 000FF1              loop@analog_read 00FA               ??_write_eeprom 0007  
                _count_reads 0092                   _EECON1bits 000FA6                     __Hrparam 0000  
                 vfprintf@ap 00F0                     __Lrparam 0000                   vfprintf@fp 00EC  
               __Lsmallconst 0800                   ?_vfpfcnvrt 004B              ___aodiv@divisor 0027  
            ___aodiv@counter 002F               read_analog@aux 0049                  _read_analog 2770  
                   _an_input 01B4                  _read_eeprom 3588                ??_status_init 0007  
              ??_status_loop 001B                     __ptext10 3426                     __ptext11 37CC  
                   __ptext20 37F2                     __ptext12 3588                     __ptext21 36D6  
                   __ptext13 37A4                     __ptext22 2ABE                     __ptext14 3642  
                   __ptext23 2936                     __ptext15 2C22                     __ptext24 3264  
                   __ptext16 2308                     __ptext25 2F86                     __ptext17 34A6  
                   __ptext26 3778                     __ptext18 3692                     __ptext27 2E98  
                   __ptext19 3302                     __ptext28 0842                     __ptext29 2D70  
                _read_values 3426                  _mode_config 00BB  _status_intermitency_counter 00CB  
          read_values@a_sign 0013            read_values@b_sign 0015               read_eeprom@aux 000B  
                   isa$xinst 000000                     int$flags 0059                     _vfprintf 3642  
                  printf@fmt 00F4                     _sum_read 0100             ?_status_set_mode 0007  
           ___aomod@dividend 0007                  _release_evt 01E5                    putch@data 0007  
                 _INTCONbits 000FF2                 ??_update_pwm 001B                  ??_init_vars 0007  
                   intlevel2 0000                _amount_cycles 01C8          __end_of_status_init 3588  
        __end_of_status_loop 1B5C                   _OSCCONbits 000FD3                     printf@ap 00F8  
         __end_of_update_pwm 2770                buttons_init@i 0009              ___aomod@divisor 000F  
                ??_vfpfcnvrt 0051                buttons_loop@i 0018              ___aomod@counter 0017  
       __end_of_write_eeprom 3264                 ___aodiv@sign 0030                 ___aomod@sign 0018  
              ?_config_micro 0001  
